ARM GAS  C:\Users\adrie\AppData\Local\Temp\ccgB8szF.s 			page 1


   1              		.cpu cortex-m4
   2              		.eabi_attribute 27, 1
   3              		.eabi_attribute 28, 1
   4              		.eabi_attribute 20, 1
   5              		.eabi_attribute 21, 1
   6              		.eabi_attribute 23, 3
   7              		.eabi_attribute 24, 1
   8              		.eabi_attribute 25, 1
   9              		.eabi_attribute 26, 1
  10              		.eabi_attribute 30, 2
  11              		.eabi_attribute 34, 1
  12              		.eabi_attribute 18, 4
  13              		.file	"audio_processing.c"
  14              		.text
  15              	.Ltext0:
  16              		.cfi_sections	.debug_frame
  17              		.section	.text.get_max_norm_index.part.0,"ax",%progbits
  18              		.align	1
  19              		.p2align 4,,15
  20              		.syntax unified
  21              		.thumb
  22              		.thumb_func
  23              		.fpu fpv4-sp-d16
  24              		.type	get_max_norm_index.part.0, %function
  25              	get_max_norm_index.part.0:
  26              	.LFB308:
  27              		.file 1 "audio_processing.c"
  28              		.loc 1 428 0
  29              		.cfi_startproc
  30              		@ args = 0, pretend = 0, frame = 8
  31              		@ frame_needed = 0, uses_anonymous_args = 0
  32              	.LVL0:
  33 0000 70B5     		push	{r4, r5, r6, lr}
  34              		.cfi_def_cfa_offset 16
  35              		.cfi_offset 4, -16
  36              		.cfi_offset 5, -12
  37              		.cfi_offset 6, -8
  38              		.cfi_offset 14, -4
  39 0002 2A4E     		ldr	r6, .L24
  40 0004 82B0     		sub	sp, sp, #8
  41              		.cfi_def_cfa_offset 24
  42              		.loc 1 428 0
  43 0006 3368     		ldr	r3, [r6]
  44 0008 0193     		str	r3, [sp, #4]
  45              		.loc 1 436 0
  46 000a 0629     		cmp	r1, #6
  47 000c 2BD0     		beq	.L21
  48              		.loc 1 439 0
  49 000e 0729     		cmp	r1, #7
  50 0010 08D0     		beq	.L22
  51              	.LVL1:
  52              	.LBB147:
  53              		.loc 1 444 0
  54 0012 0023     		movs	r3, #0
  55 0014 C0E90033 		strd	r3, r3, [r0]
  56              	.LVL2:
  57              	.L1:
ARM GAS  C:\Users\adrie\AppData\Local\Temp\ccgB8szF.s 			page 2


  58              	.LBE147:
  59              		.loc 1 446 0
  60 0018 019A     		ldr	r2, [sp, #4]
  61 001a 3368     		ldr	r3, [r6]
  62 001c 9A42     		cmp	r2, r3
  63 001e 43D1     		bne	.L23
  64 0020 02B0     		add	sp, sp, #8
  65              		.cfi_remember_state
  66              		.cfi_def_cfa_offset 16
  67              		@ sp needed
  68 0022 70BD     		pop	{r4, r5, r6, pc}
  69              	.LVL3:
  70              	.L22:
  71              		.cfi_restore_state
  72 0024 224A     		ldr	r2, .L24+4
  73              	.LBB148:
  74              	.LBB149:
  75              		.loc 1 406 0
  76 0026 9FED237A 		vldr.32	s14, .L24+8
  77              		.loc 1 407 0
  78 002a 4FF0FF31 		mov	r1, #-1
  79              	.LVL4:
  80              	.LBB150:
  81              		.loc 1 412 0
  82 002e 0A23     		movs	r3, #10
  83 0030 40F60104 		movw	r4, #2049
  84              	.L10:
  85              	.LVL5:
  86              		.loc 1 413 0
  87 0034 F2EC017A 		vldmia.32	r2!, {s15}
  88 0038 F4EEC77A 		vcmpe.f32	s15, s14
  89 003c F1EE10FA 		vmrs	APSR_nzcv, FPSCR
  90 0040 08DD     		ble	.L8
  91 0042 A3F13305 		sub	r5, r3, #51
  92 0046 B5F56D7F 		cmp	r5, #948
  93 004a 98BF     		it	ls
  94 004c 1946     		movls	r1, r3
  95              	.LVL6:
  96 004e 98BF     		it	ls
  97 0050 B0EE677A 		vmovls.f32	s14, s15
  98              	.LVL7:
  99              	.L8:
 100              		.loc 1 412 0
 101 0054 0133     		adds	r3, r3, #1
 102              	.LVL8:
 103 0056 A342     		cmp	r3, r4
 104 0058 ECD1     		bne	.L10
 105              	.LVL9:
 106              	.LBE150:
 107              		.loc 1 418 0
 108 005a BDEEC77A 		vcvt.s32.f32	s14, s14
 109              	.LVL10:
 110              		.loc 1 420 0
 111 005e 4160     		str	r1, [r0, #4]
 112              	.LVL11:
 113              		.loc 1 418 0
 114 0060 80ED007A 		vstr.32	s14, [r0]	@ int
ARM GAS  C:\Users\adrie\AppData\Local\Temp\ccgB8szF.s 			page 3


 115 0064 D8E7     		b	.L1
 116              	.LVL12:
 117              	.L21:
 118 0066 144A     		ldr	r2, .L24+12
 119              	.LBE149:
 120              	.LBE148:
 121              	.LBB152:
 122              	.LBB153:
 123              		.loc 1 406 0
 124 0068 9FED127A 		vldr.32	s14, .L24+8
 125              		.loc 1 407 0
 126 006c 4FF0FF31 		mov	r1, #-1
 127              	.LVL13:
 128              	.LBB154:
 129              		.loc 1 412 0
 130 0070 0A23     		movs	r3, #10
 131 0072 40F60104 		movw	r4, #2049
 132              	.L5:
 133              	.LVL14:
 134              		.loc 1 413 0
 135 0076 F2EC017A 		vldmia.32	r2!, {s15}
 136 007a F4EEC77A 		vcmpe.f32	s15, s14
 137 007e F1EE10FA 		vmrs	APSR_nzcv, FPSCR
 138 0082 08DD     		ble	.L3
 139 0084 A3F13305 		sub	r5, r3, #51
 140 0088 B5F56D7F 		cmp	r5, #948
 141 008c 98BF     		it	ls
 142 008e 1946     		movls	r1, r3
 143              	.LVL15:
 144 0090 98BF     		it	ls
 145 0092 B0EE677A 		vmovls.f32	s14, s15
 146              	.LVL16:
 147              	.L3:
 148              		.loc 1 412 0
 149 0096 0133     		adds	r3, r3, #1
 150              	.LVL17:
 151 0098 A342     		cmp	r3, r4
 152 009a ECD1     		bne	.L5
 153              	.LVL18:
 154              	.LBE154:
 155              	.LBE153:
 156              	.LBE152:
 157              	.LBB155:
 158              	.LBB151:
 159              		.loc 1 418 0
 160 009c BDEEC77A 		vcvt.s32.f32	s14, s14
 161              	.LVL19:
 162              		.loc 1 420 0
 163 00a0 4160     		str	r1, [r0, #4]
 164              	.LVL20:
 165              		.loc 1 418 0
 166 00a2 80ED007A 		vstr.32	s14, [r0]	@ int
 167 00a6 B7E7     		b	.L1
 168              	.LVL21:
 169              	.L23:
 170              	.LBE151:
 171              	.LBE155:
ARM GAS  C:\Users\adrie\AppData\Local\Temp\ccgB8szF.s 			page 4


 172              		.loc 1 446 0
 173 00a8 FFF7FEFF 		bl	__stack_chk_fail
 174              	.LVL22:
 175              	.L25:
 176              		.align	2
 177              	.L24:
 178 00ac 00000000 		.word	__stack_chk_guard
 179 00b0 28000000 		.word	micBack_output+40
 180 00b4 0000C842 		.word	1120403456
 181 00b8 28000000 		.word	micFront_output+40
 182              		.cfi_endproc
 183              	.LFE308:
 184              		.size	get_max_norm_index.part.0, .-get_max_norm_index.part.0
 185              		.global	__aeabi_i2d
 186              		.global	__aeabi_dmul
 187              		.global	__aeabi_ddiv
 188              		.global	__aeabi_dcmpun
 189              		.global	__aeabi_dcmpge
 190              		.global	__aeabi_dadd
 191              		.global	__aeabi_d2f
 192              		.section	.text.PiRegulator,"ax",%progbits
 193              		.align	1
 194              		.p2align 4,,15
 195              		.syntax unified
 196              		.thumb
 197              		.thumb_func
 198              		.fpu fpv4-sp-d16
 199              		.type	PiRegulator, %function
 200              	PiRegulator:
 201              	.LFB306:
 202              		.loc 1 640 0
 203              		.cfi_startproc
 204              		@ args = 0, pretend = 0, frame = 8
 205              		@ frame_needed = 0, uses_anonymous_args = 0
 206              	.LVL23:
 207 0000 2DE9F04F 		push	{r4, r5, r6, r7, r8, r9, r10, fp, lr}
 208              		.cfi_def_cfa_offset 36
 209              		.cfi_offset 4, -36
 210              		.cfi_offset 5, -32
 211              		.cfi_offset 6, -28
 212              		.cfi_offset 7, -24
 213              		.cfi_offset 8, -20
 214              		.cfi_offset 9, -16
 215              		.cfi_offset 10, -12
 216              		.cfi_offset 11, -8
 217              		.cfi_offset 14, -4
 218 0004 2DED028B 		vpush.64	{d8}
 219              		.cfi_def_cfa_offset 44
 220              		.cfi_offset 80, -44
 221              		.cfi_offset 81, -40
 222              	.LBB193:
 223              	.LBB194:
 224              		.file 2 "../lib/e-puck2_main-processor/ChibiOS//os/rt/include/chregistry.h"
 225              		.loc 2 135 0
 226 0008 DFF87CA2 		ldr	r10, .L49+64
 227              	.LBE194:
 228              	.LBE193:
ARM GAS  C:\Users\adrie\AppData\Local\Temp\ccgB8szF.s 			page 5


 229              		.loc 1 640 0
 230 000c 904B     		ldr	r3, .L49+8
 231              	.LBB197:
 232              	.LBB195:
 233              		.loc 2 135 0
 234 000e DAF81820 		ldr	r2, [r10, #24]
 235 0012 9049     		ldr	r1, .L49+12
 236              	.LBE195:
 237              	.LBE197:
 238              		.loc 1 640 0
 239 0014 1B68     		ldr	r3, [r3]
 240 0016 904D     		ldr	r5, .L49+16
 241              	.LBB198:
 242              	.LBB199:
 243              	.LBB200:
 244              		.loc 1 389 0
 245 0018 904F     		ldr	r7, .L49+20
 246              	.LBE200:
 247              	.LBE199:
 248              		.loc 1 663 0
 249 001a DFED918A 		vldr.32	s17, .L49+24
 250 001e 9FED918A 		vldr.32	s16, .L49+28
 251              	.LBE198:
 252              	.LBB278:
 253              	.LBB196:
 254              		.loc 2 135 0
 255 0022 9161     		str	r1, [r2, #24]
 256              	.LBE196:
 257              	.LBE278:
 258              		.loc 1 640 0
 259 0024 83B0     		sub	sp, sp, #12
 260              		.cfi_def_cfa_offset 56
 261              		.loc 1 651 0
 262 0026 0026     		movs	r6, #0
 263              		.loc 1 640 0
 264 0028 0193     		str	r3, [sp, #4]
 265              	.LVL24:
 266 002a 71E0     		b	.L40
 267              	.LVL25:
 268              	.L48:
 269              	.LBB279:
 270              		.loc 1 662 0 discriminator 1
 271 002c 7EB9     		cbnz	r6, .L30
 272              		.loc 1 663 0
 273 002e 4FEA8B03 		lsl	r3, fp, #2
 274 0032 07EE903A 		vmov	s15, r3	@ int
 275 0036 F8EEE77A 		vcvt.f32.s32	s15, s15
 276 003a 67EEA87A 		vmul.f32	s15, s15, s17
 277 003e 67EE887A 		vmul.f32	s15, s15, s16
 278 0042 67EE887A 		vmul.f32	s15, s15, s16
 279 0046 FDEEE77A 		vcvt.s32.f32	s15, s15
 280 004a 17EE906A 		vmov	r6, s15	@ int
 281              	.LVL26:
 282              	.L30:
 283 004e 3046     		mov	r0, r6
 284 0050 FFF7FEFF 		bl	__aeabi_i2d
 285              	.LVL27:
ARM GAS  C:\Users\adrie\AppData\Local\Temp\ccgB8szF.s 			page 6


 286 0054 4246     		mov	r2, r8
 287 0056 4B46     		mov	r3, r9
 288 0058 FFF7FEFF 		bl	__aeabi_ddiv
 289              	.LVL28:
 290              		.loc 1 668 0
 291 005c 002E     		cmp	r6, #0
 292 005e 8046     		mov	r8, r0
 293 0060 8946     		mov	r9, r1
 294 0062 00F3C980 		bgt	.L47
 295              	.LVL29:
 296              	.L31:
 297              	.LBB210:
 298              	.LBB211:
 299              		.loc 1 267 0
 300 0066 49EC108B 		vmov	d0, r8, r9
 301 006a FFF7FEFF 		bl	sqrt
 302              	.LVL30:
 303 006e 53EC102B 		vmov	r2, r3, d0
 304              	.LVL31:
 305              		.loc 1 269 0
 306 0072 10EE100A 		vmov	r0, s0	@ int
 307 0076 1946     		mov	r1, r3
 308 0078 FFF7FEFF 		bl	__aeabi_dadd
 309              	.LVL32:
 310              	.LBE211:
 311              	.LBE210:
 312              		.loc 1 675 0
 313 007c FFF7FEFF 		bl	__aeabi_d2f
 314              	.LVL33:
 315 0080 07EE900A 		vmov	s15, r0
 316              	.LVL34:
 317              	.LBB212:
 318              	.LBB213:
 319              		.loc 1 611 0
 320 0084 F5EE407A 		vcmp.f32	s15, #0
 321 0088 F1EE10FA 		vmrs	APSR_nzcv, FPSCR
 322 008c 00F0B180 		beq	.L43
 323              		.loc 1 612 0
 324 0090 77EEC87A 		vsub.f32	s15, s15, s16
 325              	.LVL35:
 326              		.loc 1 621 0
 327 0094 9FED747A 		vldr.32	s14, .L49+32
 328 0098 F0EEE76A 		vabs.f32	s13, s15
 329 009c F4EEC76A 		vcmpe.f32	s13, s14
 330 00a0 F1EE10FA 		vmrs	APSR_nzcv, FPSCR
 331 00a4 00F1A580 		bmi	.L43
 332              		.loc 1 625 0
 333 00a8 704B     		ldr	r3, .L49+36
 334              		.loc 1 628 0
 335 00aa DFED716A 		vldr.32	s13, .L49+40
 336              		.loc 1 625 0
 337 00ae 93ED007A 		vldr.32	s14, [r3]
 338 00b2 37EE877A 		vadd.f32	s14, s15, s14
 339              		.loc 1 628 0
 340 00b6 B4EEE67A 		vcmpe.f32	s14, s13
 341 00ba F1EE10FA 		vmrs	APSR_nzcv, FPSCR
 342 00be 40F3B480 		ble	.L45
ARM GAS  C:\Users\adrie\AppData\Local\Temp\ccgB8szF.s 			page 7


 343              		.loc 1 629 0
 344 00c2 C3ED006A 		vstr.32	s13, [r3]
 345              	.L35:
 346              	.LVL36:
 347              		.loc 1 634 0
 348 00c6 9FED6B7A 		vldr.32	s14, .L49+44
 349 00ca 67EE877A 		vmul.f32	s15, s15, s14
 350              	.LVL37:
 351              		.loc 1 636 0
 352 00ce FDEEE77A 		vcvt.s32.f32	s15, s15
 353              	.LVL38:
 354 00d2 17EE903A 		vmov	r3, s15	@ int
 355 00d6 0FFA83F9 		sxth	r9, r3
 356              	.LVL39:
 357              	.L32:
 358              	.LBE213:
 359              	.LBE212:
 360              	.LBB216:
 361              	.LBB217:
 362              		.loc 1 595 0
 363 00da 674B     		ldr	r3, .L49+48
 364 00dc 1B68     		ldr	r3, [r3]
 365              	.LBE217:
 366              	.LBE216:
 367              		.loc 1 682 0
 368 00de B42B     		cmp	r3, #180
 369              		.loc 1 683 0
 370 00e0 C8BF     		it	gt
 371 00e2 A3F5B473 		subgt	r3, r3, #360
 372              	.LVL40:
 373              		.loc 1 698 0
 374 00e6 BBF57A7F 		cmp	fp, #1000
 375 00ea 7BDD     		ble	.L38
 376              		.loc 1 701 0
 377 00ec 4FF6FB70 		movw	r0, #65531
 378 00f0 10FB0390 		smlabb	r0, r0, r3, r9
 379 00f4 0FFA83F8 		sxth	r8, r3
 380 00f8 FFF7FEFF 		bl	right_motor_set_speed
 381              	.LVL41:
 382              		.loc 1 702 0
 383 00fc 0520     		movs	r0, #5
 384 00fe 08FB0090 		mla	r0, r8, r0, r9
 385 0102 FFF7FEFF 		bl	left_motor_set_speed
 386              	.LVL42:
 387              	.L39:
 388              		.loc 1 711 0
 389 0106 04F10A01 		add	r1, r4, #10
 390 010a 2046     		mov	r0, r4
 391 010c FFF7FEFF 		bl	chThdSleepUntilWindowed
 392              	.LVL43:
 393              	.L40:
 394              	.LBB218:
 395              	.LBB219:
 396              	.LBB220:
 397              	.LBB221:
 398              	.LBB222:
 399              	.LBB223:
ARM GAS  C:\Users\adrie\AppData\Local\Temp\ccgB8szF.s 			page 8


 400              	.LBB224:
 401              		.file 3 "../lib/e-puck2_main-processor/ChibiOS//os/ext/CMSIS/include/core_cmFunc.h"
 402              		.loc 3 546 0
 403 0110 2023     		movs	r3, #32
 404              		.syntax unified
 405              	@ 546 "../lib/e-puck2_main-processor/ChibiOS//os/ext/CMSIS/include/core_cmFunc.h" 1
 406 0112 83F31188 		MSR basepri, r3
 407              	@ 0 "" 2
 408              	.LVL44:
 409              		.thumb
 410              		.syntax unified
 411              	.LBE224:
 412              	.LBE223:
 413              	.LBE222:
 414              		.file 4 "../lib/e-puck2_main-processor/ChibiOS//os/rt/include/chsys.h"
 415              		.loc 4 349 0
 416 0116 FFF7FEFF 		bl	_stats_start_measure_crit_thd
 417              	.LVL45:
 418              		.loc 4 350 0
 419 011a FFF7FEFF 		bl	_dbg_check_lock
 420              	.LVL46:
 421              	.LBE221:
 422              	.LBE220:
 423              	.LBB225:
 424              	.LBB226:
 425              		.file 5 "../lib/e-puck2_main-processor/ChibiOS//os/rt/include/chvt.h"
 426              		.loc 5 231 0
 427 011e DAF82840 		ldr	r4, [r10, #40]
 428              	.LBE226:
 429              	.LBE225:
 430              	.LBB227:
 431              	.LBB228:
 432              		.loc 4 360 0
 433 0122 FFF7FEFF 		bl	_dbg_check_unlock
 434              	.LVL47:
 435              		.loc 4 361 0
 436 0126 FFF7FEFF 		bl	_stats_stop_measure_crit_thd
 437              	.LVL48:
 438              		.loc 4 367 0
 439 012a DAF80030 		ldr	r3, [r10]
 440 012e 5345     		cmp	r3, r10
 441 0130 08D0     		beq	.L27
 442 0132 DAF81820 		ldr	r2, [r10, #24]
 443 0136 9B68     		ldr	r3, [r3, #8]
 444 0138 9268     		ldr	r2, [r2, #8]
 445 013a 9A42     		cmp	r2, r3
 446 013c 02D2     		bcs	.L27
 447 013e 4F48     		ldr	r0, .L49+52
 448 0140 FFF7FEFF 		bl	chSysHalt
 449              	.LVL49:
 450              	.L27:
 451              	.LBB229:
 452              	.LBB230:
 453              	.LBB231:
 454              		.loc 3 546 0
 455 0144 0023     		movs	r3, #0
 456              		.syntax unified
ARM GAS  C:\Users\adrie\AppData\Local\Temp\ccgB8szF.s 			page 9


 457              	@ 546 "../lib/e-puck2_main-processor/ChibiOS//os/ext/CMSIS/include/core_cmFunc.h" 1
 458 0146 83F31188 		MSR basepri, r3
 459              	@ 0 "" 2
 460              	.LVL50:
 461              		.thumb
 462              		.syntax unified
 463              	.LBE231:
 464              	.LBE230:
 465              	.LBE229:
 466              	.LBE228:
 467              	.LBE227:
 468              	.LBE219:
 469              	.LBE218:
 470              	.LBB232:
 471              	.LBB233:
 472              	.LBB234:
 473              		.loc 1 386 0
 474 014a D5E90620 		ldrd	r2, r0, [r5, #24]
 475              	.LBE234:
 476              	.LBE233:
 477              	.LBE232:
 478              	.LBB243:
 479              	.LBB205:
 480              	.LBB201:
 481 014e D5E90031 		ldrd	r3, r1, [r5]
 482              	.LBE201:
 483              	.LBE205:
 484              	.LBE243:
 485              	.LBB244:
 486              	.LBB238:
 487              	.LBB235:
 488 0152 0244     		add	r2, r2, r0
 489              	.LVL51:
 490              	.LBE235:
 491              	.LBE238:
 492              	.LBE244:
 493              	.LBB245:
 494              	.LBB206:
 495              	.LBB202:
 496 0154 0B44     		add	r3, r3, r1
 497              	.LVL52:
 498              	.LBE202:
 499              	.LBE206:
 500              	.LBE245:
 501              	.LBB246:
 502              	.LBB239:
 503              	.LBB236:
 504 0156 286A     		ldr	r0, [r5, #32]
 505              	.LBE236:
 506              	.LBE239:
 507              	.LBE246:
 508              	.LBB247:
 509              	.LBB207:
 510              	.LBB203:
 511 0158 A968     		ldr	r1, [r5, #8]
 512              	.LBE203:
 513              	.LBE207:
ARM GAS  C:\Users\adrie\AppData\Local\Temp\ccgB8szF.s 			page 10


 514              	.LBE247:
 515              	.LBB248:
 516              	.LBB240:
 517              	.LBB237:
 518 015a 0244     		add	r2, r2, r0
 519              	.LBE237:
 520              	.LBE240:
 521              	.LBE248:
 522              	.LBB249:
 523              	.LBB208:
 524              	.LBB204:
 525 015c 1944     		add	r1, r1, r3
 526              	.LBE204:
 527              	.LBE208:
 528              	.LBE249:
 529              	.LBB250:
 530              	.LBB251:
 531              	.LBB252:
 532 015e D5E90930 		ldrd	r3, r0, [r5, #36]
 533 0162 03EB000C 		add	ip, r3, r0
 534              	.LVL53:
 535              	.LBE252:
 536              	.LBE251:
 537              	.LBE250:
 538              	.LBB258:
 539              	.LBB241:
 540              		.loc 1 389 0
 541 0166 87FB023B 		smull	r3, fp, r7, r2
 542              	.LBE241:
 543              	.LBE258:
 544              	.LBB259:
 545              	.LBB255:
 546              	.LBB253:
 547              		.loc 1 386 0
 548 016a EB6A     		ldr	r3, [r5, #44]
 549              	.LBE253:
 550              	.LBE255:
 551              	.LBE259:
 552              	.LBB260:
 553              	.LBB242:
 554              		.loc 1 389 0
 555 016c ABEBE27B 		sub	fp, fp, r2, asr #31
 556              	.LBE242:
 557              	.LBE260:
 558              	.LBB261:
 559              	.LBB256:
 560              	.LBB254:
 561              		.loc 1 386 0
 562 0170 9C44     		add	ip, ip, r3
 563              	.LBE254:
 564              	.LBE256:
 565              	.LBE261:
 566              	.LBB262:
 567              	.LBB209:
 568              		.loc 1 389 0
 569 0172 87FB0123 		smull	r2, r3, r7, r1
 570 0176 A3EBE173 		sub	r3, r3, r1, asr #31
ARM GAS  C:\Users\adrie\AppData\Local\Temp\ccgB8szF.s 			page 11


 571              	.LBE209:
 572              	.LBE262:
 573              	.LBB263:
 574              	.LBB264:
 575              	.LBB265:
 576              		.loc 1 386 0
 577 017a D5E90312 		ldrd	r1, r2, [r5, #12]
 578 017e 0A44     		add	r2, r2, r1
 579              	.LVL54:
 580 0180 6969     		ldr	r1, [r5, #20]
 581              	.LBE265:
 582              	.LBE264:
 583              	.LBE263:
 584              		.loc 1 660 0
 585 0182 5B44     		add	r3, r3, fp
 586              	.LBB270:
 587              	.LBB267:
 588              	.LBB266:
 589              		.loc 1 386 0
 590 0184 0A44     		add	r2, r2, r1
 591              	.LBE266:
 592              	.LBE267:
 593              	.LBE270:
 594              	.LBB271:
 595              	.LBB257:
 596              		.loc 1 389 0
 597 0186 87FB0C1B 		smull	r1, fp, r7, ip
 598 018a ABEBEC7B 		sub	fp, fp, ip, asr #31
 599              	.LBE257:
 600              	.LBE271:
 601              	.LBB272:
 602              	.LBB268:
 603 018e 87FB0201 		smull	r0, r1, r7, r2
 604              	.LBE268:
 605              	.LBE272:
 606              		.loc 1 660 0
 607 0192 9B44     		add	fp, fp, r3
 608              	.LBB273:
 609              	.LBB269:
 610              		.loc 1 389 0
 611 0194 A1EBE272 		sub	r2, r1, r2, asr #31
 612              	.LBE269:
 613              	.LBE273:
 614              		.loc 1 660 0
 615 0198 1BEB020B 		adds	fp, fp, r2
 616 019c 48BF     		it	mi
 617 019e 0BF1030B 		addmi	fp, fp, #3
 618 01a2 4FEAAB0B 		asr	fp, fp, #2
 619              	.LVL55:
 620 01a6 5846     		mov	r0, fp
 621 01a8 FFF7FEFF 		bl	__aeabi_i2d
 622              	.LVL56:
 623 01ac 0022     		movs	r2, #0
 624 01ae 344B     		ldr	r3, .L49+56
 625 01b0 FFF7FEFF 		bl	__aeabi_dmul
 626              	.LVL57:
 627 01b4 24A3     		adr	r3, .L49
ARM GAS  C:\Users\adrie\AppData\Local\Temp\ccgB8szF.s 			page 12


 628 01b6 D3E90023 		ldrd	r2, [r3]
 629 01ba FFF7FEFF 		bl	__aeabi_dmul
 630              	.LVL58:
 631              		.loc 1 662 0
 632 01be 44F62063 		movw	r3, #20000
 633 01c2 9B45     		cmp	fp, r3
 634 01c4 8046     		mov	r8, r0
 635 01c6 8946     		mov	r9, r1
 636 01c8 3FF730AF 		bgt	.L48
 637              		.loc 1 664 0
 638 01cc 3FF43FAF 		beq	.L30
 639 01d0 0246     		mov	r2, r0
 640 01d2 0B46     		mov	r3, r1
 641 01d4 0020     		movs	r0, #0
 642 01d6 0021     		movs	r1, #0
 643 01d8 FFF7FEFF 		bl	__aeabi_ddiv
 644              	.LVL59:
 645              		.loc 1 665 0
 646 01dc 0026     		movs	r6, #0
 647              	.LVL60:
 648 01de 8046     		mov	r8, r0
 649 01e0 8946     		mov	r9, r1
 650 01e2 40E7     		b	.L31
 651              	.LVL61:
 652              	.L38:
 653              		.loc 1 706 0
 654 01e4 0020     		movs	r0, #0
 655 01e6 FFF7FEFF 		bl	left_motor_set_speed
 656              	.LVL62:
 657              		.loc 1 707 0
 658 01ea 0020     		movs	r0, #0
 659 01ec FFF7FEFF 		bl	right_motor_set_speed
 660              	.LVL63:
 661 01f0 89E7     		b	.L39
 662              	.LVL64:
 663              	.L43:
 664              	.LBB274:
 665              	.LBB214:
 666              		.loc 1 622 0
 667 01f2 4FF00009 		mov	r9, #0
 668 01f6 70E7     		b	.L32
 669              	.LVL65:
 670              	.L47:
 671 01f8 0022     		movs	r2, #0
 672 01fa 0023     		movs	r3, #0
 673 01fc FFF7FEFF 		bl	__aeabi_dcmpun
 674              	.LVL66:
 675 0200 0028     		cmp	r0, #0
 676 0202 7FF430AF 		bne	.L31
 677 0206 0022     		movs	r2, #0
 678 0208 0023     		movs	r3, #0
 679 020a 4046     		mov	r0, r8
 680 020c 4946     		mov	r1, r9
 681 020e FFF7FEFF 		bl	__aeabi_dcmpge
 682              	.LVL67:
 683 0212 0028     		cmp	r0, #0
 684 0214 7FF427AF 		bne	.L31
ARM GAS  C:\Users\adrie\AppData\Local\Temp\ccgB8szF.s 			page 13


 685              	.LBE214:
 686              	.LBE274:
 687              		.loc 1 669 0
 688 0218 49EC108B 		vmov	d0, r8, r9
 689 021c FFF7FEFF 		bl	sqrt
 690              	.LVL68:
 691              	.LBB275:
 692              	.LBB276:
 693              		.loc 1 267 0
 694 0220 49EC108B 		vmov	d0, r8, r9
 695 0224 FFF7FEFF 		bl	sqrt
 696              	.LVL69:
 697 0228 1DE7     		b	.L31
 698              	.LVL70:
 699              	.L45:
 700              	.LBE276:
 701              	.LBE275:
 702              	.LBB277:
 703              	.LBB215:
 704              		.loc 1 630 0
 705 022a DFED166A 		vldr.32	s13, .L49+60
 706              		.loc 1 625 0
 707 022e 0F4B     		ldr	r3, .L49+36
 708 0230 B4EEE67A 		vcmpe.f32	s14, s13
 709 0234 F1EE10FA 		vmrs	APSR_nzcv, FPSCR
 710 0238 48BF     		it	mi
 711 023a B0EE667A 		vmovmi.f32	s14, s13
 712 023e 83ED007A 		vstr.32	s14, [r3]
 713 0242 40E7     		b	.L35
 714              	.L50:
 715 0244 AFF30080 		.align	3
 716              	.L49:
 717 0248 000000C0 		.word	-1073741824
 718 024c CA210940 		.word	1074340298
 719 0250 00000000 		.word	__stack_chk_guard
 720 0254 00000000 		.word	.LANCHOR0
 721 0258 00000000 		.word	.LANCHOR2
 722 025c 56555555 		.word	1431655766
 723 0260 DB0F4940 		.word	1078530011
 724 0264 295C8F3D 		.word	1032805417
 725 0268 0AD7233C 		.word	1008981770
 726 026c 00000000 		.word	.LANCHOR3
 727 0270 92249D43 		.word	1134371986
 728 0274 0000FA45 		.word	1174011904
 729 0278 00000000 		.word	.LANCHOR4
 730 027c 00000000 		.word	.LANCHOR1
 731 0280 00001040 		.word	1074790400
 732 0284 92249DC3 		.word	-1013111662
 733 0288 00000000 		.word	ch
 734              	.LBE215:
 735              	.LBE277:
 736              	.LBE279:
 737              		.cfi_endproc
 738              	.LFE306:
 739              		.size	PiRegulator, .-PiRegulator
 740              		.section	.text.sound_remote,"ax",%progbits
 741              		.align	1
ARM GAS  C:\Users\adrie\AppData\Local\Temp\ccgB8szF.s 			page 14


 742              		.p2align 4,,15
 743              		.global	sound_remote
 744              		.syntax unified
 745              		.thumb
 746              		.thumb_func
 747              		.fpu fpv4-sp-d16
 748              		.type	sound_remote, %function
 749              	sound_remote:
 750              	.LFB290:
 751              		.loc 1 85 0
 752              		.cfi_startproc
 753              		@ args = 0, pretend = 0, frame = 8
 754              		@ frame_needed = 0, uses_anonymous_args = 0
 755              	.LVL71:
 756 0000 10B5     		push	{r4, lr}
 757              		.cfi_def_cfa_offset 8
 758              		.cfi_offset 4, -8
 759              		.cfi_offset 14, -4
 760 0002 2C4C     		ldr	r4, .L76
 761              		.loc 1 86 0
 762 0004 9FED2C7A 		vldr.32	s14, .L76+4
 763              		.loc 1 85 0
 764 0008 2368     		ldr	r3, [r4]
 765 000a 82B0     		sub	sp, sp, #8
 766              		.cfi_def_cfa_offset 16
 767 000c 2830     		adds	r0, r0, #40
 768              	.LVL72:
 769              		.loc 1 85 0
 770 000e 0193     		str	r3, [sp, #4]
 771              	.LVL73:
 772              		.loc 1 87 0
 773 0010 4FF0FF31 		mov	r1, #-1
 774              		.loc 1 85 0
 775 0014 0A23     		movs	r3, #10
 776              	.LBB280:
 777              		.loc 1 90 0
 778 0016 40F60102 		movw	r2, #2049
 779              	.LVL74:
 780              	.L54:
 781              		.loc 1 91 0
 782 001a F0EC017A 		vldmia.32	r0!, {s15}
 783 001e F4EEC77A 		vcmpe.f32	s15, s14
 784 0022 F1EE10FA 		vmrs	APSR_nzcv, FPSCR
 785              	.LVL75:
 786              		.loc 1 93 0
 787 0026 C8BF     		it	gt
 788 0028 19B2     		sxthgt	r1, r3
 789              	.LVL76:
 790 002a 03F10103 		add	r3, r3, #1
 791              	.LVL77:
 792              		.loc 1 92 0
 793 002e C8BF     		it	gt
 794 0030 B0EE677A 		vmovgt.f32	s14, s15
 795              	.LVL78:
 796              		.loc 1 90 0
 797 0034 9342     		cmp	r3, r2
 798 0036 F0D1     		bne	.L54
ARM GAS  C:\Users\adrie\AppData\Local\Temp\ccgB8szF.s 			page 15


 799              	.LBE280:
 800              		.loc 1 99 0
 801 0038 89B2     		uxth	r1, r1
 802 003a A1F10F03 		sub	r3, r1, #15
 803 003e 022B     		cmp	r3, #2
 804 0040 24D9     		bls	.L72
 805              		.loc 1 104 0
 806 0042 A1F11203 		sub	r3, r1, #18
 807 0046 022B     		cmp	r3, #2
 808 0048 11D9     		bls	.L73
 809              		.loc 1 109 0
 810 004a A1F11603 		sub	r3, r1, #22
 811 004e 022B     		cmp	r3, #2
 812 0050 2CD9     		bls	.L74
 813              		.loc 1 114 0
 814 0052 1939     		subs	r1, r1, #25
 815 0054 0229     		cmp	r1, #2
 816 0056 1CD9     		bls	.L75
 817              		.loc 1 119 0
 818 0058 0020     		movs	r0, #0
 819 005a FFF7FEFF 		bl	left_motor_set_speed
 820              	.LVL79:
 821              		.loc 1 120 0
 822 005e 019A     		ldr	r2, [sp, #4]
 823 0060 2368     		ldr	r3, [r4]
 824 0062 9A42     		cmp	r2, r3
 825 0064 08BF     		it	eq
 826 0066 0020     		moveq	r0, #0
 827 0068 0BD0     		beq	.L68
 828              	.L69:
 829 006a FFF7FEFF 		bl	__stack_chk_fail
 830              	.LVL80:
 831              	.L73:
 832              		.loc 1 105 0
 833 006e 1348     		ldr	r0, .L76+8
 834              	.L70:
 835 0070 FFF7FEFF 		bl	left_motor_set_speed
 836              	.LVL81:
 837              		.loc 1 106 0
 838 0074 019A     		ldr	r2, [sp, #4]
 839 0076 2368     		ldr	r3, [r4]
 840 0078 9A42     		cmp	r2, r3
 841 007a 08BF     		it	eq
 842 007c 4FF41670 		moveq	r0, #600
 843 0080 F3D1     		bne	.L69
 844              	.L68:
 845              		.loc 1 123 0
 846 0082 02B0     		add	sp, sp, #8
 847              		.cfi_remember_state
 848              		.cfi_def_cfa_offset 8
 849              		@ sp needed
 850 0084 BDE81040 		pop	{r4, lr}
 851              		.cfi_restore 14
 852              		.cfi_restore 4
 853              		.cfi_def_cfa_offset 0
 854              		.loc 1 120 0
 855 0088 FFF7FEBF 		b	right_motor_set_speed
ARM GAS  C:\Users\adrie\AppData\Local\Temp\ccgB8szF.s 			page 16


 856              	.LVL82:
 857              	.L72:
 858              		.cfi_restore_state
 859              		.loc 1 100 0
 860 008c 4FF41670 		mov	r0, #600
 861 0090 EEE7     		b	.L70
 862              	.L75:
 863              		.loc 1 115 0
 864 0092 0A48     		ldr	r0, .L76+8
 865              	.L71:
 866 0094 FFF7FEFF 		bl	left_motor_set_speed
 867              	.LVL83:
 868              		.loc 1 116 0
 869 0098 019A     		ldr	r2, [sp, #4]
 870 009a 2368     		ldr	r3, [r4]
 871 009c 9A42     		cmp	r2, r3
 872 009e E4D1     		bne	.L69
 873 00a0 0648     		ldr	r0, .L76+8
 874              		.loc 1 123 0
 875 00a2 02B0     		add	sp, sp, #8
 876              		.cfi_remember_state
 877              		.cfi_def_cfa_offset 8
 878              		@ sp needed
 879 00a4 BDE81040 		pop	{r4, lr}
 880              		.cfi_restore 14
 881              		.cfi_restore 4
 882              		.cfi_def_cfa_offset 0
 883              		.loc 1 120 0
 884 00a8 FFF7FEBF 		b	right_motor_set_speed
 885              	.LVL84:
 886              	.L74:
 887              		.cfi_restore_state
 888              		.loc 1 110 0
 889 00ac 4FF41670 		mov	r0, #600
 890 00b0 F0E7     		b	.L71
 891              	.L77:
 892 00b2 00BF     		.align	2
 893              	.L76:
 894 00b4 00000000 		.word	__stack_chk_guard
 895 00b8 00401C46 		.word	1176256512
 896 00bc A8FDFFFF 		.word	-600
 897              		.cfi_endproc
 898              	.LFE290:
 899              		.size	sound_remote, .-sound_remote
 900              		.section	.text.calcul_distance,"ax",%progbits
 901              		.align	1
 902              		.p2align 4,,15
 903              		.global	calcul_distance
 904              		.syntax unified
 905              		.thumb
 906              		.thumb_func
 907              		.fpu fpv4-sp-d16
 908              		.type	calcul_distance, %function
 909              	calcul_distance:
 910              	.LFB292:
 911              		.loc 1 264 0
 912              		.cfi_startproc
ARM GAS  C:\Users\adrie\AppData\Local\Temp\ccgB8szF.s 			page 17


 913              		@ args = 0, pretend = 0, frame = 8
 914              		@ frame_needed = 0, uses_anonymous_args = 0
 915              	.LVL85:
 916 0000 F0B5     		push	{r4, r5, r6, r7, lr}
 917              		.cfi_def_cfa_offset 20
 918              		.cfi_offset 4, -20
 919              		.cfi_offset 5, -16
 920              		.cfi_offset 6, -12
 921              		.cfi_offset 7, -8
 922              		.cfi_offset 14, -4
 923 0002 1B4C     		ldr	r4, .L82+8
 924 0004 83B0     		sub	sp, sp, #12
 925              		.cfi_def_cfa_offset 32
 926              		.loc 1 264 0
 927 0006 2368     		ldr	r3, [r4]
 928 0008 0193     		str	r3, [sp, #4]
 929 000a 0546     		mov	r5, r0
 930              	.LVL86:
 931              		.loc 1 267 0
 932 000c 0846     		mov	r0, r1
 933              	.LVL87:
 934 000e FFF7FEFF 		bl	__aeabi_i2d
 935              	.LVL88:
 936 0012 0646     		mov	r6, r0
 937              		.loc 1 266 0
 938 0014 2846     		mov	r0, r5
 939              		.loc 1 267 0
 940 0016 0F46     		mov	r7, r1
 941              		.loc 1 266 0
 942 0018 FFF7FEFF 		bl	__aeabi_i2d
 943              	.LVL89:
 944              		.loc 1 267 0
 945 001c 0022     		movs	r2, #0
 946 001e 154B     		ldr	r3, .L82+12
 947 0020 FFF7FEFF 		bl	__aeabi_dmul
 948              	.LVL90:
 949 0024 10A3     		adr	r3, .L82
 950 0026 D3E90023 		ldrd	r2, [r3]
 951 002a FFF7FEFF 		bl	__aeabi_dmul
 952              	.LVL91:
 953 002e 0246     		mov	r2, r0
 954 0030 0B46     		mov	r3, r1
 955 0032 3046     		mov	r0, r6
 956 0034 3946     		mov	r1, r7
 957 0036 FFF7FEFF 		bl	__aeabi_ddiv
 958              	.LVL92:
 959 003a 41EC100B 		vmov	d0, r0, r1
 960 003e FFF7FEFF 		bl	sqrt
 961              	.LVL93:
 962 0042 53EC102B 		vmov	r2, r3, d0
 963              	.LVL94:
 964              		.loc 1 269 0
 965 0046 10EE100A 		vmov	r0, s0	@ int
 966 004a 1946     		mov	r1, r3
 967 004c FFF7FEFF 		bl	__aeabi_dadd
 968              	.LVL95:
 969              		.loc 1 270 0
ARM GAS  C:\Users\adrie\AppData\Local\Temp\ccgB8szF.s 			page 18


 970 0050 019A     		ldr	r2, [sp, #4]
 971 0052 2368     		ldr	r3, [r4]
 972 0054 9A42     		cmp	r2, r3
 973 0056 03D1     		bne	.L81
 974 0058 41EC100B 		vmov	d0, r0, r1
 975 005c 03B0     		add	sp, sp, #12
 976              		.cfi_remember_state
 977              		.cfi_def_cfa_offset 20
 978              		@ sp needed
 979 005e F0BD     		pop	{r4, r5, r6, r7, pc}
 980              	.LVL96:
 981              	.L81:
 982              		.cfi_restore_state
 983 0060 FFF7FEFF 		bl	__stack_chk_fail
 984              	.LVL97:
 985              	.L83:
 986 0064 AFF30080 		.align	3
 987              	.L82:
 988 0068 000000C0 		.word	-1073741824
 989 006c CA210940 		.word	1074340298
 990 0070 00000000 		.word	__stack_chk_guard
 991 0074 00001040 		.word	1074790400
 992              		.cfi_endproc
 993              	.LFE292:
 994              		.size	calcul_distance, .-calcul_distance
 995              		.section	.text.calcul_angle,"ax",%progbits
 996              		.align	1
 997              		.p2align 4,,15
 998              		.global	calcul_angle
 999              		.syntax unified
 1000              		.thumb
 1001              		.thumb_func
 1002              		.fpu fpv4-sp-d16
 1003              		.type	calcul_angle, %function
 1004              	calcul_angle:
 1005              	.LFB293:
 1006              		.loc 1 272 0
 1007              		.cfi_startproc
 1008              		@ args = 0, pretend = 0, frame = 8
 1009              		@ frame_needed = 0, uses_anonymous_args = 0
 1010              	.LVL98:
 1011 0000 30B5     		push	{r4, r5, lr}
 1012              		.cfi_def_cfa_offset 12
 1013              		.cfi_offset 4, -12
 1014              		.cfi_offset 5, -8
 1015              		.cfi_offset 14, -4
 1016 0002 654C     		ldr	r4, .L123
 1017 0004 83B0     		sub	sp, sp, #12
 1018              		.cfi_def_cfa_offset 24
 1019              		.loc 1 272 0
 1020 0006 2568     		ldr	r5, [r4]
 1021 0008 0195     		str	r5, [sp, #4]
 1022              	.LVL99:
 1023              		.loc 1 279 0
 1024 000a 8842     		cmp	r0, r1
 1025 000c 01DB     		blt	.L113
 1026              		.loc 1 279 0 is_stmt 0 discriminator 1
ARM GAS  C:\Users\adrie\AppData\Local\Temp\ccgB8szF.s 			page 19


 1027 000e 9042     		cmp	r0, r2
 1028 0010 61DA     		bge	.L117
 1029              	.L113:
 1030              		.loc 1 274 0 is_stmt 1
 1031 0012 FF25     		movs	r5, #255
 1032              	.L85:
 1033              	.LVL100:
 1034              		.loc 1 291 0
 1035 0014 9142     		cmp	r1, r2
 1036 0016 18DB     		blt	.L91
 1037              		.loc 1 291 0 is_stmt 0 discriminator 1
 1038 0018 9942     		cmp	r1, r3
 1039 001a 16DB     		blt	.L91
 1040              		.loc 1 292 0 is_stmt 1
 1041 001c 07EE901A 		vmov	s15, r1	@ int
 1042 0020 9FED5E7A 		vldr.32	s14, .L123+4
 1043 0024 F8EEE77A 		vcvt.f32.s32	s15, s15
 1044 0028 67EE877A 		vmul.f32	s15, s15, s14
 1045 002c FDEEE77A 		vcvt.s32.f32	s15, s15
 1046 0030 17EE905A 		vmov	r5, s15	@ int
 1047              	.LVL101:
 1048              		.loc 1 293 0
 1049 0034 AA42     		cmp	r2, r5
 1050 0036 78DC     		bgt	.L92
 1051              		.loc 1 293 0 is_stmt 0 discriminator 1
 1052 0038 AB42     		cmp	r3, r5
 1053 003a 40F39A80 		ble	.L93
 1054              		.loc 1 295 0 is_stmt 1
 1055 003e AA42     		cmp	r2, r5
 1056 0040 73DA     		bge	.L92
 1057              		.loc 1 299 0
 1058 0042 574B     		ldr	r3, .L123+8
 1059              	.LVL102:
 1060 0044 E122     		movs	r2, #225
 1061              	.LVL103:
 1062 0046 1A60     		str	r2, [r3]
 1063              		.loc 1 300 0
 1064 0048 16E0     		b	.L84
 1065              	.LVL104:
 1066              	.L91:
 1067              		.loc 1 304 0
 1068 004a 9A42     		cmp	r2, r3
 1069 004c 1BDA     		bge	.L118
 1070              	.LVL105:
 1071              	.L95:
 1072              		.loc 1 350 0
 1073 004e 8842     		cmp	r0, r1
 1074 0050 C0F28280 		blt	.L101
 1075              		.loc 1 348 0 discriminator 1
 1076 0054 07EE900A 		vmov	s15, r0	@ int
 1077 0058 9FED507A 		vldr.32	s14, .L123+4
 1078 005c F8EEE77A 		vcvt.f32.s32	s15, s15
 1079              	.LVL106:
 1080 0060 67EE877A 		vmul.f32	s15, s15, s14
 1081              	.LVL107:
 1082 0064 FDEEE77A 		vcvt.s32.f32	s15, s15
 1083              		.loc 1 350 0 discriminator 1
ARM GAS  C:\Users\adrie\AppData\Local\Temp\ccgB8szF.s 			page 20


 1084 0068 17EE903A 		vmov	r3, s15	@ int
 1085              	.LVL108:
 1086 006c 9942     		cmp	r1, r3
 1087              		.loc 1 351 0 discriminator 1
 1088 006e 4C4B     		ldr	r3, .L123+8
 1089 0070 D4BF     		ite	le
 1090 0072 9D22     		movle	r2, #157
 1091              	.LVL109:
 1092              		.loc 1 354 0 discriminator 1
 1093 0074 B422     		movgt	r2, #180
 1094 0076 1A60     		str	r2, [r3]
 1095              	.LVL110:
 1096              	.L84:
 1097              		.loc 1 380 0
 1098 0078 019A     		ldr	r2, [sp, #4]
 1099 007a 2368     		ldr	r3, [r4]
 1100 007c 9A42     		cmp	r2, r3
 1101 007e 40F08880 		bne	.L119
 1102 0082 03B0     		add	sp, sp, #12
 1103              		.cfi_remember_state
 1104              		.cfi_def_cfa_offset 12
 1105              		@ sp needed
 1106 0084 30BD     		pop	{r4, r5, pc}
 1107              	.LVL111:
 1108              	.L118:
 1109              		.cfi_restore_state
 1110              		.loc 1 305 0
 1111 0086 07EE902A 		vmov	s15, r2	@ int
 1112 008a DFED446A 		vldr.32	s13, .L123+4
 1113 008e B8EEE77A 		vcvt.f32.s32	s14, s15
 1114 0092 27EE267A 		vmul.f32	s14, s14, s13
 1115 0096 BDEEC77A 		vcvt.s32.f32	s14, s14
 1116              		.loc 1 306 0
 1117 009a 17EE10CA 		vmov	ip, s14	@ int
 1118 009e 6345     		cmp	r3, ip
 1119 00a0 2FDD     		ble	.L120
 1120              		.loc 1 329 0
 1121 00a2 012D     		cmp	r5, #1
 1122 00a4 54D0     		beq	.L121
 1123              		.loc 1 347 0
 1124 00a6 032D     		cmp	r5, #3
 1125 00a8 D1D0     		beq	.L95
 1126              	.LVL112:
 1127              	.L97:
 1128              		.loc 1 364 0
 1129 00aa 9A42     		cmp	r2, r3
 1130 00ac 4BDC     		bgt	.L103
 1131              		.loc 1 362 0 discriminator 1
 1132 00ae 07EE903A 		vmov	s15, r3	@ int
 1133 00b2 9FED3A7A 		vldr.32	s14, .L123+4
 1134 00b6 F8EEE77A 		vcvt.f32.s32	s15, s15
 1135 00ba 67EE877A 		vmul.f32	s15, s15, s14
 1136 00be FDEEE77A 		vcvt.s32.f32	s15, s15
 1137              		.loc 1 364 0 discriminator 1
 1138 00c2 17EE903A 		vmov	r3, s15	@ int
 1139              	.LVL113:
 1140 00c6 9A42     		cmp	r2, r3
ARM GAS  C:\Users\adrie\AppData\Local\Temp\ccgB8szF.s 			page 21


 1141              		.loc 1 365 0 discriminator 1
 1142 00c8 354B     		ldr	r3, .L123+8
 1143 00ca D4BF     		ite	le
 1144 00cc F722     		movle	r2, #247
 1145              	.LVL114:
 1146              		.loc 1 368 0 discriminator 1
 1147 00ce 4FF48772 		movgt	r2, #270
 1148 00d2 1A60     		str	r2, [r3]
 1149              		.loc 1 369 0 discriminator 1
 1150 00d4 D0E7     		b	.L84
 1151              	.LVL115:
 1152              	.L117:
 1153              		.loc 1 279 0 discriminator 2
 1154 00d6 9842     		cmp	r0, r3
 1155 00d8 9BDB     		blt	.L113
 1156              		.loc 1 280 0
 1157 00da 07EE900A 		vmov	s15, r0	@ int
 1158 00de 9FED2F7A 		vldr.32	s14, .L123+4
 1159 00e2 F8EEE77A 		vcvt.f32.s32	s15, s15
 1160 00e6 67EE877A 		vmul.f32	s15, s15, s14
 1161 00ea FDEEE77A 		vcvt.s32.f32	s15, s15
 1162 00ee 17EE905A 		vmov	r5, s15	@ int
 1163              	.LVL116:
 1164              		.loc 1 281 0
 1165 00f2 A942     		cmp	r1, r5
 1166 00f4 34DC     		bgt	.L86
 1167              		.loc 1 281 0 is_stmt 0 discriminator 1
 1168 00f6 AA42     		cmp	r2, r5
 1169 00f8 1EDC     		bgt	.L87
 1170              		.loc 1 281 0 discriminator 2
 1171 00fa AB42     		cmp	r3, r5
 1172 00fc 1ADC     		bgt	.L122
 1173              		.loc 1 282 0 is_stmt 1
 1174 00fe 0125     		movs	r5, #1
 1175              	.LVL117:
 1176 0100 88E7     		b	.L85
 1177              	.LVL118:
 1178              	.L120:
 1179 0102 07EE901A 		vmov	s15, r1	@ int
 1180 0106 F8EEE77A 		vcvt.f32.s32	s15, s15
 1181 010a 67EEA67A 		vmul.f32	s15, s15, s13
 1182 010e FDEEE77A 		vcvt.s32.f32	s15, s15
 1183 0112 17EE905A 		vmov	r5, s15	@ int
 1184              	.LVL119:
 1185              	.L96:
 1186              		.loc 1 315 0
 1187 0116 8842     		cmp	r0, r1
 1188              		.loc 1 316 0
 1189 0118 214B     		ldr	r3, .L123+8
 1190              	.LVL120:
 1191              		.loc 1 315 0
 1192 011a 11DC     		bgt	.L99
 1193              		.loc 1 315 0 is_stmt 0 discriminator 1
 1194 011c A842     		cmp	r0, r5
 1195              		.loc 1 316 0 is_stmt 1 discriminator 1
 1196 011e D4BF     		ite	le
 1197 0120 40F25112 		movwle	r2, #337
ARM GAS  C:\Users\adrie\AppData\Local\Temp\ccgB8szF.s 			page 22


 1198              	.LVL121:
 1199              		.loc 1 319 0 discriminator 1
 1200 0124 0022     		movgt	r2, #0
 1201 0126 1A60     		str	r2, [r3]
 1202              		.loc 1 320 0 discriminator 1
 1203 0128 A6E7     		b	.L84
 1204              	.LVL122:
 1205              	.L92:
 1206              		.loc 1 296 0
 1207 012a 1D4B     		ldr	r3, .L123+8
 1208              	.LVL123:
 1209 012c 40F23B12 		movw	r2, #315
 1210              	.LVL124:
 1211 0130 1A60     		str	r2, [r3]
 1212              		.loc 1 297 0
 1213 0132 A1E7     		b	.L84
 1214              	.LVL125:
 1215              	.L122:
 1216              		.loc 1 283 0
 1217 0134 AA42     		cmp	r2, r5
 1218 0136 18DB     		blt	.L107
 1219              	.L87:
 1220              		.loc 1 284 0
 1221 0138 194B     		ldr	r3, .L123+8
 1222              	.LVL126:
 1223 013a 2D22     		movs	r2, #45
 1224              	.LVL127:
 1225 013c 1A60     		str	r2, [r3]
 1226              		.loc 1 285 0
 1227 013e 9BE7     		b	.L84
 1228              	.LVL128:
 1229              	.L99:
 1230              		.loc 1 322 0
 1231 0140 1622     		movs	r2, #22
 1232              	.LVL129:
 1233 0142 1A60     		str	r2, [r3]
 1234              		.loc 1 324 0
 1235 0144 98E7     		b	.L84
 1236              	.LVL130:
 1237              	.L103:
 1238              		.loc 1 371 0
 1239 0146 164B     		ldr	r3, .L123+8
 1240              	.LVL131:
 1241 0148 4FF49272 		mov	r2, #292
 1242              	.LVL132:
 1243 014c 1A60     		str	r2, [r3]
 1244              		.loc 1 372 0
 1245 014e 93E7     		b	.L84
 1246              	.LVL133:
 1247              	.L121:
 1248              		.loc 1 336 0
 1249 0150 134B     		ldr	r3, .L123+8
 1250              	.LVL134:
 1251 0152 5A22     		movs	r2, #90
 1252              	.LVL135:
 1253 0154 1A60     		str	r2, [r3]
 1254              		.loc 1 337 0
ARM GAS  C:\Users\adrie\AppData\Local\Temp\ccgB8szF.s 			page 23


 1255 0156 8FE7     		b	.L84
 1256              	.LVL136:
 1257              	.L101:
 1258              		.loc 1 357 0
 1259 0158 114B     		ldr	r3, .L123+8
 1260              	.LVL137:
 1261 015a CA22     		movs	r2, #202
 1262              	.LVL138:
 1263 015c 1A60     		str	r2, [r3]
 1264              		.loc 1 358 0
 1265 015e 8BE7     		b	.L84
 1266              	.LVL139:
 1267              	.L86:
 1268              		.loc 1 283 0
 1269 0160 AA42     		cmp	r2, r5
 1270 0162 E9DA     		bge	.L87
 1271              		.loc 1 286 0
 1272 0164 AB42     		cmp	r3, r5
 1273 0166 FFF654AF 		blt	.L113
 1274              	.L107:
 1275              		.loc 1 287 0
 1276 016a 0D4B     		ldr	r3, .L123+8
 1277              	.LVL140:
 1278 016c 8722     		movs	r2, #135
 1279              	.LVL141:
 1280 016e 1A60     		str	r2, [r3]
 1281              		.loc 1 288 0
 1282 0170 82E7     		b	.L84
 1283              	.LVL142:
 1284              	.L93:
 1285              		.loc 1 304 0
 1286 0172 9A42     		cmp	r2, r3
 1287 0174 FFF66BAF 		blt	.L95
 1288              	.LVL143:
 1289              		.loc 1 305 0
 1290 0178 07EE902A 		vmov	s15, r2	@ int
 1291 017c F8EEE77A 		vcvt.f32.s32	s15, s15
 1292 0180 27EE877A 		vmul.f32	s14, s15, s14
 1293 0184 BDEEC77A 		vcvt.s32.f32	s14, s14
 1294              		.loc 1 306 0
 1295 0188 17EE10CA 		vmov	ip, s14	@ int
 1296 018c 6345     		cmp	r3, ip
 1297 018e C2DD     		ble	.L96
 1298 0190 8BE7     		b	.L97
 1299              	.LVL144:
 1300              	.L119:
 1301              		.loc 1 380 0
 1302 0192 FFF7FEFF 		bl	__stack_chk_fail
 1303              	.LVL145:
 1304              	.L124:
 1305 0196 00BF     		.align	2
 1306              	.L123:
 1307 0198 00000000 		.word	__stack_chk_guard
 1308 019c AE47613F 		.word	1063339950
 1309 01a0 00000000 		.word	.LANCHOR4
 1310              		.cfi_endproc
 1311              	.LFE293:
ARM GAS  C:\Users\adrie\AppData\Local\Temp\ccgB8szF.s 			page 24


 1312              		.size	calcul_angle, .-calcul_angle
 1313              		.section	.text.calcul_moyenne,"ax",%progbits
 1314              		.align	1
 1315              		.p2align 4,,15
 1316              		.global	calcul_moyenne
 1317              		.syntax unified
 1318              		.thumb
 1319              		.thumb_func
 1320              		.fpu fpv4-sp-d16
 1321              		.type	calcul_moyenne, %function
 1322              	calcul_moyenne:
 1323              	.LFB294:
 1324              		.loc 1 383 0
 1325              		.cfi_startproc
 1326              		@ args = 0, pretend = 0, frame = 8
 1327              		@ frame_needed = 0, uses_anonymous_args = 0
 1328              	.LVL146:
 1329 0000 30B5     		push	{r4, r5, lr}
 1330              		.cfi_def_cfa_offset 12
 1331              		.cfi_offset 4, -12
 1332              		.cfi_offset 5, -8
 1333              		.cfi_offset 14, -4
 1334 0002 0D49     		ldr	r1, .L129
 1335              	.LBB281:
 1336              		.loc 1 386 0
 1337 0004 0D4B     		ldr	r3, .L129+4
 1338              	.LBE281:
 1339              		.loc 1 383 0
 1340 0006 0C68     		ldr	r4, [r1]
 1341              		.loc 1 389 0
 1342 0008 0D4A     		ldr	r2, .L129+8
 1343              		.loc 1 383 0
 1344 000a 83B0     		sub	sp, sp, #12
 1345              		.cfi_def_cfa_offset 24
 1346              	.LBB282:
 1347              		.loc 1 386 0
 1348 000c 00EB4000 		add	r0, r0, r0, lsl #1
 1349              	.LVL147:
 1350 0010 8000     		lsls	r0, r0, #2
 1351              	.LBE282:
 1352              		.loc 1 383 0
 1353 0012 0194     		str	r4, [sp, #4]
 1354              	.LVL148:
 1355              	.LBB283:
 1356              		.loc 1 386 0
 1357 0014 1C18     		adds	r4, r3, r0
 1358 0016 1B58     		ldr	r3, [r3, r0]
 1359 0018 D4E90150 		ldrd	r5, r0, [r4, #4]
 1360              	.LBE283:
 1361              		.loc 1 390 0
 1362 001c 019C     		ldr	r4, [sp, #4]
 1363 001e 0968     		ldr	r1, [r1]
 1364              	.LBB284:
 1365              		.loc 1 386 0
 1366 0020 2B44     		add	r3, r3, r5
 1367              	.LVL149:
 1368 0022 0344     		add	r3, r3, r0
ARM GAS  C:\Users\adrie\AppData\Local\Temp\ccgB8szF.s 			page 25


 1369              	.LBE284:
 1370              		.loc 1 389 0
 1371 0024 82FB0320 		smull	r2, r0, r2, r3
 1372              		.loc 1 390 0
 1373 0028 8C42     		cmp	r4, r1
 1374 002a A0EBE370 		sub	r0, r0, r3, asr #31
 1375 002e 01D1     		bne	.L128
 1376 0030 03B0     		add	sp, sp, #12
 1377              		.cfi_remember_state
 1378              		.cfi_def_cfa_offset 12
 1379              		@ sp needed
 1380 0032 30BD     		pop	{r4, r5, pc}
 1381              	.L128:
 1382              		.cfi_restore_state
 1383 0034 FFF7FEFF 		bl	__stack_chk_fail
 1384              	.LVL150:
 1385              	.L130:
 1386              		.align	2
 1387              	.L129:
 1388 0038 00000000 		.word	__stack_chk_guard
 1389 003c 00000000 		.word	.LANCHOR2
 1390 0040 56555555 		.word	1431655766
 1391              		.cfi_endproc
 1392              	.LFE294:
 1393              		.size	calcul_moyenne, .-calcul_moyenne
 1394              		.section	.text.update_moyenne,"ax",%progbits
 1395              		.align	1
 1396              		.p2align 4,,15
 1397              		.global	update_moyenne
 1398              		.syntax unified
 1399              		.thumb
 1400              		.thumb_func
 1401              		.fpu fpv4-sp-d16
 1402              		.type	update_moyenne, %function
 1403              	update_moyenne:
 1404              	.LFB295:
 1405              		.loc 1 393 0
 1406              		.cfi_startproc
 1407              		@ args = 4, pretend = 0, frame = 8
 1408              		@ frame_needed = 0, uses_anonymous_args = 0
 1409              	.LVL151:
 1410 0000 F0B5     		push	{r4, r5, r6, r7, lr}
 1411              		.cfi_def_cfa_offset 20
 1412              		.cfi_offset 4, -20
 1413              		.cfi_offset 5, -16
 1414              		.cfi_offset 6, -12
 1415              		.cfi_offset 7, -8
 1416              		.cfi_offset 14, -4
 1417 0002 0E4C     		ldr	r4, .L136
 1418 0004 83B0     		sub	sp, sp, #12
 1419              		.cfi_def_cfa_offset 32
 1420              		.loc 1 393 0
 1421 0006 2568     		ldr	r5, [r4]
 1422 0008 089E     		ldr	r6, [sp, #32]
 1423 000a 0195     		str	r5, [sp, #4]
 1424              		.loc 1 394 0
 1425 000c 0328     		cmp	r0, #3
ARM GAS  C:\Users\adrie\AppData\Local\Temp\ccgB8szF.s 			page 26


 1426 000e 0DD8     		bhi	.L131
 1427              		.loc 1 395 0
 1428 0010 0B4D     		ldr	r5, .L136+4
 1429 0012 00F1FF3C 		add	ip, r0, #-1
 1430              		.loc 1 397 0
 1431 0016 871C     		adds	r7, r0, #2
 1432              		.loc 1 395 0
 1433 0018 45F82C20 		str	r2, [r5, ip, lsl #2]
 1434              		.loc 1 398 0
 1435 001c 421D     		adds	r2, r0, #5
 1436              	.LVL152:
 1437              		.loc 1 399 0
 1438 001e 0830     		adds	r0, r0, #8
 1439              	.LVL153:
 1440              		.loc 1 397 0
 1441 0020 45F82710 		str	r1, [r5, r7, lsl #2]
 1442              		.loc 1 398 0
 1443 0024 45F82230 		str	r3, [r5, r2, lsl #2]
 1444              		.loc 1 399 0
 1445 0028 45F82060 		str	r6, [r5, r0, lsl #2]
 1446              	.LVL154:
 1447              	.L131:
 1448              		.loc 1 404 0
 1449 002c 019A     		ldr	r2, [sp, #4]
 1450 002e 2368     		ldr	r3, [r4]
 1451              	.LVL155:
 1452 0030 9A42     		cmp	r2, r3
 1453 0032 01D1     		bne	.L135
 1454 0034 03B0     		add	sp, sp, #12
 1455              		.cfi_remember_state
 1456              		.cfi_def_cfa_offset 20
 1457              		@ sp needed
 1458 0036 F0BD     		pop	{r4, r5, r6, r7, pc}
 1459              	.LVL156:
 1460              	.L135:
 1461              		.cfi_restore_state
 1462 0038 FFF7FEFF 		bl	__stack_chk_fail
 1463              	.LVL157:
 1464              	.L137:
 1465              		.align	2
 1466              	.L136:
 1467 003c 00000000 		.word	__stack_chk_guard
 1468 0040 00000000 		.word	.LANCHOR2
 1469              		.cfi_endproc
 1470              	.LFE295:
 1471              		.size	update_moyenne, .-update_moyenne
 1472              		.section	.text.max_norm,"ax",%progbits
 1473              		.align	1
 1474              		.p2align 4,,15
 1475              		.global	max_norm
 1476              		.syntax unified
 1477              		.thumb
 1478              		.thumb_func
 1479              		.fpu fpv4-sp-d16
 1480              		.type	max_norm, %function
 1481              	max_norm:
 1482              	.LFB296:
ARM GAS  C:\Users\adrie\AppData\Local\Temp\ccgB8szF.s 			page 27


 1483              		.loc 1 405 0
 1484              		.cfi_startproc
 1485              		@ args = 0, pretend = 0, frame = 8
 1486              		@ frame_needed = 0, uses_anonymous_args = 0
 1487              	.LVL158:
 1488 0000 70B5     		push	{r4, r5, r6, lr}
 1489              		.cfi_def_cfa_offset 16
 1490              		.cfi_offset 4, -16
 1491              		.cfi_offset 5, -12
 1492              		.cfi_offset 6, -8
 1493              		.cfi_offset 14, -4
 1494 0002 164E     		ldr	r6, .L148
 1495              		.loc 1 406 0
 1496 0004 9FED167A 		vldr.32	s14, .L148+4
 1497              		.loc 1 405 0
 1498 0008 3368     		ldr	r3, [r6]
 1499 000a 82B0     		sub	sp, sp, #8
 1500              		.cfi_def_cfa_offset 24
 1501 000c 2831     		adds	r1, r1, #40
 1502              	.LVL159:
 1503              		.loc 1 405 0
 1504 000e 0193     		str	r3, [sp, #4]
 1505              	.LVL160:
 1506              		.loc 1 407 0
 1507 0010 4FF0FF32 		mov	r2, #-1
 1508              	.LBB285:
 1509              		.loc 1 412 0
 1510 0014 0A23     		movs	r3, #10
 1511 0016 40F60104 		movw	r4, #2049
 1512              	.LVL161:
 1513              	.L141:
 1514              		.loc 1 413 0
 1515 001a F1EC017A 		vldmia.32	r1!, {s15}
 1516 001e F4EEC77A 		vcmpe.f32	s15, s14
 1517 0022 F1EE10FA 		vmrs	APSR_nzcv, FPSCR
 1518 0026 08DD     		ble	.L139
 1519              		.loc 1 413 0 is_stmt 0 discriminator 1
 1520 0028 A3F13305 		sub	r5, r3, #51
 1521 002c B5F56D7F 		cmp	r5, #948
 1522 0030 98BF     		it	ls
 1523 0032 1A46     		movls	r2, r3
 1524              	.LVL162:
 1525 0034 98BF     		it	ls
 1526 0036 B0EE677A 		vmovls.f32	s14, s15
 1527              	.LVL163:
 1528              	.L139:
 1529              		.loc 1 412 0 is_stmt 1 discriminator 2
 1530 003a 0133     		adds	r3, r3, #1
 1531              	.LVL164:
 1532 003c A342     		cmp	r3, r4
 1533 003e ECD1     		bne	.L141
 1534              	.LVL165:
 1535              	.LBE285:
 1536              		.loc 1 421 0
 1537 0040 0199     		ldr	r1, [sp, #4]
 1538 0042 3368     		ldr	r3, [r6]
 1539              	.LVL166:
ARM GAS  C:\Users\adrie\AppData\Local\Temp\ccgB8szF.s 			page 28


 1540              		.loc 1 420 0
 1541 0044 4260     		str	r2, [r0, #4]
 1542              	.LVL167:
 1543              		.loc 1 418 0
 1544 0046 BDEEC77A 		vcvt.s32.f32	s14, s14
 1545              	.LVL168:
 1546              		.loc 1 421 0
 1547 004a 9942     		cmp	r1, r3
 1548              		.loc 1 418 0
 1549 004c 80ED007A 		vstr.32	s14, [r0]	@ int
 1550              		.loc 1 421 0
 1551 0050 01D1     		bne	.L147
 1552 0052 02B0     		add	sp, sp, #8
 1553              		.cfi_remember_state
 1554              		.cfi_def_cfa_offset 16
 1555              		@ sp needed
 1556 0054 70BD     		pop	{r4, r5, r6, pc}
 1557              	.L147:
 1558              		.cfi_restore_state
 1559 0056 FFF7FEFF 		bl	__stack_chk_fail
 1560              	.LVL169:
 1561              	.L149:
 1562 005a 00BF     		.align	2
 1563              	.L148:
 1564 005c 00000000 		.word	__stack_chk_guard
 1565 0060 0000C842 		.word	1120403456
 1566              		.cfi_endproc
 1567              	.LFE296:
 1568              		.size	max_norm, .-max_norm
 1569              		.section	.text.wait_send_to_computer,"ax",%progbits
 1570              		.align	1
 1571              		.p2align 4,,15
 1572              		.global	wait_send_to_computer
 1573              		.syntax unified
 1574              		.thumb
 1575              		.thumb_func
 1576              		.fpu fpv4-sp-d16
 1577              		.type	wait_send_to_computer, %function
 1578              	wait_send_to_computer:
 1579              	.LFB297:
 1580              		.loc 1 424 0
 1581              		.cfi_startproc
 1582              		@ args = 0, pretend = 0, frame = 8
 1583              		@ frame_needed = 0, uses_anonymous_args = 0
 1584 0000 00B5     		push	{lr}
 1585              		.cfi_def_cfa_offset 4
 1586              		.cfi_offset 14, -4
 1587 0002 084B     		ldr	r3, .L155
 1588 0004 83B0     		sub	sp, sp, #12
 1589              		.cfi_def_cfa_offset 16
 1590              		.loc 1 424 0
 1591 0006 1A68     		ldr	r2, [r3]
 1592 0008 0192     		str	r2, [sp, #4]
 1593              	.LVL170:
 1594              	.LBB286:
 1595              	.LBB287:
 1596              		.file 6 "../lib/e-puck2_main-processor/ChibiOS//os/rt/include/chbsem.h"
ARM GAS  C:\Users\adrie\AppData\Local\Temp\ccgB8szF.s 			page 29


 1597              		.loc 6 143 0
 1598 000a 019A     		ldr	r2, [sp, #4]
 1599 000c 1B68     		ldr	r3, [r3]
 1600 000e 9A42     		cmp	r2, r3
 1601 0010 05D1     		bne	.L154
 1602 0012 0548     		ldr	r0, .L155+4
 1603              	.LBE287:
 1604              	.LBE286:
 1605              		.loc 1 426 0
 1606 0014 03B0     		add	sp, sp, #12
 1607              		.cfi_remember_state
 1608              		.cfi_def_cfa_offset 4
 1609              		@ sp needed
 1610 0016 5DF804EB 		ldr	lr, [sp], #4
 1611              		.cfi_restore 14
 1612              		.cfi_def_cfa_offset 0
 1613              	.LBB289:
 1614              	.LBB288:
 1615              		.loc 6 143 0
 1616 001a FFF7FEBF 		b	chSemWait
 1617              	.LVL171:
 1618              	.L154:
 1619              		.cfi_restore_state
 1620 001e FFF7FEFF 		bl	__stack_chk_fail
 1621              	.LVL172:
 1622              	.L156:
 1623 0022 00BF     		.align	2
 1624              	.L155:
 1625 0024 00000000 		.word	__stack_chk_guard
 1626 0028 00000000 		.word	.LANCHOR5
 1627              	.LBE288:
 1628              	.LBE289:
 1629              		.cfi_endproc
 1630              	.LFE297:
 1631              		.size	wait_send_to_computer, .-wait_send_to_computer
 1632              		.section	.text.get_max_norm_index,"ax",%progbits
 1633              		.align	1
 1634              		.p2align 4,,15
 1635              		.global	get_max_norm_index
 1636              		.syntax unified
 1637              		.thumb
 1638              		.thumb_func
 1639              		.fpu fpv4-sp-d16
 1640              		.type	get_max_norm_index, %function
 1641              	get_max_norm_index:
 1642              	.LFB298:
 1643              		.loc 1 428 0
 1644              		.cfi_startproc
 1645              		@ args = 0, pretend = 0, frame = 8
 1646              		@ frame_needed = 0, uses_anonymous_args = 0
 1647              	.LVL173:
 1648 0000 70B5     		push	{r4, r5, r6, lr}
 1649              		.cfi_def_cfa_offset 16
 1650              		.cfi_offset 4, -16
 1651              		.cfi_offset 5, -12
 1652              		.cfi_offset 6, -8
 1653              		.cfi_offset 14, -4
ARM GAS  C:\Users\adrie\AppData\Local\Temp\ccgB8szF.s 			page 30


 1654 0002 2B4D     		ldr	r5, .L179
 1655 0004 82B0     		sub	sp, sp, #8
 1656              		.cfi_def_cfa_offset 24
 1657              		.loc 1 428 0
 1658 0006 2A68     		ldr	r2, [r5]
 1659 0008 0192     		str	r2, [sp, #4]
 1660              		.loc 1 430 0
 1661 000a 0429     		cmp	r1, #4
 1662              		.loc 1 428 0
 1663 000c 0446     		mov	r4, r0
 1664              		.loc 1 430 0
 1665 000e 2BD0     		beq	.L176
 1666              		.loc 1 433 0
 1667 0010 0529     		cmp	r1, #5
 1668 0012 08D0     		beq	.L177
 1669 0014 FFF7FEFF 		bl	get_max_norm_index.part.0
 1670              	.LVL174:
 1671              	.L157:
 1672              		.loc 1 446 0
 1673 0018 019A     		ldr	r2, [sp, #4]
 1674 001a 2B68     		ldr	r3, [r5]
 1675 001c 9A42     		cmp	r2, r3
 1676 001e 2046     		mov	r0, r4
 1677 0020 43D1     		bne	.L178
 1678              	.LVL175:
 1679 0022 02B0     		add	sp, sp, #8
 1680              		.cfi_remember_state
 1681              		.cfi_def_cfa_offset 16
 1682              		@ sp needed
 1683 0024 70BD     		pop	{r4, r5, r6, pc}
 1684              	.LVL176:
 1685              	.L177:
 1686              		.cfi_restore_state
 1687 0026 234A     		ldr	r2, .L179+4
 1688              	.LBB290:
 1689              	.LBB291:
 1690              		.loc 1 406 0
 1691 0028 9FED237A 		vldr.32	s14, .L179+8
 1692              		.loc 1 407 0
 1693 002c 4FF0FF31 		mov	r1, #-1
 1694              	.LVL177:
 1695              	.LBB292:
 1696              		.loc 1 412 0
 1697 0030 0A23     		movs	r3, #10
 1698 0032 40F60100 		movw	r0, #2049
 1699              	.LVL178:
 1700              	.L166:
 1701              		.loc 1 413 0
 1702 0036 F2EC017A 		vldmia.32	r2!, {s15}
 1703 003a F4EEC77A 		vcmpe.f32	s15, s14
 1704 003e F1EE10FA 		vmrs	APSR_nzcv, FPSCR
 1705 0042 08DD     		ble	.L164
 1706 0044 A3F13306 		sub	r6, r3, #51
 1707 0048 B6F56D7F 		cmp	r6, #948
 1708 004c 98BF     		it	ls
 1709 004e 1946     		movls	r1, r3
 1710              	.LVL179:
ARM GAS  C:\Users\adrie\AppData\Local\Temp\ccgB8szF.s 			page 31


 1711 0050 98BF     		it	ls
 1712 0052 B0EE677A 		vmovls.f32	s14, s15
 1713              	.LVL180:
 1714              	.L164:
 1715              		.loc 1 412 0
 1716 0056 0133     		adds	r3, r3, #1
 1717              	.LVL181:
 1718 0058 8342     		cmp	r3, r0
 1719 005a ECD1     		bne	.L166
 1720              	.LVL182:
 1721              	.LBE292:
 1722              		.loc 1 418 0
 1723 005c BDEEC77A 		vcvt.s32.f32	s14, s14
 1724              	.LVL183:
 1725              		.loc 1 420 0
 1726 0060 6160     		str	r1, [r4, #4]
 1727              	.LVL184:
 1728              		.loc 1 418 0
 1729 0062 84ED007A 		vstr.32	s14, [r4]	@ int
 1730 0066 D7E7     		b	.L157
 1731              	.LVL185:
 1732              	.L176:
 1733 0068 144A     		ldr	r2, .L179+12
 1734              	.LBE291:
 1735              	.LBE290:
 1736              	.LBB294:
 1737              	.LBB295:
 1738              		.loc 1 406 0
 1739 006a 9FED137A 		vldr.32	s14, .L179+8
 1740              		.loc 1 407 0
 1741 006e 4FF0FF31 		mov	r1, #-1
 1742              	.LVL186:
 1743              	.LBB296:
 1744              		.loc 1 412 0
 1745 0072 0A23     		movs	r3, #10
 1746 0074 40F60100 		movw	r0, #2049
 1747              	.LVL187:
 1748              	.L161:
 1749              		.loc 1 413 0
 1750 0078 F2EC017A 		vldmia.32	r2!, {s15}
 1751 007c F4EEC77A 		vcmpe.f32	s15, s14
 1752 0080 F1EE10FA 		vmrs	APSR_nzcv, FPSCR
 1753 0084 08DD     		ble	.L159
 1754 0086 A3F13306 		sub	r6, r3, #51
 1755 008a B6F56D7F 		cmp	r6, #948
 1756 008e 98BF     		it	ls
 1757 0090 1946     		movls	r1, r3
 1758              	.LVL188:
 1759 0092 98BF     		it	ls
 1760 0094 B0EE677A 		vmovls.f32	s14, s15
 1761              	.LVL189:
 1762              	.L159:
 1763              		.loc 1 412 0
 1764 0098 0133     		adds	r3, r3, #1
 1765              	.LVL190:
 1766 009a 8342     		cmp	r3, r0
 1767 009c ECD1     		bne	.L161
ARM GAS  C:\Users\adrie\AppData\Local\Temp\ccgB8szF.s 			page 32


 1768              	.LVL191:
 1769              	.LBE296:
 1770              	.LBE295:
 1771              	.LBE294:
 1772              	.LBB297:
 1773              	.LBB293:
 1774              		.loc 1 418 0
 1775 009e BDEEC77A 		vcvt.s32.f32	s14, s14
 1776              	.LVL192:
 1777              		.loc 1 420 0
 1778 00a2 6160     		str	r1, [r4, #4]
 1779              	.LVL193:
 1780              		.loc 1 418 0
 1781 00a4 84ED007A 		vstr.32	s14, [r4]	@ int
 1782 00a8 B6E7     		b	.L157
 1783              	.LVL194:
 1784              	.L178:
 1785              	.LBE293:
 1786              	.LBE297:
 1787              		.loc 1 446 0
 1788 00aa FFF7FEFF 		bl	__stack_chk_fail
 1789              	.LVL195:
 1790              	.L180:
 1791 00ae 00BF     		.align	2
 1792              	.L179:
 1793 00b0 00000000 		.word	__stack_chk_guard
 1794 00b4 28000000 		.word	micRight_output+40
 1795 00b8 0000C842 		.word	1120403456
 1796 00bc 28000000 		.word	micLeft_output+40
 1797              		.cfi_endproc
 1798              	.LFE298:
 1799              		.size	get_max_norm_index, .-get_max_norm_index
 1800              		.section	.text.get_audio_buffer_ptr,"ax",%progbits
 1801              		.align	1
 1802              		.p2align 4,,15
 1803              		.global	get_audio_buffer_ptr
 1804              		.syntax unified
 1805              		.thumb
 1806              		.thumb_func
 1807              		.fpu fpv4-sp-d16
 1808              		.type	get_audio_buffer_ptr, %function
 1809              	get_audio_buffer_ptr:
 1810              	.LFB299:
 1811              		.loc 1 448 0
 1812              		.cfi_startproc
 1813              		@ args = 0, pretend = 0, frame = 8
 1814              		@ frame_needed = 0, uses_anonymous_args = 0
 1815              	.LVL196:
 1816 0000 00B5     		push	{lr}
 1817              		.cfi_def_cfa_offset 4
 1818              		.cfi_offset 14, -4
 1819 0002 164B     		ldr	r3, .L194
 1820 0004 83B0     		sub	sp, sp, #12
 1821              		.cfi_def_cfa_offset 16
 1822              		.loc 1 448 0
 1823 0006 1A68     		ldr	r2, [r3]
 1824 0008 0192     		str	r2, [sp, #4]
ARM GAS  C:\Users\adrie\AppData\Local\Temp\ccgB8szF.s 			page 33


 1825              		.loc 1 449 0
 1826 000a 88B1     		cbz	r0, .L184
 1827              		.loc 1 452 0
 1828 000c 0128     		cmp	r0, #1
 1829 000e 17D0     		beq	.L185
 1830              		.loc 1 455 0
 1831 0010 0228     		cmp	r0, #2
 1832 0012 19D0     		beq	.L186
 1833              		.loc 1 458 0
 1834 0014 0328     		cmp	r0, #3
 1835 0016 15D0     		beq	.L187
 1836              		.loc 1 461 0
 1837 0018 0428     		cmp	r0, #4
 1838 001a 17D0     		beq	.L188
 1839              		.loc 1 464 0
 1840 001c 0528     		cmp	r0, #5
 1841 001e 17D0     		beq	.L189
 1842              		.loc 1 467 0
 1843 0020 0628     		cmp	r0, #6
 1844 0022 17D0     		beq	.L190
 1845              		.loc 1 474 0
 1846 0024 0E4A     		ldr	r2, .L194+4
 1847              		.loc 1 470 0
 1848 0026 0728     		cmp	r0, #7
 1849              		.loc 1 474 0
 1850 0028 0CBF     		ite	eq
 1851 002a 1046     		moveq	r0, r2
 1852              	.LVL197:
 1853 002c 0020     		movne	r0, #0
 1854 002e 00E0     		b	.L181
 1855              	.LVL198:
 1856              	.L184:
 1857              		.loc 1 450 0
 1858 0030 0C48     		ldr	r0, .L194+8
 1859              	.LVL199:
 1860              	.L181:
 1861              		.loc 1 476 0
 1862 0032 019A     		ldr	r2, [sp, #4]
 1863 0034 1B68     		ldr	r3, [r3]
 1864 0036 9A42     		cmp	r2, r3
 1865 0038 0ED1     		bne	.L193
 1866 003a 03B0     		add	sp, sp, #12
 1867              		.cfi_remember_state
 1868              		.cfi_def_cfa_offset 4
 1869              		@ sp needed
 1870 003c 5DF804FB 		ldr	pc, [sp], #4
 1871              	.LVL200:
 1872              	.L185:
 1873              		.cfi_restore_state
 1874              		.loc 1 453 0
 1875 0040 0948     		ldr	r0, .L194+12
 1876              	.LVL201:
 1877 0042 F6E7     		b	.L181
 1878              	.LVL202:
 1879              	.L187:
 1880              		.loc 1 459 0
 1881 0044 0948     		ldr	r0, .L194+16
ARM GAS  C:\Users\adrie\AppData\Local\Temp\ccgB8szF.s 			page 34


 1882              	.LVL203:
 1883 0046 F4E7     		b	.L181
 1884              	.LVL204:
 1885              	.L186:
 1886              		.loc 1 456 0
 1887 0048 0948     		ldr	r0, .L194+20
 1888              	.LVL205:
 1889 004a F2E7     		b	.L181
 1890              	.LVL206:
 1891              	.L188:
 1892              		.loc 1 462 0
 1893 004c 0948     		ldr	r0, .L194+24
 1894              	.LVL207:
 1895 004e F0E7     		b	.L181
 1896              	.LVL208:
 1897              	.L189:
 1898              		.loc 1 465 0
 1899 0050 0948     		ldr	r0, .L194+28
 1900              	.LVL209:
 1901 0052 EEE7     		b	.L181
 1902              	.LVL210:
 1903              	.L190:
 1904              		.loc 1 468 0
 1905 0054 0948     		ldr	r0, .L194+32
 1906              	.LVL211:
 1907 0056 ECE7     		b	.L181
 1908              	.L193:
 1909              		.loc 1 476 0
 1910 0058 FFF7FEFF 		bl	__stack_chk_fail
 1911              	.LVL212:
 1912              	.L195:
 1913              		.align	2
 1914              	.L194:
 1915 005c 00000000 		.word	__stack_chk_guard
 1916 0060 00000000 		.word	micBack_output
 1917 0064 00000000 		.word	micLeft_cmplx_input
 1918 0068 00000000 		.word	micRight_cmplx_input
 1919 006c 00000000 		.word	micBack_cmplx_input
 1920 0070 00000000 		.word	micFront_cmplx_input
 1921 0074 00000000 		.word	micLeft_output
 1922 0078 00000000 		.word	micRight_output
 1923 007c 00000000 		.word	micFront_output
 1924              		.cfi_endproc
 1925              	.LFE299:
 1926              		.size	get_audio_buffer_ptr, .-get_audio_buffer_ptr
 1927              		.section	.text.led_direction,"ax",%progbits
 1928              		.align	1
 1929              		.p2align 4,,15
 1930              		.global	led_direction
 1931              		.syntax unified
 1932              		.thumb
 1933              		.thumb_func
 1934              		.fpu fpv4-sp-d16
 1935              		.type	led_direction, %function
 1936              	led_direction:
 1937              	.LFB300:
 1938              		.loc 1 479 0
ARM GAS  C:\Users\adrie\AppData\Local\Temp\ccgB8szF.s 			page 35


 1939              		.cfi_startproc
 1940              		@ args = 0, pretend = 0, frame = 8
 1941              		@ frame_needed = 0, uses_anonymous_args = 0
 1942              	.LVL213:
 1943 0000 2DE9F041 		push	{r4, r5, r6, r7, r8, lr}
 1944              		.cfi_def_cfa_offset 24
 1945              		.cfi_offset 4, -24
 1946              		.cfi_offset 5, -20
 1947              		.cfi_offset 6, -16
 1948              		.cfi_offset 7, -12
 1949              		.cfi_offset 8, -8
 1950              		.cfi_offset 14, -4
 1951 0004 1F4D     		ldr	r5, .L211
 1952 0006 82B0     		sub	sp, sp, #8
 1953              		.cfi_def_cfa_offset 32
 1954              		.loc 1 479 0
 1955 0008 0646     		mov	r6, r0
 1956 000a 0C46     		mov	r4, r1
 1957 000c 2968     		ldr	r1, [r5]
 1958              	.LVL214:
 1959 000e 0191     		str	r1, [sp, #4]
 1960 0010 1746     		mov	r7, r2
 1961 0012 9846     		mov	r8, r3
 1962              		.loc 1 480 0
 1963 0014 FFF7FEFF 		bl	clear_leds
 1964              	.LVL215:
 1965              		.loc 1 481 0
 1966 0018 A642     		cmp	r6, r4
 1967 001a 10DB     		blt	.L197
 1968              		.loc 1 481 0 is_stmt 0 discriminator 1
 1969 001c BE42     		cmp	r6, r7
 1970 001e 0CDA     		bge	.L208
 1971              	.L198:
 1972              		.loc 1 489 0 is_stmt 1
 1973 0020 4745     		cmp	r7, r8
 1974 0022 10DB     		blt	.L200
 1975              		.loc 1 490 0
 1976 0024 019A     		ldr	r2, [sp, #4]
 1977 0026 2B68     		ldr	r3, [r5]
 1978 0028 9A42     		cmp	r2, r3
 1979 002a 29D1     		bne	.L207
 1980 002c 0121     		movs	r1, #1
 1981 002e 0020     		movs	r0, #0
 1982              		.loc 1 498 0
 1983 0030 02B0     		add	sp, sp, #8
 1984              		.cfi_remember_state
 1985              		.cfi_def_cfa_offset 24
 1986              		@ sp needed
 1987 0032 BDE8F041 		pop	{r4, r5, r6, r7, r8, lr}
 1988              		.cfi_restore 14
 1989              		.cfi_restore 8
 1990              		.cfi_restore 7
 1991              		.cfi_restore 6
 1992              		.cfi_restore 5
 1993              		.cfi_restore 4
 1994              		.cfi_def_cfa_offset 0
 1995              	.LVL216:
ARM GAS  C:\Users\adrie\AppData\Local\Temp\ccgB8szF.s 			page 36


 1996              		.loc 1 494 0
 1997 0036 FFF7FEBF 		b	set_led
 1998              	.LVL217:
 1999              	.L208:
 2000              		.cfi_restore_state
 2001              		.loc 1 481 0 discriminator 2
 2002 003a 4645     		cmp	r6, r8
 2003 003c 0EDA     		bge	.L209
 2004              	.L197:
 2005              		.loc 1 485 0
 2006 003e BC42     		cmp	r4, r7
 2007 0040 EEDB     		blt	.L198
 2008              		.loc 1 485 0 is_stmt 0 discriminator 1
 2009 0042 4445     		cmp	r4, r8
 2010 0044 11DA     		bge	.L210
 2011              	.L200:
 2012              		.loc 1 494 0 is_stmt 1
 2013 0046 019A     		ldr	r2, [sp, #4]
 2014 0048 2B68     		ldr	r3, [r5]
 2015 004a 9A42     		cmp	r2, r3
 2016 004c 18D1     		bne	.L207
 2017 004e 0121     		movs	r1, #1
 2018 0050 0220     		movs	r0, #2
 2019              	.L206:
 2020              		.loc 1 498 0
 2021 0052 02B0     		add	sp, sp, #8
 2022              		.cfi_remember_state
 2023              		.cfi_def_cfa_offset 24
 2024              		@ sp needed
 2025 0054 BDE8F041 		pop	{r4, r5, r6, r7, r8, lr}
 2026              		.cfi_restore 14
 2027              		.cfi_restore 8
 2028              		.cfi_restore 7
 2029              		.cfi_restore 6
 2030              		.cfi_restore 5
 2031              		.cfi_restore 4
 2032              		.cfi_def_cfa_offset 0
 2033              	.LVL218:
 2034              		.loc 1 494 0
 2035 0058 FFF7FEBF 		b	set_led
 2036              	.LVL219:
 2037              	.L209:
 2038              		.cfi_restore_state
 2039              	.LBB300:
 2040              	.LBB301:
 2041              		.loc 1 482 0
 2042 005c 019A     		ldr	r2, [sp, #4]
 2043 005e 2B68     		ldr	r3, [r5]
 2044 0060 9A42     		cmp	r2, r3
 2045 0062 0DD1     		bne	.L207
 2046 0064 0121     		movs	r1, #1
 2047 0066 0846     		mov	r0, r1
 2048 0068 F3E7     		b	.L206
 2049              	.LVL220:
 2050              	.L210:
 2051              	.LBE301:
 2052              	.LBE300:
ARM GAS  C:\Users\adrie\AppData\Local\Temp\ccgB8szF.s 			page 37


 2053              		.loc 1 486 0
 2054 006a 019A     		ldr	r2, [sp, #4]
 2055 006c 2B68     		ldr	r3, [r5]
 2056 006e 9A42     		cmp	r2, r3
 2057 0070 06D1     		bne	.L207
 2058 0072 0121     		movs	r1, #1
 2059 0074 0320     		movs	r0, #3
 2060              		.loc 1 498 0
 2061 0076 02B0     		add	sp, sp, #8
 2062              		.cfi_remember_state
 2063              		.cfi_def_cfa_offset 24
 2064              		@ sp needed
 2065 0078 BDE8F041 		pop	{r4, r5, r6, r7, r8, lr}
 2066              		.cfi_restore 14
 2067              		.cfi_restore 8
 2068              		.cfi_restore 7
 2069              		.cfi_restore 6
 2070              		.cfi_restore 5
 2071              		.cfi_restore 4
 2072              		.cfi_def_cfa_offset 0
 2073              	.LVL221:
 2074              		.loc 1 494 0
 2075 007c FFF7FEBF 		b	set_led
 2076              	.LVL222:
 2077              	.L207:
 2078              		.cfi_restore_state
 2079 0080 FFF7FEFF 		bl	__stack_chk_fail
 2080              	.LVL223:
 2081              	.L212:
 2082              		.align	2
 2083              	.L211:
 2084 0084 00000000 		.word	__stack_chk_guard
 2085              		.cfi_endproc
 2086              	.LFE300:
 2087              		.size	led_direction, .-led_direction
 2088              		.section	.text.processAudioData,"ax",%progbits
 2089              		.align	1
 2090              		.p2align 4,,15
 2091              		.global	processAudioData
 2092              		.syntax unified
 2093              		.thumb
 2094              		.thumb_func
 2095              		.fpu fpv4-sp-d16
 2096              		.type	processAudioData, %function
 2097              	processAudioData:
 2098              	.LFB291:
 2099              		.loc 1 134 0
 2100              		.cfi_startproc
 2101              		@ args = 0, pretend = 0, frame = 72
 2102              		@ frame_needed = 0, uses_anonymous_args = 0
 2103              	.LVL224:
 2104 0000 2DE9F04F 		push	{r4, r5, r6, r7, r8, r9, r10, fp, lr}
 2105              		.cfi_def_cfa_offset 36
 2106              		.cfi_offset 4, -36
 2107              		.cfi_offset 5, -32
 2108              		.cfi_offset 6, -28
 2109              		.cfi_offset 7, -24
ARM GAS  C:\Users\adrie\AppData\Local\Temp\ccgB8szF.s 			page 38


 2110              		.cfi_offset 8, -20
 2111              		.cfi_offset 9, -16
 2112              		.cfi_offset 10, -12
 2113              		.cfi_offset 11, -8
 2114              		.cfi_offset 14, -4
 2115 0004 B04C     		ldr	r4, .L230
 2116 0006 B14E     		ldr	r6, .L230+4
 2117 0008 2368     		ldr	r3, [r4]
 2118 000a 3288     		ldrh	r2, [r6]
 2119 000c 93B0     		sub	sp, sp, #76
 2120              		.cfi_def_cfa_offset 112
 2121              		.loc 1 134 0
 2122 000e 1193     		str	r3, [sp, #68]
 2123              	.LVL225:
 2124              	.LBB341:
 2125              		.loc 1 148 0
 2126 0010 0029     		cmp	r1, #0
 2127 0012 00F0EF80 		beq	.L214
 2128 0016 DFF8BC92 		ldr	r9, .L230+12
 2129 001a DFF8BC82 		ldr	r8, .L230+16
 2130 001e DFF8C0E2 		ldr	lr, .L230+24
 2131 0022 DFF8B8C2 		ldr	ip, .L230+20
 2132              		.loc 1 157 0
 2133 0026 DFEDAA7A 		vldr.32	s15, .L230+8
 2134              		.loc 1 148 0
 2135 002a 0027     		movs	r7, #0
 2136 002c 04E0     		b	.L217
 2137              	.LVL226:
 2138              	.L215:
 2139              		.loc 1 148 0 is_stmt 0 discriminator 2
 2140 002e 0437     		adds	r7, r7, #4
 2141              	.LVL227:
 2142 0030 BFB2     		uxth	r7, r7
 2143              	.LVL228:
 2144 0032 B942     		cmp	r1, r7
 2145 0034 40F2D680 		bls	.L227
 2146              	.LVL229:
 2147              	.L217:
 2148              		.loc 1 150 0 is_stmt 1
 2149 0038 30F91730 		ldrsh	r3, [r0, r7, lsl #1]
 2150 003c 07EE103A 		vmov	s14, r3	@ int
 2151 0040 9500     		lsls	r5, r2, #2
 2152 0042 B8EEC77A 		vcvt.f32.s32	s14, s14
 2153 0046 09EB050A 		add	r10, r9, r5
 2154              		.loc 1 151 0
 2155 004a 00EB4703 		add	r3, r0, r7, lsl #1
 2156              		.loc 1 150 0
 2157 004e 8AED007A 		vstr.32	s14, [r10]
 2158              		.loc 1 151 0
 2159 0052 B3F902A0 		ldrsh	r10, [r3, #2]
 2160 0056 07EE10AA 		vmov	s14, r10	@ int
 2161 005a B8EEC77A 		vcvt.f32.s32	s14, s14
 2162 005e 08EB050A 		add	r10, r8, r5
 2163 0062 8AED007A 		vstr.32	s14, [r10]
 2164              		.loc 1 152 0
 2165 0066 B3F904A0 		ldrsh	r10, [r3, #4]
 2166 006a 07EE10AA 		vmov	s14, r10	@ int
ARM GAS  C:\Users\adrie\AppData\Local\Temp\ccgB8szF.s 			page 39


 2167 006e B8EEC77A 		vcvt.f32.s32	s14, s14
 2168 0072 0EEB050A 		add	r10, lr, r5
 2169 0076 8AED007A 		vstr.32	s14, [r10]
 2170              		.loc 1 153 0
 2171 007a B3F90630 		ldrsh	r3, [r3, #6]
 2172 007e 07EE103A 		vmov	s14, r3	@ int
 2173              		.loc 1 157 0
 2174 0082 531C     		adds	r3, r2, #1
 2175 0084 9BB2     		uxth	r3, r3
 2176              		.loc 1 153 0
 2177 0086 B8EEC77A 		vcvt.f32.s32	s14, s14
 2178              		.loc 1 162 0
 2179 008a 0232     		adds	r2, r2, #2
 2180              		.loc 1 157 0
 2181 008c 9B00     		lsls	r3, r3, #2
 2182              		.loc 1 153 0
 2183 008e 6544     		add	r5, r5, ip
 2184              		.loc 1 162 0
 2185 0090 92B2     		uxth	r2, r2
 2186              		.loc 1 153 0
 2187 0092 85ED007A 		vstr.32	s14, [r5]
 2188              		.loc 1 157 0
 2189 0096 09EB030B 		add	fp, r9, r3
 2190              		.loc 1 158 0
 2191 009a 08EB030A 		add	r10, r8, r3
 2192              		.loc 1 159 0
 2193 009e 0EEB0305 		add	r5, lr, r3
 2194              		.loc 1 165 0
 2195 00a2 B2F5006F 		cmp	r2, #2048
 2196              		.loc 1 160 0
 2197 00a6 6344     		add	r3, r3, ip
 2198              		.loc 1 157 0
 2199 00a8 CBED007A 		vstr.32	s15, [fp]
 2200              		.loc 1 158 0
 2201 00ac CAED007A 		vstr.32	s15, [r10]
 2202              		.loc 1 159 0
 2203 00b0 C5ED007A 		vstr.32	s15, [r5]
 2204              		.loc 1 160 0
 2205 00b4 C3ED007A 		vstr.32	s15, [r3]
 2206              		.loc 1 165 0
 2207 00b8 B9D3     		bcc	.L215
 2208 00ba 3280     		strh	r2, [r6]	@ movhi
 2209              	.LVL230:
 2210              	.L216:
 2211              	.LBE341:
 2212              	.LBB342:
 2213              		.loc 1 177 0
 2214 00bc 8549     		ldr	r1, .L230+12
 2215              	.LVL231:
 2216 00be 4FF48060 		mov	r0, #1024
 2217              	.LVL232:
 2218 00c2 FFF7FEFF 		bl	doFFT_optimized
 2219              	.LVL233:
 2220              		.loc 1 178 0
 2221 00c6 8449     		ldr	r1, .L230+16
 2222 00c8 4FF48060 		mov	r0, #1024
 2223 00cc FFF7FEFF 		bl	doFFT_optimized
ARM GAS  C:\Users\adrie\AppData\Local\Temp\ccgB8szF.s 			page 40


 2224              	.LVL234:
 2225              		.loc 1 179 0
 2226 00d0 8249     		ldr	r1, .L230+20
 2227 00d2 4FF48060 		mov	r0, #1024
 2228 00d6 FFF7FEFF 		bl	doFFT_optimized
 2229              	.LVL235:
 2230              		.loc 1 180 0
 2231 00da 8149     		ldr	r1, .L230+24
 2232 00dc 4FF48060 		mov	r0, #1024
 2233 00e0 FFF7FEFF 		bl	doFFT_optimized
 2234              	.LVL236:
 2235              		.loc 1 190 0
 2236 00e4 4FF48062 		mov	r2, #1024
 2237 00e8 7E49     		ldr	r1, .L230+28
 2238 00ea 7A48     		ldr	r0, .L230+12
 2239 00ec FFF7FEFF 		bl	arm_cmplx_mag_f32
 2240              	.LVL237:
 2241              		.loc 1 191 0
 2242 00f0 4FF48062 		mov	r2, #1024
 2243 00f4 7C49     		ldr	r1, .L230+32
 2244 00f6 7848     		ldr	r0, .L230+16
 2245 00f8 FFF7FEFF 		bl	arm_cmplx_mag_f32
 2246              	.LVL238:
 2247              		.loc 1 192 0
 2248 00fc 4FF48062 		mov	r2, #1024
 2249 0100 7A49     		ldr	r1, .L230+36
 2250 0102 7648     		ldr	r0, .L230+20
 2251 0104 FFF7FEFF 		bl	arm_cmplx_mag_f32
 2252              	.LVL239:
 2253              		.loc 1 193 0
 2254 0108 4FF48062 		mov	r2, #1024
 2255 010c 7849     		ldr	r1, .L230+40
 2256 010e 7448     		ldr	r0, .L230+24
 2257 0110 FFF7FEFF 		bl	arm_cmplx_mag_f32
 2258              	.LVL240:
 2259              		.loc 1 198 0
 2260 0114 0521     		movs	r1, #5
 2261 0116 01A8     		add	r0, sp, #4
 2262 0118 FFF7FEFF 		bl	get_max_norm_index
 2263              	.LVL241:
 2264              		.loc 1 199 0
 2265 011c 0421     		movs	r1, #4
 2266 011e 03A8     		add	r0, sp, #12
 2267              		.loc 1 198 0
 2268 0120 DDF804A0 		ldr	r10, [sp, #4]
 2269              	.LVL242:
 2270              		.loc 1 199 0
 2271 0124 FFF7FEFF 		bl	get_max_norm_index
 2272              	.LVL243:
 2273              	.LBB343:
 2274              	.LBB344:
 2275 0128 0621     		movs	r1, #6
 2276 012a 05A8     		add	r0, sp, #20
 2277              	.LBE344:
 2278              	.LBE343:
 2279 012c 039D     		ldr	r5, [sp, #12]
 2280              	.LVL244:
ARM GAS  C:\Users\adrie\AppData\Local\Temp\ccgB8szF.s 			page 41


 2281              	.LBB346:
 2282              	.LBB345:
 2283 012e FFF7FEFF 		bl	get_max_norm_index.part.0
 2284              	.LVL245:
 2285              	.LBE345:
 2286              	.LBE346:
 2287              	.LBB347:
 2288              	.LBB348:
 2289 0132 0721     		movs	r1, #7
 2290 0134 07A8     		add	r0, sp, #28
 2291              	.LBE348:
 2292              	.LBE347:
 2293              		.loc 1 200 0
 2294 0136 DDF81490 		ldr	r9, [sp, #20]
 2295              	.LVL246:
 2296              	.LBB350:
 2297              	.LBB349:
 2298 013a FFF7FEFF 		bl	get_max_norm_index.part.0
 2299              	.LVL247:
 2300              	.LBE349:
 2301              	.LBE350:
 2302              		.loc 1 202 0
 2303 013e 0521     		movs	r1, #5
 2304 0140 09A8     		add	r0, sp, #36
 2305              		.loc 1 201 0
 2306 0142 DDF81C80 		ldr	r8, [sp, #28]
 2307              	.LVL248:
 2308              		.loc 1 202 0
 2309 0146 FFF7FEFF 		bl	get_max_norm_index
 2310              	.LVL249:
 2311              		.loc 1 203 0
 2312 014a 0421     		movs	r1, #4
 2313 014c 0BA8     		add	r0, sp, #44
 2314 014e FFF7FEFF 		bl	get_max_norm_index
 2315              	.LVL250:
 2316              	.LBB351:
 2317              	.LBB352:
 2318 0152 0621     		movs	r1, #6
 2319 0154 0DA8     		add	r0, sp, #52
 2320 0156 FFF7FEFF 		bl	get_max_norm_index.part.0
 2321              	.LVL251:
 2322              	.LBE352:
 2323              	.LBE351:
 2324              	.LBB353:
 2325              	.LBB354:
 2326 015a 0721     		movs	r1, #7
 2327 015c 0FA8     		add	r0, sp, #60
 2328 015e FFF7FEFF 		bl	get_max_norm_index.part.0
 2329              	.LVL252:
 2330              	.LBE354:
 2331              	.LBE353:
 2332              		.loc 1 211 0
 2333 0162 644B     		ldr	r3, .L230+44
 2334 0164 1B78     		ldrb	r3, [r3]	@ zero_extendqisi2
 2335              	.LVL253:
 2336              	.LBB355:
 2337              	.LBB356:
ARM GAS  C:\Users\adrie\AppData\Local\Temp\ccgB8szF.s 			page 42


 2338              		.loc 1 394 0
 2339 0166 032B     		cmp	r3, #3
 2340 0168 48D8     		bhi	.L219
 2341              	.LBE356:
 2342              	.LBE355:
 2343              		.loc 1 199 0
 2344 016a 07EE905A 		vmov	s15, r5	@ int
 2345 016e 9FED626A 		vldr.32	s12, .L230+48
 2346              		.loc 1 212 0
 2347 0172 6249     		ldr	r1, .L230+52
 2348              	.LBB362:
 2349              	.LBB357:
 2350              		.loc 1 395 0
 2351 0174 624D     		ldr	r5, .L230+56
 2352              	.LVL254:
 2353              	.LBE357:
 2354              	.LBE362:
 2355              		.loc 1 212 0
 2356 0176 0A68     		ldr	r2, [r1]
 2357              		.loc 1 199 0
 2358 0178 F8EEE76A 		vcvt.f32.s32	s13, s15
 2359              	.LVL255:
 2360              		.loc 1 198 0
 2361 017c 07EE90AA 		vmov	s15, r10	@ int
 2362              		.loc 1 199 0
 2363 0180 66EE866A 		vmul.f32	s13, s13, s12
 2364              	.LVL256:
 2365              		.loc 1 198 0
 2366 0184 B8EEE77A 		vcvt.f32.s32	s14, s15
 2367              	.LVL257:
 2368              		.loc 1 201 0
 2369 0188 07EE908A 		vmov	s15, r8	@ int
 2370              		.loc 1 198 0
 2371 018c 27EE067A 		vmul.f32	s14, s14, s12
 2372              	.LVL258:
 2373              		.loc 1 201 0
 2374 0190 F8EEE77A 		vcvt.f32.s32	s15, s15
 2375              	.LVL259:
 2376              		.loc 1 199 0
 2377 0194 FDEEE66A 		vcvt.s32.f32	s13, s13
 2378              	.LBB363:
 2379              	.LBB358:
 2380              		.loc 1 395 0
 2381 0198 03F1FF30 		add	r0, r3, #-1
 2382              	.LBE358:
 2383              	.LBE363:
 2384              		.loc 1 212 0
 2385 019c 02F1010C 		add	ip, r2, #1
 2386              		.loc 1 201 0
 2387 01a0 67EE867A 		vmul.f32	s15, s15, s12
 2388              	.LVL260:
 2389              		.loc 1 199 0
 2390 01a4 0246     		mov	r2, r0
 2391              		.loc 1 198 0
 2392 01a6 BDEEC77A 		vcvt.s32.f32	s14, s14
 2393              		.loc 1 199 0
 2394 01aa 16EE900A 		vmov	r0, s13	@ int
ARM GAS  C:\Users\adrie\AppData\Local\Temp\ccgB8szF.s 			page 43


 2395              		.loc 1 198 0
 2396 01ae 17EE107A 		vmov	r7, s14	@ int
 2397              		.loc 1 199 0
 2398 01b2 45F82200 		str	r0, [r5, r2, lsl #2]
 2399              		.loc 1 201 0
 2400 01b6 FDEEE77A 		vcvt.s32.f32	s15, s15
 2401              	.LBB364:
 2402              	.LBB359:
 2403              		.loc 1 397 0
 2404 01ba 03F10202 		add	r2, r3, #2
 2405              		.loc 1 398 0
 2406 01be 03F10500 		add	r0, r3, #5
 2407              	.LBE359:
 2408              	.LBE364:
 2409              		.loc 1 198 0
 2410 01c2 45F82270 		str	r7, [r5, r2, lsl #2]
 2411              		.loc 1 212 0
 2412 01c6 C1F800C0 		str	ip, [r1]
 2413              	.LBB365:
 2414              	.LBB360:
 2415              		.loc 1 399 0
 2416 01ca 03F10802 		add	r2, r3, #8
 2417              	.LBE360:
 2418              	.LBE365:
 2419              		.loc 1 201 0
 2420 01ce 17EE901A 		vmov	r1, s15	@ int
 2421              	.LBB366:
 2422              	.LBB361:
 2423              		.loc 1 398 0
 2424 01d2 45F82090 		str	r9, [r5, r0, lsl #2]
 2425              	.LBE361:
 2426              	.LBE366:
 2427              		.loc 1 201 0
 2428 01d6 45F82210 		str	r1, [r5, r2, lsl #2]
 2429              	.LVL261:
 2430              		.loc 1 216 0
 2431 01da 14D0     		beq	.L223
 2432              	.LVL262:
 2433              	.L220:
 2434              		.loc 1 256 0
 2435 01dc 4549     		ldr	r1, .L230+44
 2436 01de 0133     		adds	r3, r3, #1
 2437              		.loc 1 255 0
 2438 01e0 0022     		movs	r2, #0
 2439              		.loc 1 256 0
 2440 01e2 0B70     		strb	r3, [r1]
 2441              	.LVL263:
 2442              	.L227:
 2443              		.loc 1 255 0
 2444 01e4 3280     		strh	r2, [r6]	@ movhi
 2445              	.L213:
 2446              	.LBE342:
 2447              		.loc 1 262 0
 2448 01e6 119A     		ldr	r2, [sp, #68]
 2449 01e8 2368     		ldr	r3, [r4]
 2450 01ea 9A42     		cmp	r2, r3
 2451 01ec 6AD1     		bne	.L228
ARM GAS  C:\Users\adrie\AppData\Local\Temp\ccgB8szF.s 			page 44


 2452 01ee 13B0     		add	sp, sp, #76
 2453              		.cfi_remember_state
 2454              		.cfi_def_cfa_offset 36
 2455              		@ sp needed
 2456 01f0 BDE8F08F 		pop	{r4, r5, r6, r7, r8, r9, r10, fp, pc}
 2457              	.LVL264:
 2458              	.L214:
 2459              		.cfi_restore_state
 2460              		.loc 1 170 0
 2461 01f4 B2F5006F 		cmp	r2, #2048
 2462 01f8 F5D3     		bcc	.L213
 2463 01fa 5FE7     		b	.L216
 2464              	.LVL265:
 2465              	.L219:
 2466              	.LBB447:
 2467              		.loc 1 212 0
 2468 01fc 3F4A     		ldr	r2, .L230+52
 2469 01fe 404D     		ldr	r5, .L230+56
 2470              	.LVL266:
 2471 0200 1368     		ldr	r3, [r2]
 2472 0202 0133     		adds	r3, r3, #1
 2473 0204 1360     		str	r3, [r2]
 2474              	.L223:
 2475              	.LVL267:
 2476              	.LBB367:
 2477              	.LBB368:
 2478              	.LBB369:
 2479              	.LBB370:
 2480              	.LBB371:
 2481              	.LBB372:
 2482              	.LBB373:
 2483              	.LBB374:
 2484              		.loc 3 546 0
 2485 0206 2023     		movs	r3, #32
 2486              		.syntax unified
 2487              	@ 546 "../lib/e-puck2_main-processor/ChibiOS//os/ext/CMSIS/include/core_cmFunc.h" 1
 2488 0208 83F31188 		MSR basepri, r3
 2489              	@ 0 "" 2
 2490              	.LVL268:
 2491              		.thumb
 2492              		.syntax unified
 2493              	.LBE374:
 2494              	.LBE373:
 2495              	.LBE372:
 2496              		.loc 4 349 0
 2497 020c FFF7FEFF 		bl	_stats_start_measure_crit_thd
 2498              	.LVL269:
 2499              		.loc 4 350 0
 2500 0210 FFF7FEFF 		bl	_dbg_check_lock
 2501              	.LVL270:
 2502              	.LBE371:
 2503              	.LBE370:
 2504              	.LBB375:
 2505              	.LBB376:
 2506              		.loc 6 268 0
 2507 0214 FFF7FEFF 		bl	chDbgCheckClassI
 2508              	.LVL271:
ARM GAS  C:\Users\adrie\AppData\Local\Temp\ccgB8szF.s 			page 45


 2509              		.loc 6 270 0
 2510 0218 3A48     		ldr	r0, .L230+60
 2511 021a 8368     		ldr	r3, [r0, #8]
 2512 021c 002B     		cmp	r3, #0
 2513 021e 4EDD     		ble	.L229
 2514              	.L221:
 2515              	.LVL272:
 2516              	.LBE376:
 2517              	.LBE375:
 2518              		.loc 6 286 0
 2519 0220 FFF7FEFF 		bl	chSchRescheduleS
 2520              	.LVL273:
 2521              	.LBB378:
 2522              	.LBB379:
 2523              		.loc 4 360 0
 2524 0224 FFF7FEFF 		bl	_dbg_check_unlock
 2525              	.LVL274:
 2526              		.loc 4 361 0
 2527 0228 FFF7FEFF 		bl	_stats_stop_measure_crit_thd
 2528              	.LVL275:
 2529              		.loc 4 367 0
 2530 022c 364B     		ldr	r3, .L230+64
 2531 022e 1A68     		ldr	r2, [r3]
 2532 0230 9A42     		cmp	r2, r3
 2533 0232 07D0     		beq	.L222
 2534 0234 9969     		ldr	r1, [r3, #24]
 2535 0236 9368     		ldr	r3, [r2, #8]
 2536 0238 8A68     		ldr	r2, [r1, #8]
 2537 023a 9A42     		cmp	r2, r3
 2538 023c 02D2     		bcs	.L222
 2539 023e 3348     		ldr	r0, .L230+68
 2540 0240 FFF7FEFF 		bl	chSysHalt
 2541              	.LVL276:
 2542              	.L222:
 2543              	.LBB380:
 2544              	.LBB381:
 2545              	.LBB382:
 2546              		.loc 3 546 0
 2547 0244 4FF0000C 		mov	ip, #0
 2548              		.syntax unified
 2549              	@ 546 "../lib/e-puck2_main-processor/ChibiOS//os/ext/CMSIS/include/core_cmFunc.h" 1
 2550 0248 8CF31188 		MSR basepri, ip
 2551              	@ 0 "" 2
 2552              	.LVL277:
 2553              		.thumb
 2554              		.syntax unified
 2555              	.LBE382:
 2556              	.LBE381:
 2557              	.LBE380:
 2558              	.LBE379:
 2559              	.LBE378:
 2560              	.LBE369:
 2561              	.LBE368:
 2562              		.loc 1 220 0
 2563 024c 294F     		ldr	r7, .L230+44
 2564              	.LBB385:
 2565              	.LBB386:
ARM GAS  C:\Users\adrie\AppData\Local\Temp\ccgB8szF.s 			page 46


 2566              	.LBB387:
 2567              		.loc 1 386 0
 2568 024e D5F814E0 		ldr	lr, [r5, #20]
 2569              	.LBE387:
 2570              	.LBE386:
 2571              	.LBE385:
 2572              		.loc 1 220 0
 2573 0252 87F800C0 		strb	ip, [r7]
 2574              	.LVL278:
 2575              	.LBB396:
 2576              	.LBB391:
 2577              	.LBB388:
 2578              		.loc 1 386 0
 2579 0256 D5E9030B 		ldrd	r0, fp, [r5, #12]
 2580              	.LBE388:
 2581              	.LBE391:
 2582              	.LBE396:
 2583              	.LBB397:
 2584              	.LBB398:
 2585              	.LBB399:
 2586 025a D5E900A1 		ldrd	r10, r1, [r5]
 2587              	.LVL279:
 2588              	.LBE399:
 2589              	.LBE398:
 2590              	.LBE397:
 2591              	.LBB408:
 2592              	.LBB409:
 2593              	.LBB410:
 2594 025e D5E90692 		ldrd	r9, r2, [r5, #24]
 2595              	.LVL280:
 2596              	.LBE410:
 2597              	.LBE409:
 2598              	.LBE408:
 2599              	.LBB419:
 2600              	.LBB420:
 2601              	.LBB421:
 2602 0262 D5E90983 		ldrd	r8, r3, [r5, #36]
 2603              	.LVL281:
 2604              	.LBE421:
 2605              	.LBE420:
 2606              	.LBE419:
 2607              	.LBB428:
 2608              	.LBB403:
 2609              	.LBB400:
 2610 0266 D5F808C0 		ldr	ip, [r5, #8]
 2611              	.LBE400:
 2612              	.LBE403:
 2613              	.LBE428:
 2614              	.LBB429:
 2615              	.LBB414:
 2616              	.LBB411:
 2617 026a 2F6A     		ldr	r7, [r5, #32]
 2618              	.LBE411:
 2619              	.LBE414:
 2620              	.LBE429:
 2621              	.LBB430:
 2622              	.LBB424:
ARM GAS  C:\Users\adrie\AppData\Local\Temp\ccgB8szF.s 			page 47


 2623              	.LBB422:
 2624 026c ED6A     		ldr	r5, [r5, #44]
 2625              	.LBE422:
 2626              	.LBE424:
 2627              	.LBE430:
 2628              	.LBB431:
 2629              	.LBB392:
 2630              	.LBB389:
 2631 026e 8344     		add	fp, fp, r0
 2632              	.LVL282:
 2633              	.LBE389:
 2634              	.LBE392:
 2635              	.LBE431:
 2636              	.LBB432:
 2637              	.LBB404:
 2638              	.LBB401:
 2639 0270 5144     		add	r1, r1, r10
 2640              	.LBE401:
 2641              	.LBE404:
 2642              	.LBE432:
 2643              	.LBB433:
 2644              	.LBB393:
 2645              		.loc 1 389 0
 2646 0272 2748     		ldr	r0, .L230+72
 2647              	.LBE393:
 2648              	.LBE433:
 2649              	.LBB434:
 2650              	.LBB415:
 2651              	.LBB412:
 2652              		.loc 1 386 0
 2653 0274 4A44     		add	r2, r2, r9
 2654              	.LBE412:
 2655              	.LBE415:
 2656              	.LBE434:
 2657              	.LBB435:
 2658              	.LBB425:
 2659              	.LBB423:
 2660 0276 4344     		add	r3, r3, r8
 2661 0278 2B44     		add	r3, r3, r5
 2662              	.LBE423:
 2663              	.LBE425:
 2664              	.LBE435:
 2665              	.LBB436:
 2666              	.LBB405:
 2667              	.LBB402:
 2668 027a 6144     		add	r1, r1, ip
 2669              	.LBE402:
 2670              	.LBE405:
 2671              	.LBE436:
 2672              	.LBB437:
 2673              	.LBB416:
 2674              	.LBB413:
 2675 027c 3A44     		add	r2, r2, r7
 2676              	.LBE413:
 2677              	.LBE416:
 2678              	.LBE437:
 2679              	.LBB438:
ARM GAS  C:\Users\adrie\AppData\Local\Temp\ccgB8szF.s 			page 48


 2680              	.LBB394:
 2681              	.LBB390:
 2682 027e F344     		add	fp, fp, lr
 2683              	.LVL283:
 2684              	.LBE390:
 2685              		.loc 1 389 0
 2686 0280 80FB0B5E 		smull	r5, lr, r0, fp
 2687              	.LBE394:
 2688              	.LBE438:
 2689              	.LBB439:
 2690              	.LBB406:
 2691 0284 80FB015A 		smull	r5, r10, r0, r1
 2692              	.LBE406:
 2693              	.LBE439:
 2694              	.LBB440:
 2695              	.LBB417:
 2696 0288 80FB0259 		smull	r5, r9, r0, r2
 2697              	.LBE417:
 2698              	.LBE440:
 2699              	.LBB441:
 2700              	.LBB426:
 2701 028c 80FB0305 		smull	r0, r5, r0, r3
 2702              	.LBE426:
 2703              	.LBE441:
 2704              	.LBB442:
 2705              	.LBB395:
 2706 0290 AEEBEB7B 		sub	fp, lr, fp, asr #31
 2707              	.LVL284:
 2708              	.LBE395:
 2709              	.LBE442:
 2710              	.LBB443:
 2711              	.LBB407:
 2712 0294 AAEBE17A 		sub	r10, r10, r1, asr #31
 2713              	.LVL285:
 2714              	.LBE407:
 2715              	.LBE443:
 2716              	.LBB444:
 2717              	.LBB418:
 2718 0298 A9EBE279 		sub	r9, r9, r2, asr #31
 2719              	.LVL286:
 2720              	.LBE418:
 2721              	.LBE444:
 2722              	.LBB445:
 2723              	.LBB427:
 2724 029c A5EBE375 		sub	r5, r5, r3, asr #31
 2725              	.LVL287:
 2726              	.LBE427:
 2727              	.LBE445:
 2728              		.loc 1 229 0
 2729 02a0 5846     		mov	r0, fp
 2730 02a2 5146     		mov	r1, r10
 2731 02a4 4A46     		mov	r2, r9
 2732 02a6 2B46     		mov	r3, r5
 2733 02a8 FFF7FEFF 		bl	led_direction
 2734              	.LVL288:
 2735              		.loc 1 231 0
 2736 02ac 2B46     		mov	r3, r5
ARM GAS  C:\Users\adrie\AppData\Local\Temp\ccgB8szF.s 			page 49


 2737 02ae 4A46     		mov	r2, r9
 2738 02b0 5146     		mov	r1, r10
 2739 02b2 5846     		mov	r0, fp
 2740 02b4 FFF7FEFF 		bl	calcul_angle
 2741              	.LVL289:
 2742 02b8 0E4B     		ldr	r3, .L230+44
 2743 02ba 1B78     		ldrb	r3, [r3]	@ zero_extendqisi2
 2744 02bc 8EE7     		b	.L220
 2745              	.LVL290:
 2746              	.L229:
 2747              	.LBB446:
 2748              	.LBB384:
 2749              	.LBB383:
 2750              	.LBB377:
 2751              		.loc 6 271 0
 2752 02be FFF7FEFF 		bl	chSemSignalI
 2753              	.LVL291:
 2754 02c2 ADE7     		b	.L221
 2755              	.LVL292:
 2756              	.L228:
 2757              	.LBE377:
 2758              	.LBE383:
 2759              	.LBE384:
 2760              	.LBE446:
 2761              	.LBE367:
 2762              	.LBE447:
 2763              		.loc 1 262 0
 2764 02c4 FFF7FEFF 		bl	__stack_chk_fail
 2765              	.LVL293:
 2766              	.L231:
 2767              		.align	2
 2768              	.L230:
 2769 02c8 00000000 		.word	__stack_chk_guard
 2770 02cc 00000000 		.word	.LANCHOR6
 2771 02d0 00000000 		.word	0
 2772 02d4 00000000 		.word	micRight_cmplx_input
 2773 02d8 00000000 		.word	micLeft_cmplx_input
 2774 02dc 00000000 		.word	micFront_cmplx_input
 2775 02e0 00000000 		.word	micBack_cmplx_input
 2776 02e4 00000000 		.word	micRight_output
 2777 02e8 00000000 		.word	micLeft_output
 2778 02ec 00000000 		.word	micFront_output
 2779 02f0 00000000 		.word	micBack_output
 2780 02f4 00000000 		.word	.LANCHOR7
 2781 02f8 A4707D3F 		.word	1065185444
 2782 02fc 00000000 		.word	.LANCHOR8
 2783 0300 00000000 		.word	.LANCHOR2
 2784 0304 00000000 		.word	.LANCHOR5
 2785 0308 00000000 		.word	ch
 2786 030c 00000000 		.word	.LANCHOR1
 2787 0310 56555555 		.word	1431655766
 2788              		.cfi_endproc
 2789              	.LFE291:
 2790              		.size	processAudioData, .-processAudioData
 2791              		.section	.text.echantillone_distance,"ax",%progbits
 2792              		.align	1
 2793              		.p2align 4,,15
ARM GAS  C:\Users\adrie\AppData\Local\Temp\ccgB8szF.s 			page 50


 2794              		.global	echantillone_distance
 2795              		.syntax unified
 2796              		.thumb
 2797              		.thumb_func
 2798              		.fpu fpv4-sp-d16
 2799              		.type	echantillone_distance, %function
 2800              	echantillone_distance:
 2801              	.LFB301:
 2802              		.loc 1 580 0
 2803              		.cfi_startproc
 2804              		@ args = 0, pretend = 0, frame = 8
 2805              		@ frame_needed = 0, uses_anonymous_args = 0
 2806              	.LVL294:
 2807 0000 00B5     		push	{lr}
 2808              		.cfi_def_cfa_offset 4
 2809              		.cfi_offset 14, -4
 2810 0002 064B     		ldr	r3, .L236
 2811 0004 83B0     		sub	sp, sp, #12
 2812              		.cfi_def_cfa_offset 16
 2813              		.loc 1 580 0
 2814 0006 1A68     		ldr	r2, [r3]
 2815 0008 0192     		str	r2, [sp, #4]
 2816              		.loc 1 588 0
 2817 000a 019A     		ldr	r2, [sp, #4]
 2818 000c 1B68     		ldr	r3, [r3]
 2819 000e 9A42     		cmp	r2, r3
 2820 0010 02D1     		bne	.L235
 2821 0012 03B0     		add	sp, sp, #12
 2822              		.cfi_remember_state
 2823              		.cfi_def_cfa_offset 4
 2824              		@ sp needed
 2825 0014 5DF804FB 		ldr	pc, [sp], #4
 2826              	.L235:
 2827              		.cfi_restore_state
 2828 0018 FFF7FEFF 		bl	__stack_chk_fail
 2829              	.LVL295:
 2830              	.L237:
 2831              		.align	2
 2832              	.L236:
 2833 001c 00000000 		.word	__stack_chk_guard
 2834              		.cfi_endproc
 2835              	.LFE301:
 2836              		.size	echantillone_distance, .-echantillone_distance
 2837              		.section	.text.get_max_front_moyenne,"ax",%progbits
 2838              		.align	1
 2839              		.p2align 4,,15
 2840              		.global	get_max_front_moyenne
 2841              		.syntax unified
 2842              		.thumb
 2843              		.thumb_func
 2844              		.fpu fpv4-sp-d16
 2845              		.type	get_max_front_moyenne, %function
 2846              	get_max_front_moyenne:
 2847              	.LFB302:
 2848              		.loc 1 590 0
 2849              		.cfi_startproc
 2850              		@ args = 0, pretend = 0, frame = 8
ARM GAS  C:\Users\adrie\AppData\Local\Temp\ccgB8szF.s 			page 51


 2851              		@ frame_needed = 0, uses_anonymous_args = 0
 2852 0000 30B5     		push	{r4, r5, lr}
 2853              		.cfi_def_cfa_offset 12
 2854              		.cfi_offset 4, -12
 2855              		.cfi_offset 5, -8
 2856              		.cfi_offset 14, -4
 2857              	.LBB448:
 2858              	.LBB449:
 2859              	.LBB450:
 2860              		.loc 1 386 0
 2861 0002 0B4A     		ldr	r2, .L242
 2862              	.LBE450:
 2863              	.LBE449:
 2864              	.LBE448:
 2865              		.loc 1 590 0
 2866 0004 0B49     		ldr	r1, .L242+4
 2867              	.LBB458:
 2868              	.LBB454:
 2869              	.LBB451:
 2870              		.loc 1 386 0
 2871 0006 156A     		ldr	r5, [r2, #32]
 2872 0008 D2E90630 		ldrd	r3, r0, [r2, #24]
 2873              	.LBE451:
 2874              	.LBE454:
 2875              	.LBE458:
 2876              		.loc 1 590 0
 2877 000c 83B0     		sub	sp, sp, #12
 2878              		.cfi_def_cfa_offset 24
 2879              		.loc 1 590 0
 2880 000e 0A68     		ldr	r2, [r1]
 2881 0010 0192     		str	r2, [sp, #4]
 2882              	.LVL296:
 2883              	.LBB459:
 2884              	.LBB455:
 2885              	.LBB452:
 2886              		.loc 1 386 0
 2887 0012 0344     		add	r3, r3, r0
 2888              	.LVL297:
 2889              	.LBE452:
 2890              	.LBE455:
 2891              	.LBE459:
 2892              		.loc 1 592 0
 2893 0014 019C     		ldr	r4, [sp, #4]
 2894              	.LBB460:
 2895              	.LBB456:
 2896              		.loc 1 389 0
 2897 0016 0848     		ldr	r0, .L242+8
 2898              	.LBE456:
 2899              	.LBE460:
 2900              		.loc 1 592 0
 2901 0018 0A68     		ldr	r2, [r1]
 2902              	.LBB461:
 2903              	.LBB457:
 2904              	.LBB453:
 2905              		.loc 1 386 0
 2906 001a 2B44     		add	r3, r3, r5
 2907              	.LBE453:
ARM GAS  C:\Users\adrie\AppData\Local\Temp\ccgB8szF.s 			page 52


 2908              		.loc 1 389 0
 2909 001c 80FB0310 		smull	r1, r0, r0, r3
 2910              	.LBE457:
 2911              	.LBE461:
 2912              		.loc 1 592 0
 2913 0020 9442     		cmp	r4, r2
 2914 0022 A0EBE370 		sub	r0, r0, r3, asr #31
 2915 0026 01D1     		bne	.L241
 2916 0028 03B0     		add	sp, sp, #12
 2917              		.cfi_remember_state
 2918              		.cfi_def_cfa_offset 12
 2919              		@ sp needed
 2920 002a 30BD     		pop	{r4, r5, pc}
 2921              	.L241:
 2922              		.cfi_restore_state
 2923 002c FFF7FEFF 		bl	__stack_chk_fail
 2924              	.LVL298:
 2925              	.L243:
 2926              		.align	2
 2927              	.L242:
 2928 0030 00000000 		.word	.LANCHOR2
 2929 0034 00000000 		.word	__stack_chk_guard
 2930 0038 56555555 		.word	1431655766
 2931              		.cfi_endproc
 2932              	.LFE302:
 2933              		.size	get_max_front_moyenne, .-get_max_front_moyenne
 2934              		.section	.text.get_line_position,"ax",%progbits
 2935              		.align	1
 2936              		.p2align 4,,15
 2937              		.global	get_line_position
 2938              		.syntax unified
 2939              		.thumb
 2940              		.thumb_func
 2941              		.fpu fpv4-sp-d16
 2942              		.type	get_line_position, %function
 2943              	get_line_position:
 2944              	.LFB303:
 2945              		.loc 1 594 0
 2946              		.cfi_startproc
 2947              		@ args = 0, pretend = 0, frame = 8
 2948              		@ frame_needed = 0, uses_anonymous_args = 0
 2949 0000 00B5     		push	{lr}
 2950              		.cfi_def_cfa_offset 4
 2951              		.cfi_offset 14, -4
 2952 0002 074B     		ldr	r3, .L248
 2953              		.loc 1 595 0
 2954 0004 0749     		ldr	r1, .L248+4
 2955              		.loc 1 594 0
 2956 0006 1A68     		ldr	r2, [r3]
 2957              		.loc 1 596 0
 2958 0008 0868     		ldr	r0, [r1]
 2959              		.loc 1 594 0
 2960 000a 83B0     		sub	sp, sp, #12
 2961              		.cfi_def_cfa_offset 16
 2962              		.loc 1 594 0
 2963 000c 0192     		str	r2, [sp, #4]
 2964              		.loc 1 596 0
ARM GAS  C:\Users\adrie\AppData\Local\Temp\ccgB8szF.s 			page 53


 2965 000e 019A     		ldr	r2, [sp, #4]
 2966 0010 1B68     		ldr	r3, [r3]
 2967 0012 9A42     		cmp	r2, r3
 2968 0014 02D1     		bne	.L247
 2969 0016 03B0     		add	sp, sp, #12
 2970              		.cfi_remember_state
 2971              		.cfi_def_cfa_offset 4
 2972              		@ sp needed
 2973 0018 5DF804FB 		ldr	pc, [sp], #4
 2974              	.L247:
 2975              		.cfi_restore_state
 2976 001c FFF7FEFF 		bl	__stack_chk_fail
 2977              	.LVL299:
 2978              	.L249:
 2979              		.align	2
 2980              	.L248:
 2981 0020 00000000 		.word	__stack_chk_guard
 2982 0024 00000000 		.word	.LANCHOR4
 2983              		.cfi_endproc
 2984              	.LFE303:
 2985              		.size	get_line_position, .-get_line_position
 2986              		.section	.text.get_distance_cm,"ax",%progbits
 2987              		.align	1
 2988              		.p2align 4,,15
 2989              		.global	get_distance_cm
 2990              		.syntax unified
 2991              		.thumb
 2992              		.thumb_func
 2993              		.fpu fpv4-sp-d16
 2994              		.type	get_distance_cm, %function
 2995              	get_distance_cm:
 2996              	.LFB304:
 2997              		.loc 1 598 0
 2998              		.cfi_startproc
 2999              		@ args = 0, pretend = 0, frame = 8
 3000              		@ frame_needed = 0, uses_anonymous_args = 0
 3001 0000 00B5     		push	{lr}
 3002              		.cfi_def_cfa_offset 4
 3003              		.cfi_offset 14, -4
 3004 0002 074B     		ldr	r3, .L254
 3005 0004 83B0     		sub	sp, sp, #12
 3006              		.cfi_def_cfa_offset 16
 3007              		.loc 1 598 0
 3008 0006 1A68     		ldr	r2, [r3]
 3009 0008 0192     		str	r2, [sp, #4]
 3010              		.loc 1 600 0
 3011 000a 019A     		ldr	r2, [sp, #4]
 3012 000c 1B68     		ldr	r3, [r3]
 3013 000e 9A42     		cmp	r2, r3
 3014 0010 04D1     		bne	.L253
 3015 0012 9FED040A 		vldr.32	s0, .L254+4
 3016 0016 03B0     		add	sp, sp, #12
 3017              		.cfi_remember_state
 3018              		.cfi_def_cfa_offset 4
 3019              		@ sp needed
 3020 0018 5DF804FB 		ldr	pc, [sp], #4
 3021              	.L253:
ARM GAS  C:\Users\adrie\AppData\Local\Temp\ccgB8szF.s 			page 54


 3022              		.cfi_restore_state
 3023 001c FFF7FEFF 		bl	__stack_chk_fail
 3024              	.LVL300:
 3025              	.L255:
 3026              		.align	2
 3027              	.L254:
 3028 0020 00000000 		.word	__stack_chk_guard
 3029 0024 00000000 		.word	0
 3030              		.cfi_endproc
 3031              	.LFE304:
 3032              		.size	get_distance_cm, .-get_distance_cm
 3033              		.section	.text.pi_regulator,"ax",%progbits
 3034              		.align	1
 3035              		.p2align 4,,15
 3036              		.global	pi_regulator
 3037              		.syntax unified
 3038              		.thumb
 3039              		.thumb_func
 3040              		.fpu fpv4-sp-d16
 3041              		.type	pi_regulator, %function
 3042              	pi_regulator:
 3043              	.LFB305:
 3044              		.loc 1 604 0
 3045              		.cfi_startproc
 3046              		@ args = 0, pretend = 0, frame = 8
 3047              		@ frame_needed = 0, uses_anonymous_args = 0
 3048              	.LVL301:
 3049 0000 00B5     		push	{lr}
 3050              		.cfi_def_cfa_offset 4
 3051              		.cfi_offset 14, -4
 3052 0002 214B     		ldr	r3, .L270
 3053 0004 83B0     		sub	sp, sp, #12
 3054              		.cfi_def_cfa_offset 16
 3055              		.loc 1 611 0
 3056 0006 B5EE400A 		vcmp.f32	s0, #0
 3057              		.loc 1 604 0
 3058 000a 1A68     		ldr	r2, [r3]
 3059 000c 0192     		str	r2, [sp, #4]
 3060              	.LVL302:
 3061              		.loc 1 611 0
 3062 000e F1EE10FA 		vmrs	APSR_nzcv, FPSCR
 3063 0012 2BD0     		beq	.L264
 3064              		.loc 1 612 0
 3065 0014 30EE600A 		vsub.f32	s0, s0, s1
 3066              	.LVL303:
 3067              		.loc 1 621 0
 3068 0018 DFED1C7A 		vldr.32	s15, .L270+4
 3069 001c B0EEC07A 		vabs.f32	s14, s0
 3070 0020 B4EEE77A 		vcmpe.f32	s14, s15
 3071 0024 F1EE10FA 		vmrs	APSR_nzcv, FPSCR
 3072 0028 20D4     		bmi	.L264
 3073              		.loc 1 625 0
 3074 002a 194A     		ldr	r2, .L270+8
 3075              		.loc 1 628 0
 3076 002c 9FED197A 		vldr.32	s14, .L270+12
 3077              		.loc 1 625 0
 3078 0030 D2ED007A 		vldr.32	s15, [r2]
ARM GAS  C:\Users\adrie\AppData\Local\Temp\ccgB8szF.s 			page 55


 3079 0034 70EE277A 		vadd.f32	s15, s0, s15
 3080              		.loc 1 628 0
 3081 0038 F4EEC77A 		vcmpe.f32	s15, s14
 3082 003c F1EE10FA 		vmrs	APSR_nzcv, FPSCR
 3083 0040 1CDC     		bgt	.L268
 3084              		.loc 1 630 0
 3085 0042 9FED157A 		vldr.32	s14, .L270+16
 3086 0046 F4EEC77A 		vcmpe.f32	s15, s14
 3087 004a F1EE10FA 		vmrs	APSR_nzcv, FPSCR
 3088              		.loc 1 625 0
 3089 004e 48BF     		it	mi
 3090 0050 F0EE477A 		vmovmi.f32	s15, s14
 3091 0054 C2ED007A 		vstr.32	s15, [r2]
 3092              	.L260:
 3093              	.LVL304:
 3094              		.loc 1 634 0
 3095 0058 DFED100A 		vldr.32	s1, .L270+20
 3096              	.LVL305:
 3097 005c 20EE200A 		vmul.f32	s0, s0, s1
 3098              	.LVL306:
 3099              		.loc 1 636 0
 3100 0060 BDEEC00A 		vcvt.s32.f32	s0, s0
 3101              	.LVL307:
 3102 0064 10EE102A 		vmov	r2, s0	@ int
 3103 0068 10B2     		sxth	r0, r2
 3104 006a 00E0     		b	.L257
 3105              	.LVL308:
 3106              	.L264:
 3107              		.loc 1 622 0
 3108 006c 0020     		movs	r0, #0
 3109              	.LVL309:
 3110              	.L257:
 3111              		.loc 1 637 0
 3112 006e 019A     		ldr	r2, [sp, #4]
 3113 0070 1B68     		ldr	r3, [r3]
 3114 0072 9A42     		cmp	r2, r3
 3115 0074 05D1     		bne	.L269
 3116 0076 03B0     		add	sp, sp, #12
 3117              		.cfi_remember_state
 3118              		.cfi_def_cfa_offset 4
 3119              		@ sp needed
 3120 0078 5DF804FB 		ldr	pc, [sp], #4
 3121              	.LVL310:
 3122              	.L268:
 3123              		.cfi_restore_state
 3124              		.loc 1 629 0
 3125 007c 82ED007A 		vstr.32	s14, [r2]
 3126 0080 EAE7     		b	.L260
 3127              	.LVL311:
 3128              	.L269:
 3129              		.loc 1 637 0
 3130 0082 FFF7FEFF 		bl	__stack_chk_fail
 3131              	.LVL312:
 3132              	.L271:
 3133 0086 00BF     		.align	2
 3134              	.L270:
 3135 0088 00000000 		.word	__stack_chk_guard
ARM GAS  C:\Users\adrie\AppData\Local\Temp\ccgB8szF.s 			page 56


 3136 008c 0AD7233C 		.word	1008981770
 3137 0090 00000000 		.word	.LANCHOR3
 3138 0094 92249D43 		.word	1134371986
 3139 0098 92249DC3 		.word	-1013111662
 3140 009c 0000FA45 		.word	1174011904
 3141              		.cfi_endproc
 3142              	.LFE305:
 3143              		.size	pi_regulator, .-pi_regulator
 3144              		.section	.text.pi_regulator_start,"ax",%progbits
 3145              		.align	1
 3146              		.p2align 4,,15
 3147              		.global	pi_regulator_start
 3148              		.syntax unified
 3149              		.thumb
 3150              		.thumb_func
 3151              		.fpu fpv4-sp-d16
 3152              		.type	pi_regulator_start, %function
 3153              	pi_regulator_start:
 3154              	.LFB307:
 3155              		.loc 1 715 0
 3156              		.cfi_startproc
 3157              		@ args = 0, pretend = 0, frame = 8
 3158              		@ frame_needed = 0, uses_anonymous_args = 0
 3159 0000 10B5     		push	{r4, lr}
 3160              		.cfi_def_cfa_offset 8
 3161              		.cfi_offset 4, -8
 3162              		.cfi_offset 14, -4
 3163 0002 0A4C     		ldr	r4, .L276
 3164              		.loc 1 716 0
 3165 0004 0A4B     		ldr	r3, .L276+4
 3166              		.loc 1 715 0
 3167 0006 2268     		ldr	r2, [r4]
 3168              		.loc 1 716 0
 3169 0008 0A48     		ldr	r0, .L276+8
 3170              		.loc 1 715 0
 3171 000a 84B0     		sub	sp, sp, #16
 3172              		.cfi_def_cfa_offset 24
 3173              		.loc 1 716 0
 3174 000c 4FF41E71 		mov	r1, #632
 3175              		.loc 1 715 0
 3176 0010 0392     		str	r2, [sp, #12]
 3177              		.loc 1 716 0
 3178 0012 0022     		movs	r2, #0
 3179 0014 0092     		str	r2, [sp]
 3180 0016 4022     		movs	r2, #64
 3181 0018 FFF7FEFF 		bl	chThdCreateStatic
 3182              	.LVL313:
 3183              		.loc 1 717 0
 3184 001c 039A     		ldr	r2, [sp, #12]
 3185 001e 2368     		ldr	r3, [r4]
 3186 0020 9A42     		cmp	r2, r3
 3187 0022 01D1     		bne	.L275
 3188 0024 04B0     		add	sp, sp, #16
 3189              		.cfi_remember_state
 3190              		.cfi_def_cfa_offset 8
 3191              		@ sp needed
 3192 0026 10BD     		pop	{r4, pc}
ARM GAS  C:\Users\adrie\AppData\Local\Temp\ccgB8szF.s 			page 57


 3193              	.L275:
 3194              		.cfi_restore_state
 3195 0028 FFF7FEFF 		bl	__stack_chk_fail
 3196              	.LVL314:
 3197              	.L277:
 3198              		.align	2
 3199              	.L276:
 3200 002c 00000000 		.word	__stack_chk_guard
 3201 0030 00000000 		.word	PiRegulator
 3202 0034 00000000 		.word	.LANCHOR9
 3203              		.cfi_endproc
 3204              	.LFE307:
 3205              		.size	pi_regulator_start, .-pi_regulator_start
 3206              		.section	.bss.angle,"aw",%nobits
 3207              		.align	2
 3208              		.set	.LANCHOR4,. + 0
 3209              		.type	angle, %object
 3210              		.size	angle, 4
 3211              	angle:
 3212 0000 00000000 		.space	4
 3213              		.section	.bss.micBack_cmplx_input,"aw",%nobits
 3214              		.align	2
 3215              		.type	micBack_cmplx_input, %object
 3216              		.size	micBack_cmplx_input, 8192
 3217              	micBack_cmplx_input:
 3218 0000 00000000 		.space	8192
 3218      00000000 
 3218      00000000 
 3218      00000000 
 3218      00000000 
 3219              		.section	.bss.micBack_output,"aw",%nobits
 3220              		.align	2
 3221              		.type	micBack_output, %object
 3222              		.size	micBack_output, 4096
 3223              	micBack_output:
 3224 0000 00000000 		.space	4096
 3224      00000000 
 3224      00000000 
 3224      00000000 
 3224      00000000 
 3225              		.section	.bss.micFront_cmplx_input,"aw",%nobits
 3226              		.align	2
 3227              		.type	micFront_cmplx_input, %object
 3228              		.size	micFront_cmplx_input, 8192
 3229              	micFront_cmplx_input:
 3230 0000 00000000 		.space	8192
 3230      00000000 
 3230      00000000 
 3230      00000000 
 3230      00000000 
 3231              		.section	.bss.micFront_output,"aw",%nobits
 3232              		.align	2
 3233              		.type	micFront_output, %object
 3234              		.size	micFront_output, 4096
 3235              	micFront_output:
 3236 0000 00000000 		.space	4096
 3236      00000000 
ARM GAS  C:\Users\adrie\AppData\Local\Temp\ccgB8szF.s 			page 58


 3236      00000000 
 3236      00000000 
 3236      00000000 
 3237              		.section	.bss.micLeft_cmplx_input,"aw",%nobits
 3238              		.align	2
 3239              		.type	micLeft_cmplx_input, %object
 3240              		.size	micLeft_cmplx_input, 8192
 3241              	micLeft_cmplx_input:
 3242 0000 00000000 		.space	8192
 3242      00000000 
 3242      00000000 
 3242      00000000 
 3242      00000000 
 3243              		.section	.bss.micLeft_output,"aw",%nobits
 3244              		.align	2
 3245              		.type	micLeft_output, %object
 3246              		.size	micLeft_output, 4096
 3247              	micLeft_output:
 3248 0000 00000000 		.space	4096
 3248      00000000 
 3248      00000000 
 3248      00000000 
 3248      00000000 
 3249              		.section	.bss.micRight_cmplx_input,"aw",%nobits
 3250              		.align	2
 3251              		.type	micRight_cmplx_input, %object
 3252              		.size	micRight_cmplx_input, 8192
 3253              	micRight_cmplx_input:
 3254 0000 00000000 		.space	8192
 3254      00000000 
 3254      00000000 
 3254      00000000 
 3254      00000000 
 3255              		.section	.bss.micRight_output,"aw",%nobits
 3256              		.align	2
 3257              		.type	micRight_output, %object
 3258              		.size	micRight_output, 4096
 3259              	micRight_output:
 3260 0000 00000000 		.space	4096
 3260      00000000 
 3260      00000000 
 3260      00000000 
 3260      00000000 
 3261              		.section	.bss.moyenne,"aw",%nobits
 3262              		.align	2
 3263              		.set	.LANCHOR2,. + 0
 3264              		.type	moyenne, %object
 3265              		.size	moyenne, 48
 3266              	moyenne:
 3267 0000 00000000 		.space	48
 3267      00000000 
 3267      00000000 
 3267      00000000 
 3267      00000000 
 3268              		.section	.bss.mustSend.14256,"aw",%nobits
 3269              		.set	.LANCHOR7,. + 0
 3270              		.type	mustSend.14256, %object
ARM GAS  C:\Users\adrie\AppData\Local\Temp\ccgB8szF.s 			page 59


 3271              		.size	mustSend.14256, 1
 3272              	mustSend.14256:
 3273 0000 00       		.space	1
 3274              		.section	.bss.nb_samples.14255,"aw",%nobits
 3275              		.align	1
 3276              		.set	.LANCHOR6,. + 0
 3277              		.type	nb_samples.14255, %object
 3278              		.size	nb_samples.14255, 2
 3279              	nb_samples.14255:
 3280 0000 0000     		.space	2
 3281              		.section	.bss.nbr_passage,"aw",%nobits
 3282              		.align	2
 3283              		.set	.LANCHOR8,. + 0
 3284              		.type	nbr_passage, %object
 3285              		.size	nbr_passage, 4
 3286              	nbr_passage:
 3287 0000 00000000 		.space	4
 3288              		.section	.bss.sum_error.14346,"aw",%nobits
 3289              		.align	2
 3290              		.set	.LANCHOR3,. + 0
 3291              		.type	sum_error.14346, %object
 3292              		.size	sum_error.14346, 4
 3293              	sum_error.14346:
 3294 0000 00000000 		.space	4
 3295              		.section	.bss.waPiRegulator,"aw",%nobits
 3296              		.align	3
 3297              		.set	.LANCHOR9,. + 0
 3298              		.type	waPiRegulator, %object
 3299              		.size	waPiRegulator, 632
 3300              	waPiRegulator:
 3301 0000 00000000 		.space	632
 3301      00000000 
 3301      00000000 
 3301      00000000 
 3301      00000000 
 3302              		.section	.data.sendToComputer_sem,"aw",%progbits
 3303              		.align	2
 3304              		.set	.LANCHOR5,. + 0
 3305              		.type	sendToComputer_sem, %object
 3306              		.size	sendToComputer_sem, 12
 3307              	sendToComputer_sem:
 3308 0000 00000000 		.word	sendToComputer_sem
 3309 0004 00000000 		.word	sendToComputer_sem
 3310 0008 00000000 		.word	0
 3311              		.section	.rodata.__FUNCTION__.14351,"a",%progbits
 3312              		.align	2
 3313              		.set	.LANCHOR0,. + 0
 3314              		.type	__FUNCTION__.14351, %object
 3315              		.size	__FUNCTION__.14351, 12
 3316              	__FUNCTION__.14351:
 3317 0000 50695265 		.ascii	"PiRegulator\000"
 3317      67756C61 
 3317      746F7200 
 3318              		.section	.rodata.__func__.7153,"a",%progbits
 3319              		.align	2
 3320              		.set	.LANCHOR1,. + 0
 3321              		.type	__func__.7153, %object
ARM GAS  C:\Users\adrie\AppData\Local\Temp\ccgB8szF.s 			page 60


 3322              		.size	__func__.7153, 12
 3323              	__func__.7153:
 3324 0000 63685379 		.ascii	"chSysUnlock\000"
 3324      73556E6C 
 3324      6F636B00 
 3325              		.text
 3326              	.Letext0:
 3327              		.file 7 "c:\\users\\adrie\\onedrive\\documents\\eclipse\\eclipse_e-puck2\\tools\\gcc-arm-none-eabi
 3328              		.file 8 "c:\\users\\adrie\\onedrive\\documents\\eclipse\\eclipse_e-puck2\\tools\\gcc-arm-none-eabi
 3329              		.file 9 "c:\\users\\adrie\\onedrive\\documents\\eclipse\\eclipse_e-puck2\\tools\\gcc-arm-none-eabi
 3330              		.file 10 "../lib/e-puck2_main-processor/ChibiOS//os/rt/ports/ARMCMx/compilers/GCC/chtypes.h"
 3331              		.file 11 "../lib/e-puck2_main-processor/ChibiOS//os/rt/include/chsystypes.h"
 3332              		.file 12 "../lib/e-puck2_main-processor/ChibiOS//os/rt/include/chschd.h"
 3333              		.file 13 "../lib/e-puck2_main-processor/ChibiOS//os/ext/CMSIS/include/core_cm4.h"
 3334              		.file 14 "../lib/e-puck2_main-processor/ChibiOS//os/ext/CMSIS/ST/system_stm32f4xx.h"
 3335              		.file 15 "../lib/e-puck2_main-processor/ChibiOS//os/ext/CMSIS/ST/stm32f407xx.h"
 3336              		.file 16 "../lib/e-puck2_main-processor/ChibiOS//os/rt/ports/ARMCMx/chcore.h"
 3337              		.file 17 "../lib/e-puck2_main-processor/ChibiOS//os/rt/ports/ARMCMx/chcore_v7m.h"
 3338              		.file 18 "../lib/e-puck2_main-processor/ChibiOS//os/rt/include/chdebug.h"
 3339              		.file 19 "../lib/e-puck2_main-processor/ChibiOS//os/rt/include/chtm.h"
 3340              		.file 20 "../lib/e-puck2_main-processor/ChibiOS//os/rt/include/chstats.h"
 3341              		.file 21 "../lib/e-puck2_main-processor/ChibiOS//os/rt/include/chsem.h"
 3342              		.file 22 "../lib/e-puck2_main-processor/ChibiOS//os/rt/include/chmtx.h"
 3343              		.file 23 "../lib/e-puck2_main-processor/ChibiOS//os/rt/include/chevents.h"
 3344              		.file 24 "../lib/e-puck2_main-processor/ChibiOS//os/rt/include/chqueues.h"
 3345              		.file 25 "../lib/e-puck2_main-processor/ChibiOS//os/hal/ports/STM32/STM32F4xx/stm32_dma.h"
 3346              		.file 26 "../lib/e-puck2_main-processor/ChibiOS//os/hal/include/hal_ioblock.h"
 3347              		.file 27 "../lib/e-puck2_main-processor/ChibiOS//os/hal/ports/STM32/LLD/GPIOv2/pal_lld.h"
 3348              		.file 28 "../lib/e-puck2_main-processor/ChibiOS//os/hal/include/adc.h"
 3349              		.file 29 "../lib/e-puck2_main-processor/ChibiOS//os/hal/ports/STM32/STM32F4xx/adc_lld.h"
 3350              		.file 30 "../lib/e-puck2_main-processor/ChibiOS//os/hal/include/can.h"
 3351              		.file 31 "../lib/e-puck2_main-processor/ChibiOS//os/hal/ports/STM32/LLD/can_lld.h"
 3352              		.file 32 "../lib/e-puck2_main-processor/ChibiOS//os/hal/include/dac.h"
 3353              		.file 33 "../lib/e-puck2_main-processor/ChibiOS//os/hal/ports/STM32/LLD/DACv1/dac_lld.h"
 3354              		.file 34 "../lib/e-puck2_main-processor/ChibiOS//os/hal/include/ext.h"
 3355              		.file 35 "../lib/e-puck2_main-processor/ChibiOS//os/hal/ports/STM32/LLD/ext_lld.h"
 3356              		.file 36 "../lib/e-puck2_main-processor/ChibiOS//os/hal/include/gpt.h"
 3357              		.file 37 "../lib/e-puck2_main-processor/ChibiOS//os/hal/ports/STM32/LLD/TIMv1/gpt_lld.h"
 3358              		.file 38 "../lib/e-puck2_main-processor/ChibiOS//os/hal/ports/STM32/LLD/TIMv1/stm32_tim.h"
 3359              		.file 39 "../lib/e-puck2_main-processor/ChibiOS//os/hal/include/i2c.h"
 3360              		.file 40 "../lib/e-puck2_main-processor/ChibiOS//os/hal/ports/STM32/LLD/I2Cv1/i2c_lld.h"
 3361              		.file 41 "../lib/e-puck2_main-processor/ChibiOS//os/hal/include/i2s.h"
 3362              		.file 42 "../lib/e-puck2_main-processor/ChibiOS//os/hal/ports/STM32/LLD/SPIv1/i2s_lld.h"
 3363              		.file 43 "../lib/e-puck2_main-processor/ChibiOS//os/hal/include/pwm.h"
 3364              		.file 44 "../lib/e-puck2_main-processor/ChibiOS//os/hal/ports/STM32/LLD/TIMv1/pwm_lld.h"
 3365              		.file 45 "../lib/e-puck2_main-processor/ChibiOS//os/hal/include/serial.h"
 3366              		.file 46 "../lib/e-puck2_main-processor/ChibiOS//os/hal/ports/STM32/LLD/USARTv1/serial_lld.h"
 3367              		.file 47 "../lib/e-puck2_main-processor/ChibiOS//os/hal/include/sdc.h"
 3368              		.file 48 "../lib/e-puck2_main-processor/ChibiOS//os/hal/ports/STM32/LLD/sdc_lld.h"
 3369              		.file 49 "../lib/e-puck2_main-processor/ChibiOS//os/hal/include/spi.h"
 3370              		.file 50 "../lib/e-puck2_main-processor/ChibiOS//os/hal/ports/STM32/LLD/SPIv1/spi_lld.h"
 3371              		.file 51 "../lib/e-puck2_main-processor/ChibiOS//os/hal/include/usb.h"
 3372              		.file 52 "../lib/e-puck2_main-processor/ChibiOS//os/hal/ports/STM32/LLD/OTGv1/usb_lld.h"
 3373              		.file 53 "../lib/e-puck2_main-processor/ChibiOS//os/hal/ports/STM32/LLD/OTGv1/stm32_otg.h"
 3374              		.file 54 "../lib/e-puck2_main-processor/ChibiOS//os/hal/include/serial_usb.h"
 3375              		.file 55 "../lib/e-puck2_main-processor/ChibiOS_ext/os/hal/include/../ports/STM32/STM32F4xx/dcmi_l
 3376              		.file 56 "c:\\users\\adrie\\onedrive\\documents\\eclipse\\eclipse_e-puck2\\tools\\gcc-arm-none-eab
ARM GAS  C:\Users\adrie\AppData\Local\Temp\ccgB8szF.s 			page 61


 3377              		.file 57 "c:\\users\\adrie\\onedrive\\documents\\eclipse\\eclipse_e-puck2\\tools\\gcc-arm-none-eab
 3378              		.file 58 "c:\\users\\adrie\\onedrive\\documents\\eclipse\\eclipse_e-puck2\\tools\\gcc-arm-none-eab
 3379              		.file 59 "../lib/e-puck2_main-processor/src/msgbus/messagebus.h"
 3380              		.file 60 "c:\\users\\adrie\\onedrive\\documents\\eclipse\\eclipse_e-puck2\\tools\\gcc-arm-none-eab
 3381              		.file 61 "c:\\users\\adrie\\onedrive\\documents\\eclipse\\eclipse_e-puck2\\tools\\gcc-arm-none-eab
 3382              		.file 62 "../lib/e-puck2_main-processor/src/parameter/parameter.h"
 3383              		.file 63 "./main.h"
 3384              		.file 64 "../lib/e-puck2_main-processor/src/usbcfg.h"
 3385              		.file 65 "./audio_processing.h"
 3386              		.file 66 "c:\\users\\adrie\\onedrive\\documents\\eclipse\\eclipse_e-puck2\\tools\\gcc-arm-none-eab
 3387              		.file 67 "../lib/e-puck2_main-processor/src/leds.h"
 3388              		.file 68 "../lib/e-puck2_main-processor/ChibiOS//os/rt/include/chthreads.h"
 3389              		.file 69 "../lib/e-puck2_main-processor/src/motors.h"
 3390              		.file 70 "./fft.h"
 3391              		.file 71 "../lib/e-puck2_main-processor/ChibiOS//os/ext/CMSIS/include/arm_math.h"