ARM GAS  C:\Users\adrie\AppData\Local\Temp\ccgB8szF.s 			page 1


   1              		.cpu cortex-m4
   2              		.eabi_attribute 27, 1
   3              		.eabi_attribute 28, 1
   4              		.eabi_attribute 20, 1
   5              		.eabi_attribute 21, 1
   6              		.eabi_attribute 23, 3
   7              		.eabi_attribute 24, 1
   8              		.eabi_attribute 25, 1
   9              		.eabi_attribute 26, 1
  10              		.eabi_attribute 30, 2
  11              		.eabi_attribute 34, 1
  12              		.eabi_attribute 18, 4
  13              		.file	"audio_processing.c"
  14              		.text
  15              	.Ltext0:
  16              		.cfi_sections	.debug_frame
  17              		.section	.text.get_max_norm_index.part.0,"ax",%progbits
  18              		.align	1
  19              		.p2align 4,,15
  20              		.syntax unified
  21              		.thumb
  22              		.thumb_func
  23              		.fpu fpv4-sp-d16
  24              		.type	get_max_norm_index.part.0, %function
  25              	get_max_norm_index.part.0:
  26              	.LFB308:
  27              		.file 1 "audio_processing.c"
  28              		.loc 1 428 0
  29              		.cfi_startproc
  30              		@ args = 0, pretend = 0, frame = 8
  31              		@ frame_needed = 0, uses_anonymous_args = 0
  32              	.LVL0:
  33 0000 70B5     		push	{r4, r5, r6, lr}
  34              		.cfi_def_cfa_offset 16
  35              		.cfi_offset 4, -16
  36              		.cfi_offset 5, -12
  37              		.cfi_offset 6, -8
  38              		.cfi_offset 14, -4
  39 0002 2A4E     		ldr	r6, .L24
  40 0004 82B0     		sub	sp, sp, #8
  41              		.cfi_def_cfa_offset 24
  42              		.loc 1 428 0
  43 0006 3368     		ldr	r3, [r6]
  44 0008 0193     		str	r3, [sp, #4]
  45              		.loc 1 436 0
  46 000a 0629     		cmp	r1, #6
  47 000c 2BD0     		beq	.L21
  48              		.loc 1 439 0
  49 000e 0729     		cmp	r1, #7
  50 0010 08D0     		beq	.L22
  51              	.LVL1:
  52              	.LBB147:
  53              		.loc 1 444 0
  54 0012 0023     		movs	r3, #0
  55 0014 C0E90033 		strd	r3, r3, [r0]
  56              	.LVL2:
  57              	.L1:
ARM GAS  C:\Users\adrie\AppData\Local\Temp\ccgB8szF.s 			page 2


  58              	.LBE147:
  59              		.loc 1 446 0
  60 0018 019A     		ldr	r2, [sp, #4]
  61 001a 3368     		ldr	r3, [r6]
  62 001c 9A42     		cmp	r2, r3
  63 001e 43D1     		bne	.L23
  64 0020 02B0     		add	sp, sp, #8
  65              		.cfi_remember_state
  66              		.cfi_def_cfa_offset 16
  67              		@ sp needed
  68 0022 70BD     		pop	{r4, r5, r6, pc}
  69              	.LVL3:
  70              	.L22:
  71              		.cfi_restore_state
  72 0024 224A     		ldr	r2, .L24+4
  73              	.LBB148:
  74              	.LBB149:
  75              		.loc 1 406 0
  76 0026 9FED237A 		vldr.32	s14, .L24+8
  77              		.loc 1 407 0
  78 002a 4FF0FF31 		mov	r1, #-1
  79              	.LVL4:
  80              	.LBB150:
  81              		.loc 1 412 0
  82 002e 0A23     		movs	r3, #10
  83 0030 40F60104 		movw	r4, #2049
  84              	.L10:
  85              	.LVL5:
  86              		.loc 1 413 0
  87 0034 F2EC017A 		vldmia.32	r2!, {s15}
  88 0038 F4EEC77A 		vcmpe.f32	s15, s14
  89 003c F1EE10FA 		vmrs	APSR_nzcv, FPSCR
  90 0040 08DD     		ble	.L8
  91 0042 A3F13305 		sub	r5, r3, #51
  92 0046 B5F56D7F 		cmp	r5, #948
  93 004a 98BF     		it	ls
  94 004c 1946     		movls	r1, r3
  95              	.LVL6:
  96 004e 98BF     		it	ls
  97 0050 B0EE677A 		vmovls.f32	s14, s15
  98              	.LVL7:
  99              	.L8:
 100              		.loc 1 412 0
 101 0054 0133     		adds	r3, r3, #1
 102              	.LVL8:
 103 0056 A342     		cmp	r3, r4
 104 0058 ECD1     		bne	.L10
 105              	.LVL9:
 106              	.LBE150:
 107              		.loc 1 418 0
 108 005a BDEEC77A 		vcvt.s32.f32	s14, s14
 109              	.LVL10:
 110              		.loc 1 420 0
 111 005e 4160     		str	r1, [r0, #4]
 112              	.LVL11:
 113              		.loc 1 418 0
 114 0060 80ED007A 		vstr.32	s14, [r0]	@ int
ARM GAS  C:\Users\adrie\AppData\Local\Temp\ccgB8szF.s 			page 3


 115 0064 D8E7     		b	.L1
 116              	.LVL12:
 117              	.L21:
 118 0066 144A     		ldr	r2, .L24+12
 119              	.LBE149:
 120              	.LBE148:
 121              	.LBB152:
 122              	.LBB153:
 123              		.loc 1 406 0
 124 0068 9FED127A 		vldr.32	s14, .L24+8
 125              		.loc 1 407 0
 126 006c 4FF0FF31 		mov	r1, #-1
 127              	.LVL13:
 128              	.LBB154:
 129              		.loc 1 412 0
 130 0070 0A23     		movs	r3, #10
 131 0072 40F60104 		movw	r4, #2049
 132              	.L5:
 133              	.LVL14:
 134              		.loc 1 413 0
 135 0076 F2EC017A 		vldmia.32	r2!, {s15}
 136 007a F4EEC77A 		vcmpe.f32	s15, s14
 137 007e F1EE10FA 		vmrs	APSR_nzcv, FPSCR
 138 0082 08DD     		ble	.L3
 139 0084 A3F13305 		sub	r5, r3, #51
 140 0088 B5F56D7F 		cmp	r5, #948
 141 008c 98BF     		it	ls
 142 008e 1946     		movls	r1, r3
 143              	.LVL15:
 144 0090 98BF     		it	ls
 145 0092 B0EE677A 		vmovls.f32	s14, s15
 146              	.LVL16:
 147              	.L3:
 148              		.loc 1 412 0
 149 0096 0133     		adds	r3, r3, #1
 150              	.LVL17:
 151 0098 A342     		cmp	r3, r4
 152 009a ECD1     		bne	.L5
 153              	.LVL18:
 154              	.LBE154:
 155              	.LBE153:
 156              	.LBE152:
 157              	.LBB155:
 158              	.LBB151:
 159              		.loc 1 418 0
 160 009c BDEEC77A 		vcvt.s32.f32	s14, s14
 161              	.LVL19:
 162              		.loc 1 420 0
 163 00a0 4160     		str	r1, [r0, #4]
 164              	.LVL20:
 165              		.loc 1 418 0
 166 00a2 80ED007A 		vstr.32	s14, [r0]	@ int
 167 00a6 B7E7     		b	.L1
 168              	.LVL21:
 169              	.L23:
 170              	.LBE151:
 171              	.LBE155:
ARM GAS  C:\Users\adrie\AppData\Local\Temp\ccgB8szF.s 			page 4


 172              		.loc 1 446 0
 173 00a8 FFF7FEFF 		bl	__stack_chk_fail
 174              	.LVL22:
 175              	.L25:
 176              		.align	2
 177              	.L24:
 178 00ac 00000000 		.word	__stack_chk_guard
 179 00b0 28000000 		.word	micBack_output+40
 180 00b4 0000C842 		.word	1120403456
 181 00b8 28000000 		.word	micFront_output+40
 182              		.cfi_endproc
 183              	.LFE308:
 184              		.size	get_max_norm_index.part.0, .-get_max_norm_index.part.0
 185              		.global	__aeabi_i2d
 186              		.global	__aeabi_dmul
 187              		.global	__aeabi_ddiv
 188              		.global	__aeabi_dcmpun
 189              		.global	__aeabi_dcmpge
 190              		.global	__aeabi_dadd
 191              		.global	__aeabi_d2f
 192              		.section	.text.PiRegulator,"ax",%progbits
 193              		.align	1
 194              		.p2align 4,,15
 195              		.syntax unified
 196              		.thumb
 197              		.thumb_func
 198              		.fpu fpv4-sp-d16
 199              		.type	PiRegulator, %function
 200              	PiRegulator:
 201              	.LFB306:
 202              		.loc 1 640 0
 203              		.cfi_startproc
 204              		@ args = 0, pretend = 0, frame = 8
 205              		@ frame_needed = 0, uses_anonymous_args = 0
 206              	.LVL23:
 207 0000 2DE9F04F 		push	{r4, r5, r6, r7, r8, r9, r10, fp, lr}
 208              		.cfi_def_cfa_offset 36
 209              		.cfi_offset 4, -36
 210              		.cfi_offset 5, -32
 211              		.cfi_offset 6, -28
 212              		.cfi_offset 7, -24
 213              		.cfi_offset 8, -20
 214              		.cfi_offset 9, -16
 215              		.cfi_offset 10, -12
 216              		.cfi_offset 11, -8
 217              		.cfi_offset 14, -4
 218 0004 2DED028B 		vpush.64	{d8}
 219              		.cfi_def_cfa_offset 44
 220              		.cfi_offset 80, -44
 221              		.cfi_offset 81, -40
 222              	.LBB193:
 223              	.LBB194:
 224              		.file 2 "../lib/e-puck2_main-processor/ChibiOS//os/rt/include/chregistry.h"
 225              		.loc 2 135 0
 226 0008 DFF87CA2 		ldr	r10, .L49+64
 227              	.LBE194:
 228              	.LBE193:
ARM GAS  C:\Users\adrie\AppData\Local\Temp\ccgB8szF.s 			page 5


 229              		.loc 1 640 0
 230 000c 904B     		ldr	r3, .L49+8
 231              	.LBB197:
 232              	.LBB195:
 233              		.loc 2 135 0
 234 000e DAF81820 		ldr	r2, [r10, #24]
 235 0012 9049     		ldr	r1, .L49+12
 236              	.LBE195:
 237              	.LBE197:
 238              		.loc 1 640 0
 239 0014 1B68     		ldr	r3, [r3]
 240 0016 904D     		ldr	r5, .L49+16
 241              	.LBB198:
 242              	.LBB199:
 243              	.LBB200:
 244              		.loc 1 389 0
 245 0018 904F     		ldr	r7, .L49+20
 246              	.LBE200:
 247              	.LBE199:
 248              		.loc 1 663 0
 249 001a DFED918A 		vldr.32	s17, .L49+24
 250 001e 9FED918A 		vldr.32	s16, .L49+28
 251              	.LBE198:
 252              	.LBB278:
 253              	.LBB196:
 254              		.loc 2 135 0
 255 0022 9161     		str	r1, [r2, #24]
 256              	.LBE196:
 257              	.LBE278:
 258              		.loc 1 640 0
 259 0024 83B0     		sub	sp, sp, #12
 260              		.cfi_def_cfa_offset 56
 261              		.loc 1 651 0
 262 0026 0026     		movs	r6, #0
 263              		.loc 1 640 0
 264 0028 0193     		str	r3, [sp, #4]
 265              	.LVL24:
 266 002a 71E0     		b	.L40
 267              	.LVL25:
 268              	.L48:
 269              	.LBB279:
 270              		.loc 1 662 0 discriminator 1
 271 002c 7EB9     		cbnz	r6, .L30
 272              		.loc 1 663 0
 273 002e 4FEA8B03 		lsl	r3, fp, #2
 274 0032 07EE903A 		vmov	s15, r3	@ int
 275 0036 F8EEE77A 		vcvt.f32.s32	s15, s15
 276 003a 67EEA87A 		vmul.f32	s15, s15, s17
 277 003e 67EE887A 		vmul.f32	s15, s15, s16
 278 0042 67EE887A 		vmul.f32	s15, s15, s16
 279 0046 FDEEE77A 		vcvt.s32.f32	s15, s15
 280 004a 17EE906A 		vmov	r6, s15	@ int
 281              	.LVL26:
 282              	.L30:
 283 004e 3046     		mov	r0, r6
 284 0050 FFF7FEFF 		bl	__aeabi_i2d
 285              	.LVL27:
ARM GAS  C:\Users\adrie\AppData\Local\Temp\ccgB8szF.s 			page 6


 286 0054 4246     		mov	r2, r8
 287 0056 4B46     		mov	r3, r9
 288 0058 FFF7FEFF 		bl	__aeabi_ddiv
 289              	.LVL28:
 290              		.loc 1 668 0
 291 005c 002E     		cmp	r6, #0
 292 005e 8046     		mov	r8, r0
 293 0060 8946     		mov	r9, r1
 294 0062 00F3C980 		bgt	.L47
 295              	.LVL29:
 296              	.L31:
 297              	.LBB210:
 298              	.LBB211:
 299              		.loc 1 267 0
 300 0066 49EC108B 		vmov	d0, r8, r9
 301 006a FFF7FEFF 		bl	sqrt
 302              	.LVL30:
 303 006e 53EC102B 		vmov	r2, r3, d0
 304              	.LVL31:
 305              		.loc 1 269 0
 306 0072 10EE100A 		vmov	r0, s0	@ int
 307 0076 1946     		mov	r1, r3
 308 0078 FFF7FEFF 		bl	__aeabi_dadd
 309              	.LVL32:
 310              	.LBE211:
 311              	.LBE210:
 312              		.loc 1 675 0
 313 007c FFF7FEFF 		bl	__aeabi_d2f
 314              	.LVL33:
 315 0080 07EE900A 		vmov	s15, r0
 316              	.LVL34:
 317              	.LBB212:
 318              	.LBB213:
 319              		.loc 1 611 0
 320 0084 F5EE407A 		vcmp.f32	s15, #0
 321 0088 F1EE10FA 		vmrs	APSR_nzcv, FPSCR
 322 008c 00F0B180 		beq	.L43
 323              		.loc 1 612 0
 324 0090 77EEC87A 		vsub.f32	s15, s15, s16
 325              	.LVL35:
 326              		.loc 1 621 0
 327 0094 9FED747A 		vldr.32	s14, .L49+32
 328 0098 F0EEE76A 		vabs.f32	s13, s15
 329 009c F4EEC76A 		vcmpe.f32	s13, s14
 330 00a0 F1EE10FA 		vmrs	APSR_nzcv, FPSCR
 331 00a4 00F1A580 		bmi	.L43
 332              		.loc 1 625 0
 333 00a8 704B     		ldr	r3, .L49+36
 334              		.loc 1 628 0
 335 00aa DFED716A 		vldr.32	s13, .L49+40
 336              		.loc 1 625 0
 337 00ae 93ED007A 		vldr.32	s14, [r3]
 338 00b2 37EE877A 		vadd.f32	s14, s15, s14
 339              		.loc 1 628 0
 340 00b6 B4EEE67A 		vcmpe.f32	s14, s13
 341 00ba F1EE10FA 		vmrs	APSR_nzcv, FPSCR
 342 00be 40F3B480 		ble	.L45
ARM GAS  C:\Users\adrie\AppData\Local\Temp\ccgB8szF.s 			page 7


 343              		.loc 1 629 0
 344 00c2 C3ED006A 		vstr.32	s13, [r3]
 345              	.L35:
 346              	.LVL36:
 347              		.loc 1 634 0
 348 00c6 9FED6B7A 		vldr.32	s14, .L49+44
 349 00ca 67EE877A 		vmul.f32	s15, s15, s14
 350              	.LVL37:
 351              		.loc 1 636 0
 352 00ce FDEEE77A 		vcvt.s32.f32	s15, s15
 353              	.LVL38:
 354 00d2 17EE903A 		vmov	r3, s15	@ int
 355 00d6 0FFA83F9 		sxth	r9, r3
 356              	.LVL39:
 357              	.L32:
 358              	.LBE213:
 359              	.LBE212:
 360              	.LBB216:
 361              	.LBB217:
 362              		.loc 1 595 0
 363 00da 674B     		ldr	r3, .L49+48
 364 00dc 1B68     		ldr	r3, [r3]
 365              	.LBE217:
 366              	.LBE216:
 367              		.loc 1 682 0
 368 00de B42B     		cmp	r3, #180
 369              		.loc 1 683 0
 370 00e0 C8BF     		it	gt
 371 00e2 A3F5B473 		subgt	r3, r3, #360
 372              	.LVL40:
 373              		.loc 1 698 0
 374 00e6 BBF57A7F 		cmp	fp, #1000
 375 00ea 7BDD     		ble	.L38
 376              		.loc 1 701 0
 377 00ec 4FF6FB70 		movw	r0, #65531
 378 00f0 10FB0390 		smlabb	r0, r0, r3, r9
 379 00f4 0FFA83F8 		sxth	r8, r3
 380 00f8 FFF7FEFF 		bl	right_motor_set_speed
 381              	.LVL41:
 382              		.loc 1 702 0
 383 00fc 0520     		movs	r0, #5
 384 00fe 08FB0090 		mla	r0, r8, r0, r9
 385 0102 FFF7FEFF 		bl	left_motor_set_speed
 386              	.LVL42:
 387              	.L39:
 388              		.loc 1 711 0
 389 0106 04F10A01 		add	r1, r4, #10
 390 010a 2046     		mov	r0, r4
 391 010c FFF7FEFF 		bl	chThdSleepUntilWindowed
 392              	.LVL43:
 393              	.L40:
 394              	.LBB218:
 395              	.LBB219:
 396              	.LBB220:
 397              	.LBB221:
 398              	.LBB222:
 399              	.LBB223:
ARM GAS  C:\Users\adrie\AppData\Local\Temp\ccgB8szF.s 			page 8


 400              	.LBB224:
 401              		.file 3 "../lib/e-puck2_main-processor/ChibiOS//os/ext/CMSIS/include/core_cmFunc.h"
 402              		.loc 3 546 0
 403 0110 2023     		movs	r3, #32
 404              		.syntax unified
 405              	@ 546 "../lib/e-puck2_main-processor/ChibiOS//os/ext/CMSIS/include/core_cmFunc.h" 1
 406 0112 83F31188 		MSR basepri, r3
 407              	@ 0 "" 2
 408              	.LVL44:
 409              		.thumb
 410              		.syntax unified
 411              	.LBE224:
 412              	.LBE223:
 413              	.LBE222:
 414              		.file 4 "../lib/e-puck2_main-processor/ChibiOS//os/rt/include/chsys.h"
 415              		.loc 4 349 0
 416 0116 FFF7FEFF 		bl	_stats_start_measure_crit_thd
 417              	.LVL45:
 418              		.loc 4 350 0
 419 011a FFF7FEFF 		bl	_dbg_check_lock
 420              	.LVL46:
 421              	.LBE221:
 422              	.LBE220:
 423              	.LBB225:
 424              	.LBB226:
 425              		.file 5 "../lib/e-puck2_main-processor/ChibiOS//os/rt/include/chvt.h"
 426              		.loc 5 231 0
 427 011e DAF82840 		ldr	r4, [r10, #40]
 428              	.LBE226:
 429              	.LBE225:
 430              	.LBB227:
 431              	.LBB228:
 432              		.loc 4 360 0
 433 0122 FFF7FEFF 		bl	_dbg_check_unlock
 434              	.LVL47:
 435              		.loc 4 361 0
 436 0126 FFF7FEFF 		bl	_stats_stop_measure_crit_thd
 437              	.LVL48:
 438              		.loc 4 367 0
 439 012a DAF80030 		ldr	r3, [r10]
 440 012e 5345     		cmp	r3, r10
 441 0130 08D0     		beq	.L27
 442 0132 DAF81820 		ldr	r2, [r10, #24]
 443 0136 9B68     		ldr	r3, [r3, #8]
 444 0138 9268     		ldr	r2, [r2, #8]
 445 013a 9A42     		cmp	r2, r3
 446 013c 02D2     		bcs	.L27
 447 013e 4F48     		ldr	r0, .L49+52
 448 0140 FFF7FEFF 		bl	chSysHalt
 449              	.LVL49:
 450              	.L27:
 451              	.LBB229:
 452              	.LBB230:
 453              	.LBB231:
 454              		.loc 3 546 0
 455 0144 0023     		movs	r3, #0
 456              		.syntax unified
ARM GAS  C:\Users\adrie\AppData\Local\Temp\ccgB8szF.s 			page 9


 457              	@ 546 "../lib/e-puck2_main-processor/ChibiOS//os/ext/CMSIS/include/core_cmFunc.h" 1
 458 0146 83F31188 		MSR basepri, r3
 459              	@ 0 "" 2
 460              	.LVL50:
 461              		.thumb
 462              		.syntax unified
 463              	.LBE231:
 464              	.LBE230:
 465              	.LBE229:
 466              	.LBE228:
 467              	.LBE227:
 468              	.LBE219:
 469              	.LBE218:
 470              	.LBB232:
 471              	.LBB233:
 472              	.LBB234:
 473              		.loc 1 386 0
 474 014a D5E90620 		ldrd	r2, r0, [r5, #24]
 475              	.LBE234:
 476              	.LBE233:
 477              	.LBE232:
 478              	.LBB243:
 479              	.LBB205:
 480              	.LBB201:
 481 014e D5E90031 		ldrd	r3, r1, [r5]
 482              	.LBE201:
 483              	.LBE205:
 484              	.LBE243:
 485              	.LBB244:
 486              	.LBB238:
 487              	.LBB235:
 488 0152 0244     		add	r2, r2, r0
 489              	.LVL51:
 490              	.LBE235:
 491              	.LBE238:
 492              	.LBE244:
 493              	.LBB245:
 494              	.LBB206:
 495              	.LBB202:
 496 0154 0B44     		add	r3, r3, r1
 497              	.LVL52:
 498              	.LBE202:
 499              	.LBE206:
 500              	.LBE245:
 501              	.LBB246:
 502              	.LBB239:
 503              	.LBB236:
 504 0156 286A     		ldr	r0, [r5, #32]
 505              	.LBE236:
 506              	.LBE239:
 507              	.LBE246:
 508              	.LBB247:
 509              	.LBB207:
 510              	.LBB203:
 511 0158 A968     		ldr	r1, [r5, #8]
 512              	.LBE203:
 513              	.LBE207:
ARM GAS  C:\Users\adrie\AppData\Local\Temp\ccgB8szF.s 			page 10


 514              	.LBE247:
 515              	.LBB248:
 516              	.LBB240:
 517              	.LBB237:
 518 015a 0244     		add	r2, r2, r0
 519              	.LBE237:
 520              	.LBE240:
 521              	.LBE248:
 522              	.LBB249:
 523              	.LBB208:
 524              	.LBB204:
 525 015c 1944     		add	r1, r1, r3
 526              	.LBE204:
 527              	.LBE208:
 528              	.LBE249:
 529              	.LBB250:
 530              	.LBB251:
 531              	.LBB252:
 532 015e D5E90930 		ldrd	r3, r0, [r5, #36]
 533 0162 03EB000C 		add	ip, r3, r0
 534              	.LVL53:
 535              	.LBE252:
 536              	.LBE251:
 537              	.LBE250:
 538              	.LBB258:
 539              	.LBB241:
 540              		.loc 1 389 0
 541 0166 87FB023B 		smull	r3, fp, r7, r2
 542              	.LBE241:
 543              	.LBE258:
 544              	.LBB259:
 545              	.LBB255:
 546              	.LBB253:
 547              		.loc 1 386 0
 548 016a EB6A     		ldr	r3, [r5, #44]
 549              	.LBE253:
 550              	.LBE255:
 551              	.LBE259:
 552              	.LBB260:
 553              	.LBB242:
 554              		.loc 1 389 0
 555 016c ABEBE27B 		sub	fp, fp, r2, asr #31
 556              	.LBE242:
 557              	.LBE260:
 558              	.LBB261:
 559              	.LBB256:
 560              	.LBB254:
 561              		.loc 1 386 0
 562 0170 9C44     		add	ip, ip, r3
 563              	.LBE254:
 564              	.LBE256:
 565              	.LBE261:
 566              	.LBB262:
 567              	.LBB209:
 568              		.loc 1 389 0
 569 0172 87FB0123 		smull	r2, r3, r7, r1
 570 0176 A3EBE173 		sub	r3, r3, r1, asr #31
ARM GAS  C:\Users\adrie\AppData\Local\Temp\ccgB8szF.s 			page 11


 571              	.LBE209:
 572              	.LBE262:
 573              	.LBB263:
 574              	.LBB264:
 575              	.LBB265:
 576              		.loc 1 386 0
 577 017a D5E90312 		ldrd	r1, r2, [r5, #12]
 578 017e 0A44     		add	r2, r2, r1
 579              	.LVL54:
 580 0180 6969     		ldr	r1, [r5, #20]
 581              	.LBE265:
 582              	.LBE264:
 583              	.LBE263:
 584              		.loc 1 660 0
 585 0182 5B44     		add	r3, r3, fp
 586              	.LBB270:
 587              	.LBB267:
 588              	.LBB266:
 589              		.loc 1 386 0
 590 0184 0A44     		add	r2, r2, r1
 591              	.LBE266:
 592              	.LBE267:
 593              	.LBE270:
 594              	.LBB271:
 595              	.LBB257:
 596              		.loc 1 389 0
 597 0186 87FB0C1B 		smull	r1, fp, r7, ip
 598 018a ABEBEC7B 		sub	fp, fp, ip, asr #31
 599              	.LBE257:
 600              	.LBE271:
 601              	.LBB272:
 602              	.LBB268:
 603 018e 87FB0201 		smull	r0, r1, r7, r2
 604              	.LBE268:
 605              	.LBE272:
 606              		.loc 1 660 0
 607 0192 9B44     		add	fp, fp, r3
 608              	.LBB273:
 609              	.LBB269:
 610              		.loc 1 389 0
 611 0194 A1EBE272 		sub	r2, r1, r2, asr #31
 612              	.LBE269:
 613              	.LBE273:
 614              		.loc 1 660 0
 615 0198 1BEB020B 		adds	fp, fp, r2
 616 019c 48BF     		it	mi
 617 019e 0BF1030B 		addmi	fp, fp, #3
 618 01a2 4FEAAB0B 		asr	fp, fp, #2
 619              	.LVL55:
 620 01a6 5846     		mov	r0, fp
 621 01a8 FFF7FEFF 		bl	__aeabi_i2d
 622              	.LVL56:
 623 01ac 0022     		movs	r2, #0
 624 01ae 344B     		ldr	r3, .L49+56
 625 01b0 FFF7FEFF 		bl	__aeabi_dmul
 626              	.LVL57:
 627 01b4 24A3     		adr	r3, .L49
ARM GAS  C:\Users\adrie\AppData\Local\Temp\ccgB8szF.s 			page 12


 628 01b6 D3E90023 		ldrd	r2, [r3]
 629 01ba FFF7FEFF 		bl	__aeabi_dmul
 630              	.LVL58:
 631              		.loc 1 662 0
 632 01be 44F62063 		movw	r3, #20000
 633 01c2 9B45     		cmp	fp, r3
 634 01c4 8046     		mov	r8, r0
 635 01c6 8946     		mov	r9, r1
 636 01c8 3FF730AF 		bgt	.L48
 637              		.loc 1 664 0
 638 01cc 3FF43FAF 		beq	.L30
 639 01d0 0246     		mov	r2, r0
 640 01d2 0B46     		mov	r3, r1
 641 01d4 0020     		movs	r0, #0
 642 01d6 0021     		movs	r1, #0
 643 01d8 FFF7FEFF 		bl	__aeabi_ddiv
 644              	.LVL59:
 645              		.loc 1 665 0
 646 01dc 0026     		movs	r6, #0
 647              	.LVL60:
 648 01de 8046     		mov	r8, r0
 649 01e0 8946     		mov	r9, r1
 650 01e2 40E7     		b	.L31
 651              	.LVL61:
 652              	.L38:
 653              		.loc 1 706 0
 654 01e4 0020     		movs	r0, #0
 655 01e6 FFF7FEFF 		bl	left_motor_set_speed
 656              	.LVL62:
 657              		.loc 1 707 0
 658 01ea 0020     		movs	r0, #0
 659 01ec FFF7FEFF 		bl	right_motor_set_speed
 660              	.LVL63:
 661 01f0 89E7     		b	.L39
 662              	.LVL64:
 663              	.L43:
 664              	.LBB274:
 665              	.LBB214:
 666              		.loc 1 622 0
 667 01f2 4FF00009 		mov	r9, #0
 668 01f6 70E7     		b	.L32
 669              	.LVL65:
 670              	.L47:
 671 01f8 0022     		movs	r2, #0
 672 01fa 0023     		movs	r3, #0
 673 01fc FFF7FEFF 		bl	__aeabi_dcmpun
 674              	.LVL66:
 675 0200 0028     		cmp	r0, #0
 676 0202 7FF430AF 		bne	.L31
 677 0206 0022     		movs	r2, #0
 678 0208 0023     		movs	r3, #0
 679 020a 4046     		mov	r0, r8
 680 020c 4946     		mov	r1, r9
 681 020e FFF7FEFF 		bl	__aeabi_dcmpge
 682              	.LVL67:
 683 0212 0028     		cmp	r0, #0
 684 0214 7FF427AF 		bne	.L31
ARM GAS  C:\Users\adrie\AppData\Local\Temp\ccgB8szF.s 			page 13


 685              	.LBE214:
 686              	.LBE274:
 687              		.loc 1 669 0
 688 0218 49EC108B 		vmov	d0, r8, r9
 689 021c FFF7FEFF 		bl	sqrt
 690              	.LVL68:
 691              	.LBB275:
 692              	.LBB276:
 693              		.loc 1 267 0
 694 0220 49EC108B 		vmov	d0, r8, r9
 695 0224 FFF7FEFF 		bl	sqrt
 696              	.LVL69:
 697 0228 1DE7     		b	.L31
 698              	.LVL70:
 699              	.L45:
 700              	.LBE276:
 701              	.LBE275:
 702              	.LBB277:
 703              	.LBB215:
 704              		.loc 1 630 0
 705 022a DFED166A 		vldr.32	s13, .L49+60
 706              		.loc 1 625 0
 707 022e 0F4B     		ldr	r3, .L49+36
 708 0230 B4EEE67A 		vcmpe.f32	s14, s13
 709 0234 F1EE10FA 		vmrs	APSR_nzcv, FPSCR
 710 0238 48BF     		it	mi
 711 023a B0EE667A 		vmovmi.f32	s14, s13
 712 023e 83ED007A 		vstr.32	s14, [r3]
 713 0242 40E7     		b	.L35
 714              	.L50:
 715 0244 AFF30080 		.align	3
 716              	.L49:
 717 0248 000000C0 		.word	-1073741824
 718 024c CA210940 		.word	1074340298
 719 0250 00000000 		.word	__stack_chk_guard
 720 0254 00000000 		.word	.LANCHOR0
 721 0258 00000000 		.word	.LANCHOR2
 722 025c 56555555 		.word	1431655766
 723 0260 DB0F4940 		.word	1078530011
 724 0264 295C8F3D 		.word	1032805417
 725 0268 0AD7233C 		.word	1008981770
 726 026c 00000000 		.word	.LANCHOR3
 727 0270 92249D43 		.word	1134371986
 728 0274 0000FA45 		.word	1174011904
 729 0278 00000000 		.word	.LANCHOR4
 730 027c 00000000 		.word	.LANCHOR1
 731 0280 00001040 		.word	1074790400
 732 0284 92249DC3 		.word	-1013111662
 733 0288 00000000 		.word	ch
 734              	.LBE215:
 735              	.LBE277:
 736              	.LBE279:
 737              		.cfi_endproc
 738              	.LFE306:
 739              		.size	PiRegulator, .-PiRegulator
 740              		.section	.text.sound_remote,"ax",%progbits
 741              		.align	1
ARM GAS  C:\Users\adrie\AppData\Local\Temp\ccgB8szF.s 			page 14


 742              		.p2align 4,,15
 743              		.global	sound_remote
 744              		.syntax unified
 745              		.thumb
 746              		.thumb_func
 747              		.fpu fpv4-sp-d16
 748              		.type	sound_remote, %function
 749              	sound_remote:
 750              	.LFB290:
 751              		.loc 1 85 0
 752              		.cfi_startproc
 753              		@ args = 0, pretend = 0, frame = 8
 754              		@ frame_needed = 0, uses_anonymous_args = 0
 755              	.LVL71:
 756 0000 10B5     		push	{r4, lr}
 757              		.cfi_def_cfa_offset 8
 758              		.cfi_offset 4, -8
 759              		.cfi_offset 14, -4
 760 0002 2C4C     		ldr	r4, .L76
 761              		.loc 1 86 0
 762 0004 9FED2C7A 		vldr.32	s14, .L76+4
 763              		.loc 1 85 0
 764 0008 2368     		ldr	r3, [r4]
 765 000a 82B0     		sub	sp, sp, #8
 766              		.cfi_def_cfa_offset 16
 767 000c 2830     		adds	r0, r0, #40
 768              	.LVL72:
 769              		.loc 1 85 0
 770 000e 0193     		str	r3, [sp, #4]
 771              	.LVL73:
 772              		.loc 1 87 0
 773 0010 4FF0FF31 		mov	r1, #-1
 774              		.loc 1 85 0
 775 0014 0A23     		movs	r3, #10
 776              	.LBB280:
 777              		.loc 1 90 0
 778 0016 40F60102 		movw	r2, #2049
 779              	.LVL74:
 780              	.L54:
 781              		.loc 1 91 0
 782 001a F0EC017A 		vldmia.32	r0!, {s15}
 783 001e F4EEC77A 		vcmpe.f32	s15, s14
 784 0022 F1EE10FA 		vmrs	APSR_nzcv, FPSCR
 785              	.LVL75:
 786              		.loc 1 93 0
 787 0026 C8BF     		it	gt
 788 0028 19B2     		sxthgt	r1, r3
 789              	.LVL76:
 790 002a 03F10103 		add	r3, r3, #1
 791              	.LVL77:
 792              		.loc 1 92 0
 793 002e C8BF     		it	gt
 794 0030 B0EE677A 		vmovgt.f32	s14, s15
 795              	.LVL78:
 796              		.loc 1 90 0
 797 0034 9342     		cmp	r3, r2
 798 0036 F0D1     		bne	.L54
ARM GAS  C:\Users\adrie\AppData\Local\Temp\ccgB8szF.s 			page 15


 799              	.LBE280:
 800              		.loc 1 99 0
 801 0038 89B2     		uxth	r1, r1
 802 003a A1F10F03 		sub	r3, r1, #15
 803 003e 022B     		cmp	r3, #2
 804 0040 24D9     		bls	.L72
 805              		.loc 1 104 0
 806 0042 A1F11203 		sub	r3, r1, #18
 807 0046 022B     		cmp	r3, #2
 808 0048 11D9     		bls	.L73
 809              		.loc 1 109 0
 810 004a A1F11603 		sub	r3, r1, #22
 811 004e 022B     		cmp	r3, #2
 812 0050 2CD9     		bls	.L74
 813              		.loc 1 114 0
 814 0052 1939     		subs	r1, r1, #25
 815 0054 0229     		cmp	r1, #2
 816 0056 1CD9     		bls	.L75
 817              		.loc 1 119 0
 818 0058 0020     		movs	r0, #0
 819 005a FFF7FEFF 		bl	left_motor_set_speed
 820              	.LVL79:
 821              		.loc 1 120 0
 822 005e 019A     		ldr	r2, [sp, #4]
 823 0060 2368     		ldr	r3, [r4]
 824 0062 9A42     		cmp	r2, r3
 825 0064 08BF     		it	eq
 826 0066 0020     		moveq	r0, #0
 827 0068 0BD0     		beq	.L68
 828              	.L69:
 829 006a FFF7FEFF 		bl	__stack_chk_fail
 830              	.LVL80:
 831              	.L73:
 832              		.loc 1 105 0
 833 006e 1348     		ldr	r0, .L76+8
 834              	.L70:
 835 0070 FFF7FEFF 		bl	left_motor_set_speed
 836              	.LVL81:
 837              		.loc 1 106 0
 838 0074 019A     		ldr	r2, [sp, #4]
 839 0076 2368     		ldr	r3, [r4]
 840 0078 9A42     		cmp	r2, r3
 841 007a 08BF     		it	eq
 842 007c 4FF41670 		moveq	r0, #600
 843 0080 F3D1     		bne	.L69
 844              	.L68:
 845              		.loc 1 123 0
 846 0082 02B0     		add	sp, sp, #8
 847              		.cfi_remember_state
 848              		.cfi_def_cfa_offset 8
 849              		@ sp needed
 850 0084 BDE81040 		pop	{r4, lr}
 851              		.cfi_restore 14
 852              		.cfi_restore 4
 853              		.cfi_def_cfa_offset 0
 854              		.loc 1 120 0
 855 0088 FFF7FEBF 		b	right_motor_set_speed
ARM GAS  C:\Users\adrie\AppData\Local\Temp\ccgB8szF.s 			page 16


 856              	.LVL82:
 857              	.L72:
 858              		.cfi_restore_state
 859              		.loc 1 100 0
 860 008c 4FF41670 		mov	r0, #600
 861 0090 EEE7     		b	.L70
 862              	.L75:
 863              		.loc 1 115 0
 864 0092 0A48     		ldr	r0, .L76+8
 865              	.L71:
 866 0094 FFF7FEFF 		bl	left_motor_set_speed
 867              	.LVL83:
 868              		.loc 1 116 0
 869 0098 019A     		ldr	r2, [sp, #4]
 870 009a 2368     		ldr	r3, [r4]
 871 009c 9A42     		cmp	r2, r3
 872 009e E4D1     		bne	.L69
 873 00a0 0648     		ldr	r0, .L76+8
 874              		.loc 1 123 0
 875 00a2 02B0     		add	sp, sp, #8
 876              		.cfi_remember_state
 877              		.cfi_def_cfa_offset 8
 878              		@ sp needed
 879 00a4 BDE81040 		pop	{r4, lr}
 880              		.cfi_restore 14
 881              		.cfi_restore 4
 882              		.cfi_def_cfa_offset 0
 883              		.loc 1 120 0
 884 00a8 FFF7FEBF 		b	right_motor_set_speed
 885              	.LVL84:
 886              	.L74:
 887              		.cfi_restore_state
 888              		.loc 1 110 0
 889 00ac 4FF41670 		mov	r0, #600
 890 00b0 F0E7     		b	.L71
 891              	.L77:
 892 00b2 00BF     		.align	2
 893              	.L76:
 894 00b4 00000000 		.word	__stack_chk_guard
 895 00b8 00401C46 		.word	1176256512
 896 00bc A8FDFFFF 		.word	-600
 897              		.cfi_endproc
 898              	.LFE290:
 899              		.size	sound_remote, .-sound_remote
 900              		.section	.text.calcul_distance,"ax",%progbits
 901              		.align	1
 902              		.p2align 4,,15
 903              		.global	calcul_distance
 904              		.syntax unified
 905              		.thumb
 906              		.thumb_func
 907              		.fpu fpv4-sp-d16
 908              		.type	calcul_distance, %function
 909              	calcul_distance:
 910              	.LFB292:
 911              		.loc 1 264 0
 912              		.cfi_startproc
ARM GAS  C:\Users\adrie\AppData\Local\Temp\ccgB8szF.s 			page 17


 913              		@ args = 0, pretend = 0, frame = 8
 914              		@ frame_needed = 0, uses_anonymous_args = 0
 915              	.LVL85:
 916 0000 F0B5     		push	{r4, r5, r6, r7, lr}
 917              		.cfi_def_cfa_offset 20
 918              		.cfi_offset 4, -20
 919              		.cfi_offset 5, -16
 920              		.cfi_offset 6, -12
 921              		.cfi_offset 7, -8
 922              		.cfi_offset 14, -4
 923 0002 1B4C     		ldr	r4, .L82+8
 924 0004 83B0     		sub	sp, sp, #12
 925              		.cfi_def_cfa_offset 32
 926              		.loc 1 264 0
 927 0006 2368     		ldr	r3, [r4]
 928 0008 0193     		str	r3, [sp, #4]
 929 000a 0546     		mov	r5, r0
 930              	.LVL86:
 931              		.loc 1 267 0
 932 000c 0846     		mov	r0, r1
 933              	.LVL87:
 934 000e FFF7FEFF 		bl	__aeabi_i2d
 935              	.LVL88:
 936 0012 0646     		mov	r6, r0
 937              		.loc 1 266 0
 938 0014 2846     		mov	r0, r5
 939              		.loc 1 267 0
 940 0016 0F46     		mov	r7, r1
 941              		.loc 1 266 0
 942 0018 FFF7FEFF 		bl	__aeabi_i2d
 943              	.LVL89:
 944              		.loc 1 267 0
 945 001c 0022     		movs	r2, #0
 946 001e 154B     		ldr	r3, .L82+12
 947 0020 FFF7FEFF 		bl	__aeabi_dmul
 948              	.LVL90:
 949 0024 10A3     		adr	r3, .L82
 950 0026 D3E90023 		ldrd	r2, [r3]
 951 002a FFF7FEFF 		bl	__aeabi_dmul
 952              	.LVL91:
 953 002e 0246     		mov	r2, r0
 954 0030 0B46     		mov	r3, r1
 955 0032 3046     		mov	r0, r6
 956 0034 3946     		mov	r1, r7
 957 0036 FFF7FEFF 		bl	__aeabi_ddiv
 958              	.LVL92:
 959 003a 41EC100B 		vmov	d0, r0, r1
 960 003e FFF7FEFF 		bl	sqrt
 961              	.LVL93:
 962 0042 53EC102B 		vmov	r2, r3, d0
 963              	.LVL94:
 964              		.loc 1 269 0
 965 0046 10EE100A 		vmov	r0, s0	@ int
 966 004a 1946     		mov	r1, r3
 967 004c FFF7FEFF 		bl	__aeabi_dadd
 968              	.LVL95:
 969              		.loc 1 270 0
ARM GAS  C:\Users\adrie\AppData\Local\Temp\ccgB8szF.s 			page 18


 970 0050 019A     		ldr	r2, [sp, #4]
 971 0052 2368     		ldr	r3, [r4]
 972 0054 9A42     		cmp	r2, r3
 973 0056 03D1     		bne	.L81
 974 0058 41EC100B 		vmov	d0, r0, r1
 975 005c 03B0     		add	sp, sp, #12
 976              		.cfi_remember_state
 977              		.cfi_def_cfa_offset 20
 978              		@ sp needed
 979 005e F0BD     		pop	{r4, r5, r6, r7, pc}
 980              	.LVL96:
 981              	.L81:
 982              		.cfi_restore_state
 983 0060 FFF7FEFF 		bl	__stack_chk_fail
 984              	.LVL97:
 985              	.L83:
 986 0064 AFF30080 		.align	3
 987              	.L82:
 988 0068 000000C0 		.word	-1073741824
 989 006c CA210940 		.word	1074340298
 990 0070 00000000 		.word	__stack_chk_guard
 991 0074 00001040 		.word	1074790400
 992              		.cfi_endproc
 993              	.LFE292:
 994              		.size	calcul_distance, .-calcul_distance
 995              		.section	.text.calcul_angle,"ax",%progbits
 996              		.align	1
 997              		.p2align 4,,15
 998              		.global	calcul_angle
 999              		.syntax unified
 1000              		.thumb
 1001              		.thumb_func
 1002              		.fpu fpv4-sp-d16
 1003              		.type	calcul_angle, %function
 1004              	calcul_angle:
 1005              	.LFB293:
 1006              		.loc 1 272 0
 1007              		.cfi_startproc
 1008              		@ args = 0, pretend = 0, frame = 8
 1009              		@ frame_needed = 0, uses_anonymous_args = 0
 1010              	.LVL98:
 1011 0000 30B5     		push	{r4, r5, lr}
 1012              		.cfi_def_cfa_offset 12
 1013              		.cfi_offset 4, -12
 1014              		.cfi_offset 5, -8
 1015              		.cfi_offset 14, -4
 1016 0002 654C     		ldr	r4, .L123
 1017 0004 83B0     		sub	sp, sp, #12
 1018              		.cfi_def_cfa_offset 24
 1019              		.loc 1 272 0
 1020 0006 2568     		ldr	r5, [r4]
 1021 0008 0195     		str	r5, [sp, #4]
 1022              	.LVL99:
 1023              		.loc 1 279 0
 1024 000a 8842     		cmp	r0, r1
 1025 000c 01DB     		blt	.L113
 1026              		.loc 1 279 0 is_stmt 0 discriminator 1
ARM GAS  C:\Users\adrie\AppData\Local\Temp\ccgB8szF.s 			page 19


 1027 000e 9042     		cmp	r0, r2
 1028 0010 61DA     		bge	.L117
 1029              	.L113:
 1030              		.loc 1 274 0 is_stmt 1
 1031 0012 FF25     		movs	r5, #255
 1032              	.L85:
 1033              	.LVL100:
 1034              		.loc 1 291 0
 1035 0014 9142     		cmp	r1, r2
 1036 0016 18DB     		blt	.L91
 1037              		.loc 1 291 0 is_stmt 0 discriminator 1
 1038 0018 9942     		cmp	r1, r3
 1039 001a 16DB     		blt	.L91
 1040              		.loc 1 292 0 is_stmt 1
 1041 001c 07EE901A 		vmov	s15, r1	@ int
 1042 0020 9FED5E7A 		vldr.32	s14, .L123+4
 1043 0024 F8EEE77A 		vcvt.f32.s32	s15, s15
 1044 0028 67EE877A 		vmul.f32	s15, s15, s14
 1045 002c FDEEE77A 		vcvt.s32.f32	s15, s15
 1046 0030 17EE905A 		vmov	r5, s15	@ int
 1047              	.LVL101:
 1048              		.loc 1 293 0
 1049 0034 AA42     		cmp	r2, r5
 1050 0036 78DC     		bgt	.L92
 1051              		.loc 1 293 0 is_stmt 0 discriminator 1
 1052 0038 AB42     		cmp	r3, r5
 1053 003a 40F39A80 		ble	.L93
 1054              		.loc 1 295 0 is_stmt 1
 1055 003e AA42     		cmp	r2, r5
 1056 0040 73DA     		bge	.L92
 1057              		.loc 1 299 0
 1058 0042 574B     		ldr	r3, .L123+8
 1059              	.LVL102:
 1060 0044 E122     		movs	r2, #225
 1061              	.LVL103:
 1062 0046 1A60     		str	r2, [r3]
 1063              		.loc 1 300 0
 1064 0048 16E0     		b	.L84
 1065              	.LVL104:
 1066              	.L91:
 1067              		.loc 1 304 0
 1068 004a 9A42     		cmp	r2, r3
 1069 004c 1BDA     		bge	.L118
 1070              	.LVL105:
 1071              	.L95:
 1072              		.loc 1 350 0
 1073 004e 8842     		cmp	r0, r1
 1074 0050 C0F28280 		blt	.L101
 1075              		.loc 1 348 0 discriminator 1
 1076 0054 07EE900A 		vmov	s15, r0	@ int
 1077 0058 9FED507A 		vldr.32	s14, .L123+4
 1078 005c F8EEE77A 		vcvt.f32.s32	s15, s15
 1079              	.LVL106:
 1080 0060 67EE877A 		vmul.f32	s15, s15, s14
 1081              	.LVL107:
 1082 0064 FDEEE77A 		vcvt.s32.f32	s15, s15
 1083              		.loc 1 350 0 discriminator 1
ARM GAS  C:\Users\adrie\AppData\Local\Temp\ccgB8szF.s 			page 20


 1084 0068 17EE903A 		vmov	r3, s15	@ int
 1085              	.LVL108:
 1086 006c 9942     		cmp	r1, r3
 1087              		.loc 1 351 0 discriminator 1
 1088 006e 4C4B     		ldr	r3, .L123+8
 1089 0070 D4BF     		ite	le
 1090 0072 9D22     		movle	r2, #157
 1091              	.LVL109:
 1092              		.loc 1 354 0 discriminator 1
 1093 0074 B422     		movgt	r2, #180
 1094 0076 1A60     		str	r2, [r3]
 1095              	.LVL110:
 1096              	.L84:
 1097              		.loc 1 380 0
 1098 0078 019A     		ldr	r2, [sp, #4]
 1099 007a 2368     		ldr	r3, [r4]
 1100 007c 9A42     		cmp	r2, r3
 1101 007e 40F08880 		bne	.L119
 1102 0082 03B0     		add	sp, sp, #12
 1103              		.cfi_remember_state
 1104              		.cfi_def_cfa_offset 12
 1105              		@ sp needed
 1106 0084 30BD     		pop	{r4, r5, pc}
 1107              	.LVL111:
 1108              	.L118:
 1109              		.cfi_restore_state
 1110              		.loc 1 305 0
 1111 0086 07EE902A 		vmov	s15, r2	@ int
 1112 008a DFED446A 		vldr.32	s13, .L123+4
 1113 008e B8EEE77A 		vcvt.f32.s32	s14, s15
 1114 0092 27EE267A 		vmul.f32	s14, s14, s13
 1115 0096 BDEEC77A 		vcvt.s32.f32	s14, s14
 1116              		.loc 1 306 0
 1117 009a 17EE10CA 		vmov	ip, s14	@ int
 1118 009e 6345     		cmp	r3, ip
 1119 00a0 2FDD     		ble	.L120
 1120              		.loc 1 329 0
 1121 00a2 012D     		cmp	r5, #1
 1122 00a4 54D0     		beq	.L121
 1123              		.loc 1 347 0
 1124 00a6 032D     		cmp	r5, #3
 1125 00a8 D1D0     		beq	.L95
 1126              	.LVL112:
 1127              	.L97:
 1128              		.loc 1 364 0
 1129 00aa 9A42     		cmp	r2, r3
 1130 00ac 4BDC     		bgt	.L103
 1131              		.loc 1 362 0 discriminator 1
 1132 00ae 07EE903A 		vmov	s15, r3	@ int
 1133 00b2 9FED3A7A 		vldr.32	s14, .L123+4
 1134 00b6 F8EEE77A 		vcvt.f32.s32	s15, s15
 1135 00ba 67EE877A 		vmul.f32	s15, s15, s14
 1136 00be FDEEE77A 		vcvt.s32.f32	s15, s15
 1137              		.loc 1 364 0 discriminator 1
 1138 00c2 17EE903A 		vmov	r3, s15	@ int
 1139              	.LVL113:
 1140 00c6 9A42     		cmp	r2, r3
ARM GAS  C:\Users\adrie\AppData\Local\Temp\ccgB8szF.s 			page 21


 1141              		.loc 1 365 0 discriminator 1
 1142 00c8 354B     		ldr	r3, .L123+8
 1143 00ca D4BF     		ite	le
 1144 00cc F722     		movle	r2, #247
 1145              	.LVL114:
 1146              		.loc 1 368 0 discriminator 1
 1147 00ce 4FF48772 		movgt	r2, #270
 1148 00d2 1A60     		str	r2, [r3]
 1149              		.loc 1 369 0 discriminator 1
 1150 00d4 D0E7     		b	.L84
 1151              	.LVL115:
 1152              	.L117:
 1153              		.loc 1 279 0 discriminator 2
 1154 00d6 9842     		cmp	r0, r3
 1155 00d8 9BDB     		blt	.L113
 1156              		.loc 1 280 0
 1157 00da 07EE900A 		vmov	s15, r0	@ int
 1158 00de 9FED2F7A 		vldr.32	s14, .L123+4
 1159 00e2 F8EEE77A 		vcvt.f32.s32	s15, s15
 1160 00e6 67EE877A 		vmul.f32	s15, s15, s14
 1161 00ea FDEEE77A 		vcvt.s32.f32	s15, s15
 1162 00ee 17EE905A 		vmov	r5, s15	@ int
 1163              	.LVL116:
 1164              		.loc 1 281 0
 1165 00f2 A942     		cmp	r1, r5
 1166 00f4 34DC     		bgt	.L86
 1167              		.loc 1 281 0 is_stmt 0 discriminator 1
 1168 00f6 AA42     		cmp	r2, r5
 1169 00f8 1EDC     		bgt	.L87
 1170              		.loc 1 281 0 discriminator 2
 1171 00fa AB42     		cmp	r3, r5
 1172 00fc 1ADC     		bgt	.L122
 1173              		.loc 1 282 0 is_stmt 1
 1174 00fe 0125     		movs	r5, #1
 1175              	.LVL117:
 1176 0100 88E7     		b	.L85
 1177              	.LVL118:
 1178              	.L120:
 1179 0102 07EE901A 		vmov	s15, r1	@ int
 1180 0106 F8EEE77A 		vcvt.f32.s32	s15, s15
 1181 010a 67EEA67A 		vmul.f32	s15, s15, s13
 1182 010e FDEEE77A 		vcvt.s32.f32	s15, s15
 1183 0112 17EE905A 		vmov	r5, s15	@ int
 1184              	.LVL119:
 1185              	.L96:
 1186              		.loc 1 315 0
 1187 0116 8842     		cmp	r0, r1
 1188              		.loc 1 316 0
 1189 0118 214B     		ldr	r3, .L123+8
 1190              	.LVL120:
 1191              		.loc 1 315 0
 1192 011a 11DC     		bgt	.L99
 1193              		.loc 1 315 0 is_stmt 0 discriminator 1
 1194 011c A842     		cmp	r0, r5
 1195              		.loc 1 316 0 is_stmt 1 discriminator 1
 1196 011e D4BF     		ite	le
 1197 0120 40F25112 		movwle	r2, #337
ARM GAS  C:\Users\adrie\AppData\Local\Temp\ccgB8szF.s 			page 22


 1198              	.LVL121:
 1199              		.loc 1 319 0 discriminator 1
 1200 0124 0022     		movgt	r2, #0
 1201 0126 1A60     		str	r2, [r3]
 1202              		.loc 1 320 0 discriminator 1
 1203 0128 A6E7     		b	.L84
 1204              	.LVL122:
 1205              	.L92:
 1206              		.loc 1 296 0
 1207 012a 1D4B     		ldr	r3, .L123+8
 1208              	.LVL123:
 1209 012c 40F23B12 		movw	r2, #315
 1210              	.LVL124:
 1211 0130 1A60     		str	r2, [r3]
 1212              		.loc 1 297 0
 1213 0132 A1E7     		b	.L84
 1214              	.LVL125:
 1215              	.L122:
 1216              		.loc 1 283 0
 1217 0134 AA42     		cmp	r2, r5
 1218 0136 18DB     		blt	.L107
 1219              	.L87:
 1220              		.loc 1 284 0
 1221 0138 194B     		ldr	r3, .L123+8
 1222              	.LVL126:
 1223 013a 2D22     		movs	r2, #45
 1224              	.LVL127:
 1225 013c 1A60     		str	r2, [r3]
 1226              		.loc 1 285 0
 1227 013e 9BE7     		b	.L84
 1228              	.LVL128:
 1229              	.L99:
 1230              		.loc 1 322 0
 1231 0140 1622     		movs	r2, #22
 1232              	.LVL129:
 1233 0142 1A60     		str	r2, [r3]
 1234              		.loc 1 324 0
 1235 0144 98E7     		b	.L84
 1236              	.LVL130:
 1237              	.L103:
 1238              		.loc 1 371 0
 1239 0146 164B     		ldr	r3, .L123+8
 1240              	.LVL131:
 1241 0148 4FF49272 		mov	r2, #292
 1242              	.LVL132:
 1243 014c 1A60     		str	r2, [r3]
 1244              		.loc 1 372 0
 1245 014e 93E7     		b	.L84
 1246              	.LVL133:
 1247              	.L121:
 1248              		.loc 1 336 0
 1249 0150 134B     		ldr	r3, .L123+8
 1250              	.LVL134:
 1251 0152 5A22     		movs	r2, #90
 1252              	.LVL135:
 1253 0154 1A60     		str	r2, [r3]
 1254              		.loc 1 337 0
ARM GAS  C:\Users\adrie\AppData\Local\Temp\ccgB8szF.s 			page 23


 1255 0156 8FE7     		b	.L84
 1256              	.LVL136:
 1257              	.L101:
 1258              		.loc 1 357 0
 1259 0158 114B     		ldr	r3, .L123+8
 1260              	.LVL137:
 1261 015a CA22     		movs	r2, #202
 1262              	.LVL138:
 1263 015c 1A60     		str	r2, [r3]
 1264              		.loc 1 358 0
 1265 015e 8BE7     		b	.L84
 1266              	.LVL139:
 1267              	.L86:
 1268              		.loc 1 283 0
 1269 0160 AA42     		cmp	r2, r5
 1270 0162 E9DA     		bge	.L87
 1271              		.loc 1 286 0
 1272 0164 AB42     		cmp	r3, r5
 1273 0166 FFF654AF 		blt	.L113
 1274              	.L107:
 1275              		.loc 1 287 0
 1276 016a 0D4B     		ldr	r3, .L123+8
 1277              	.LVL140:
 1278 016c 8722     		movs	r2, #135
 1279              	.LVL141:
 1280 016e 1A60     		str	r2, [r3]
 1281              		.loc 1 288 0
 1282 0170 82E7     		b	.L84
 1283              	.LVL142:
 1284              	.L93:
 1285              		.loc 1 304 0
 1286 0172 9A42     		cmp	r2, r3
 1287 0174 FFF66BAF 		blt	.L95
 1288              	.LVL143:
 1289              		.loc 1 305 0
 1290 0178 07EE902A 		vmov	s15, r2	@ int
 1291 017c F8EEE77A 		vcvt.f32.s32	s15, s15
 1292 0180 27EE877A 		vmul.f32	s14, s15, s14
 1293 0184 BDEEC77A 		vcvt.s32.f32	s14, s14
 1294              		.loc 1 306 0
 1295 0188 17EE10CA 		vmov	ip, s14	@ int
 1296 018c 6345     		cmp	r3, ip
 1297 018e C2DD     		ble	.L96
 1298 0190 8BE7     		b	.L97
 1299              	.LVL144:
 1300              	.L119:
 1301              		.loc 1 380 0
 1302 0192 FFF7FEFF 		bl	__stack_chk_fail
 1303              	.LVL145:
 1304              	.L124:
 1305 0196 00BF     		.align	2
 1306              	.L123:
 1307 0198 00000000 		.word	__stack_chk_guard
 1308 019c AE47613F 		.word	1063339950
 1309 01a0 00000000 		.word	.LANCHOR4
 1310              		.cfi_endproc
 1311              	.LFE293:
ARM GAS  C:\Users\adrie\AppData\Local\Temp\ccgB8szF.s 			page 24


 1312              		.size	calcul_angle, .-calcul_angle
 1313              		.section	.text.calcul_moyenne,"ax",%progbits
 1314              		.align	1
 1315              		.p2align 4,,15
 1316              		.global	calcul_moyenne
 1317              		.syntax unified
 1318              		.thumb
 1319              		.thumb_func
 1320              		.fpu fpv4-sp-d16
 1321              		.type	calcul_moyenne, %function
 1322              	calcul_moyenne:
 1323              	.LFB294:
 1324              		.loc 1 383 0
 1325              		.cfi_startproc
 1326              		@ args = 0, pretend = 0, frame = 8
 1327              		@ frame_needed = 0, uses_anonymous_args = 0
 1328              	.LVL146:
 1329 0000 30B5     		push	{r4, r5, lr}
 1330              		.cfi_def_cfa_offset 12
 1331              		.cfi_offset 4, -12
 1332              		.cfi_offset 5, -8
 1333              		.cfi_offset 14, -4
 1334 0002 0D49     		ldr	r1, .L129
 1335              	.LBB281:
 1336              		.loc 1 386 0
 1337 0004 0D4B     		ldr	r3, .L129+4
 1338              	.LBE281:
 1339              		.loc 1 383 0
 1340 0006 0C68     		ldr	r4, [r1]
 1341              		.loc 1 389 0
 1342 0008 0D4A     		ldr	r2, .L129+8
 1343              		.loc 1 383 0
 1344 000a 83B0     		sub	sp, sp, #12
 1345              		.cfi_def_cfa_offset 24
 1346              	.LBB282:
 1347              		.loc 1 386 0
 1348 000c 00EB4000 		add	r0, r0, r0, lsl #1
 1349              	.LVL147:
 1350 0010 8000     		lsls	r0, r0, #2
 1351              	.LBE282:
 1352              		.loc 1 383 0
 1353 0012 0194     		str	r4, [sp, #4]
 1354              	.LVL148:
 1355              	.LBB283:
 1356              		.loc 1 386 0
 1357 0014 1C18     		adds	r4, r3, r0
 1358 0016 1B58     		ldr	r3, [r3, r0]
 1359 0018 D4E90150 		ldrd	r5, r0, [r4, #4]
 1360              	.LBE283:
 1361              		.loc 1 390 0
 1362 001c 019C     		ldr	r4, [sp, #4]
 1363 001e 0968     		ldr	r1, [r1]
 1364              	.LBB284:
 1365              		.loc 1 386 0
 1366 0020 2B44     		add	r3, r3, r5
 1367              	.LVL149:
 1368 0022 0344     		add	r3, r3, r0
ARM GAS  C:\Users\adrie\AppData\Local\Temp\ccgB8szF.s 			page 25


 1369              	.LBE284:
 1370              		.loc 1 389 0
 1371 0024 82FB0320 		smull	r2, r0, r2, r3
 1372              		.loc 1 390 0
 1373 0028 8C42     		cmp	r4, r1
 1374 002a A0EBE370 		sub	r0, r0, r3, asr #31
 1375 002e 01D1     		bne	.L128
 1376 0030 03B0     		add	sp, sp, #12
 1377              		.cfi_remember_state
 1378              		.cfi_def_cfa_offset 12
 1379              		@ sp needed
 1380 0032 30BD     		pop	{r4, r5, pc}
 1381              	.L128:
 1382              		.cfi_restore_state
 1383 0034 FFF7FEFF 		bl	__stack_chk_fail
 1384              	.LVL150:
 1385              	.L130:
 1386              		.align	2
 1387              	.L129:
 1388 0038 00000000 		.word	__stack_chk_guard
 1389 003c 00000000 		.word	.LANCHOR2
 1390 0040 56555555 		.word	1431655766
 1391              		.cfi_endproc
 1392              	.LFE294:
 1393              		.size	calcul_moyenne, .-calcul_moyenne
 1394              		.section	.text.update_moyenne,"ax",%progbits
 1395              		.align	1
 1396              		.p2align 4,,15
 1397              		.global	update_moyenne
 1398              		.syntax unified
 1399              		.thumb
 1400              		.thumb_func
 1401              		.fpu fpv4-sp-d16
 1402              		.type	update_moyenne, %function
 1403              	update_moyenne:
 1404              	.LFB295:
 1405              		.loc 1 393 0
 1406              		.cfi_startproc
 1407              		@ args = 4, pretend = 0, frame = 8
 1408              		@ frame_needed = 0, uses_anonymous_args = 0
 1409              	.LVL151:
 1410 0000 F0B5     		push	{r4, r5, r6, r7, lr}
 1411              		.cfi_def_cfa_offset 20
 1412              		.cfi_offset 4, -20
 1413              		.cfi_offset 5, -16
 1414              		.cfi_offset 6, -12
 1415              		.cfi_offset 7, -8
 1416              		.cfi_offset 14, -4
 1417 0002 0E4C     		ldr	r4, .L136
 1418 0004 83B0     		sub	sp, sp, #12
 1419              		.cfi_def_cfa_offset 32
 1420              		.loc 1 393 0
 1421 0006 2568     		ldr	r5, [r4]
 1422 0008 089E     		ldr	r6, [sp, #32]
 1423 000a 0195     		str	r5, [sp, #4]
 1424              		.loc 1 394 0
 1425 000c 0328     		cmp	r0, #3
ARM GAS  C:\Users\adrie\AppData\Local\Temp\ccgB8szF.s 			page 26


 1426 000e 0DD8     		bhi	.L131
 1427              		.loc 1 395 0
 1428 0010 0B4D     		ldr	r5, .L136+4
 1429 0012 00F1FF3C 		add	ip, r0, #-1
 1430              		.loc 1 397 0
 1431 0016 871C     		adds	r7, r0, #2
 1432              		.loc 1 395 0
 1433 0018 45F82C20 		str	r2, [r5, ip, lsl #2]
 1434              		.loc 1 398 0
 1435 001c 421D     		adds	r2, r0, #5
 1436              	.LVL152:
 1437              		.loc 1 399 0
 1438 001e 0830     		adds	r0, r0, #8
 1439              	.LVL153:
 1440              		.loc 1 397 0
 1441 0020 45F82710 		str	r1, [r5, r7, lsl #2]
 1442              		.loc 1 398 0
 1443 0024 45F82230 		str	r3, [r5, r2, lsl #2]
 1444              		.loc 1 399 0
 1445 0028 45F82060 		str	r6, [r5, r0, lsl #2]
 1446              	.LVL154:
 1447              	.L131:
 1448              		.loc 1 404 0
 1449 002c 019A     		ldr	r2, [sp, #4]
 1450 002e 2368     		ldr	r3, [r4]
 1451              	.LVL155:
 1452 0030 9A42     		cmp	r2, r3
 1453 0032 01D1     		bne	.L135
 1454 0034 03B0     		add	sp, sp, #12
 1455              		.cfi_remember_state
 1456              		.cfi_def_cfa_offset 20
 1457              		@ sp needed
 1458 0036 F0BD     		pop	{r4, r5, r6, r7, pc}
 1459              	.LVL156:
 1460              	.L135:
 1461              		.cfi_restore_state
 1462 0038 FFF7FEFF 		bl	__stack_chk_fail
 1463              	.LVL157:
 1464              	.L137:
 1465              		.align	2
 1466              	.L136:
 1467 003c 00000000 		.word	__stack_chk_guard
 1468 0040 00000000 		.word	.LANCHOR2
 1469              		.cfi_endproc
 1470              	.LFE295:
 1471              		.size	update_moyenne, .-update_moyenne
 1472              		.section	.text.max_norm,"ax",%progbits
 1473              		.align	1
 1474              		.p2align 4,,15
 1475              		.global	max_norm
 1476              		.syntax unified
 1477              		.thumb
 1478              		.thumb_func
 1479              		.fpu fpv4-sp-d16
 1480              		.type	max_norm, %function
 1481              	max_norm:
 1482              	.LFB296:
ARM GAS  C:\Users\adrie\AppData\Local\Temp\ccgB8szF.s 			page 27


 1483              		.loc 1 405 0
 1484              		.cfi_startproc
 1485              		@ args = 0, pretend = 0, frame = 8
 1486              		@ frame_needed = 0, uses_anonymous_args = 0
 1487              	.LVL158:
 1488 0000 70B5     		push	{r4, r5, r6, lr}
 1489              		.cfi_def_cfa_offset 16
 1490              		.cfi_offset 4, -16
 1491              		.cfi_offset 5, -12
 1492              		.cfi_offset 6, -8
 1493              		.cfi_offset 14, -4
 1494 0002 164E     		ldr	r6, .L148
 1495              		.loc 1 406 0
 1496 0004 9FED167A 		vldr.32	s14, .L148+4
 1497              		.loc 1 405 0
 1498 0008 3368     		ldr	r3, [r6]
 1499 000a 82B0     		sub	sp, sp, #8
 1500              		.cfi_def_cfa_offset 24
 1501 000c 2831     		adds	r1, r1, #40
 1502              	.LVL159:
 1503              		.loc 1 405 0
 1504 000e 0193     		str	r3, [sp, #4]
 1505              	.LVL160:
 1506              		.loc 1 407 0
 1507 0010 4FF0FF32 		mov	r2, #-1
 1508              	.LBB285:
 1509              		.loc 1 412 0
 1510 0014 0A23     		movs	r3, #10
 1511 0016 40F60104 		movw	r4, #2049
 1512              	.LVL161:
 1513              	.L141:
 1514              		.loc 1 413 0
 1515 001a F1EC017A 		vldmia.32	r1!, {s15}
 1516 001e F4EEC77A 		vcmpe.f32	s15, s14
 1517 0022 F1EE10FA 		vmrs	APSR_nzcv, FPSCR
 1518 0026 08DD     		ble	.L139
 1519              		.loc 1 413 0 is_stmt 0 discriminator 1
 1520 0028 A3F13305 		sub	r5, r3, #51
 1521 002c B5F56D7F 		cmp	r5, #948
 1522 0030 98BF     		it	ls
 1523 0032 1A46     		movls	r2, r3
 1524              	.LVL162:
 1525 0034 98BF     		it	ls
 1526 0036 B0EE677A 		vmovls.f32	s14, s15
 1527              	.LVL163:
 1528              	.L139:
 1529              		.loc 1 412 0 is_stmt 1 discriminator 2
 1530 003a 0133     		adds	r3, r3, #1
 1531              	.LVL164:
 1532 003c A342     		cmp	r3, r4
 1533 003e ECD1     		bne	.L141
 1534              	.LVL165:
 1535              	.LBE285:
 1536              		.loc 1 421 0
 1537 0040 0199     		ldr	r1, [sp, #4]
 1538 0042 3368     		ldr	r3, [r6]
 1539              	.LVL166:
ARM GAS  C:\Users\adrie\AppData\Local\Temp\ccgB8szF.s 			page 28


 1540              		.loc 1 420 0
 1541 0044 4260     		str	r2, [r0, #4]
 1542              	.LVL167:
 1543              		.loc 1 418 0
 1544 0046 BDEEC77A 		vcvt.s32.f32	s14, s14
 1545              	.LVL168:
 1546              		.loc 1 421 0
 1547 004a 9942     		cmp	r1, r3
 1548              		.loc 1 418 0
 1549 004c 80ED007A 		vstr.32	s14, [r0]	@ int
 1550              		.loc 1 421 0
 1551 0050 01D1     		bne	.L147
 1552 0052 02B0     		add	sp, sp, #8
 1553              		.cfi_remember_state
 1554              		.cfi_def_cfa_offset 16
 1555              		@ sp needed
 1556 0054 70BD     		pop	{r4, r5, r6, pc}
 1557              	.L147:
 1558              		.cfi_restore_state
 1559 0056 FFF7FEFF 		bl	__stack_chk_fail
 1560              	.LVL169:
 1561              	.L149:
 1562 005a 00BF     		.align	2
 1563              	.L148:
 1564 005c 00000000 		.word	__stack_chk_guard
 1565 0060 0000C842 		.word	1120403456
 1566              		.cfi_endproc
 1567              	.LFE296:
 1568              		.size	max_norm, .-max_norm
 1569              		.section	.text.wait_send_to_computer,"ax",%progbits
 1570              		.align	1
 1571              		.p2align 4,,15
 1572              		.global	wait_send_to_computer
 1573              		.syntax unified
 1574              		.thumb
 1575              		.thumb_func
 1576              		.fpu fpv4-sp-d16
 1577              		.type	wait_send_to_computer, %function
 1578              	wait_send_to_computer:
 1579              	.LFB297:
 1580              		.loc 1 424 0
 1581              		.cfi_startproc
 1582              		@ args = 0, pretend = 0, frame = 8
 1583              		@ frame_needed = 0, uses_anonymous_args = 0
 1584 0000 00B5     		push	{lr}
 1585              		.cfi_def_cfa_offset 4
 1586              		.cfi_offset 14, -4
 1587 0002 084B     		ldr	r3, .L155
 1588 0004 83B0     		sub	sp, sp, #12
 1589              		.cfi_def_cfa_offset 16
 1590              		.loc 1 424 0
 1591 0006 1A68     		ldr	r2, [r3]
 1592 0008 0192     		str	r2, [sp, #4]
 1593              	.LVL170:
 1594              	.LBB286:
 1595              	.LBB287:
 1596              		.file 6 "../lib/e-puck2_main-processor/ChibiOS//os/rt/include/chbsem.h"
ARM GAS  C:\Users\adrie\AppData\Local\Temp\ccgB8szF.s 			page 29


 1597              		.loc 6 143 0
 1598 000a 019A     		ldr	r2, [sp, #4]
 1599 000c 1B68     		ldr	r3, [r3]
 1600 000e 9A42     		cmp	r2, r3
 1601 0010 05D1     		bne	.L154
 1602 0012 0548     		ldr	r0, .L155+4
 1603              	.LBE287:
 1604              	.LBE286:
 1605              		.loc 1 426 0
 1606 0014 03B0     		add	sp, sp, #12
 1607              		.cfi_remember_state
 1608              		.cfi_def_cfa_offset 4
 1609              		@ sp needed
 1610 0016 5DF804EB 		ldr	lr, [sp], #4
 1611              		.cfi_restore 14
 1612              		.cfi_def_cfa_offset 0
 1613              	.LBB289:
 1614              	.LBB288:
 1615              		.loc 6 143 0
 1616 001a FFF7FEBF 		b	chSemWait
 1617              	.LVL171:
 1618              	.L154:
 1619              		.cfi_restore_state
 1620 001e FFF7FEFF 		bl	__stack_chk_fail
 1621              	.LVL172:
 1622              	.L156:
 1623 0022 00BF     		.align	2
 1624              	.L155:
 1625 0024 00000000 		.word	__stack_chk_guard
 1626 0028 00000000 		.word	.LANCHOR5
 1627              	.LBE288:
 1628              	.LBE289:
 1629              		.cfi_endproc
 1630              	.LFE297:
 1631              		.size	wait_send_to_computer, .-wait_send_to_computer
 1632              		.section	.text.get_max_norm_index,"ax",%progbits
 1633              		.align	1
 1634              		.p2align 4,,15
 1635              		.global	get_max_norm_index
 1636              		.syntax unified
 1637              		.thumb
 1638              		.thumb_func
 1639              		.fpu fpv4-sp-d16
 1640              		.type	get_max_norm_index, %function
 1641              	get_max_norm_index:
 1642              	.LFB298:
 1643              		.loc 1 428 0
 1644              		.cfi_startproc
 1645              		@ args = 0, pretend = 0, frame = 8
 1646              		@ frame_needed = 0, uses_anonymous_args = 0
 1647              	.LVL173:
 1648 0000 70B5     		push	{r4, r5, r6, lr}
 1649              		.cfi_def_cfa_offset 16
 1650              		.cfi_offset 4, -16
 1651              		.cfi_offset 5, -12
 1652              		.cfi_offset 6, -8
 1653              		.cfi_offset 14, -4
ARM GAS  C:\Users\adrie\AppData\Local\Temp\ccgB8szF.s 			page 30


 1654 0002 2B4D     		ldr	r5, .L179
 1655 0004 82B0     		sub	sp, sp, #8
 1656              		.cfi_def_cfa_offset 24
 1657              		.loc 1 428 0
 1658 0006 2A68     		ldr	r2, [r5]
 1659 0008 0192     		str	r2, [sp, #4]
 1660              		.loc 1 430 0
 1661 000a 0429     		cmp	r1, #4
 1662              		.loc 1 428 0
 1663 000c 0446     		mov	r4, r0
 1664              		.loc 1 430 0
 1665 000e 2BD0     		beq	.L176
 1666              		.loc 1 433 0
 1667 0010 0529     		cmp	r1, #5
 1668 0012 08D0     		beq	.L177
 1669 0014 FFF7FEFF 		bl	get_max_norm_index.part.0
 1670              	.LVL174:
 1671              	.L157:
 1672              		.loc 1 446 0
 1673 0018 019A     		ldr	r2, [sp, #4]
 1674 001a 2B68     		ldr	r3, [r5]
 1675 001c 9A42     		cmp	r2, r3
 1676 001e 2046     		mov	r0, r4
 1677 0020 43D1     		bne	.L178
 1678              	.LVL175:
 1679 0022 02B0     		add	sp, sp, #8
 1680              		.cfi_remember_state
 1681              		.cfi_def_cfa_offset 16
 1682              		@ sp needed
 1683 0024 70BD     		pop	{r4, r5, r6, pc}
 1684              	.LVL176:
 1685              	.L177:
 1686              		.cfi_restore_state
 1687 0026 234A     		ldr	r2, .L179+4
 1688              	.LBB290:
 1689              	.LBB291:
 1690              		.loc 1 406 0
 1691 0028 9FED237A 		vldr.32	s14, .L179+8
 1692              		.loc 1 407 0
 1693 002c 4FF0FF31 		mov	r1, #-1
 1694              	.LVL177:
 1695              	.LBB292:
 1696              		.loc 1 412 0
 1697 0030 0A23     		movs	r3, #10
 1698 0032 40F60100 		movw	r0, #2049
 1699              	.LVL178:
 1700              	.L166:
 1701              		.loc 1 413 0
 1702 0036 F2EC017A 		vldmia.32	r2!, {s15}
 1703 003a F4EEC77A 		vcmpe.f32	s15, s14
 1704 003e F1EE10FA 		vmrs	APSR_nzcv, FPSCR
 1705 0042 08DD     		ble	.L164
 1706 0044 A3F13306 		sub	r6, r3, #51
 1707 0048 B6F56D7F 		cmp	r6, #948
 1708 004c 98BF     		it	ls
 1709 004e 1946     		movls	r1, r3
 1710              	.LVL179:
ARM GAS  C:\Users\adrie\AppData\Local\Temp\ccgB8szF.s 			page 31


 1711 0050 98BF     		it	ls
 1712 0052 B0EE677A 		vmovls.f32	s14, s15
 1713              	.LVL180:
 1714              	.L164:
 1715              		.loc 1 412 0
 1716 0056 0133     		adds	r3, r3, #1
 1717              	.LVL181:
 1718 0058 8342     		cmp	r3, r0
 1719 005a ECD1     		bne	.L166
 1720              	.LVL182:
 1721              	.LBE292:
 1722              		.loc 1 418 0
 1723 005c BDEEC77A 		vcvt.s32.f32	s14, s14
 1724              	.LVL183:
 1725              		.loc 1 420 0
 1726 0060 6160     		str	r1, [r4, #4]
 1727              	.LVL184:
 1728              		.loc 1 418 0
 1729 0062 84ED007A 		vstr.32	s14, [r4]	@ int
 1730 0066 D7E7     		b	.L157
 1731              	.LVL185:
 1732              	.L176:
 1733 0068 144A     		ldr	r2, .L179+12
 1734              	.LBE291:
 1735              	.LBE290:
 1736              	.LBB294:
 1737              	.LBB295:
 1738              		.loc 1 406 0
 1739 006a 9FED137A 		vldr.32	s14, .L179+8
 1740              		.loc 1 407 0
 1741 006e 4FF0FF31 		mov	r1, #-1
 1742              	.LVL186:
 1743              	.LBB296:
 1744              		.loc 1 412 0
 1745 0072 0A23     		movs	r3, #10
 1746 0074 40F60100 		movw	r0, #2049
 1747              	.LVL187:
 1748              	.L161:
 1749              		.loc 1 413 0
 1750 0078 F2EC017A 		vldmia.32	r2!, {s15}
 1751 007c F4EEC77A 		vcmpe.f32	s15, s14
 1752 0080 F1EE10FA 		vmrs	APSR_nzcv, FPSCR
 1753 0084 08DD     		ble	.L159
 1754 0086 A3F13306 		sub	r6, r3, #51
 1755 008a B6F56D7F 		cmp	r6, #948
 1756 008e 98BF     		it	ls
 1757 0090 1946     		movls	r1, r3
 1758              	.LVL188:
 1759 0092 98BF     		it	ls
 1760 0094 B0EE677A 		vmovls.f32	s14, s15
 1761              	.LVL189:
 1762              	.L159:
 1763              		.loc 1 412 0
 1764 0098 0133     		adds	r3, r3, #1
 1765              	.LVL190:
 1766 009a 8342     		cmp	r3, r0
 1767 009c ECD1     		bne	.L161
ARM GAS  C:\Users\adrie\AppData\Local\Temp\ccgB8szF.s 			page 32


 1768              	.LVL191:
 1769              	.LBE296:
 1770              	.LBE295:
 1771              	.LBE294:
 1772              	.LBB297:
 1773              	.LBB293:
 1774              		.loc 1 418 0
 1775 009e BDEEC77A 		vcvt.s32.f32	s14, s14
 1776              	.LVL192:
 1777              		.loc 1 420 0
 1778 00a2 6160     		str	r1, [r4, #4]
 1779              	.LVL193:
 1780              		.loc 1 418 0
 1781 00a4 84ED007A 		vstr.32	s14, [r4]	@ int
 1782 00a8 B6E7     		b	.L157
 1783              	.LVL194:
 1784              	.L178:
 1785              	.LBE293:
 1786              	.LBE297:
 1787              		.loc 1 446 0
 1788 00aa FFF7FEFF 		bl	__stack_chk_fail
 1789              	.LVL195:
 1790              	.L180:
 1791 00ae 00BF     		.align	2
 1792              	.L179:
 1793 00b0 00000000 		.word	__stack_chk_guard
 1794 00b4 28000000 		.word	micRight_output+40
 1795 00b8 0000C842 		.word	1120403456
 1796 00bc 28000000 		.word	micLeft_output+40
 1797              		.cfi_endproc
 1798              	.LFE298:
 1799              		.size	get_max_norm_index, .-get_max_norm_index
 1800              		.section	.text.get_audio_buffer_ptr,"ax",%progbits
 1801              		.align	1
 1802              		.p2align 4,,15
 1803              		.global	get_audio_buffer_ptr
 1804              		.syntax unified
 1805              		.thumb
 1806              		.thumb_func
 1807              		.fpu fpv4-sp-d16
 1808              		.type	get_audio_buffer_ptr, %function
 1809              	get_audio_buffer_ptr:
 1810              	.LFB299:
 1811              		.loc 1 448 0
 1812              		.cfi_startproc
 1813              		@ args = 0, pretend = 0, frame = 8
 1814              		@ frame_needed = 0, uses_anonymous_args = 0
 1815              	.LVL196:
 1816 0000 00B5     		push	{lr}
 1817              		.cfi_def_cfa_offset 4
 1818              		.cfi_offset 14, -4
 1819 0002 164B     		ldr	r3, .L194
 1820 0004 83B0     		sub	sp, sp, #12
 1821              		.cfi_def_cfa_offset 16
 1822              		.loc 1 448 0
 1823 0006 1A68     		ldr	r2, [r3]
 1824 0008 0192     		str	r2, [sp, #4]
ARM GAS  C:\Users\adrie\AppData\Local\Temp\ccgB8szF.s 			page 33


 1825              		.loc 1 449 0
 1826 000a 88B1     		cbz	r0, .L184
 1827              		.loc 1 452 0
 1828 000c 0128     		cmp	r0, #1
 1829 000e 17D0     		beq	.L185
 1830              		.loc 1 455 0
 1831 0010 0228     		cmp	r0, #2
 1832 0012 19D0     		beq	.L186
 1833              		.loc 1 458 0
 1834 0014 0328     		cmp	r0, #3
 1835 0016 15D0     		beq	.L187
 1836              		.loc 1 461 0
 1837 0018 0428     		cmp	r0, #4
 1838 001a 17D0     		beq	.L188
 1839              		.loc 1 464 0
 1840 001c 0528     		cmp	r0, #5
 1841 001e 17D0     		beq	.L189
 1842              		.loc 1 467 0
 1843 0020 0628     		cmp	r0, #6
 1844 0022 17D0     		beq	.L190
 1845              		.loc 1 474 0
 1846 0024 0E4A     		ldr	r2, .L194+4
 1847              		.loc 1 470 0
 1848 0026 0728     		cmp	r0, #7
 1849              		.loc 1 474 0
 1850 0028 0CBF     		ite	eq
 1851 002a 1046     		moveq	r0, r2
 1852              	.LVL197:
 1853 002c 0020     		movne	r0, #0
 1854 002e 00E0     		b	.L181
 1855              	.LVL198:
 1856              	.L184:
 1857              		.loc 1 450 0
 1858 0030 0C48     		ldr	r0, .L194+8
 1859              	.LVL199:
 1860              	.L181:
 1861              		.loc 1 476 0
 1862 0032 019A     		ldr	r2, [sp, #4]
 1863 0034 1B68     		ldr	r3, [r3]
 1864 0036 9A42     		cmp	r2, r3
 1865 0038 0ED1     		bne	.L193
 1866 003a 03B0     		add	sp, sp, #12
 1867              		.cfi_remember_state
 1868              		.cfi_def_cfa_offset 4
 1869              		@ sp needed
 1870 003c 5DF804FB 		ldr	pc, [sp], #4
 1871              	.LVL200:
 1872              	.L185:
 1873              		.cfi_restore_state
 1874              		.loc 1 453 0
 1875 0040 0948     		ldr	r0, .L194+12
 1876              	.LVL201:
 1877 0042 F6E7     		b	.L181
 1878              	.LVL202:
 1879              	.L187:
 1880              		.loc 1 459 0
 1881 0044 0948     		ldr	r0, .L194+16
ARM GAS  C:\Users\adrie\AppData\Local\Temp\ccgB8szF.s 			page 34


 1882              	.LVL203:
 1883 0046 F4E7     		b	.L181
 1884              	.LVL204:
 1885              	.L186:
 1886              		.loc 1 456 0
 1887 0048 0948     		ldr	r0, .L194+20
 1888              	.LVL205:
 1889 004a F2E7     		b	.L181
 1890              	.LVL206:
 1891              	.L188:
 1892              		.loc 1 462 0
 1893 004c 0948     		ldr	r0, .L194+24
 1894              	.LVL207:
 1895 004e F0E7     		b	.L181
 1896              	.LVL208:
 1897              	.L189:
 1898              		.loc 1 465 0
 1899 0050 0948     		ldr	r0, .L194+28
 1900              	.LVL209:
 1901 0052 EEE7     		b	.L181
 1902              	.LVL210:
 1903              	.L190:
 1904              		.loc 1 468 0
 1905 0054 0948     		ldr	r0, .L194+32
 1906              	.LVL211:
 1907 0056 ECE7     		b	.L181
 1908              	.L193:
 1909              		.loc 1 476 0
 1910 0058 FFF7FEFF 		bl	__stack_chk_fail
 1911              	.LVL212:
 1912              	.L195:
 1913              		.align	2
 1914              	.L194:
 1915 005c 00000000 		.word	__stack_chk_guard
 1916 0060 00000000 		.word	micBack_output
 1917 0064 00000000 		.word	micLeft_cmplx_input
 1918 0068 00000000 		.word	micRight_cmplx_input
 1919 006c 00000000 		.word	micBack_cmplx_input
 1920 0070 00000000 		.word	micFront_cmplx_input
 1921 0074 00000000 		.word	micLeft_output
 1922 0078 00000000 		.word	micRight_output
 1923 007c 00000000 		.word	micFront_output
 1924              		.cfi_endproc
 1925              	.LFE299:
 1926              		.size	get_audio_buffer_ptr, .-get_audio_buffer_ptr
 1927              		.section	.text.led_direction,"ax",%progbits
 1928              		.align	1
 1929              		.p2align 4,,15
 1930              		.global	led_direction
 1931              		.syntax unified
 1932              		.thumb
 1933              		.thumb_func
 1934              		.fpu fpv4-sp-d16
 1935              		.type	led_direction, %function
 1936              	led_direction:
 1937              	.LFB300:
 1938              		.loc 1 479 0
ARM GAS  C:\Users\adrie\AppData\Local\Temp\ccgB8szF.s 			page 35


 1939              		.cfi_startproc
 1940              		@ args = 0, pretend = 0, frame = 8
 1941              		@ frame_needed = 0, uses_anonymous_args = 0
 1942              	.LVL213:
 1943 0000 2DE9F041 		push	{r4, r5, r6, r7, r8, lr}
 1944              		.cfi_def_cfa_offset 24
 1945              		.cfi_offset 4, -24
 1946              		.cfi_offset 5, -20
 1947              		.cfi_offset 6, -16
 1948              		.cfi_offset 7, -12
 1949              		.cfi_offset 8, -8
 1950              		.cfi_offset 14, -4
 1951 0004 1F4D     		ldr	r5, .L211
 1952 0006 82B0     		sub	sp, sp, #8
 1953              		.cfi_def_cfa_offset 32
 1954              		.loc 1 479 0
 1955 0008 0646     		mov	r6, r0
 1956 000a 0C46     		mov	r4, r1
 1957 000c 2968     		ldr	r1, [r5]
 1958              	.LVL214:
 1959 000e 0191     		str	r1, [sp, #4]
 1960 0010 1746     		mov	r7, r2
 1961 0012 9846     		mov	r8, r3
 1962              		.loc 1 480 0
 1963 0014 FFF7FEFF 		bl	clear_leds
 1964              	.LVL215:
 1965              		.loc 1 481 0
 1966 0018 A642     		cmp	r6, r4
 1967 001a 10DB     		blt	.L197
 1968              		.loc 1 481 0 is_stmt 0 discriminator 1
 1969 001c BE42     		cmp	r6, r7
 1970 001e 0CDA     		bge	.L208
 1971              	.L198:
 1972              		.loc 1 489 0 is_stmt 1
 1973 0020 4745     		cmp	r7, r8
 1974 0022 10DB     		blt	.L200
 1975              		.loc 1 490 0
 1976 0024 019A     		ldr	r2, [sp, #4]
 1977 0026 2B68     		ldr	r3, [r5]
 1978 0028 9A42     		cmp	r2, r3
 1979 002a 29D1     		bne	.L207
 1980 002c 0121     		movs	r1, #1
 1981 002e 0020     		movs	r0, #0
 1982              		.loc 1 498 0
 1983 0030 02B0     		add	sp, sp, #8
 1984              		.cfi_remember_state
 1985              		.cfi_def_cfa_offset 24
 1986              		@ sp needed
 1987 0032 BDE8F041 		pop	{r4, r5, r6, r7, r8, lr}
 1988              		.cfi_restore 14
 1989              		.cfi_restore 8
 1990              		.cfi_restore 7
 1991              		.cfi_restore 6
 1992              		.cfi_restore 5
 1993              		.cfi_restore 4
 1994              		.cfi_def_cfa_offset 0
 1995              	.LVL216:
ARM GAS  C:\Users\adrie\AppData\Local\Temp\ccgB8szF.s 			page 36


 1996              		.loc 1 494 0
 1997 0036 FFF7FEBF 		b	set_led
 1998              	.LVL217:
 1999              	.L208:
 2000              		.cfi_restore_state
 2001              		.loc 1 481 0 discriminator 2
 2002 003a 4645     		cmp	r6, r8
 2003 003c 0EDA     		bge	.L209
 2004              	.L197:
 2005              		.loc 1 485 0
 2006 003e BC42     		cmp	r4, r7
 2007 0040 EEDB     		blt	.L198
 2008              		.loc 1 485 0 is_stmt 0 discriminator 1
 2009 0042 4445     		cmp	r4, r8
 2010 0044 11DA     		bge	.L210
 2011              	.L200:
 2012              		.loc 1 494 0 is_stmt 1
 2013 0046 019A     		ldr	r2, [sp, #4]
 2014 0048 2B68     		ldr	r3, [r5]
 2015 004a 9A42     		cmp	r2, r3
 2016 004c 18D1     		bne	.L207
 2017 004e 0121     		movs	r1, #1
 2018 0050 0220     		movs	r0, #2
 2019              	.L206:
 2020              		.loc 1 498 0
 2021 0052 02B0     		add	sp, sp, #8
 2022              		.cfi_remember_state
 2023              		.cfi_def_cfa_offset 24
 2024              		@ sp needed
 2025 0054 BDE8F041 		pop	{r4, r5, r6, r7, r8, lr}
 2026              		.cfi_restore 14
 2027              		.cfi_restore 8
 2028              		.cfi_restore 7
 2029              		.cfi_restore 6
 2030              		.cfi_restore 5
 2031              		.cfi_restore 4
 2032              		.cfi_def_cfa_offset 0
 2033              	.LVL218:
 2034              		.loc 1 494 0
 2035 0058 FFF7FEBF 		b	set_led
 2036              	.LVL219:
 2037              	.L209:
 2038              		.cfi_restore_state
 2039              	.LBB300:
 2040              	.LBB301:
 2041              		.loc 1 482 0
 2042 005c 019A     		ldr	r2, [sp, #4]
 2043 005e 2B68     		ldr	r3, [r5]
 2044 0060 9A42     		cmp	r2, r3
 2045 0062 0DD1     		bne	.L207
 2046 0064 0121     		movs	r1, #1
 2047 0066 0846     		mov	r0, r1
 2048 0068 F3E7     		b	.L206
 2049              	.LVL220:
 2050              	.L210:
 2051              	.LBE301:
 2052              	.LBE300:
ARM GAS  C:\Users\adrie\AppData\Local\Temp\ccgB8szF.s 			page 37


 2053              		.loc 1 486 0
 2054 006a 019A     		ldr	r2, [sp, #4]
 2055 006c 2B68     		ldr	r3, [r5]
 2056 006e 9A42     		cmp	r2, r3
 2057 0070 06D1     		bne	.L207
 2058 0072 0121     		movs	r1, #1
 2059 0074 0320     		movs	r0, #3
 2060              		.loc 1 498 0
 2061 0076 02B0     		add	sp, sp, #8
 2062              		.cfi_remember_state
 2063              		.cfi_def_cfa_offset 24
 2064              		@ sp needed
 2065 0078 BDE8F041 		pop	{r4, r5, r6, r7, r8, lr}
 2066              		.cfi_restore 14
 2067              		.cfi_restore 8
 2068              		.cfi_restore 7
 2069              		.cfi_restore 6
 2070              		.cfi_restore 5
 2071              		.cfi_restore 4
 2072              		.cfi_def_cfa_offset 0
 2073              	.LVL221:
 2074              		.loc 1 494 0
 2075 007c FFF7FEBF 		b	set_led
 2076              	.LVL222:
 2077              	.L207:
 2078              		.cfi_restore_state
 2079 0080 FFF7FEFF 		bl	__stack_chk_fail
 2080              	.LVL223:
 2081              	.L212:
 2082              		.align	2
 2083              	.L211:
 2084 0084 00000000 		.word	__stack_chk_guard
 2085              		.cfi_endproc
 2086              	.LFE300:
 2087              		.size	led_direction, .-led_direction
 2088              		.section	.text.processAudioData,"ax",%progbits
 2089              		.align	1
 2090              		.p2align 4,,15
 2091              		.global	processAudioData
 2092              		.syntax unified
 2093              		.thumb
 2094              		.thumb_func
 2095              		.fpu fpv4-sp-d16
 2096              		.type	processAudioData, %function
 2097              	processAudioData:
 2098              	.LFB291:
 2099              		.loc 1 134 0
 2100              		.cfi_startproc
 2101              		@ args = 0, pretend = 0, frame = 72
 2102              		@ frame_needed = 0, uses_anonymous_args = 0
 2103              	.LVL224:
 2104 0000 2DE9F04F 		push	{r4, r5, r6, r7, r8, r9, r10, fp, lr}
 2105              		.cfi_def_cfa_offset 36
 2106              		.cfi_offset 4, -36
 2107              		.cfi_offset 5, -32
 2108              		.cfi_offset 6, -28
 2109              		.cfi_offset 7, -24
ARM GAS  C:\Users\adrie\AppData\Local\Temp\ccgB8szF.s 			page 38


 2110              		.cfi_offset 8, -20
 2111              		.cfi_offset 9, -16
 2112              		.cfi_offset 10, -12
 2113              		.cfi_offset 11, -8
 2114              		.cfi_offset 14, -4
 2115 0004 B04C     		ldr	r4, .L230
 2116 0006 B14E     		ldr	r6, .L230+4
 2117 0008 2368     		ldr	r3, [r4]
 2118 000a 3288     		ldrh	r2, [r6]
 2119 000c 93B0     		sub	sp, sp, #76
 2120              		.cfi_def_cfa_offset 112
 2121              		.loc 1 134 0
 2122 000e 1193     		str	r3, [sp, #68]
 2123              	.LVL225:
 2124              	.LBB341:
 2125              		.loc 1 148 0
 2126 0010 0029     		cmp	r1, #0
 2127 0012 00F0EF80 		beq	.L214
 2128 0016 DFF8BC92 		ldr	r9, .L230+12
 2129 001a DFF8BC82 		ldr	r8, .L230+16
 2130 001e DFF8C0E2 		ldr	lr, .L230+24
 2131 0022 DFF8B8C2 		ldr	ip, .L230+20
 2132              		.loc 1 157 0
 2133 0026 DFEDAA7A 		vldr.32	s15, .L230+8
 2134              		.loc 1 148 0
 2135 002a 0027     		movs	r7, #0
 2136 002c 04E0     		b	.L217
 2137              	.LVL226:
 2138              	.L215:
 2139              		.loc 1 148 0 is_stmt 0 discriminator 2
 2140 002e 0437     		adds	r7, r7, #4
 2141              	.LVL227:
 2142 0030 BFB2     		uxth	r7, r7
 2143              	.LVL228:
 2144 0032 B942     		cmp	r1, r7
 2145 0034 40F2D680 		bls	.L227
 2146              	.LVL229:
 2147              	.L217:
 2148              		.loc 1 150 0 is_stmt 1
 2149 0038 30F91730 		ldrsh	r3, [r0, r7, lsl #1]
 2150 003c 07EE103A 		vmov	s14, r3	@ int
 2151 0040 9500     		lsls	r5, r2, #2
 2152 0042 B8EEC77A 		vcvt.f32.s32	s14, s14
 2153 0046 09EB050A 		add	r10, r9, r5
 2154              		.loc 1 151 0
 2155 004a 00EB4703 		add	r3, r0, r7, lsl #1
 2156              		.loc 1 150 0
 2157 004e 8AED007A 		vstr.32	s14, [r10]
 2158              		.loc 1 151 0
 2159 0052 B3F902A0 		ldrsh	r10, [r3, #2]
 2160 0056 07EE10AA 		vmov	s14, r10	@ int
 2161 005a B8EEC77A 		vcvt.f32.s32	s14, s14
 2162 005e 08EB050A 		add	r10, r8, r5
 2163 0062 8AED007A 		vstr.32	s14, [r10]
 2164              		.loc 1 152 0
 2165 0066 B3F904A0 		ldrsh	r10, [r3, #4]
 2166 006a 07EE10AA 		vmov	s14, r10	@ int
ARM GAS  C:\Users\adrie\AppData\Local\Temp\ccgB8szF.s 			page 39


 2167 006e B8EEC77A 		vcvt.f32.s32	s14, s14
 2168 0072 0EEB050A 		add	r10, lr, r5
 2169 0076 8AED007A 		vstr.32	s14, [r10]
 2170              		.loc 1 153 0
 2171 007a B3F90630 		ldrsh	r3, [r3, #6]
 2172 007e 07EE103A 		vmov	s14, r3	@ int
 2173              		.loc 1 157 0
 2174 0082 531C     		adds	r3, r2, #1
 2175 0084 9BB2     		uxth	r3, r3
 2176              		.loc 1 153 0
 2177 0086 B8EEC77A 		vcvt.f32.s32	s14, s14
 2178              		.loc 1 162 0
 2179 008a 0232     		adds	r2, r2, #2
 2180              		.loc 1 157 0
 2181 008c 9B00     		lsls	r3, r3, #2
 2182              		.loc 1 153 0
 2183 008e 6544     		add	r5, r5, ip
 2184              		.loc 1 162 0
 2185 0090 92B2     		uxth	r2, r2
 2186              		.loc 1 153 0
 2187 0092 85ED007A 		vstr.32	s14, [r5]
 2188              		.loc 1 157 0
 2189 0096 09EB030B 		add	fp, r9, r3
 2190              		.loc 1 158 0
 2191 009a 08EB030A 		add	r10, r8, r3
 2192              		.loc 1 159 0
 2193 009e 0EEB0305 		add	r5, lr, r3
 2194              		.loc 1 165 0
 2195 00a2 B2F5006F 		cmp	r2, #2048
 2196              		.loc 1 160 0
 2197 00a6 6344     		add	r3, r3, ip
 2198              		.loc 1 157 0
 2199 00a8 CBED007A 		vstr.32	s15, [fp]
 2200              		.loc 1 158 0
 2201 00ac CAED007A 		vstr.32	s15, [r10]
 2202              		.loc 1 159 0
 2203 00b0 C5ED007A 		vstr.32	s15, [r5]
 2204              		.loc 1 160 0
 2205 00b4 C3ED007A 		vstr.32	s15, [r3]
 2206              		.loc 1 165 0
 2207 00b8 B9D3     		bcc	.L215
 2208 00ba 3280     		strh	r2, [r6]	@ movhi
 2209              	.LVL230:
 2210              	.L216:
 2211              	.LBE341:
 2212              	.LBB342:
 2213              		.loc 1 177 0
 2214 00bc 8549     		ldr	r1, .L230+12
 2215              	.LVL231:
 2216 00be 4FF48060 		mov	r0, #1024
 2217              	.LVL232:
 2218 00c2 FFF7FEFF 		bl	doFFT_optimized
 2219              	.LVL233:
 2220              		.loc 1 178 0
 2221 00c6 8449     		ldr	r1, .L230+16
 2222 00c8 4FF48060 		mov	r0, #1024
 2223 00cc FFF7FEFF 		bl	doFFT_optimized
ARM GAS  C:\Users\adrie\AppData\Local\Temp\ccgB8szF.s 			page 40


 2224              	.LVL234:
 2225              		.loc 1 179 0
 2226 00d0 8249     		ldr	r1, .L230+20
 2227 00d2 4FF48060 		mov	r0, #1024
 2228 00d6 FFF7FEFF 		bl	doFFT_optimized
 2229              	.LVL235:
 2230              		.loc 1 180 0
 2231 00da 8149     		ldr	r1, .L230+24
 2232 00dc 4FF48060 		mov	r0, #1024
 2233 00e0 FFF7FEFF 		bl	doFFT_optimized
 2234              	.LVL236:
 2235              		.loc 1 190 0
 2236 00e4 4FF48062 		mov	r2, #1024
 2237 00e8 7E49     		ldr	r1, .L230+28
 2238 00ea 7A48     		ldr	r0, .L230+12
 2239 00ec FFF7FEFF 		bl	arm_cmplx_mag_f32
 2240              	.LVL237:
 2241              		.loc 1 191 0
 2242 00f0 4FF48062 		mov	r2, #1024
 2243 00f4 7C49     		ldr	r1, .L230+32
 2244 00f6 7848     		ldr	r0, .L230+16
 2245 00f8 FFF7FEFF 		bl	arm_cmplx_mag_f32
 2246              	.LVL238:
 2247              		.loc 1 192 0
 2248 00fc 4FF48062 		mov	r2, #1024
 2249 0100 7A49     		ldr	r1, .L230+36
 2250 0102 7648     		ldr	r0, .L230+20
 2251 0104 FFF7FEFF 		bl	arm_cmplx_mag_f32
 2252              	.LVL239:
 2253              		.loc 1 193 0
 2254 0108 4FF48062 		mov	r2, #1024
 2255 010c 7849     		ldr	r1, .L230+40
 2256 010e 7448     		ldr	r0, .L230+24
 2257 0110 FFF7FEFF 		bl	arm_cmplx_mag_f32
 2258              	.LVL240:
 2259              		.loc 1 198 0
 2260 0114 0521     		movs	r1, #5
 2261 0116 01A8     		add	r0, sp, #4
 2262 0118 FFF7FEFF 		bl	get_max_norm_index
 2263              	.LVL241:
 2264              		.loc 1 199 0
 2265 011c 0421     		movs	r1, #4
 2266 011e 03A8     		add	r0, sp, #12
 2267              		.loc 1 198 0
 2268 0120 DDF804A0 		ldr	r10, [sp, #4]
 2269              	.LVL242:
 2270              		.loc 1 199 0
 2271 0124 FFF7FEFF 		bl	get_max_norm_index
 2272              	.LVL243:
 2273              	.LBB343:
 2274              	.LBB344:
 2275 0128 0621     		movs	r1, #6
 2276 012a 05A8     		add	r0, sp, #20
 2277              	.LBE344:
 2278              	.LBE343:
 2279 012c 039D     		ldr	r5, [sp, #12]
 2280              	.LVL244:
ARM GAS  C:\Users\adrie\AppData\Local\Temp\ccgB8szF.s 			page 41


 2281              	.LBB346:
 2282              	.LBB345:
 2283 012e FFF7FEFF 		bl	get_max_norm_index.part.0
 2284              	.LVL245:
 2285              	.LBE345:
 2286              	.LBE346:
 2287              	.LBB347:
 2288              	.LBB348:
 2289 0132 0721     		movs	r1, #7
 2290 0134 07A8     		add	r0, sp, #28
 2291              	.LBE348:
 2292              	.LBE347:
 2293              		.loc 1 200 0
 2294 0136 DDF81490 		ldr	r9, [sp, #20]
 2295              	.LVL246:
 2296              	.LBB350:
 2297              	.LBB349:
 2298 013a FFF7FEFF 		bl	get_max_norm_index.part.0
 2299              	.LVL247:
 2300              	.LBE349:
 2301              	.LBE350:
 2302              		.loc 1 202 0
 2303 013e 0521     		movs	r1, #5
 2304 0140 09A8     		add	r0, sp, #36
 2305              		.loc 1 201 0
 2306 0142 DDF81C80 		ldr	r8, [sp, #28]
 2307              	.LVL248:
 2308              		.loc 1 202 0
 2309 0146 FFF7FEFF 		bl	get_max_norm_index
 2310              	.LVL249:
 2311              		.loc 1 203 0
 2312 014a 0421     		movs	r1, #4
 2313 014c 0BA8     		add	r0, sp, #44
 2314 014e FFF7FEFF 		bl	get_max_norm_index
 2315              	.LVL250:
 2316              	.LBB351:
 2317              	.LBB352:
 2318 0152 0621     		movs	r1, #6
 2319 0154 0DA8     		add	r0, sp, #52
 2320 0156 FFF7FEFF 		bl	get_max_norm_index.part.0
 2321              	.LVL251:
 2322              	.LBE352:
 2323              	.LBE351:
 2324              	.LBB353:
 2325              	.LBB354:
 2326 015a 0721     		movs	r1, #7
 2327 015c 0FA8     		add	r0, sp, #60
 2328 015e FFF7FEFF 		bl	get_max_norm_index.part.0
 2329              	.LVL252:
 2330              	.LBE354:
 2331              	.LBE353:
 2332              		.loc 1 211 0
 2333 0162 644B     		ldr	r3, .L230+44
 2334 0164 1B78     		ldrb	r3, [r3]	@ zero_extendqisi2
 2335              	.LVL253:
 2336              	.LBB355:
 2337              	.LBB356:
ARM GAS  C:\Users\adrie\AppData\Local\Temp\ccgB8szF.s 			page 42


 2338              		.loc 1 394 0
 2339 0166 032B     		cmp	r3, #3
 2340 0168 48D8     		bhi	.L219
 2341              	.LBE356:
 2342              	.LBE355:
 2343              		.loc 1 199 0
 2344 016a 07EE905A 		vmov	s15, r5	@ int
 2345 016e 9FED626A 		vldr.32	s12, .L230+48
 2346              		.loc 1 212 0
 2347 0172 6249     		ldr	r1, .L230+52
 2348              	.LBB362:
 2349              	.LBB357:
 2350              		.loc 1 395 0
 2351 0174 624D     		ldr	r5, .L230+56
 2352              	.LVL254:
 2353              	.LBE357:
 2354              	.LBE362:
 2355              		.loc 1 212 0
 2356 0176 0A68     		ldr	r2, [r1]
 2357              		.loc 1 199 0
 2358 0178 F8EEE76A 		vcvt.f32.s32	s13, s15
 2359              	.LVL255:
 2360              		.loc 1 198 0
 2361 017c 07EE90AA 		vmov	s15, r10	@ int
 2362              		.loc 1 199 0
 2363 0180 66EE866A 		vmul.f32	s13, s13, s12
 2364              	.LVL256:
 2365              		.loc 1 198 0
 2366 0184 B8EEE77A 		vcvt.f32.s32	s14, s15
 2367              	.LVL257:
 2368              		.loc 1 201 0
 2369 0188 07EE908A 		vmov	s15, r8	@ int
 2370              		.loc 1 198 0
 2371 018c 27EE067A 		vmul.f32	s14, s14, s12
 2372              	.LVL258:
 2373              		.loc 1 201 0
 2374 0190 F8EEE77A 		vcvt.f32.s32	s15, s15
 2375              	.LVL259:
 2376              		.loc 1 199 0
 2377 0194 FDEEE66A 		vcvt.s32.f32	s13, s13
 2378              	.LBB363:
 2379              	.LBB358:
 2380              		.loc 1 395 0
 2381 0198 03F1FF30 		add	r0, r3, #-1
 2382              	.LBE358:
 2383              	.LBE363:
 2384              		.loc 1 212 0
 2385 019c 02F1010C 		add	ip, r2, #1
 2386              		.loc 1 201 0
 2387 01a0 67EE867A 		vmul.f32	s15, s15, s12
 2388              	.LVL260:
 2389              		.loc 1 199 0
 2390 01a4 0246     		mov	r2, r0
 2391              		.loc 1 198 0
 2392 01a6 BDEEC77A 		vcvt.s32.f32	s14, s14
 2393              		.loc 1 199 0
 2394 01aa 16EE900A 		vmov	r0, s13	@ int
ARM GAS  C:\Users\adrie\AppData\Local\Temp\ccgB8szF.s 			page 43


 2395              		.loc 1 198 0
 2396 01ae 17EE107A 		vmov	r7, s14	@ int
 2397              		.loc 1 199 0
 2398 01b2 45F82200 		str	r0, [r5, r2, lsl #2]
 2399              		.loc 1 201 0
 2400 01b6 FDEEE77A 		vcvt.s32.f32	s15, s15
 2401              	.LBB364:
 2402              	.LBB359:
 2403              		.loc 1 397 0
 2404 01ba 03F10202 		add	r2, r3, #2
 2405              		.loc 1 398 0
 2406 01be 03F10500 		add	r0, r3, #5
 2407              	.LBE359:
 2408              	.LBE364:
 2409              		.loc 1 198 0
 2410 01c2 45F82270 		str	r7, [r5, r2, lsl #2]
 2411              		.loc 1 212 0
 2412 01c6 C1F800C0 		str	ip, [r1]
 2413              	.LBB365:
 2414              	.LBB360:
 2415              		.loc 1 399 0
 2416 01ca 03F10802 		add	r2, r3, #8
 2417              	.LBE360:
 2418              	.LBE365:
 2419              		.loc 1 201 0
 2420 01ce 17EE901A 		vmov	r1, s15	@ int
 2421              	.LBB366:
 2422              	.LBB361:
 2423              		.loc 1 398 0
 2424 01d2 45F82090 		str	r9, [r5, r0, lsl #2]
 2425              	.LBE361:
 2426              	.LBE366:
 2427              		.loc 1 201 0
 2428 01d6 45F82210 		str	r1, [r5, r2, lsl #2]
 2429              	.LVL261:
 2430              		.loc 1 216 0
 2431 01da 14D0     		beq	.L223
 2432              	.LVL262:
 2433              	.L220:
 2434              		.loc 1 256 0
 2435 01dc 4549     		ldr	r1, .L230+44
 2436 01de 0133     		adds	r3, r3, #1
 2437              		.loc 1 255 0
 2438 01e0 0022     		movs	r2, #0
 2439              		.loc 1 256 0
 2440 01e2 0B70     		strb	r3, [r1]
 2441              	.LVL263:
 2442              	.L227:
 2443              		.loc 1 255 0
 2444 01e4 3280     		strh	r2, [r6]	@ movhi
 2445              	.L213:
 2446              	.LBE342:
 2447              		.loc 1 262 0
 2448 01e6 119A     		ldr	r2, [sp, #68]
 2449 01e8 2368     		ldr	r3, [r4]
 2450 01ea 9A42     		cmp	r2, r3
 2451 01ec 6AD1     		bne	.L228
ARM GAS  C:\Users\adrie\AppData\Local\Temp\ccgB8szF.s 			page 44


 2452 01ee 13B0     		add	sp, sp, #76
 2453              		.cfi_remember_state
 2454              		.cfi_def_cfa_offset 36
 2455              		@ sp needed
 2456 01f0 BDE8F08F 		pop	{r4, r5, r6, r7, r8, r9, r10, fp, pc}
 2457              	.LVL264:
 2458              	.L214:
 2459              		.cfi_restore_state
 2460              		.loc 1 170 0
 2461 01f4 B2F5006F 		cmp	r2, #2048
 2462 01f8 F5D3     		bcc	.L213
 2463 01fa 5FE7     		b	.L216
 2464              	.LVL265:
 2465              	.L219:
 2466              	.LBB447:
 2467              		.loc 1 212 0
 2468 01fc 3F4A     		ldr	r2, .L230+52
 2469 01fe 404D     		ldr	r5, .L230+56
 2470              	.LVL266:
 2471 0200 1368     		ldr	r3, [r2]
 2472 0202 0133     		adds	r3, r3, #1
 2473 0204 1360     		str	r3, [r2]
 2474              	.L223:
 2475              	.LVL267:
 2476              	.LBB367:
 2477              	.LBB368:
 2478              	.LBB369:
 2479              	.LBB370:
 2480              	.LBB371:
 2481              	.LBB372:
 2482              	.LBB373:
 2483              	.LBB374:
 2484              		.loc 3 546 0
 2485 0206 2023     		movs	r3, #32
 2486              		.syntax unified
 2487              	@ 546 "../lib/e-puck2_main-processor/ChibiOS//os/ext/CMSIS/include/core_cmFunc.h" 1
 2488 0208 83F31188 		MSR basepri, r3
 2489              	@ 0 "" 2
 2490              	.LVL268:
 2491              		.thumb
 2492              		.syntax unified
 2493              	.LBE374:
 2494              	.LBE373:
 2495              	.LBE372:
 2496              		.loc 4 349 0
 2497 020c FFF7FEFF 		bl	_stats_start_measure_crit_thd
 2498              	.LVL269:
 2499              		.loc 4 350 0
 2500 0210 FFF7FEFF 		bl	_dbg_check_lock
 2501              	.LVL270:
 2502              	.LBE371:
 2503              	.LBE370:
 2504              	.LBB375:
 2505              	.LBB376:
 2506              		.loc 6 268 0
 2507 0214 FFF7FEFF 		bl	chDbgCheckClassI
 2508              	.LVL271:
ARM GAS  C:\Users\adrie\AppData\Local\Temp\ccgB8szF.s 			page 45


 2509              		.loc 6 270 0
 2510 0218 3A48     		ldr	r0, .L230+60
 2511 021a 8368     		ldr	r3, [r0, #8]
 2512 021c 002B     		cmp	r3, #0
 2513 021e 4EDD     		ble	.L229
 2514              	.L221:
 2515              	.LVL272:
 2516              	.LBE376:
 2517              	.LBE375:
 2518              		.loc 6 286 0
 2519 0220 FFF7FEFF 		bl	chSchRescheduleS
 2520              	.LVL273:
 2521              	.LBB378:
 2522              	.LBB379:
 2523              		.loc 4 360 0
 2524 0224 FFF7FEFF 		bl	_dbg_check_unlock
 2525              	.LVL274:
 2526              		.loc 4 361 0
 2527 0228 FFF7FEFF 		bl	_stats_stop_measure_crit_thd
 2528              	.LVL275:
 2529              		.loc 4 367 0
 2530 022c 364B     		ldr	r3, .L230+64
 2531 022e 1A68     		ldr	r2, [r3]
 2532 0230 9A42     		cmp	r2, r3
 2533 0232 07D0     		beq	.L222
 2534 0234 9969     		ldr	r1, [r3, #24]
 2535 0236 9368     		ldr	r3, [r2, #8]
 2536 0238 8A68     		ldr	r2, [r1, #8]
 2537 023a 9A42     		cmp	r2, r3
 2538 023c 02D2     		bcs	.L222
 2539 023e 3348     		ldr	r0, .L230+68
 2540 0240 FFF7FEFF 		bl	chSysHalt
 2541              	.LVL276:
 2542              	.L222:
 2543              	.LBB380:
 2544              	.LBB381:
 2545              	.LBB382:
 2546              		.loc 3 546 0
 2547 0244 4FF0000C 		mov	ip, #0
 2548              		.syntax unified
 2549              	@ 546 "../lib/e-puck2_main-processor/ChibiOS//os/ext/CMSIS/include/core_cmFunc.h" 1
 2550 0248 8CF31188 		MSR basepri, ip
 2551              	@ 0 "" 2
 2552              	.LVL277:
 2553              		.thumb
 2554              		.syntax unified
 2555              	.LBE382:
 2556              	.LBE381:
 2557              	.LBE380:
 2558              	.LBE379:
 2559              	.LBE378:
 2560              	.LBE369:
 2561              	.LBE368:
 2562              		.loc 1 220 0
 2563 024c 294F     		ldr	r7, .L230+44
 2564              	.LBB385:
 2565              	.LBB386:
ARM GAS  C:\Users\adrie\AppData\Local\Temp\ccgB8szF.s 			page 46


 2566              	.LBB387:
 2567              		.loc 1 386 0
 2568 024e D5F814E0 		ldr	lr, [r5, #20]
 2569              	.LBE387:
 2570              	.LBE386:
 2571              	.LBE385:
 2572              		.loc 1 220 0
 2573 0252 87F800C0 		strb	ip, [r7]
 2574              	.LVL278:
 2575              	.LBB396:
 2576              	.LBB391:
 2577              	.LBB388:
 2578              		.loc 1 386 0
 2579 0256 D5E9030B 		ldrd	r0, fp, [r5, #12]
 2580              	.LBE388:
 2581              	.LBE391:
 2582              	.LBE396:
 2583              	.LBB397:
 2584              	.LBB398:
 2585              	.LBB399:
 2586 025a D5E900A1 		ldrd	r10, r1, [r5]
 2587              	.LVL279:
 2588              	.LBE399:
 2589              	.LBE398:
 2590              	.LBE397:
 2591              	.LBB408:
 2592              	.LBB409:
 2593              	.LBB410:
 2594 025e D5E90692 		ldrd	r9, r2, [r5, #24]
 2595              	.LVL280:
 2596              	.LBE410:
 2597              	.LBE409:
 2598              	.LBE408:
 2599              	.LBB419:
 2600              	.LBB420:
 2601              	.LBB421:
 2602 0262 D5E90983 		ldrd	r8, r3, [r5, #36]
 2603              	.LVL281:
 2604              	.LBE421:
 2605              	.LBE420:
 2606              	.LBE419:
 2607              	.LBB428:
 2608              	.LBB403:
 2609              	.LBB400:
 2610 0266 D5F808C0 		ldr	ip, [r5, #8]
 2611              	.LBE400:
 2612              	.LBE403:
 2613              	.LBE428:
 2614              	.LBB429:
 2615              	.LBB414:
 2616              	.LBB411:
 2617 026a 2F6A     		ldr	r7, [r5, #32]
 2618              	.LBE411:
 2619              	.LBE414:
 2620              	.LBE429:
 2621              	.LBB430:
 2622              	.LBB424:
ARM GAS  C:\Users\adrie\AppData\Local\Temp\ccgB8szF.s 			page 47


 2623              	.LBB422:
 2624 026c ED6A     		ldr	r5, [r5, #44]
 2625              	.LBE422:
 2626              	.LBE424:
 2627              	.LBE430:
 2628              	.LBB431:
 2629              	.LBB392:
 2630              	.LBB389:
 2631 026e 8344     		add	fp, fp, r0
 2632              	.LVL282:
 2633              	.LBE389:
 2634              	.LBE392:
 2635              	.LBE431:
 2636              	.LBB432:
 2637              	.LBB404:
 2638              	.LBB401:
 2639 0270 5144     		add	r1, r1, r10
 2640              	.LBE401:
 2641              	.LBE404:
 2642              	.LBE432:
 2643              	.LBB433:
 2644              	.LBB393:
 2645              		.loc 1 389 0
 2646 0272 2748     		ldr	r0, .L230+72
 2647              	.LBE393:
 2648              	.LBE433:
 2649              	.LBB434:
 2650              	.LBB415:
 2651              	.LBB412:
 2652              		.loc 1 386 0
 2653 0274 4A44     		add	r2, r2, r9
 2654              	.LBE412:
 2655              	.LBE415:
 2656              	.LBE434:
 2657              	.LBB435:
 2658              	.LBB425:
 2659              	.LBB423:
 2660 0276 4344     		add	r3, r3, r8
 2661 0278 2B44     		add	r3, r3, r5
 2662              	.LBE423:
 2663              	.LBE425:
 2664              	.LBE435:
 2665              	.LBB436:
 2666              	.LBB405:
 2667              	.LBB402:
 2668 027a 6144     		add	r1, r1, ip
 2669              	.LBE402:
 2670              	.LBE405:
 2671              	.LBE436:
 2672              	.LBB437:
 2673              	.LBB416:
 2674              	.LBB413:
 2675 027c 3A44     		add	r2, r2, r7
 2676              	.LBE413:
 2677              	.LBE416:
 2678              	.LBE437:
 2679              	.LBB438:
ARM GAS  C:\Users\adrie\AppData\Local\Temp\ccgB8szF.s 			page 48


 2680              	.LBB394:
 2681              	.LBB390:
 2682 027e F344     		add	fp, fp, lr
 2683              	.LVL283:
 2684              	.LBE390:
 2685              		.loc 1 389 0
 2686 0280 80FB0B5E 		smull	r5, lr, r0, fp
 2687              	.LBE394:
 2688              	.LBE438:
 2689              	.LBB439:
 2690              	.LBB406:
 2691 0284 80FB015A 		smull	r5, r10, r0, r1
 2692              	.LBE406:
 2693              	.LBE439:
 2694              	.LBB440:
 2695              	.LBB417:
 2696 0288 80FB0259 		smull	r5, r9, r0, r2
 2697              	.LBE417:
 2698              	.LBE440:
 2699              	.LBB441:
 2700              	.LBB426:
 2701 028c 80FB0305 		smull	r0, r5, r0, r3
 2702              	.LBE426:
 2703              	.LBE441:
 2704              	.LBB442:
 2705              	.LBB395:
 2706 0290 AEEBEB7B 		sub	fp, lr, fp, asr #31
 2707              	.LVL284:
 2708              	.LBE395:
 2709              	.LBE442:
 2710              	.LBB443:
 2711              	.LBB407:
 2712 0294 AAEBE17A 		sub	r10, r10, r1, asr #31
 2713              	.LVL285:
 2714              	.LBE407:
 2715              	.LBE443:
 2716              	.LBB444:
 2717              	.LBB418:
 2718 0298 A9EBE279 		sub	r9, r9, r2, asr #31
 2719              	.LVL286:
 2720              	.LBE418:
 2721              	.LBE444:
 2722              	.LBB445:
 2723              	.LBB427:
 2724 029c A5EBE375 		sub	r5, r5, r3, asr #31
 2725              	.LVL287:
 2726              	.LBE427:
 2727              	.LBE445:
 2728              		.loc 1 229 0
 2729 02a0 5846     		mov	r0, fp
 2730 02a2 5146     		mov	r1, r10
 2731 02a4 4A46     		mov	r2, r9
 2732 02a6 2B46     		mov	r3, r5
 2733 02a8 FFF7FEFF 		bl	led_direction
 2734              	.LVL288:
 2735              		.loc 1 231 0
 2736 02ac 2B46     		mov	r3, r5
ARM GAS  C:\Users\adrie\AppData\Local\Temp\ccgB8szF.s 			page 49


 2737 02ae 4A46     		mov	r2, r9
 2738 02b0 5146     		mov	r1, r10
 2739 02b2 5846     		mov	r0, fp
 2740 02b4 FFF7FEFF 		bl	calcul_angle
 2741              	.LVL289:
 2742 02b8 0E4B     		ldr	r3, .L230+44
 2743 02ba 1B78     		ldrb	r3, [r3]	@ zero_extendqisi2
 2744 02bc 8EE7     		b	.L220
 2745              	.LVL290:
 2746              	.L229:
 2747              	.LBB446:
 2748              	.LBB384:
 2749              	.LBB383:
 2750              	.LBB377:
 2751              		.loc 6 271 0
 2752 02be FFF7FEFF 		bl	chSemSignalI
 2753              	.LVL291:
 2754 02c2 ADE7     		b	.L221
 2755              	.LVL292:
 2756              	.L228:
 2757              	.LBE377:
 2758              	.LBE383:
 2759              	.LBE384:
 2760              	.LBE446:
 2761              	.LBE367:
 2762              	.LBE447:
 2763              		.loc 1 262 0
 2764 02c4 FFF7FEFF 		bl	__stack_chk_fail
 2765              	.LVL293:
 2766              	.L231:
 2767              		.align	2
 2768              	.L230:
 2769 02c8 00000000 		.word	__stack_chk_guard
 2770 02cc 00000000 		.word	.LANCHOR6
 2771 02d0 00000000 		.word	0
 2772 02d4 00000000 		.word	micRight_cmplx_input
 2773 02d8 00000000 		.word	micLeft_cmplx_input
 2774 02dc 00000000 		.word	micFront_cmplx_input
 2775 02e0 00000000 		.word	micBack_cmplx_input
 2776 02e4 00000000 		.word	micRight_output
 2777 02e8 00000000 		.word	micLeft_output
 2778 02ec 00000000 		.word	micFront_output
 2779 02f0 00000000 		.word	micBack_output
 2780 02f4 00000000 		.word	.LANCHOR7
 2781 02f8 A4707D3F 		.word	1065185444
 2782 02fc 00000000 		.word	.LANCHOR8
 2783 0300 00000000 		.word	.LANCHOR2
 2784 0304 00000000 		.word	.LANCHOR5
 2785 0308 00000000 		.word	ch
 2786 030c 00000000 		.word	.LANCHOR1
 2787 0310 56555555 		.word	1431655766
 2788              		.cfi_endproc
 2789              	.LFE291:
 2790              		.size	processAudioData, .-processAudioData
 2791              		.section	.text.echantillone_distance,"ax",%progbits
 2792              		.align	1
 2793              		.p2align 4,,15
ARM GAS  C:\Users\adrie\AppData\Local\Temp\ccgB8szF.s 			page 50


 2794              		.global	echantillone_distance
 2795              		.syntax unified
 2796              		.thumb
 2797              		.thumb_func
 2798              		.fpu fpv4-sp-d16
 2799              		.type	echantillone_distance, %function
 2800              	echantillone_distance:
 2801              	.LFB301:
 2802              		.loc 1 580 0
 2803              		.cfi_startproc
 2804              		@ args = 0, pretend = 0, frame = 8
 2805              		@ frame_needed = 0, uses_anonymous_args = 0
 2806              	.LVL294:
 2807 0000 00B5     		push	{lr}
 2808              		.cfi_def_cfa_offset 4
 2809              		.cfi_offset 14, -4
 2810 0002 064B     		ldr	r3, .L236
 2811 0004 83B0     		sub	sp, sp, #12
 2812              		.cfi_def_cfa_offset 16
 2813              		.loc 1 580 0
 2814 0006 1A68     		ldr	r2, [r3]
 2815 0008 0192     		str	r2, [sp, #4]
 2816              		.loc 1 588 0
 2817 000a 019A     		ldr	r2, [sp, #4]
 2818 000c 1B68     		ldr	r3, [r3]
 2819 000e 9A42     		cmp	r2, r3
 2820 0010 02D1     		bne	.L235
 2821 0012 03B0     		add	sp, sp, #12
 2822              		.cfi_remember_state
 2823              		.cfi_def_cfa_offset 4
 2824              		@ sp needed
 2825 0014 5DF804FB 		ldr	pc, [sp], #4
 2826              	.L235:
 2827              		.cfi_restore_state
 2828 0018 FFF7FEFF 		bl	__stack_chk_fail
 2829              	.LVL295:
 2830              	.L237:
 2831              		.align	2
 2832              	.L236:
 2833 001c 00000000 		.word	__stack_chk_guard
 2834              		.cfi_endproc
 2835              	.LFE301:
 2836              		.size	echantillone_distance, .-echantillone_distance
 2837              		.section	.text.get_max_front_moyenne,"ax",%progbits
 2838              		.align	1
 2839              		.p2align 4,,15
 2840              		.global	get_max_front_moyenne
 2841              		.syntax unified
 2842              		.thumb
 2843              		.thumb_func
 2844              		.fpu fpv4-sp-d16
 2845              		.type	get_max_front_moyenne, %function
 2846              	get_max_front_moyenne:
 2847              	.LFB302:
 2848              		.loc 1 590 0
 2849              		.cfi_startproc
 2850              		@ args = 0, pretend = 0, frame = 8
ARM GAS  C:\Users\adrie\AppData\Local\Temp\ccgB8szF.s 			page 51


 2851              		@ frame_needed = 0, uses_anonymous_args = 0
 2852 0000 30B5     		push	{r4, r5, lr}
 2853              		.cfi_def_cfa_offset 12
 2854              		.cfi_offset 4, -12
 2855              		.cfi_offset 5, -8
 2856              		.cfi_offset 14, -4
 2857              	.LBB448:
 2858              	.LBB449:
 2859              	.LBB450:
 2860              		.loc 1 386 0
 2861 0002 0B4A     		ldr	r2, .L242
 2862              	.LBE450:
 2863              	.LBE449:
 2864              	.LBE448:
 2865              		.loc 1 590 0
 2866 0004 0B49     		ldr	r1, .L242+4
 2867              	.LBB458:
 2868              	.LBB454:
 2869              	.LBB451:
 2870              		.loc 1 386 0
 2871 0006 156A     		ldr	r5, [r2, #32]
 2872 0008 D2E90630 		ldrd	r3, r0, [r2, #24]
 2873              	.LBE451:
 2874              	.LBE454:
 2875              	.LBE458:
 2876              		.loc 1 590 0
 2877 000c 83B0     		sub	sp, sp, #12
 2878              		.cfi_def_cfa_offset 24
 2879              		.loc 1 590 0
 2880 000e 0A68     		ldr	r2, [r1]
 2881 0010 0192     		str	r2, [sp, #4]
 2882              	.LVL296:
 2883              	.LBB459:
 2884              	.LBB455:
 2885              	.LBB452:
 2886              		.loc 1 386 0
 2887 0012 0344     		add	r3, r3, r0
 2888              	.LVL297:
 2889              	.LBE452:
 2890              	.LBE455:
 2891              	.LBE459:
 2892              		.loc 1 592 0
 2893 0014 019C     		ldr	r4, [sp, #4]
 2894              	.LBB460:
 2895              	.LBB456:
 2896              		.loc 1 389 0
 2897 0016 0848     		ldr	r0, .L242+8
 2898              	.LBE456:
 2899              	.LBE460:
 2900              		.loc 1 592 0
 2901 0018 0A68     		ldr	r2, [r1]
 2902              	.LBB461:
 2903              	.LBB457:
 2904              	.LBB453:
 2905              		.loc 1 386 0
 2906 001a 2B44     		add	r3, r3, r5
 2907              	.LBE453:
ARM GAS  C:\Users\adrie\AppData\Local\Temp\ccgB8szF.s 			page 52


 2908              		.loc 1 389 0
 2909 001c 80FB0310 		smull	r1, r0, r0, r3
 2910              	.LBE457:
 2911              	.LBE461:
 2912              		.loc 1 592 0
 2913 0020 9442     		cmp	r4, r2
 2914 0022 A0EBE370 		sub	r0, r0, r3, asr #31
 2915 0026 01D1     		bne	.L241
 2916 0028 03B0     		add	sp, sp, #12
 2917              		.cfi_remember_state
 2918              		.cfi_def_cfa_offset 12
 2919              		@ sp needed
 2920 002a 30BD     		pop	{r4, r5, pc}
 2921              	.L241:
 2922              		.cfi_restore_state
 2923 002c FFF7FEFF 		bl	__stack_chk_fail
 2924              	.LVL298:
 2925              	.L243:
 2926              		.align	2
 2927              	.L242:
 2928 0030 00000000 		.word	.LANCHOR2
 2929 0034 00000000 		.word	__stack_chk_guard
 2930 0038 56555555 		.word	1431655766
 2931              		.cfi_endproc
 2932              	.LFE302:
 2933              		.size	get_max_front_moyenne, .-get_max_front_moyenne
 2934              		.section	.text.get_line_position,"ax",%progbits
 2935              		.align	1
 2936              		.p2align 4,,15
 2937              		.global	get_line_position
 2938              		.syntax unified
 2939              		.thumb
 2940              		.thumb_func
 2941              		.fpu fpv4-sp-d16
 2942              		.type	get_line_position, %function
 2943              	get_line_position:
 2944              	.LFB303:
 2945              		.loc 1 594 0
 2946              		.cfi_startproc
 2947              		@ args = 0, pretend = 0, frame = 8
 2948              		@ frame_needed = 0, uses_anonymous_args = 0
 2949 0000 00B5     		push	{lr}
 2950              		.cfi_def_cfa_offset 4
 2951              		.cfi_offset 14, -4
 2952 0002 074B     		ldr	r3, .L248
 2953              		.loc 1 595 0
 2954 0004 0749     		ldr	r1, .L248+4
 2955              		.loc 1 594 0
 2956 0006 1A68     		ldr	r2, [r3]
 2957              		.loc 1 596 0
 2958 0008 0868     		ldr	r0, [r1]
 2959              		.loc 1 594 0
 2960 000a 83B0     		sub	sp, sp, #12
 2961              		.cfi_def_cfa_offset 16
 2962              		.loc 1 594 0
 2963 000c 0192     		str	r2, [sp, #4]
 2964              		.loc 1 596 0
ARM GAS  C:\Users\adrie\AppData\Local\Temp\ccgB8szF.s 			page 53


 2965 000e 019A     		ldr	r2, [sp, #4]
 2966 0010 1B68     		ldr	r3, [r3]
 2967 0012 9A42     		cmp	r2, r3
 2968 0014 02D1     		bne	.L247
 2969 0016 03B0     		add	sp, sp, #12
 2970              		.cfi_remember_state
 2971              		.cfi_def_cfa_offset 4
 2972              		@ sp needed
 2973 0018 5DF804FB 		ldr	pc, [sp], #4
 2974              	.L247:
 2975              		.cfi_restore_state
 2976 001c FFF7FEFF 		bl	__stack_chk_fail
 2977              	.LVL299:
 2978              	.L249:
 2979              		.align	2
 2980              	.L248:
 2981 0020 00000000 		.word	__stack_chk_guard
 2982 0024 00000000 		.word	.LANCHOR4
 2983              		.cfi_endproc
 2984              	.LFE303:
 2985              		.size	get_line_position, .-get_line_position
 2986              		.section	.text.get_distance_cm,"ax",%progbits
 2987              		.align	1
 2988              		.p2align 4,,15
 2989              		.global	get_distance_cm
 2990              		.syntax unified
 2991              		.thumb
 2992              		.thumb_func
 2993              		.fpu fpv4-sp-d16
 2994              		.type	get_distance_cm, %function
 2995              	get_distance_cm:
 2996              	.LFB304:
 2997              		.loc 1 598 0
 2998              		.cfi_startproc
 2999              		@ args = 0, pretend = 0, frame = 8
 3000              		@ frame_needed = 0, uses_anonymous_args = 0
 3001 0000 00B5     		push	{lr}
 3002              		.cfi_def_cfa_offset 4
 3003              		.cfi_offset 14, -4
 3004 0002 074B     		ldr	r3, .L254
 3005 0004 83B0     		sub	sp, sp, #12
 3006              		.cfi_def_cfa_offset 16
 3007              		.loc 1 598 0
 3008 0006 1A68     		ldr	r2, [r3]
 3009 0008 0192     		str	r2, [sp, #4]
 3010              		.loc 1 600 0
 3011 000a 019A     		ldr	r2, [sp, #4]
 3012 000c 1B68     		ldr	r3, [r3]
 3013 000e 9A42     		cmp	r2, r3
 3014 0010 04D1     		bne	.L253
 3015 0012 9FED040A 		vldr.32	s0, .L254+4
 3016 0016 03B0     		add	sp, sp, #12
 3017              		.cfi_remember_state
 3018              		.cfi_def_cfa_offset 4
 3019              		@ sp needed
 3020 0018 5DF804FB 		ldr	pc, [sp], #4
 3021              	.L253:
ARM GAS  C:\Users\adrie\AppData\Local\Temp\ccgB8szF.s 			page 54


 3022              		.cfi_restore_state
 3023 001c FFF7FEFF 		bl	__stack_chk_fail
 3024              	.LVL300:
 3025              	.L255:
 3026              		.align	2
 3027              	.L254:
 3028 0020 00000000 		.word	__stack_chk_guard
 3029 0024 00000000 		.word	0
 3030              		.cfi_endproc
 3031              	.LFE304:
 3032              		.size	get_distance_cm, .-get_distance_cm
 3033              		.section	.text.pi_regulator,"ax",%progbits
 3034              		.align	1
 3035              		.p2align 4,,15
 3036              		.global	pi_regulator
 3037              		.syntax unified
 3038              		.thumb
 3039              		.thumb_func
 3040              		.fpu fpv4-sp-d16
 3041              		.type	pi_regulator, %function
 3042              	pi_regulator:
 3043              	.LFB305:
 3044              		.loc 1 604 0
 3045              		.cfi_startproc
 3046              		@ args = 0, pretend = 0, frame = 8
 3047              		@ frame_needed = 0, uses_anonymous_args = 0
 3048              	.LVL301:
 3049 0000 00B5     		push	{lr}
 3050              		.cfi_def_cfa_offset 4
 3051              		.cfi_offset 14, -4
 3052 0002 214B     		ldr	r3, .L270
 3053 0004 83B0     		sub	sp, sp, #12
 3054              		.cfi_def_cfa_offset 16
 3055              		.loc 1 611 0
 3056 0006 B5EE400A 		vcmp.f32	s0, #0
 3057              		.loc 1 604 0
 3058 000a 1A68     		ldr	r2, [r3]
 3059 000c 0192     		str	r2, [sp, #4]
 3060              	.LVL302:
 3061              		.loc 1 611 0
 3062 000e F1EE10FA 		vmrs	APSR_nzcv, FPSCR
 3063 0012 2BD0     		beq	.L264
 3064              		.loc 1 612 0
 3065 0014 30EE600A 		vsub.f32	s0, s0, s1
 3066              	.LVL303:
 3067              		.loc 1 621 0
 3068 0018 DFED1C7A 		vldr.32	s15, .L270+4
 3069 001c B0EEC07A 		vabs.f32	s14, s0
 3070 0020 B4EEE77A 		vcmpe.f32	s14, s15
 3071 0024 F1EE10FA 		vmrs	APSR_nzcv, FPSCR
 3072 0028 20D4     		bmi	.L264
 3073              		.loc 1 625 0
 3074 002a 194A     		ldr	r2, .L270+8
 3075              		.loc 1 628 0
 3076 002c 9FED197A 		vldr.32	s14, .L270+12
 3077              		.loc 1 625 0
 3078 0030 D2ED007A 		vldr.32	s15, [r2]
ARM GAS  C:\Users\adrie\AppData\Local\Temp\ccgB8szF.s 			page 55


 3079 0034 70EE277A 		vadd.f32	s15, s0, s15
 3080              		.loc 1 628 0
 3081 0038 F4EEC77A 		vcmpe.f32	s15, s14
 3082 003c F1EE10FA 		vmrs	APSR_nzcv, FPSCR
 3083 0040 1CDC     		bgt	.L268
 3084              		.loc 1 630 0
 3085 0042 9FED157A 		vldr.32	s14, .L270+16
 3086 0046 F4EEC77A 		vcmpe.f32	s15, s14
 3087 004a F1EE10FA 		vmrs	APSR_nzcv, FPSCR
 3088              		.loc 1 625 0
 3089 004e 48BF     		it	mi
 3090 0050 F0EE477A 		vmovmi.f32	s15, s14
 3091 0054 C2ED007A 		vstr.32	s15, [r2]
 3092              	.L260:
 3093              	.LVL304:
 3094              		.loc 1 634 0
 3095 0058 DFED100A 		vldr.32	s1, .L270+20
 3096              	.LVL305:
 3097 005c 20EE200A 		vmul.f32	s0, s0, s1
 3098              	.LVL306:
 3099              		.loc 1 636 0
 3100 0060 BDEEC00A 		vcvt.s32.f32	s0, s0
 3101              	.LVL307:
 3102 0064 10EE102A 		vmov	r2, s0	@ int
 3103 0068 10B2     		sxth	r0, r2
 3104 006a 00E0     		b	.L257
 3105              	.LVL308:
 3106              	.L264:
 3107              		.loc 1 622 0
 3108 006c 0020     		movs	r0, #0
 3109              	.LVL309:
 3110              	.L257:
 3111              		.loc 1 637 0
 3112 006e 019A     		ldr	r2, [sp, #4]
 3113 0070 1B68     		ldr	r3, [r3]
 3114 0072 9A42     		cmp	r2, r3
 3115 0074 05D1     		bne	.L269
 3116 0076 03B0     		add	sp, sp, #12
 3117              		.cfi_remember_state
 3118              		.cfi_def_cfa_offset 4
 3119              		@ sp needed
 3120 0078 5DF804FB 		ldr	pc, [sp], #4
 3121              	.LVL310:
 3122              	.L268:
 3123              		.cfi_restore_state
 3124              		.loc 1 629 0
 3125 007c 82ED007A 		vstr.32	s14, [r2]
 3126 0080 EAE7     		b	.L260
 3127              	.LVL311:
 3128              	.L269:
 3129              		.loc 1 637 0
 3130 0082 FFF7FEFF 		bl	__stack_chk_fail
 3131              	.LVL312:
 3132              	.L271:
 3133 0086 00BF     		.align	2
 3134              	.L270:
 3135 0088 00000000 		.word	__stack_chk_guard
ARM GAS  C:\Users\adrie\AppData\Local\Temp\ccgB8szF.s 			page 56


 3136 008c 0AD7233C 		.word	1008981770
 3137 0090 00000000 		.word	.LANCHOR3
 3138 0094 92249D43 		.word	1134371986
 3139 0098 92249DC3 		.word	-1013111662
 3140 009c 0000FA45 		.word	1174011904
 3141              		.cfi_endproc
 3142              	.LFE305:
 3143              		.size	pi_regulator, .-pi_regulator
 3144              		.section	.text.pi_regulator_start,"ax",%progbits
 3145              		.align	1
 3146              		.p2align 4,,15
 3147              		.global	pi_regulator_start
 3148              		.syntax unified
 3149              		.thumb
 3150              		.thumb_func
 3151              		.fpu fpv4-sp-d16
 3152              		.type	pi_regulator_start, %function
 3153              	pi_regulator_start:
 3154              	.LFB307:
 3155              		.loc 1 715 0
 3156              		.cfi_startproc
 3157              		@ args = 0, pretend = 0, frame = 8
 3158              		@ frame_needed = 0, uses_anonymous_args = 0
 3159 0000 10B5     		push	{r4, lr}
 3160              		.cfi_def_cfa_offset 8
 3161              		.cfi_offset 4, -8
 3162              		.cfi_offset 14, -4
 3163 0002 0A4C     		ldr	r4, .L276
 3164              		.loc 1 716 0
 3165 0004 0A4B     		ldr	r3, .L276+4
 3166              		.loc 1 715 0
 3167 0006 2268     		ldr	r2, [r4]
 3168              		.loc 1 716 0
 3169 0008 0A48     		ldr	r0, .L276+8
 3170              		.loc 1 715 0
 3171 000a 84B0     		sub	sp, sp, #16
 3172              		.cfi_def_cfa_offset 24
 3173              		.loc 1 716 0
 3174 000c 4FF41E71 		mov	r1, #632
 3175              		.loc 1 715 0
 3176 0010 0392     		str	r2, [sp, #12]
 3177              		.loc 1 716 0
 3178 0012 0022     		movs	r2, #0
 3179 0014 0092     		str	r2, [sp]
 3180 0016 4022     		movs	r2, #64
 3181 0018 FFF7FEFF 		bl	chThdCreateStatic
 3182              	.LVL313:
 3183              		.loc 1 717 0
 3184 001c 039A     		ldr	r2, [sp, #12]
 3185 001e 2368     		ldr	r3, [r4]
 3186 0020 9A42     		cmp	r2, r3
 3187 0022 01D1     		bne	.L275
 3188 0024 04B0     		add	sp, sp, #16
 3189              		.cfi_remember_state
 3190              		.cfi_def_cfa_offset 8
 3191              		@ sp needed
 3192 0026 10BD     		pop	{r4, pc}
ARM GAS  C:\Users\adrie\AppData\Local\Temp\ccgB8szF.s 			page 57


 3193              	.L275:
 3194              		.cfi_restore_state
 3195 0028 FFF7FEFF 		bl	__stack_chk_fail
 3196              	.LVL314:
 3197              	.L277:
 3198              		.align	2
 3199              	.L276:
 3200 002c 00000000 		.word	__stack_chk_guard
 3201 0030 00000000 		.word	PiRegulator
 3202 0034 00000000 		.word	.LANCHOR9
 3203              		.cfi_endproc
 3204              	.LFE307:
 3205              		.size	pi_regulator_start, .-pi_regulator_start
 3206              		.section	.bss.angle,"aw",%nobits
 3207              		.align	2
 3208              		.set	.LANCHOR4,. + 0
 3209              		.type	angle, %object
 3210              		.size	angle, 4
 3211              	angle:
 3212 0000 00000000 		.space	4
 3213              		.section	.bss.micBack_cmplx_input,"aw",%nobits
 3214              		.align	2
 3215              		.type	micBack_cmplx_input, %object
 3216              		.size	micBack_cmplx_input, 8192
 3217              	micBack_cmplx_input:
 3218 0000 00000000 		.space	8192
 3218      00000000 
 3218      00000000 
 3218      00000000 
 3218      00000000 
 3219              		.section	.bss.micBack_output,"aw",%nobits
 3220              		.align	2
 3221              		.type	micBack_output, %object
 3222              		.size	micBack_output, 4096
 3223              	micBack_output:
 3224 0000 00000000 		.space	4096
 3224      00000000 
 3224      00000000 
 3224      00000000 
 3224      00000000 
 3225              		.section	.bss.micFront_cmplx_input,"aw",%nobits
 3226              		.align	2
 3227              		.type	micFront_cmplx_input, %object
 3228              		.size	micFront_cmplx_input, 8192
 3229              	micFront_cmplx_input:
 3230 0000 00000000 		.space	8192
 3230      00000000 
 3230      00000000 
 3230      00000000 
 3230      00000000 
 3231              		.section	.bss.micFront_output,"aw",%nobits
 3232              		.align	2
 3233              		.type	micFront_output, %object
 3234              		.size	micFront_output, 4096
 3235              	micFront_output:
 3236 0000 00000000 		.space	4096
 3236      00000000 
ARM GAS  C:\Users\adrie\AppData\Local\Temp\ccgB8szF.s 			page 58


 3236      00000000 
 3236      00000000 
 3236      00000000 
 3237              		.section	.bss.micLeft_cmplx_input,"aw",%nobits
 3238              		.align	2
 3239              		.type	micLeft_cmplx_input, %object
 3240              		.size	micLeft_cmplx_input, 8192
 3241              	micLeft_cmplx_input:
 3242 0000 00000000 		.space	8192
 3242      00000000 
 3242      00000000 
 3242      00000000 
 3242      00000000 
 3243              		.section	.bss.micLeft_output,"aw",%nobits
 3244              		.align	2
 3245              		.type	micLeft_output, %object
 3246              		.size	micLeft_output, 4096
 3247              	micLeft_output:
 3248 0000 00000000 		.space	4096
 3248      00000000 
 3248      00000000 
 3248      00000000 
 3248      00000000 
 3249              		.section	.bss.micRight_cmplx_input,"aw",%nobits
 3250              		.align	2
 3251              		.type	micRight_cmplx_input, %object
 3252              		.size	micRight_cmplx_input, 8192
 3253              	micRight_cmplx_input:
 3254 0000 00000000 		.space	8192
 3254      00000000 
 3254      00000000 
 3254      00000000 
 3254      00000000 
 3255              		.section	.bss.micRight_output,"aw",%nobits
 3256              		.align	2
 3257              		.type	micRight_output, %object
 3258              		.size	micRight_output, 4096
 3259              	micRight_output:
 3260 0000 00000000 		.space	4096
 3260      00000000 
 3260      00000000 
 3260      00000000 
 3260      00000000 
 3261              		.section	.bss.moyenne,"aw",%nobits
 3262              		.align	2
 3263              		.set	.LANCHOR2,. + 0
 3264              		.type	moyenne, %object
 3265              		.size	moyenne, 48
 3266              	moyenne:
 3267 0000 00000000 		.space	48
 3267      00000000 
 3267      00000000 
 3267      00000000 
 3267      00000000 
 3268              		.section	.bss.mustSend.14256,"aw",%nobits
 3269              		.set	.LANCHOR7,. + 0
 3270              		.type	mustSend.14256, %object
ARM GAS  C:\Users\adrie\AppData\Local\Temp\ccgB8szF.s 			page 59


 3271              		.size	mustSend.14256, 1
 3272              	mustSend.14256:
 3273 0000 00       		.space	1
 3274              		.section	.bss.nb_samples.14255,"aw",%nobits
 3275              		.align	1
 3276              		.set	.LANCHOR6,. + 0
 3277              		.type	nb_samples.14255, %object
 3278              		.size	nb_samples.14255, 2
 3279              	nb_samples.14255:
 3280 0000 0000     		.space	2
 3281              		.section	.bss.nbr_passage,"aw",%nobits
 3282              		.align	2
 3283              		.set	.LANCHOR8,. + 0
 3284              		.type	nbr_passage, %object
 3285              		.size	nbr_passage, 4
 3286              	nbr_passage:
 3287 0000 00000000 		.space	4
 3288              		.section	.bss.sum_error.14346,"aw",%nobits
 3289              		.align	2
 3290              		.set	.LANCHOR3,. + 0
 3291              		.type	sum_error.14346, %object
 3292              		.size	sum_error.14346, 4
 3293              	sum_error.14346:
 3294 0000 00000000 		.space	4
 3295              		.section	.bss.waPiRegulator,"aw",%nobits
 3296              		.align	3
 3297              		.set	.LANCHOR9,. + 0
 3298              		.type	waPiRegulator, %object
 3299              		.size	waPiRegulator, 632
 3300              	waPiRegulator:
 3301 0000 00000000 		.space	632
 3301      00000000 
 3301      00000000 
 3301      00000000 
 3301      00000000 
 3302              		.section	.data.sendToComputer_sem,"aw",%progbits
 3303              		.align	2
 3304              		.set	.LANCHOR5,. + 0
 3305              		.type	sendToComputer_sem, %object
 3306              		.size	sendToComputer_sem, 12
 3307              	sendToComputer_sem:
 3308 0000 00000000 		.word	sendToComputer_sem
 3309 0004 00000000 		.word	sendToComputer_sem
 3310 0008 00000000 		.word	0
 3311              		.section	.rodata.__FUNCTION__.14351,"a",%progbits
 3312              		.align	2
 3313              		.set	.LANCHOR0,. + 0
 3314              		.type	__FUNCTION__.14351, %object
 3315              		.size	__FUNCTION__.14351, 12
 3316              	__FUNCTION__.14351:
 3317 0000 50695265 		.ascii	"PiRegulator\000"
 3317      67756C61 
 3317      746F7200 
 3318              		.section	.rodata.__func__.7153,"a",%progbits
 3319              		.align	2
 3320              		.set	.LANCHOR1,. + 0
 3321              		.type	__func__.7153, %object
ARM GAS  C:\Users\adrie\AppData\Local\Temp\ccgB8szF.s 			page 60


 3322              		.size	__func__.7153, 12
 3323              	__func__.7153:
 3324 0000 63685379 		.ascii	"chSysUnlock\000"
 3324      73556E6C 
 3324      6F636B00 
 3325              		.text
 3326              	.Letext0:
 3327              		.file 7 "c:\\users\\adrie\\onedrive\\documents\\eclipse\\eclipse_e-puck2\\tools\\gcc-arm-none-eabi
 3328              		.file 8 "c:\\users\\adrie\\onedrive\\documents\\eclipse\\eclipse_e-puck2\\tools\\gcc-arm-none-eabi
 3329              		.file 9 "c:\\users\\adrie\\onedrive\\documents\\eclipse\\eclipse_e-puck2\\tools\\gcc-arm-none-eabi
 3330              		.file 10 "../lib/e-puck2_main-processor/ChibiOS//os/rt/ports/ARMCMx/compilers/GCC/chtypes.h"
 3331              		.file 11 "../lib/e-puck2_main-processor/ChibiOS//os/rt/include/chsystypes.h"
 3332              		.file 12 "../lib/e-puck2_main-processor/ChibiOS//os/rt/include/chschd.h"
 3333              		.file 13 "../lib/e-puck2_main-processor/ChibiOS//os/ext/CMSIS/include/core_cm4.h"
 3334              		.file 14 "../lib/e-puck2_main-processor/ChibiOS//os/ext/CMSIS/ST/system_stm32f4xx.h"
 3335              		.file 15 "../lib/e-puck2_main-processor/ChibiOS//os/ext/CMSIS/ST/stm32f407xx.h"
 3336              		.file 16 "../lib/e-puck2_main-processor/ChibiOS//os/rt/ports/ARMCMx/chcore.h"
 3337              		.file 17 "../lib/e-puck2_main-processor/ChibiOS//os/rt/ports/ARMCMx/chcore_v7m.h"
 3338              		.file 18 "../lib/e-puck2_main-processor/ChibiOS//os/rt/include/chdebug.h"
 3339              		.file 19 "../lib/e-puck2_main-processor/ChibiOS//os/rt/include/chtm.h"
 3340              		.file 20 "../lib/e-puck2_main-processor/ChibiOS//os/rt/include/chstats.h"
 3341              		.file 21 "../lib/e-puck2_main-processor/ChibiOS//os/rt/include/chsem.h"
 3342              		.file 22 "../lib/e-puck2_main-processor/ChibiOS//os/rt/include/chmtx.h"
 3343              		.file 23 "../lib/e-puck2_main-processor/ChibiOS//os/rt/include/chevents.h"
 3344              		.file 24 "../lib/e-puck2_main-processor/ChibiOS//os/rt/include/chqueues.h"
 3345              		.file 25 "../lib/e-puck2_main-processor/ChibiOS//os/hal/ports/STM32/STM32F4xx/stm32_dma.h"
 3346              		.file 26 "../lib/e-puck2_main-processor/ChibiOS//os/hal/include/hal_ioblock.h"
 3347              		.file 27 "../lib/e-puck2_main-processor/ChibiOS//os/hal/ports/STM32/LLD/GPIOv2/pal_lld.h"
 3348              		.file 28 "../lib/e-puck2_main-processor/ChibiOS//os/hal/include/adc.h"
 3349              		.file 29 "../lib/e-puck2_main-processor/ChibiOS//os/hal/ports/STM32/STM32F4xx/adc_lld.h"
 3350              		.file 30 "../lib/e-puck2_main-processor/ChibiOS//os/hal/include/can.h"
 3351              		.file 31 "../lib/e-puck2_main-processor/ChibiOS//os/hal/ports/STM32/LLD/can_lld.h"
 3352              		.file 32 "../lib/e-puck2_main-processor/ChibiOS//os/hal/include/dac.h"
 3353              		.file 33 "../lib/e-puck2_main-processor/ChibiOS//os/hal/ports/STM32/LLD/DACv1/dac_lld.h"
 3354              		.file 34 "../lib/e-puck2_main-processor/ChibiOS//os/hal/include/ext.h"
 3355              		.file 35 "../lib/e-puck2_main-processor/ChibiOS//os/hal/ports/STM32/LLD/ext_lld.h"
 3356              		.file 36 "../lib/e-puck2_main-processor/ChibiOS//os/hal/include/gpt.h"
 3357              		.file 37 "../lib/e-puck2_main-processor/ChibiOS//os/hal/ports/STM32/LLD/TIMv1/gpt_lld.h"
 3358              		.file 38 "../lib/e-puck2_main-processor/ChibiOS//os/hal/ports/STM32/LLD/TIMv1/stm32_tim.h"
 3359              		.file 39 "../lib/e-puck2_main-processor/ChibiOS//os/hal/include/i2c.h"
 3360              		.file 40 "../lib/e-puck2_main-processor/ChibiOS//os/hal/ports/STM32/LLD/I2Cv1/i2c_lld.h"
 3361              		.file 41 "../lib/e-puck2_main-processor/ChibiOS//os/hal/include/i2s.h"
 3362              		.file 42 "../lib/e-puck2_main-processor/ChibiOS//os/hal/ports/STM32/LLD/SPIv1/i2s_lld.h"
 3363              		.file 43 "../lib/e-puck2_main-processor/ChibiOS//os/hal/include/pwm.h"
 3364              		.file 44 "../lib/e-puck2_main-processor/ChibiOS//os/hal/ports/STM32/LLD/TIMv1/pwm_lld.h"
 3365              		.file 45 "../lib/e-puck2_main-processor/ChibiOS//os/hal/include/serial.h"
 3366              		.file 46 "../lib/e-puck2_main-processor/ChibiOS//os/hal/ports/STM32/LLD/USARTv1/serial_lld.h"
 3367              		.file 47 "../lib/e-puck2_main-processor/ChibiOS//os/hal/include/sdc.h"
 3368              		.file 48 "../lib/e-puck2_main-processor/ChibiOS//os/hal/ports/STM32/LLD/sdc_lld.h"
 3369              		.file 49 "../lib/e-puck2_main-processor/ChibiOS//os/hal/include/spi.h"
 3370              		.file 50 "../lib/e-puck2_main-processor/ChibiOS//os/hal/ports/STM32/LLD/SPIv1/spi_lld.h"
 3371              		.file 51 "../lib/e-puck2_main-processor/ChibiOS//os/hal/include/usb.h"
 3372              		.file 52 "../lib/e-puck2_main-processor/ChibiOS//os/hal/ports/STM32/LLD/OTGv1/usb_lld.h"
 3373              		.file 53 "../lib/e-puck2_main-processor/ChibiOS//os/hal/ports/STM32/LLD/OTGv1/stm32_otg.h"
 3374              		.file 54 "../lib/e-puck2_main-processor/ChibiOS//os/hal/include/serial_usb.h"
 3375              		.file 55 "../lib/e-puck2_main-processor/ChibiOS_ext/os/hal/include/../ports/STM32/STM32F4xx/dcmi_l
 3376              		.file 56 "c:\\users\\adrie\\onedrive\\documents\\eclipse\\eclipse_e-puck2\\tools\\gcc-arm-none-eab
ARM GAS  C:\Users\adrie\AppData\Local\Temp\ccgB8szF.s 			page 61


 3377              		.file 57 "c:\\users\\adrie\\onedrive\\documents\\eclipse\\eclipse_e-puck2\\tools\\gcc-arm-none-eab
 3378              		.file 58 "c:\\users\\adrie\\onedrive\\documents\\eclipse\\eclipse_e-puck2\\tools\\gcc-arm-none-eab
 3379              		.file 59 "../lib/e-puck2_main-processor/src/msgbus/messagebus.h"
 3380              		.file 60 "c:\\users\\adrie\\onedrive\\documents\\eclipse\\eclipse_e-puck2\\tools\\gcc-arm-none-eab
 3381              		.file 61 "c:\\users\\adrie\\onedrive\\documents\\eclipse\\eclipse_e-puck2\\tools\\gcc-arm-none-eab
 3382              		.file 62 "../lib/e-puck2_main-processor/src/parameter/parameter.h"
 3383              		.file 63 "./main.h"
 3384              		.file 64 "../lib/e-puck2_main-processor/src/usbcfg.h"
 3385              		.file 65 "./audio_processing.h"
 3386              		.file 66 "c:\\users\\adrie\\onedrive\\documents\\eclipse\\eclipse_e-puck2\\tools\\gcc-arm-none-eab
 3387              		.file 67 "../lib/e-puck2_main-processor/src/leds.h"
 3388              		.file 68 "../lib/e-puck2_main-processor/ChibiOS//os/rt/include/chthreads.h"
 3389              		.file 69 "../lib/e-puck2_main-processor/src/motors.h"
 3390              		.file 70 "./fft.h"
 3391              		.file 71 "../lib/e-puck2_main-processor/ChibiOS//os/ext/CMSIS/include/arm_math.h"
 3392              		.section	.debug_info,"",%progbits
 3393              	.Ldebug_info0:
 3394 0000 4A5B0000 		.4byte	0x5b4a
 3395 0004 0400     		.2byte	0x4
 3396 0006 00000000 		.4byte	.Ldebug_abbrev0
 3397 000a 04       		.byte	0x4
 3398 000b 01       		.uleb128 0x1
 3399 000c D0100000 		.4byte	.LASF1033
 3400 0010 0C       		.byte	0xc
 3401 0011 920B0000 		.4byte	.LASF1034
 3402 0015 6A070000 		.4byte	.LASF1035
 3403 0019 88040000 		.4byte	.Ldebug_ranges0+0x488
 3404 001d 00000000 		.4byte	0
 3405 0021 00000000 		.4byte	.Ldebug_line0
 3406 0025 02       		.uleb128 0x2
 3407 0026 04       		.byte	0x4
 3408 0027 04       		.byte	0x4
 3409 0028 070B0000 		.4byte	.LASF0
 3410 002c 03       		.uleb128 0x3
 3411 002d 04       		.byte	0x4
 3412 002e 05       		.byte	0x5
 3413 002f 696E7400 		.ascii	"int\000"
 3414 0033 02       		.uleb128 0x2
 3415 0034 08       		.byte	0x8
 3416 0035 04       		.byte	0x4
 3417 0036 23210000 		.4byte	.LASF1
 3418 003a 04       		.uleb128 0x4
 3419 003b 6C0E0000 		.4byte	.LASF6
 3420 003f 07       		.byte	0x7
 3421 0040 D8       		.byte	0xd8
 3422 0041 45000000 		.4byte	0x45
 3423 0045 02       		.uleb128 0x2
 3424 0046 04       		.byte	0x4
 3425 0047 07       		.byte	0x7
 3426 0048 BB290000 		.4byte	.LASF2
 3427 004c 02       		.uleb128 0x2
 3428 004d 08       		.byte	0x8
 3429 004e 05       		.byte	0x5
 3430 004f D9260000 		.4byte	.LASF3
 3431 0053 02       		.uleb128 0x2
 3432 0054 08       		.byte	0x8
 3433 0055 04       		.byte	0x4
ARM GAS  C:\Users\adrie\AppData\Local\Temp\ccgB8szF.s 			page 62


 3434 0056 2B1C0000 		.4byte	.LASF4
 3435 005a 02       		.uleb128 0x2
 3436 005b 01       		.byte	0x1
 3437 005c 06       		.byte	0x6
 3438 005d 8A170000 		.4byte	.LASF5
 3439 0061 04       		.uleb128 0x4
 3440 0062 F6000000 		.4byte	.LASF7
 3441 0066 08       		.byte	0x8
 3442 0067 2B       		.byte	0x2b
 3443 0068 6C000000 		.4byte	0x6c
 3444 006c 02       		.uleb128 0x2
 3445 006d 01       		.byte	0x1
 3446 006e 08       		.byte	0x8
 3447 006f 6F0A0000 		.4byte	.LASF8
 3448 0073 04       		.uleb128 0x4
 3449 0074 A4080000 		.4byte	.LASF9
 3450 0078 08       		.byte	0x8
 3451 0079 37       		.byte	0x37
 3452 007a 7E000000 		.4byte	0x7e
 3453 007e 02       		.uleb128 0x2
 3454 007f 02       		.byte	0x2
 3455 0080 05       		.byte	0x5
 3456 0081 562A0000 		.4byte	.LASF10
 3457 0085 04       		.uleb128 0x4
 3458 0086 AE080000 		.4byte	.LASF11
 3459 008a 08       		.byte	0x8
 3460 008b 39       		.byte	0x39
 3461 008c 90000000 		.4byte	0x90
 3462 0090 02       		.uleb128 0x2
 3463 0091 02       		.byte	0x2
 3464 0092 07       		.byte	0x7
 3465 0093 6F170000 		.4byte	.LASF12
 3466 0097 04       		.uleb128 0x4
 3467 0098 DF210000 		.4byte	.LASF13
 3468 009c 08       		.byte	0x8
 3469 009d 4D       		.byte	0x4d
 3470 009e A2000000 		.4byte	0xa2
 3471 00a2 02       		.uleb128 0x2
 3472 00a3 04       		.byte	0x4
 3473 00a4 05       		.byte	0x5
 3474 00a5 B21A0000 		.4byte	.LASF14
 3475 00a9 04       		.uleb128 0x4
 3476 00aa E9210000 		.4byte	.LASF15
 3477 00ae 08       		.byte	0x8
 3478 00af 4F       		.byte	0x4f
 3479 00b0 B4000000 		.4byte	0xb4
 3480 00b4 02       		.uleb128 0x2
 3481 00b5 04       		.byte	0x4
 3482 00b6 07       		.byte	0x7
 3483 00b7 831C0000 		.4byte	.LASF16
 3484 00bb 04       		.uleb128 0x4
 3485 00bc 2C130000 		.4byte	.LASF17
 3486 00c0 08       		.byte	0x8
 3487 00c1 69       		.byte	0x69
 3488 00c2 C6000000 		.4byte	0xc6
 3489 00c6 02       		.uleb128 0x2
 3490 00c7 08       		.byte	0x8
ARM GAS  C:\Users\adrie\AppData\Local\Temp\ccgB8szF.s 			page 63


 3491 00c8 07       		.byte	0x7
 3492 00c9 07240000 		.4byte	.LASF18
 3493 00cd 04       		.uleb128 0x4
 3494 00ce A00E0000 		.4byte	.LASF19
 3495 00d2 09       		.byte	0x9
 3496 00d3 18       		.byte	0x18
 3497 00d4 61000000 		.4byte	0x61
 3498 00d8 05       		.uleb128 0x5
 3499 00d9 CD000000 		.4byte	0xcd
 3500 00dd 04       		.uleb128 0x4
 3501 00de 52170000 		.4byte	.LASF20
 3502 00e2 09       		.byte	0x9
 3503 00e3 20       		.byte	0x20
 3504 00e4 73000000 		.4byte	0x73
 3505 00e8 04       		.uleb128 0x4
 3506 00e9 1B020000 		.4byte	.LASF21
 3507 00ed 09       		.byte	0x9
 3508 00ee 24       		.byte	0x24
 3509 00ef 85000000 		.4byte	0x85
 3510 00f3 04       		.uleb128 0x4
 3511 00f4 FF030000 		.4byte	.LASF22
 3512 00f8 09       		.byte	0x9
 3513 00f9 2C       		.byte	0x2c
 3514 00fa 97000000 		.4byte	0x97
 3515 00fe 06       		.uleb128 0x6
 3516 00ff F3000000 		.4byte	0xf3
 3517 0103 04       		.uleb128 0x4
 3518 0104 D41B0000 		.4byte	.LASF23
 3519 0108 09       		.byte	0x9
 3520 0109 30       		.byte	0x30
 3521 010a A9000000 		.4byte	0xa9
 3522 010e 06       		.uleb128 0x6
 3523 010f 03010000 		.4byte	0x103
 3524 0113 05       		.uleb128 0x5
 3525 0114 0E010000 		.4byte	0x10e
 3526 0118 04       		.uleb128 0x4
 3527 0119 ED0B0000 		.4byte	.LASF24
 3528 011d 09       		.byte	0x9
 3529 011e 3C       		.byte	0x3c
 3530 011f BB000000 		.4byte	0xbb
 3531 0123 04       		.uleb128 0x4
 3532 0124 D90D0000 		.4byte	.LASF25
 3533 0128 0A       		.byte	0xa
 3534 0129 45       		.byte	0x45
 3535 012a 03010000 		.4byte	0x103
 3536 012e 04       		.uleb128 0x4
 3537 012f 64060000 		.4byte	.LASF26
 3538 0133 0A       		.byte	0xa
 3539 0134 46       		.byte	0x46
 3540 0135 18010000 		.4byte	0x118
 3541 0139 04       		.uleb128 0x4
 3542 013a FD140000 		.4byte	.LASF27
 3543 013e 0A       		.byte	0xa
 3544 013f 48       		.byte	0x48
 3545 0140 CD000000 		.4byte	0xcd
 3546 0144 04       		.uleb128 0x4
 3547 0145 2F250000 		.4byte	.LASF28
ARM GAS  C:\Users\adrie\AppData\Local\Temp\ccgB8szF.s 			page 64


 3548 0149 0A       		.byte	0xa
 3549 014a 49       		.byte	0x49
 3550 014b CD000000 		.4byte	0xcd
 3551 014f 04       		.uleb128 0x4
 3552 0150 70140000 		.4byte	.LASF29
 3553 0154 0A       		.byte	0xa
 3554 0155 4A       		.byte	0x4a
 3555 0156 CD000000 		.4byte	0xcd
 3556 015a 04       		.uleb128 0x4
 3557 015b BC160000 		.4byte	.LASF30
 3558 015f 0A       		.byte	0xa
 3559 0160 4B       		.byte	0x4b
 3560 0161 CD000000 		.4byte	0xcd
 3561 0165 04       		.uleb128 0x4
 3562 0166 31070000 		.4byte	.LASF31
 3563 016a 0A       		.byte	0xa
 3564 016b 4C       		.byte	0x4c
 3565 016c 03010000 		.4byte	0x103
 3566 0170 04       		.uleb128 0x4
 3567 0171 97000000 		.4byte	.LASF32
 3568 0175 0A       		.byte	0xa
 3569 0176 4D       		.byte	0x4d
 3570 0177 F3000000 		.4byte	0xf3
 3571 017b 04       		.uleb128 0x4
 3572 017c 401C0000 		.4byte	.LASF33
 3573 0180 0A       		.byte	0xa
 3574 0181 4F       		.byte	0x4f
 3575 0182 03010000 		.4byte	0x103
 3576 0186 04       		.uleb128 0x4
 3577 0187 8C270000 		.4byte	.LASF34
 3578 018b 0A       		.byte	0xa
 3579 018c 50       		.byte	0x50
 3580 018d 03010000 		.4byte	0x103
 3581 0191 04       		.uleb128 0x4
 3582 0192 7C1F0000 		.4byte	.LASF35
 3583 0196 0A       		.byte	0xa
 3584 0197 51       		.byte	0x51
 3585 0198 F3000000 		.4byte	0xf3
 3586 019c 04       		.uleb128 0x4
 3587 019d B5170000 		.4byte	.LASF36
 3588 01a1 0A       		.byte	0xa
 3589 01a2 52       		.byte	0x52
 3590 01a3 03010000 		.4byte	0x103
 3591 01a7 04       		.uleb128 0x4
 3592 01a8 2A040000 		.4byte	.LASF37
 3593 01ac 0B       		.byte	0xb
 3594 01ad 33       		.byte	0x33
 3595 01ae 03010000 		.4byte	0x103
 3596 01b2 06       		.uleb128 0x6
 3597 01b3 A7010000 		.4byte	0x1a7
 3598 01b7 04       		.uleb128 0x4
 3599 01b8 9D030000 		.4byte	.LASF38
 3600 01bc 0B       		.byte	0xb
 3601 01bd 3F       		.byte	0x3f
 3602 01be C2010000 		.4byte	0x1c2
 3603 01c2 07       		.uleb128 0x7
 3604 01c3 C30A0000 		.4byte	.LASF62
ARM GAS  C:\Users\adrie\AppData\Local\Temp\ccgB8szF.s 			page 65


 3605 01c7 68       		.byte	0x68
 3606 01c8 0C       		.byte	0xc
 3607 01c9 C2       		.byte	0xc2
 3608 01ca E0020000 		.4byte	0x2e0
 3609 01ce 08       		.uleb128 0x8
 3610 01cf 0B140000 		.4byte	.LASF39
 3611 01d3 0C       		.byte	0xc
 3612 01d4 C3       		.byte	0xc3
 3613 01d5 EB020000 		.4byte	0x2eb
 3614 01d9 00       		.byte	0
 3615 01da 08       		.uleb128 0x8
 3616 01db C00E0000 		.4byte	.LASF40
 3617 01df 0C       		.byte	0xc
 3618 01e0 C5       		.byte	0xc5
 3619 01e1 EB020000 		.4byte	0x2eb
 3620 01e5 04       		.byte	0x4
 3621 01e6 08       		.uleb128 0x8
 3622 01e7 F8120000 		.4byte	.LASF41
 3623 01eb 0C       		.byte	0xc
 3624 01ec C7       		.byte	0xc7
 3625 01ed 65010000 		.4byte	0x165
 3626 01f1 08       		.byte	0x8
 3627 01f2 08       		.uleb128 0x8
 3628 01f3 630B0000 		.4byte	.LASF42
 3629 01f7 0C       		.byte	0xc
 3630 01f8 C8       		.byte	0xc8
 3631 01f9 970D0000 		.4byte	0xd97
 3632 01fd 0C       		.byte	0xc
 3633 01fe 08       		.uleb128 0x8
 3634 01ff CD020000 		.4byte	.LASF43
 3635 0203 0C       		.byte	0xc
 3636 0204 CA       		.byte	0xca
 3637 0205 EB020000 		.4byte	0x2eb
 3638 0209 10       		.byte	0x10
 3639 020a 08       		.uleb128 0x8
 3640 020b 29280000 		.4byte	.LASF44
 3641 020f 0C       		.byte	0xc
 3642 0210 CB       		.byte	0xcb
 3643 0211 EB020000 		.4byte	0x2eb
 3644 0215 14       		.byte	0x14
 3645 0216 08       		.uleb128 0x8
 3646 0217 AF250000 		.4byte	.LASF45
 3647 021b 0C       		.byte	0xc
 3648 021c D2       		.byte	0xd2
 3649 021d 0D110000 		.4byte	0x110d
 3650 0221 18       		.byte	0x18
 3651 0222 08       		.uleb128 0x8
 3652 0223 711F0000 		.4byte	.LASF46
 3653 0227 0C       		.byte	0xc
 3654 0228 D8       		.byte	0xd8
 3655 0229 24110000 		.4byte	0x1124
 3656 022d 1C       		.byte	0x1c
 3657 022e 08       		.uleb128 0x8
 3658 022f 122B0000 		.4byte	.LASF47
 3659 0233 0C       		.byte	0xc
 3660 0234 DD       		.byte	0xdd
 3661 0235 44010000 		.4byte	0x144
ARM GAS  C:\Users\adrie\AppData\Local\Temp\ccgB8szF.s 			page 66


 3662 0239 20       		.byte	0x20
 3663 023a 08       		.uleb128 0x8
 3664 023b C5240000 		.4byte	.LASF48
 3665 023f 0C       		.byte	0xc
 3666 0240 E1       		.byte	0xe1
 3667 0241 39010000 		.4byte	0x139
 3668 0245 21       		.byte	0x21
 3669 0246 08       		.uleb128 0x8
 3670 0247 851A0000 		.4byte	.LASF49
 3671 024b 0C       		.byte	0xc
 3672 024c E6       		.byte	0xe6
 3673 024d 4F010000 		.4byte	0x14f
 3674 0251 22       		.byte	0x22
 3675 0252 08       		.uleb128 0x8
 3676 0253 AB170000 		.4byte	.LASF50
 3677 0257 0C       		.byte	0xc
 3678 0258 EC       		.byte	0xec
 3679 0259 5A010000 		.4byte	0x15a
 3680 025d 23       		.byte	0x23
 3681 025e 08       		.uleb128 0x8
 3682 025f 7E1A0000 		.4byte	.LASF51
 3683 0263 0C       		.byte	0xc
 3684 0264 F3       		.byte	0xf3
 3685 0265 B2010000 		.4byte	0x1b2
 3686 0269 24       		.byte	0x24
 3687 026a 09       		.uleb128 0x9
 3688 026b 705F7500 		.ascii	"p_u\000"
 3689 026f 0C       		.byte	0xc
 3690 0270 3101     		.2byte	0x131
 3691 0272 3C100000 		.4byte	0x103c
 3692 0276 28       		.byte	0x28
 3693 0277 0A       		.uleb128 0xa
 3694 0278 B8050000 		.4byte	.LASF52
 3695 027c 0C       		.byte	0xc
 3696 027d 3601     		.2byte	0x136
 3697 027f F1020000 		.4byte	0x2f1
 3698 0283 2C       		.byte	0x2c
 3699 0284 0A       		.uleb128 0xa
 3700 0285 3E180000 		.4byte	.LASF53
 3701 0289 0C       		.byte	0xc
 3702 028a 3C01     		.2byte	0x13c
 3703 028c 15030000 		.4byte	0x315
 3704 0290 30       		.byte	0x30
 3705 0291 0A       		.uleb128 0xa
 3706 0292 D1080000 		.4byte	.LASF54
 3707 0296 0C       		.byte	0xc
 3708 0297 4001     		.2byte	0x140
 3709 0299 70010000 		.4byte	0x170
 3710 029d 38       		.byte	0x38
 3711 029e 0A       		.uleb128 0xa
 3712 029f AD220000 		.4byte	.LASF55
 3713 02a3 0C       		.byte	0xc
 3714 02a4 4601     		.2byte	0x146
 3715 02a6 7B010000 		.4byte	0x17b
 3716 02aa 3C       		.byte	0x3c
 3717 02ab 0A       		.uleb128 0xa
 3718 02ac 1A250000 		.4byte	.LASF56
ARM GAS  C:\Users\adrie\AppData\Local\Temp\ccgB8szF.s 			page 67


 3719 02b0 0C       		.byte	0xc
 3720 02b1 4D01     		.2byte	0x14d
 3721 02b3 07110000 		.4byte	0x1107
 3722 02b7 40       		.byte	0x40
 3723 02b8 0A       		.uleb128 0xa
 3724 02b9 E7200000 		.4byte	.LASF57
 3725 02bd 0C       		.byte	0xc
 3726 02be 5101     		.2byte	0x151
 3727 02c0 65010000 		.4byte	0x165
 3728 02c4 44       		.byte	0x44
 3729 02c5 0A       		.uleb128 0xa
 3730 02c6 78140000 		.4byte	.LASF58
 3731 02ca 0C       		.byte	0xc
 3732 02cb 5801     		.2byte	0x158
 3733 02cd C8030000 		.4byte	0x3c8
 3734 02d1 48       		.byte	0x48
 3735 02d2 0A       		.uleb128 0xa
 3736 02d3 4D2B0000 		.4byte	.LASF59
 3737 02d7 0C       		.byte	0xc
 3738 02d8 5E01     		.2byte	0x15e
 3739 02da ED0F0000 		.4byte	0xfed
 3740 02de 50       		.byte	0x50
 3741 02df 00       		.byte	0
 3742 02e0 04       		.uleb128 0x4
 3743 02e1 97280000 		.4byte	.LASF60
 3744 02e5 0B       		.byte	0xb
 3745 02e6 44       		.byte	0x44
 3746 02e7 EB020000 		.4byte	0x2eb
 3747 02eb 0B       		.uleb128 0xb
 3748 02ec 04       		.byte	0x4
 3749 02ed B7010000 		.4byte	0x1b7
 3750 02f1 04       		.uleb128 0x4
 3751 02f2 F7050000 		.4byte	.LASF61
 3752 02f6 0B       		.byte	0xb
 3753 02f7 49       		.byte	0x49
 3754 02f8 FC020000 		.4byte	0x2fc
 3755 02fc 07       		.uleb128 0x7
 3756 02fd 2C2B0000 		.4byte	.LASF63
 3757 0301 04       		.byte	0x4
 3758 0302 0C       		.byte	0xc
 3759 0303 B0       		.byte	0xb0
 3760 0304 15030000 		.4byte	0x315
 3761 0308 08       		.uleb128 0x8
 3762 0309 0B140000 		.4byte	.LASF39
 3763 030d 0C       		.byte	0xc
 3764 030e B1       		.byte	0xb1
 3765 030f EB020000 		.4byte	0x2eb
 3766 0313 00       		.byte	0
 3767 0314 00       		.byte	0
 3768 0315 04       		.uleb128 0x4
 3769 0316 481A0000 		.4byte	.LASF64
 3770 031a 0B       		.byte	0xb
 3771 031b 50       		.byte	0x50
 3772 031c 20030000 		.4byte	0x320
 3773 0320 07       		.uleb128 0x7
 3774 0321 A4020000 		.4byte	.LASF65
 3775 0325 08       		.byte	0x8
ARM GAS  C:\Users\adrie\AppData\Local\Temp\ccgB8szF.s 			page 68


 3776 0326 0C       		.byte	0xc
 3777 0327 B7       		.byte	0xb7
 3778 0328 45030000 		.4byte	0x345
 3779 032c 08       		.uleb128 0x8
 3780 032d 0B140000 		.4byte	.LASF39
 3781 0331 0C       		.byte	0xc
 3782 0332 B8       		.byte	0xb8
 3783 0333 EB020000 		.4byte	0x2eb
 3784 0337 00       		.byte	0
 3785 0338 08       		.uleb128 0x8
 3786 0339 C00E0000 		.4byte	.LASF40
 3787 033d 0C       		.byte	0xc
 3788 033e B9       		.byte	0xb9
 3789 033f EB020000 		.4byte	0x2eb
 3790 0343 04       		.byte	0x4
 3791 0344 00       		.byte	0
 3792 0345 04       		.uleb128 0x4
 3793 0346 B60A0000 		.4byte	.LASF66
 3794 034a 0B       		.byte	0xb
 3795 034b 57       		.byte	0x57
 3796 034c 50030000 		.4byte	0x350
 3797 0350 0C       		.uleb128 0xc
 3798 0351 C5210000 		.4byte	.LASF67
 3799 0355 1C       		.byte	0x1c
 3800 0356 0C       		.byte	0xc
 3801 0357 9001     		.2byte	0x190
 3802 0359 AC030000 		.4byte	0x3ac
 3803 035d 0A       		.uleb128 0xa
 3804 035e 801D0000 		.4byte	.LASF68
 3805 0362 0C       		.byte	0xc
 3806 0363 9101     		.2byte	0x191
 3807 0365 15030000 		.4byte	0x315
 3808 0369 00       		.byte	0
 3809 036a 0A       		.uleb128 0xa
 3810 036b DE230000 		.4byte	.LASF69
 3811 036f 0C       		.byte	0xc
 3812 0370 9201     		.2byte	0x192
 3813 0372 65010000 		.4byte	0x165
 3814 0376 08       		.byte	0x8
 3815 0377 0A       		.uleb128 0xa
 3816 0378 A50D0000 		.4byte	.LASF70
 3817 037c 0C       		.byte	0xc
 3818 037d 9401     		.2byte	0x194
 3819 037f 970D0000 		.4byte	0xd97
 3820 0383 0C       		.byte	0xc
 3821 0384 0A       		.uleb128 0xa
 3822 0385 4C160000 		.4byte	.LASF71
 3823 0389 0C       		.byte	0xc
 3824 038a 9701     		.2byte	0x197
 3825 038c EB020000 		.4byte	0x2eb
 3826 0390 10       		.byte	0x10
 3827 0391 0A       		.uleb128 0xa
 3828 0392 B80E0000 		.4byte	.LASF72
 3829 0396 0C       		.byte	0xc
 3830 0397 9801     		.2byte	0x198
 3831 0399 EB020000 		.4byte	0x2eb
 3832 039d 14       		.byte	0x14
ARM GAS  C:\Users\adrie\AppData\Local\Temp\ccgB8szF.s 			page 69


 3833 039e 0A       		.uleb128 0xa
 3834 039f 880B0000 		.4byte	.LASF73
 3835 03a3 0C       		.byte	0xc
 3836 03a4 9B01     		.2byte	0x19b
 3837 03a6 EB020000 		.4byte	0x2eb
 3838 03aa 18       		.byte	0x18
 3839 03ab 00       		.byte	0
 3840 03ac 04       		.uleb128 0x4
 3841 03ad 90200000 		.4byte	.LASF74
 3842 03b1 0B       		.byte	0xb
 3843 03b2 5C       		.byte	0x5c
 3844 03b3 B7030000 		.4byte	0x3b7
 3845 03b7 0B       		.uleb128 0xb
 3846 03b8 04       		.byte	0x4
 3847 03b9 BD030000 		.4byte	0x3bd
 3848 03bd 0D       		.uleb128 0xd
 3849 03be C8030000 		.4byte	0x3c8
 3850 03c2 0E       		.uleb128 0xe
 3851 03c3 C8030000 		.4byte	0x3c8
 3852 03c7 00       		.byte	0
 3853 03c8 0F       		.uleb128 0xf
 3854 03c9 04       		.byte	0x4
 3855 03ca 04       		.uleb128 0x4
 3856 03cb 890D0000 		.4byte	.LASF75
 3857 03cf 0B       		.byte	0xb
 3858 03d0 61       		.byte	0x61
 3859 03d1 D5030000 		.4byte	0x3d5
 3860 03d5 0C       		.uleb128 0xc
 3861 03d6 B4240000 		.4byte	.LASF76
 3862 03da 14       		.byte	0x14
 3863 03db 0C       		.byte	0xc
 3864 03dc 6B01     		.2byte	0x16b
 3865 03de 24040000 		.4byte	0x424
 3866 03e2 0A       		.uleb128 0xa
 3867 03e3 AB0D0000 		.4byte	.LASF77
 3868 03e7 0C       		.byte	0xc
 3869 03e8 6C01     		.2byte	0x16c
 3870 03ea 2A110000 		.4byte	0x112a
 3871 03ee 00       		.byte	0
 3872 03ef 0A       		.uleb128 0xa
 3873 03f0 3B0A0000 		.4byte	.LASF78
 3874 03f4 0C       		.byte	0xc
 3875 03f5 6D01     		.2byte	0x16d
 3876 03f7 2A110000 		.4byte	0x112a
 3877 03fb 04       		.byte	0x4
 3878 03fc 0A       		.uleb128 0xa
 3879 03fd 1C170000 		.4byte	.LASF79
 3880 0401 0C       		.byte	0xc
 3881 0402 6E01     		.2byte	0x16e
 3882 0404 A7010000 		.4byte	0x1a7
 3883 0408 08       		.byte	0x8
 3884 0409 0A       		.uleb128 0xa
 3885 040a 9F240000 		.4byte	.LASF80
 3886 040e 0C       		.byte	0xc
 3887 040f 6F01     		.2byte	0x16f
 3888 0411 AC030000 		.4byte	0x3ac
 3889 0415 0C       		.byte	0xc
ARM GAS  C:\Users\adrie\AppData\Local\Temp\ccgB8szF.s 			page 70


 3890 0416 0A       		.uleb128 0xa
 3891 0417 690B0000 		.4byte	.LASF81
 3892 041b 0C       		.byte	0xc
 3893 041c 7101     		.2byte	0x171
 3894 041e C8030000 		.4byte	0x3c8
 3895 0422 10       		.byte	0x10
 3896 0423 00       		.byte	0
 3897 0424 04       		.uleb128 0x4
 3898 0425 22260000 		.4byte	.LASF82
 3899 0429 0B       		.byte	0xb
 3900 042a 66       		.byte	0x66
 3901 042b 2F040000 		.4byte	0x42f
 3902 042f 0C       		.uleb128 0xc
 3903 0430 C7030000 		.4byte	.LASF83
 3904 0434 10       		.byte	0x10
 3905 0435 0C       		.byte	0xc
 3906 0436 7B01     		.2byte	0x17b
 3907 0438 71040000 		.4byte	0x471
 3908 043c 0A       		.uleb128 0xa
 3909 043d AB0D0000 		.4byte	.LASF77
 3910 0441 0C       		.byte	0xc
 3911 0442 7C01     		.2byte	0x17c
 3912 0444 2A110000 		.4byte	0x112a
 3913 0448 00       		.byte	0
 3914 0449 0A       		.uleb128 0xa
 3915 044a 3B0A0000 		.4byte	.LASF78
 3916 044e 0C       		.byte	0xc
 3917 044f 7E01     		.2byte	0x17e
 3918 0451 2A110000 		.4byte	0x112a
 3919 0455 04       		.byte	0x4
 3920 0456 0A       		.uleb128 0xa
 3921 0457 1C170000 		.4byte	.LASF79
 3922 045b 0C       		.byte	0xc
 3923 045c 8001     		.2byte	0x180
 3924 045e A7010000 		.4byte	0x1a7
 3925 0462 08       		.byte	0x8
 3926 0463 0A       		.uleb128 0xa
 3927 0464 7E010000 		.4byte	.LASF84
 3928 0468 0C       		.byte	0xc
 3929 0469 8201     		.2byte	0x182
 3930 046b B2010000 		.4byte	0x1b2
 3931 046f 0C       		.byte	0xc
 3932 0470 00       		.byte	0
 3933 0471 04       		.uleb128 0x4
 3934 0472 3C0B0000 		.4byte	.LASF85
 3935 0476 0B       		.byte	0xb
 3936 0477 6B       		.byte	0x6b
 3937 0478 7C040000 		.4byte	0x47c
 3938 047c 10       		.uleb128 0x10
 3939 047d F4210000 		.4byte	.LASF86
 3940 0481 1404     		.2byte	0x414
 3941 0483 0C       		.byte	0xc
 3942 0484 A201     		.2byte	0x1a2
 3943 0486 BF040000 		.4byte	0x4bf
 3944 048a 0A       		.uleb128 0xa
 3945 048b 23160000 		.4byte	.LASF87
 3946 048f 0C       		.byte	0xc
ARM GAS  C:\Users\adrie\AppData\Local\Temp\ccgB8szF.s 			page 71


 3947 0490 AA01     		.2byte	0x1aa
 3948 0492 13110000 		.4byte	0x1113
 3949 0496 00       		.byte	0
 3950 0497 0A       		.uleb128 0xa
 3951 0498 E7150000 		.4byte	.LASF88
 3952 049c 0C       		.byte	0xc
 3953 049d AF01     		.2byte	0x1af
 3954 049f 91010000 		.4byte	0x191
 3955 04a3 04       		.byte	0x4
 3956 04a4 0A       		.uleb128 0xa
 3957 04a5 9B020000 		.4byte	.LASF89
 3958 04a9 0C       		.byte	0xc
 3959 04aa B301     		.2byte	0x1b3
 3960 04ac 91010000 		.4byte	0x191
 3961 04b0 08       		.byte	0x8
 3962 04b1 0A       		.uleb128 0xa
 3963 04b2 5A190000 		.4byte	.LASF90
 3964 04b6 0C       		.byte	0xc
 3965 04b7 B901     		.2byte	0x1b9
 3966 04b9 7F0F0000 		.4byte	0xf7f
 3967 04bd 0C       		.byte	0xc
 3968 04be 00       		.byte	0
 3969 04bf 04       		.uleb128 0x4
 3970 04c0 EA000000 		.4byte	.LASF91
 3971 04c4 0B       		.byte	0xb
 3972 04c5 70       		.byte	0x70
 3973 04c6 CA040000 		.4byte	0x4ca
 3974 04ca 10       		.uleb128 0x10
 3975 04cb 43190000 		.4byte	.LASF92
 3976 04cf 7006     		.2byte	0x670
 3977 04d1 0C       		.byte	0xc
 3978 04d2 C201     		.2byte	0x1c2
 3979 04d4 37050000 		.4byte	0x537
 3980 04d8 0A       		.uleb128 0xa
 3981 04d9 F1050000 		.4byte	.LASF93
 3982 04dd 0C       		.byte	0xc
 3983 04de C601     		.2byte	0x1c6
 3984 04e0 45030000 		.4byte	0x345
 3985 04e4 00       		.byte	0
 3986 04e5 0A       		.uleb128 0xa
 3987 04e6 A2050000 		.4byte	.LASF94
 3988 04ea 0C       		.byte	0xc
 3989 04eb CA01     		.2byte	0x1ca
 3990 04ed 24040000 		.4byte	0x424
 3991 04f1 1C       		.byte	0x1c
 3992 04f2 09       		.uleb128 0x9
 3993 04f3 64626700 		.ascii	"dbg\000"
 3994 04f7 0C       		.byte	0xc
 3995 04f8 CE01     		.2byte	0x1ce
 3996 04fa 71040000 		.4byte	0x471
 3997 04fe 2C       		.byte	0x2c
 3998 04ff 11       		.uleb128 0x11
 3999 0500 BB1A0000 		.4byte	.LASF95
 4000 0504 0C       		.byte	0xc
 4001 0505 D201     		.2byte	0x1d2
 4002 0507 B7010000 		.4byte	0x1b7
 4003 050b 4004     		.2byte	0x440
ARM GAS  C:\Users\adrie\AppData\Local\Temp\ccgB8szF.s 			page 72


 4004 050d 12       		.uleb128 0x12
 4005 050e 746D00   		.ascii	"tm\000"
 4006 0511 0C       		.byte	0xc
 4007 0512 D701     		.2byte	0x1d7
 4008 0514 9F0F0000 		.4byte	0xf9f
 4009 0518 A804     		.2byte	0x4a8
 4010 051a 11       		.uleb128 0x11
 4011 051b 730E0000 		.4byte	.LASF96
 4012 051f 0C       		.byte	0xc
 4013 0520 DD01     		.2byte	0x1dd
 4014 0522 31100000 		.4byte	0x1031
 4015 0526 B004     		.2byte	0x4b0
 4016 0528 11       		.uleb128 0x11
 4017 0529 7C240000 		.4byte	.LASF97
 4018 052d 0C       		.byte	0xc
 4019 052e E301     		.2byte	0x1e3
 4020 0530 30110000 		.4byte	0x1130
 4021 0534 E804     		.2byte	0x4e8
 4022 0536 00       		.byte	0
 4023 0537 13       		.uleb128 0x13
 4024 0538 03010000 		.4byte	0x103
 4025 053c 47050000 		.4byte	0x547
 4026 0540 14       		.uleb128 0x14
 4027 0541 45000000 		.4byte	0x45
 4028 0545 01       		.byte	0x1
 4029 0546 00       		.byte	0
 4030 0547 13       		.uleb128 0x13
 4031 0548 03010000 		.4byte	0x103
 4032 054c 57050000 		.4byte	0x557
 4033 0550 14       		.uleb128 0x14
 4034 0551 45000000 		.4byte	0x45
 4035 0555 07       		.byte	0x7
 4036 0556 00       		.byte	0
 4037 0557 15       		.uleb128 0x15
 4038 0558 EA230000 		.4byte	.LASF98
 4039 055c 0D       		.byte	0xd
 4040 055d A706     		.2byte	0x6a7
 4041 055f FE000000 		.4byte	0xfe
 4042 0563 16       		.uleb128 0x16
 4043 0564 9E180000 		.4byte	.LASF99
 4044 0568 0E       		.byte	0xe
 4045 0569 4C       		.byte	0x4c
 4046 056a 03010000 		.4byte	0x103
 4047 056e 17       		.uleb128 0x17
 4048 056f 50       		.byte	0x50
 4049 0570 0F       		.byte	0xf
 4050 0571 C4       		.byte	0xc4
 4051 0572 65060000 		.4byte	0x665
 4052 0576 18       		.uleb128 0x18
 4053 0577 535200   		.ascii	"SR\000"
 4054 057a 0F       		.byte	0xf
 4055 057b C6       		.byte	0xc6
 4056 057c 0E010000 		.4byte	0x10e
 4057 0580 00       		.byte	0
 4058 0581 18       		.uleb128 0x18
 4059 0582 43523100 		.ascii	"CR1\000"
 4060 0586 0F       		.byte	0xf
ARM GAS  C:\Users\adrie\AppData\Local\Temp\ccgB8szF.s 			page 73


 4061 0587 C7       		.byte	0xc7
 4062 0588 0E010000 		.4byte	0x10e
 4063 058c 04       		.byte	0x4
 4064 058d 18       		.uleb128 0x18
 4065 058e 43523200 		.ascii	"CR2\000"
 4066 0592 0F       		.byte	0xf
 4067 0593 C8       		.byte	0xc8
 4068 0594 0E010000 		.4byte	0x10e
 4069 0598 08       		.byte	0x8
 4070 0599 08       		.uleb128 0x8
 4071 059a E0020000 		.4byte	.LASF100
 4072 059e 0F       		.byte	0xf
 4073 059f C9       		.byte	0xc9
 4074 05a0 0E010000 		.4byte	0x10e
 4075 05a4 0C       		.byte	0xc
 4076 05a5 08       		.uleb128 0x8
 4077 05a6 E6020000 		.4byte	.LASF101
 4078 05aa 0F       		.byte	0xf
 4079 05ab CA       		.byte	0xca
 4080 05ac 0E010000 		.4byte	0x10e
 4081 05b0 10       		.byte	0x10
 4082 05b1 08       		.uleb128 0x8
 4083 05b2 700B0000 		.4byte	.LASF102
 4084 05b6 0F       		.byte	0xf
 4085 05b7 CB       		.byte	0xcb
 4086 05b8 0E010000 		.4byte	0x10e
 4087 05bc 14       		.byte	0x14
 4088 05bd 08       		.uleb128 0x8
 4089 05be 760B0000 		.4byte	.LASF103
 4090 05c2 0F       		.byte	0xf
 4091 05c3 CC       		.byte	0xcc
 4092 05c4 0E010000 		.4byte	0x10e
 4093 05c8 18       		.byte	0x18
 4094 05c9 08       		.uleb128 0x8
 4095 05ca 7C0B0000 		.4byte	.LASF104
 4096 05ce 0F       		.byte	0xf
 4097 05cf CD       		.byte	0xcd
 4098 05d0 0E010000 		.4byte	0x10e
 4099 05d4 1C       		.byte	0x1c
 4100 05d5 08       		.uleb128 0x8
 4101 05d6 820B0000 		.4byte	.LASF105
 4102 05da 0F       		.byte	0xf
 4103 05db CE       		.byte	0xce
 4104 05dc 0E010000 		.4byte	0x10e
 4105 05e0 20       		.byte	0x20
 4106 05e1 18       		.uleb128 0x18
 4107 05e2 48545200 		.ascii	"HTR\000"
 4108 05e6 0F       		.byte	0xf
 4109 05e7 CF       		.byte	0xcf
 4110 05e8 0E010000 		.4byte	0x10e
 4111 05ec 24       		.byte	0x24
 4112 05ed 18       		.uleb128 0x18
 4113 05ee 4C545200 		.ascii	"LTR\000"
 4114 05f2 0F       		.byte	0xf
 4115 05f3 D0       		.byte	0xd0
 4116 05f4 0E010000 		.4byte	0x10e
 4117 05f8 28       		.byte	0x28
ARM GAS  C:\Users\adrie\AppData\Local\Temp\ccgB8szF.s 			page 74


 4118 05f9 08       		.uleb128 0x8
 4119 05fa 21150000 		.4byte	.LASF106
 4120 05fe 0F       		.byte	0xf
 4121 05ff D1       		.byte	0xd1
 4122 0600 0E010000 		.4byte	0x10e
 4123 0604 2C       		.byte	0x2c
 4124 0605 08       		.uleb128 0x8
 4125 0606 26150000 		.4byte	.LASF107
 4126 060a 0F       		.byte	0xf
 4127 060b D2       		.byte	0xd2
 4128 060c 0E010000 		.4byte	0x10e
 4129 0610 30       		.byte	0x30
 4130 0611 08       		.uleb128 0x8
 4131 0612 2B150000 		.4byte	.LASF108
 4132 0616 0F       		.byte	0xf
 4133 0617 D3       		.byte	0xd3
 4134 0618 0E010000 		.4byte	0x10e
 4135 061c 34       		.byte	0x34
 4136 061d 08       		.uleb128 0x8
 4137 061e 620D0000 		.4byte	.LASF109
 4138 0622 0F       		.byte	0xf
 4139 0623 D4       		.byte	0xd4
 4140 0624 0E010000 		.4byte	0x10e
 4141 0628 38       		.byte	0x38
 4142 0629 08       		.uleb128 0x8
 4143 062a CE250000 		.4byte	.LASF110
 4144 062e 0F       		.byte	0xf
 4145 062f D5       		.byte	0xd5
 4146 0630 0E010000 		.4byte	0x10e
 4147 0634 3C       		.byte	0x3c
 4148 0635 08       		.uleb128 0x8
 4149 0636 D3250000 		.4byte	.LASF111
 4150 063a 0F       		.byte	0xf
 4151 063b D6       		.byte	0xd6
 4152 063c 0E010000 		.4byte	0x10e
 4153 0640 40       		.byte	0x40
 4154 0641 08       		.uleb128 0x8
 4155 0642 D8250000 		.4byte	.LASF112
 4156 0646 0F       		.byte	0xf
 4157 0647 D7       		.byte	0xd7
 4158 0648 0E010000 		.4byte	0x10e
 4159 064c 44       		.byte	0x44
 4160 064d 08       		.uleb128 0x8
 4161 064e DD250000 		.4byte	.LASF113
 4162 0652 0F       		.byte	0xf
 4163 0653 D8       		.byte	0xd8
 4164 0654 0E010000 		.4byte	0x10e
 4165 0658 48       		.byte	0x48
 4166 0659 18       		.uleb128 0x18
 4167 065a 445200   		.ascii	"DR\000"
 4168 065d 0F       		.byte	0xf
 4169 065e D9       		.byte	0xd9
 4170 065f 0E010000 		.4byte	0x10e
 4171 0663 4C       		.byte	0x4c
 4172 0664 00       		.byte	0
 4173 0665 04       		.uleb128 0x4
 4174 0666 63170000 		.4byte	.LASF114
ARM GAS  C:\Users\adrie\AppData\Local\Temp\ccgB8szF.s 			page 75


 4175 066a 0F       		.byte	0xf
 4176 066b DA       		.byte	0xda
 4177 066c 6E050000 		.4byte	0x56e
 4178 0670 17       		.uleb128 0x17
 4179 0671 10       		.byte	0x10
 4180 0672 0F       		.byte	0xf
 4181 0673 E9       		.byte	0xe9
 4182 0674 A9060000 		.4byte	0x6a9
 4183 0678 18       		.uleb128 0x18
 4184 0679 54495200 		.ascii	"TIR\000"
 4185 067d 0F       		.byte	0xf
 4186 067e EB       		.byte	0xeb
 4187 067f 0E010000 		.4byte	0x10e
 4188 0683 00       		.byte	0
 4189 0684 08       		.uleb128 0x8
 4190 0685 A4120000 		.4byte	.LASF115
 4191 0689 0F       		.byte	0xf
 4192 068a EC       		.byte	0xec
 4193 068b 0E010000 		.4byte	0x10e
 4194 068f 04       		.byte	0x4
 4195 0690 08       		.uleb128 0x8
 4196 0691 AD1A0000 		.4byte	.LASF116
 4197 0695 0F       		.byte	0xf
 4198 0696 ED       		.byte	0xed
 4199 0697 0E010000 		.4byte	0x10e
 4200 069b 08       		.byte	0x8
 4201 069c 08       		.uleb128 0x8
 4202 069d BC170000 		.4byte	.LASF117
 4203 06a1 0F       		.byte	0xf
 4204 06a2 EE       		.byte	0xee
 4205 06a3 0E010000 		.4byte	0x10e
 4206 06a7 0C       		.byte	0xc
 4207 06a8 00       		.byte	0
 4208 06a9 04       		.uleb128 0x4
 4209 06aa DB050000 		.4byte	.LASF118
 4210 06ae 0F       		.byte	0xf
 4211 06af EF       		.byte	0xef
 4212 06b0 70060000 		.4byte	0x670
 4213 06b4 17       		.uleb128 0x17
 4214 06b5 10       		.byte	0x10
 4215 06b6 0F       		.byte	0xf
 4216 06b7 F5       		.byte	0xf5
 4217 06b8 ED060000 		.4byte	0x6ed
 4218 06bc 18       		.uleb128 0x18
 4219 06bd 52495200 		.ascii	"RIR\000"
 4220 06c1 0F       		.byte	0xf
 4221 06c2 F7       		.byte	0xf7
 4222 06c3 0E010000 		.4byte	0x10e
 4223 06c7 00       		.byte	0
 4224 06c8 08       		.uleb128 0x8
 4225 06c9 93210000 		.4byte	.LASF119
 4226 06cd 0F       		.byte	0xf
 4227 06ce F8       		.byte	0xf8
 4228 06cf 0E010000 		.4byte	0x10e
 4229 06d3 04       		.byte	0x4
 4230 06d4 08       		.uleb128 0x8
 4231 06d5 FC1B0000 		.4byte	.LASF120
ARM GAS  C:\Users\adrie\AppData\Local\Temp\ccgB8szF.s 			page 76


 4232 06d9 0F       		.byte	0xf
 4233 06da F9       		.byte	0xf9
 4234 06db 0E010000 		.4byte	0x10e
 4235 06df 08       		.byte	0x8
 4236 06e0 08       		.uleb128 0x8
 4237 06e1 24190000 		.4byte	.LASF121
 4238 06e5 0F       		.byte	0xf
 4239 06e6 FA       		.byte	0xfa
 4240 06e7 0E010000 		.4byte	0x10e
 4241 06eb 0C       		.byte	0xc
 4242 06ec 00       		.byte	0
 4243 06ed 04       		.uleb128 0x4
 4244 06ee 99200000 		.4byte	.LASF122
 4245 06f2 0F       		.byte	0xf
 4246 06f3 FB       		.byte	0xfb
 4247 06f4 B4060000 		.4byte	0x6b4
 4248 06f8 19       		.uleb128 0x19
 4249 06f9 08       		.byte	0x8
 4250 06fa 0F       		.byte	0xf
 4251 06fb 0101     		.2byte	0x101
 4252 06fd 1C070000 		.4byte	0x71c
 4253 0701 09       		.uleb128 0x9
 4254 0702 46523100 		.ascii	"FR1\000"
 4255 0706 0F       		.byte	0xf
 4256 0707 0301     		.2byte	0x103
 4257 0709 0E010000 		.4byte	0x10e
 4258 070d 00       		.byte	0
 4259 070e 09       		.uleb128 0x9
 4260 070f 46523200 		.ascii	"FR2\000"
 4261 0713 0F       		.byte	0xf
 4262 0714 0401     		.2byte	0x104
 4263 0716 0E010000 		.4byte	0x10e
 4264 071a 04       		.byte	0x4
 4265 071b 00       		.byte	0
 4266 071c 1A       		.uleb128 0x1a
 4267 071d A9120000 		.4byte	.LASF123
 4268 0721 0F       		.byte	0xf
 4269 0722 0501     		.2byte	0x105
 4270 0724 F8060000 		.4byte	0x6f8
 4271 0728 1B       		.uleb128 0x1b
 4272 0729 2003     		.2byte	0x320
 4273 072b 0F       		.byte	0xf
 4274 072c 0B01     		.2byte	0x10b
 4275 072e 5E080000 		.4byte	0x85e
 4276 0732 09       		.uleb128 0x9
 4277 0733 4D435200 		.ascii	"MCR\000"
 4278 0737 0F       		.byte	0xf
 4279 0738 0D01     		.2byte	0x10d
 4280 073a 0E010000 		.4byte	0x10e
 4281 073e 00       		.byte	0
 4282 073f 09       		.uleb128 0x9
 4283 0740 4D535200 		.ascii	"MSR\000"
 4284 0744 0F       		.byte	0xf
 4285 0745 0E01     		.2byte	0x10e
 4286 0747 0E010000 		.4byte	0x10e
 4287 074b 04       		.byte	0x4
 4288 074c 09       		.uleb128 0x9
ARM GAS  C:\Users\adrie\AppData\Local\Temp\ccgB8szF.s 			page 77


 4289 074d 54535200 		.ascii	"TSR\000"
 4290 0751 0F       		.byte	0xf
 4291 0752 0F01     		.2byte	0x10f
 4292 0754 0E010000 		.4byte	0x10e
 4293 0758 08       		.byte	0x8
 4294 0759 0A       		.uleb128 0xa
 4295 075a 9B0F0000 		.4byte	.LASF124
 4296 075e 0F       		.byte	0xf
 4297 075f 1001     		.2byte	0x110
 4298 0761 0E010000 		.4byte	0x10e
 4299 0765 0C       		.byte	0xc
 4300 0766 0A       		.uleb128 0xa
 4301 0767 6A100000 		.4byte	.LASF125
 4302 076b 0F       		.byte	0xf
 4303 076c 1101     		.2byte	0x111
 4304 076e 0E010000 		.4byte	0x10e
 4305 0772 10       		.byte	0x10
 4306 0773 09       		.uleb128 0x9
 4307 0774 49455200 		.ascii	"IER\000"
 4308 0778 0F       		.byte	0xf
 4309 0779 1201     		.2byte	0x112
 4310 077b 0E010000 		.4byte	0x10e
 4311 077f 14       		.byte	0x14
 4312 0780 09       		.uleb128 0x9
 4313 0781 45535200 		.ascii	"ESR\000"
 4314 0785 0F       		.byte	0xf
 4315 0786 1301     		.2byte	0x113
 4316 0788 0E010000 		.4byte	0x10e
 4317 078c 18       		.byte	0x18
 4318 078d 09       		.uleb128 0x9
 4319 078e 42545200 		.ascii	"BTR\000"
 4320 0792 0F       		.byte	0xf
 4321 0793 1401     		.2byte	0x114
 4322 0795 0E010000 		.4byte	0x10e
 4323 0799 1C       		.byte	0x1c
 4324 079a 0A       		.uleb128 0xa
 4325 079b EA220000 		.4byte	.LASF126
 4326 079f 0F       		.byte	0xf
 4327 07a0 1501     		.2byte	0x115
 4328 07a2 5E080000 		.4byte	0x85e
 4329 07a6 20       		.byte	0x20
 4330 07a7 11       		.uleb128 0x11
 4331 07a8 DD130000 		.4byte	.LASF127
 4332 07ac 0F       		.byte	0xf
 4333 07ad 1601     		.2byte	0x116
 4334 07af 6E080000 		.4byte	0x86e
 4335 07b3 8001     		.2byte	0x180
 4336 07b5 11       		.uleb128 0x11
 4337 07b6 AF270000 		.4byte	.LASF128
 4338 07ba 0F       		.byte	0xf
 4339 07bb 1701     		.2byte	0x117
 4340 07bd 7E080000 		.4byte	0x87e
 4341 07c1 B001     		.2byte	0x1b0
 4342 07c3 11       		.uleb128 0x11
 4343 07c4 F4220000 		.4byte	.LASF129
 4344 07c8 0F       		.byte	0xf
 4345 07c9 1801     		.2byte	0x118
ARM GAS  C:\Users\adrie\AppData\Local\Temp\ccgB8szF.s 			page 78


 4346 07cb 8E080000 		.4byte	0x88e
 4347 07cf D001     		.2byte	0x1d0
 4348 07d1 12       		.uleb128 0x12
 4349 07d2 464D5200 		.ascii	"FMR\000"
 4350 07d6 0F       		.byte	0xf
 4351 07d7 1901     		.2byte	0x119
 4352 07d9 0E010000 		.4byte	0x10e
 4353 07dd 0002     		.2byte	0x200
 4354 07df 11       		.uleb128 0x11
 4355 07e0 210C0000 		.4byte	.LASF130
 4356 07e4 0F       		.byte	0xf
 4357 07e5 1A01     		.2byte	0x11a
 4358 07e7 0E010000 		.4byte	0x10e
 4359 07eb 0402     		.2byte	0x204
 4360 07ed 11       		.uleb128 0x11
 4361 07ee FE220000 		.4byte	.LASF131
 4362 07f2 0F       		.byte	0xf
 4363 07f3 1B01     		.2byte	0x11b
 4364 07f5 03010000 		.4byte	0x103
 4365 07f9 0802     		.2byte	0x208
 4366 07fb 11       		.uleb128 0x11
 4367 07fc 2A250000 		.4byte	.LASF132
 4368 0800 0F       		.byte	0xf
 4369 0801 1C01     		.2byte	0x11c
 4370 0803 0E010000 		.4byte	0x10e
 4371 0807 0C02     		.2byte	0x20c
 4372 0809 11       		.uleb128 0x11
 4373 080a 08230000 		.4byte	.LASF133
 4374 080e 0F       		.byte	0xf
 4375 080f 1D01     		.2byte	0x11d
 4376 0811 03010000 		.4byte	0x103
 4377 0815 1002     		.2byte	0x210
 4378 0817 11       		.uleb128 0x11
 4379 0818 5F1C0000 		.4byte	.LASF134
 4380 081c 0F       		.byte	0xf
 4381 081d 1E01     		.2byte	0x11e
 4382 081f 0E010000 		.4byte	0x10e
 4383 0823 1402     		.2byte	0x214
 4384 0825 11       		.uleb128 0x11
 4385 0826 12230000 		.4byte	.LASF135
 4386 082a 0F       		.byte	0xf
 4387 082b 1F01     		.2byte	0x11f
 4388 082d 03010000 		.4byte	0x103
 4389 0831 1802     		.2byte	0x218
 4390 0833 11       		.uleb128 0x11
 4391 0834 8A040000 		.4byte	.LASF136
 4392 0838 0F       		.byte	0xf
 4393 0839 2001     		.2byte	0x120
 4394 083b 0E010000 		.4byte	0x10e
 4395 083f 1C02     		.2byte	0x21c
 4396 0841 11       		.uleb128 0x11
 4397 0842 1C230000 		.4byte	.LASF137
 4398 0846 0F       		.byte	0xf
 4399 0847 2101     		.2byte	0x121
 4400 0849 47050000 		.4byte	0x547
 4401 084d 2002     		.2byte	0x220
 4402 084f 11       		.uleb128 0x11
ARM GAS  C:\Users\adrie\AppData\Local\Temp\ccgB8szF.s 			page 79


 4403 0850 87060000 		.4byte	.LASF138
 4404 0854 0F       		.byte	0xf
 4405 0855 2201     		.2byte	0x122
 4406 0857 9E080000 		.4byte	0x89e
 4407 085b 4002     		.2byte	0x240
 4408 085d 00       		.byte	0
 4409 085e 13       		.uleb128 0x13
 4410 085f 03010000 		.4byte	0x103
 4411 0863 6E080000 		.4byte	0x86e
 4412 0867 14       		.uleb128 0x14
 4413 0868 45000000 		.4byte	0x45
 4414 086c 57       		.byte	0x57
 4415 086d 00       		.byte	0
 4416 086e 13       		.uleb128 0x13
 4417 086f A9060000 		.4byte	0x6a9
 4418 0873 7E080000 		.4byte	0x87e
 4419 0877 14       		.uleb128 0x14
 4420 0878 45000000 		.4byte	0x45
 4421 087c 02       		.byte	0x2
 4422 087d 00       		.byte	0
 4423 087e 13       		.uleb128 0x13
 4424 087f ED060000 		.4byte	0x6ed
 4425 0883 8E080000 		.4byte	0x88e
 4426 0887 14       		.uleb128 0x14
 4427 0888 45000000 		.4byte	0x45
 4428 088c 01       		.byte	0x1
 4429 088d 00       		.byte	0
 4430 088e 13       		.uleb128 0x13
 4431 088f 03010000 		.4byte	0x103
 4432 0893 9E080000 		.4byte	0x89e
 4433 0897 14       		.uleb128 0x14
 4434 0898 45000000 		.4byte	0x45
 4435 089c 0B       		.byte	0xb
 4436 089d 00       		.byte	0
 4437 089e 13       		.uleb128 0x13
 4438 089f 1C070000 		.4byte	0x71c
 4439 08a3 AE080000 		.4byte	0x8ae
 4440 08a7 14       		.uleb128 0x14
 4441 08a8 45000000 		.4byte	0x45
 4442 08ac 1B       		.byte	0x1b
 4443 08ad 00       		.byte	0
 4444 08ae 1A       		.uleb128 0x1a
 4445 08af 3B0E0000 		.4byte	.LASF139
 4446 08b3 0F       		.byte	0xf
 4447 08b4 2301     		.2byte	0x123
 4448 08b6 28070000 		.4byte	0x728
 4449 08ba 19       		.uleb128 0x19
 4450 08bb 38       		.byte	0x38
 4451 08bc 0F       		.byte	0xf
 4452 08bd 3601     		.2byte	0x136
 4453 08bf 78090000 		.4byte	0x978
 4454 08c3 09       		.uleb128 0x9
 4455 08c4 435200   		.ascii	"CR\000"
 4456 08c7 0F       		.byte	0xf
 4457 08c8 3801     		.2byte	0x138
 4458 08ca 0E010000 		.4byte	0x10e
 4459 08ce 00       		.byte	0
ARM GAS  C:\Users\adrie\AppData\Local\Temp\ccgB8szF.s 			page 80


 4460 08cf 0A       		.uleb128 0xa
 4461 08d0 E9180000 		.4byte	.LASF140
 4462 08d4 0F       		.byte	0xf
 4463 08d5 3901     		.2byte	0x139
 4464 08d7 0E010000 		.4byte	0x10e
 4465 08db 04       		.byte	0x4
 4466 08dc 0A       		.uleb128 0xa
 4467 08dd 38230000 		.4byte	.LASF141
 4468 08e1 0F       		.byte	0xf
 4469 08e2 3A01     		.2byte	0x13a
 4470 08e4 0E010000 		.4byte	0x10e
 4471 08e8 08       		.byte	0x8
 4472 08e9 0A       		.uleb128 0xa
 4473 08ea 021F0000 		.4byte	.LASF142
 4474 08ee 0F       		.byte	0xf
 4475 08ef 3B01     		.2byte	0x13b
 4476 08f1 0E010000 		.4byte	0x10e
 4477 08f5 0C       		.byte	0xc
 4478 08f6 0A       		.uleb128 0xa
 4479 08f7 4B0B0000 		.4byte	.LASF143
 4480 08fb 0F       		.byte	0xf
 4481 08fc 3C01     		.2byte	0x13c
 4482 08fe 0E010000 		.4byte	0x10e
 4483 0902 10       		.byte	0x10
 4484 0903 0A       		.uleb128 0xa
 4485 0904 40230000 		.4byte	.LASF144
 4486 0908 0F       		.byte	0xf
 4487 0909 3D01     		.2byte	0x13d
 4488 090b 0E010000 		.4byte	0x10e
 4489 090f 14       		.byte	0x14
 4490 0910 0A       		.uleb128 0xa
 4491 0911 0A1F0000 		.4byte	.LASF145
 4492 0915 0F       		.byte	0xf
 4493 0916 3E01     		.2byte	0x13e
 4494 0918 0E010000 		.4byte	0x10e
 4495 091c 18       		.byte	0x18
 4496 091d 0A       		.uleb128 0xa
 4497 091e 520B0000 		.4byte	.LASF146
 4498 0922 0F       		.byte	0xf
 4499 0923 3F01     		.2byte	0x13f
 4500 0925 0E010000 		.4byte	0x10e
 4501 0929 1C       		.byte	0x1c
 4502 092a 0A       		.uleb128 0xa
 4503 092b A0230000 		.4byte	.LASF147
 4504 092f 0F       		.byte	0xf
 4505 0930 4001     		.2byte	0x140
 4506 0932 0E010000 		.4byte	0x10e
 4507 0936 20       		.byte	0x20
 4508 0937 0A       		.uleb128 0xa
 4509 0938 431F0000 		.4byte	.LASF148
 4510 093c 0F       		.byte	0xf
 4511 093d 4101     		.2byte	0x141
 4512 093f 0E010000 		.4byte	0x10e
 4513 0943 24       		.byte	0x24
 4514 0944 0A       		.uleb128 0xa
 4515 0945 D6270000 		.4byte	.LASF149
 4516 0949 0F       		.byte	0xf
ARM GAS  C:\Users\adrie\AppData\Local\Temp\ccgB8szF.s 			page 81


 4517 094a 4201     		.2byte	0x142
 4518 094c 0E010000 		.4byte	0x10e
 4519 0950 28       		.byte	0x28
 4520 0951 0A       		.uleb128 0xa
 4521 0952 89010000 		.4byte	.LASF150
 4522 0956 0F       		.byte	0xf
 4523 0957 4301     		.2byte	0x143
 4524 0959 0E010000 		.4byte	0x10e
 4525 095d 2C       		.byte	0x2c
 4526 095e 0A       		.uleb128 0xa
 4527 095f 8E010000 		.4byte	.LASF151
 4528 0963 0F       		.byte	0xf
 4529 0964 4401     		.2byte	0x144
 4530 0966 0E010000 		.4byte	0x10e
 4531 096a 30       		.byte	0x30
 4532 096b 09       		.uleb128 0x9
 4533 096c 535200   		.ascii	"SR\000"
 4534 096f 0F       		.byte	0xf
 4535 0970 4501     		.2byte	0x145
 4536 0972 0E010000 		.4byte	0x10e
 4537 0976 34       		.byte	0x34
 4538 0977 00       		.byte	0
 4539 0978 1A       		.uleb128 0x1a
 4540 0979 B1200000 		.4byte	.LASF152
 4541 097d 0F       		.byte	0xf
 4542 097e 4601     		.2byte	0x146
 4543 0980 BA080000 		.4byte	0x8ba
 4544 0984 19       		.uleb128 0x19
 4545 0985 2C       		.byte	0x2c
 4546 0986 0F       		.byte	0xf
 4547 0987 5801     		.2byte	0x158
 4548 0989 1A0A0000 		.4byte	0xa1a
 4549 098d 09       		.uleb128 0x9
 4550 098e 435200   		.ascii	"CR\000"
 4551 0991 0F       		.byte	0xf
 4552 0992 5A01     		.2byte	0x15a
 4553 0994 0E010000 		.4byte	0x10e
 4554 0998 00       		.byte	0
 4555 0999 09       		.uleb128 0x9
 4556 099a 535200   		.ascii	"SR\000"
 4557 099d 0F       		.byte	0xf
 4558 099e 5B01     		.2byte	0x15b
 4559 09a0 0E010000 		.4byte	0x10e
 4560 09a4 04       		.byte	0x4
 4561 09a5 0A       		.uleb128 0xa
 4562 09a6 AB0A0000 		.4byte	.LASF153
 4563 09aa 0F       		.byte	0xf
 4564 09ab 5C01     		.2byte	0x15c
 4565 09ad 0E010000 		.4byte	0x10e
 4566 09b1 08       		.byte	0x8
 4567 09b2 09       		.uleb128 0x9
 4568 09b3 49455200 		.ascii	"IER\000"
 4569 09b7 0F       		.byte	0xf
 4570 09b8 5D01     		.2byte	0x15d
 4571 09ba 0E010000 		.4byte	0x10e
 4572 09be 0C       		.byte	0xc
 4573 09bf 0A       		.uleb128 0xa
ARM GAS  C:\Users\adrie\AppData\Local\Temp\ccgB8szF.s 			page 82


 4574 09c0 E5230000 		.4byte	.LASF154
 4575 09c4 0F       		.byte	0xf
 4576 09c5 5E01     		.2byte	0x15e
 4577 09c7 0E010000 		.4byte	0x10e
 4578 09cb 10       		.byte	0x10
 4579 09cc 09       		.uleb128 0x9
 4580 09cd 49435200 		.ascii	"ICR\000"
 4581 09d1 0F       		.byte	0xf
 4582 09d2 5F01     		.2byte	0x15f
 4583 09d4 0E010000 		.4byte	0x10e
 4584 09d8 14       		.byte	0x14
 4585 09d9 0A       		.uleb128 0xa
 4586 09da 6A1D0000 		.4byte	.LASF155
 4587 09de 0F       		.byte	0xf
 4588 09df 6001     		.2byte	0x160
 4589 09e1 0E010000 		.4byte	0x10e
 4590 09e5 18       		.byte	0x18
 4591 09e6 0A       		.uleb128 0xa
 4592 09e7 3C2A0000 		.4byte	.LASF156
 4593 09eb 0F       		.byte	0xf
 4594 09ec 6101     		.2byte	0x161
 4595 09ee 0E010000 		.4byte	0x10e
 4596 09f2 1C       		.byte	0x1c
 4597 09f3 0A       		.uleb128 0xa
 4598 09f4 99140000 		.4byte	.LASF157
 4599 09f8 0F       		.byte	0xf
 4600 09f9 6201     		.2byte	0x162
 4601 09fb 0E010000 		.4byte	0x10e
 4602 09ff 20       		.byte	0x20
 4603 0a00 0A       		.uleb128 0xa
 4604 0a01 F11D0000 		.4byte	.LASF158
 4605 0a05 0F       		.byte	0xf
 4606 0a06 6301     		.2byte	0x163
 4607 0a08 0E010000 		.4byte	0x10e
 4608 0a0c 24       		.byte	0x24
 4609 0a0d 09       		.uleb128 0x9
 4610 0a0e 445200   		.ascii	"DR\000"
 4611 0a11 0F       		.byte	0xf
 4612 0a12 6401     		.2byte	0x164
 4613 0a14 0E010000 		.4byte	0x10e
 4614 0a18 28       		.byte	0x28
 4615 0a19 00       		.byte	0
 4616 0a1a 1A       		.uleb128 0x1a
 4617 0a1b 8F040000 		.4byte	.LASF159
 4618 0a1f 0F       		.byte	0xf
 4619 0a20 6501     		.2byte	0x165
 4620 0a22 84090000 		.4byte	0x984
 4621 0a26 19       		.uleb128 0x19
 4622 0a27 18       		.byte	0x18
 4623 0a28 0F       		.byte	0xf
 4624 0a29 6B01     		.2byte	0x16b
 4625 0a2b 7D0A0000 		.4byte	0xa7d
 4626 0a2f 09       		.uleb128 0x9
 4627 0a30 435200   		.ascii	"CR\000"
 4628 0a33 0F       		.byte	0xf
 4629 0a34 6D01     		.2byte	0x16d
 4630 0a36 0E010000 		.4byte	0x10e
ARM GAS  C:\Users\adrie\AppData\Local\Temp\ccgB8szF.s 			page 83


 4631 0a3a 00       		.byte	0
 4632 0a3b 0A       		.uleb128 0xa
 4633 0a3c 58240000 		.4byte	.LASF160
 4634 0a40 0F       		.byte	0xf
 4635 0a41 6E01     		.2byte	0x16e
 4636 0a43 0E010000 		.4byte	0x10e
 4637 0a47 04       		.byte	0x4
 4638 0a48 09       		.uleb128 0x9
 4639 0a49 50415200 		.ascii	"PAR\000"
 4640 0a4d 0F       		.byte	0xf
 4641 0a4e 6F01     		.2byte	0x16f
 4642 0a50 0E010000 		.4byte	0x10e
 4643 0a54 08       		.byte	0x8
 4644 0a55 0A       		.uleb128 0xa
 4645 0a56 5C040000 		.4byte	.LASF161
 4646 0a5a 0F       		.byte	0xf
 4647 0a5b 7001     		.2byte	0x170
 4648 0a5d 0E010000 		.4byte	0x10e
 4649 0a61 0C       		.byte	0xc
 4650 0a62 0A       		.uleb128 0xa
 4651 0a63 10090000 		.4byte	.LASF162
 4652 0a67 0F       		.byte	0xf
 4653 0a68 7101     		.2byte	0x171
 4654 0a6a 0E010000 		.4byte	0x10e
 4655 0a6e 10       		.byte	0x10
 4656 0a6f 09       		.uleb128 0x9
 4657 0a70 46435200 		.ascii	"FCR\000"
 4658 0a74 0F       		.byte	0xf
 4659 0a75 7201     		.2byte	0x172
 4660 0a77 0E010000 		.4byte	0x10e
 4661 0a7b 14       		.byte	0x14
 4662 0a7c 00       		.byte	0
 4663 0a7d 1A       		.uleb128 0x1a
 4664 0a7e 1A090000 		.4byte	.LASF163
 4665 0a82 0F       		.byte	0xf
 4666 0a83 7301     		.2byte	0x173
 4667 0a85 260A0000 		.4byte	0xa26
 4668 0a89 13       		.uleb128 0x13
 4669 0a8a 0E010000 		.4byte	0x10e
 4670 0a8e 990A0000 		.4byte	0xa99
 4671 0a92 14       		.uleb128 0x14
 4672 0a93 45000000 		.4byte	0x45
 4673 0a97 01       		.byte	0x1
 4674 0a98 00       		.byte	0
 4675 0a99 06       		.uleb128 0x6
 4676 0a9a 890A0000 		.4byte	0xa89
 4677 0a9e 13       		.uleb128 0x13
 4678 0a9f 0E010000 		.4byte	0x10e
 4679 0aa3 AE0A0000 		.4byte	0xaae
 4680 0aa7 14       		.uleb128 0x14
 4681 0aa8 45000000 		.4byte	0x45
 4682 0aac 03       		.byte	0x3
 4683 0aad 00       		.byte	0
 4684 0aae 06       		.uleb128 0x6
 4685 0aaf 9E0A0000 		.4byte	0xa9e
 4686 0ab3 19       		.uleb128 0x19
 4687 0ab4 28       		.byte	0x28
ARM GAS  C:\Users\adrie\AppData\Local\Temp\ccgB8szF.s 			page 84


 4688 0ab5 0F       		.byte	0xf
 4689 0ab6 3F02     		.2byte	0x23f
 4690 0ab8 3E0B0000 		.4byte	0xb3e
 4691 0abc 09       		.uleb128 0x9
 4692 0abd 43523100 		.ascii	"CR1\000"
 4693 0ac1 0F       		.byte	0xf
 4694 0ac2 4102     		.2byte	0x241
 4695 0ac4 0E010000 		.4byte	0x10e
 4696 0ac8 00       		.byte	0
 4697 0ac9 09       		.uleb128 0x9
 4698 0aca 43523200 		.ascii	"CR2\000"
 4699 0ace 0F       		.byte	0xf
 4700 0acf 4202     		.2byte	0x242
 4701 0ad1 0E010000 		.4byte	0x10e
 4702 0ad5 04       		.byte	0x4
 4703 0ad6 0A       		.uleb128 0xa
 4704 0ad7 432B0000 		.4byte	.LASF164
 4705 0adb 0F       		.byte	0xf
 4706 0adc 4302     		.2byte	0x243
 4707 0ade 0E010000 		.4byte	0x10e
 4708 0ae2 08       		.byte	0x8
 4709 0ae3 0A       		.uleb128 0xa
 4710 0ae4 482B0000 		.4byte	.LASF165
 4711 0ae8 0F       		.byte	0xf
 4712 0ae9 4402     		.2byte	0x244
 4713 0aeb 0E010000 		.4byte	0x10e
 4714 0aef 0C       		.byte	0xc
 4715 0af0 09       		.uleb128 0x9
 4716 0af1 445200   		.ascii	"DR\000"
 4717 0af4 0F       		.byte	0xf
 4718 0af5 4502     		.2byte	0x245
 4719 0af7 0E010000 		.4byte	0x10e
 4720 0afb 10       		.byte	0x10
 4721 0afc 09       		.uleb128 0x9
 4722 0afd 53523100 		.ascii	"SR1\000"
 4723 0b01 0F       		.byte	0xf
 4724 0b02 4602     		.2byte	0x246
 4725 0b04 0E010000 		.4byte	0x10e
 4726 0b08 14       		.byte	0x14
 4727 0b09 09       		.uleb128 0x9
 4728 0b0a 53523200 		.ascii	"SR2\000"
 4729 0b0e 0F       		.byte	0xf
 4730 0b0f 4702     		.2byte	0x247
 4731 0b11 0E010000 		.4byte	0x10e
 4732 0b15 18       		.byte	0x18
 4733 0b16 09       		.uleb128 0x9
 4734 0b17 43435200 		.ascii	"CCR\000"
 4735 0b1b 0F       		.byte	0xf
 4736 0b1c 4802     		.2byte	0x248
 4737 0b1e 0E010000 		.4byte	0x10e
 4738 0b22 1C       		.byte	0x1c
 4739 0b23 0A       		.uleb128 0xa
 4740 0b24 A9050000 		.4byte	.LASF166
 4741 0b28 0F       		.byte	0xf
 4742 0b29 4902     		.2byte	0x249
 4743 0b2b 0E010000 		.4byte	0x10e
 4744 0b2f 20       		.byte	0x20
ARM GAS  C:\Users\adrie\AppData\Local\Temp\ccgB8szF.s 			page 85


 4745 0b30 0A       		.uleb128 0xa
 4746 0b31 84290000 		.4byte	.LASF167
 4747 0b35 0F       		.byte	0xf
 4748 0b36 4A02     		.2byte	0x24a
 4749 0b38 0E010000 		.4byte	0x10e
 4750 0b3c 24       		.byte	0x24
 4751 0b3d 00       		.byte	0
 4752 0b3e 1A       		.uleb128 0x1a
 4753 0b3f 05190000 		.4byte	.LASF168
 4754 0b43 0F       		.byte	0xf
 4755 0b44 4B02     		.2byte	0x24b
 4756 0b46 B30A0000 		.4byte	0xab3
 4757 0b4a 19       		.uleb128 0x19
 4758 0b4b 84       		.byte	0x84
 4759 0b4c 0F       		.byte	0xf
 4760 0b4d BF02     		.2byte	0x2bf
 4761 0b4f 580C0000 		.4byte	0xc58
 4762 0b53 0A       		.uleb128 0xa
 4763 0b54 4D190000 		.4byte	.LASF169
 4764 0b58 0F       		.byte	0xf
 4765 0b59 C102     		.2byte	0x2c1
 4766 0b5b 0E010000 		.4byte	0x10e
 4767 0b5f 00       		.byte	0
 4768 0b60 0A       		.uleb128 0xa
 4769 0b61 9F250000 		.4byte	.LASF170
 4770 0b65 0F       		.byte	0xf
 4771 0b66 C202     		.2byte	0x2c2
 4772 0b68 0E010000 		.4byte	0x10e
 4773 0b6c 04       		.byte	0x4
 4774 0b6d 09       		.uleb128 0x9
 4775 0b6e 41524700 		.ascii	"ARG\000"
 4776 0b72 0F       		.byte	0xf
 4777 0b73 C302     		.2byte	0x2c3
 4778 0b75 0E010000 		.4byte	0x10e
 4779 0b79 08       		.byte	0x8
 4780 0b7a 09       		.uleb128 0x9
 4781 0b7b 434D4400 		.ascii	"CMD\000"
 4782 0b7f 0F       		.byte	0xf
 4783 0b80 C402     		.2byte	0x2c4
 4784 0b82 0E010000 		.4byte	0x10e
 4785 0b86 0C       		.byte	0xc
 4786 0b87 0A       		.uleb128 0xa
 4787 0b88 221D0000 		.4byte	.LASF171
 4788 0b8c 0F       		.byte	0xf
 4789 0b8d C502     		.2byte	0x2c5
 4790 0b8f 13010000 		.4byte	0x113
 4791 0b93 10       		.byte	0x10
 4792 0b94 0A       		.uleb128 0xa
 4793 0b95 B6060000 		.4byte	.LASF172
 4794 0b99 0F       		.byte	0xf
 4795 0b9a C602     		.2byte	0x2c6
 4796 0b9c 13010000 		.4byte	0x113
 4797 0ba0 14       		.byte	0x14
 4798 0ba1 0A       		.uleb128 0xa
 4799 0ba2 BC060000 		.4byte	.LASF173
 4800 0ba6 0F       		.byte	0xf
 4801 0ba7 C702     		.2byte	0x2c7
ARM GAS  C:\Users\adrie\AppData\Local\Temp\ccgB8szF.s 			page 86


 4802 0ba9 13010000 		.4byte	0x113
 4803 0bad 18       		.byte	0x18
 4804 0bae 0A       		.uleb128 0xa
 4805 0baf C2060000 		.4byte	.LASF174
 4806 0bb3 0F       		.byte	0xf
 4807 0bb4 C802     		.2byte	0x2c8
 4808 0bb6 13010000 		.4byte	0x113
 4809 0bba 1C       		.byte	0x1c
 4810 0bbb 0A       		.uleb128 0xa
 4811 0bbc C8060000 		.4byte	.LASF175
 4812 0bc0 0F       		.byte	0xf
 4813 0bc1 C902     		.2byte	0x2c9
 4814 0bc3 13010000 		.4byte	0x113
 4815 0bc7 20       		.byte	0x20
 4816 0bc8 0A       		.uleb128 0xa
 4817 0bc9 45160000 		.4byte	.LASF176
 4818 0bcd 0F       		.byte	0xf
 4819 0bce CA02     		.2byte	0x2ca
 4820 0bd0 0E010000 		.4byte	0x10e
 4821 0bd4 24       		.byte	0x24
 4822 0bd5 0A       		.uleb128 0xa
 4823 0bd6 F4170000 		.4byte	.LASF177
 4824 0bda 0F       		.byte	0xf
 4825 0bdb CB02     		.2byte	0x2cb
 4826 0bdd 0E010000 		.4byte	0x10e
 4827 0be1 28       		.byte	0x28
 4828 0be2 0A       		.uleb128 0xa
 4829 0be3 70290000 		.4byte	.LASF178
 4830 0be7 0F       		.byte	0xf
 4831 0be8 CC02     		.2byte	0x2cc
 4832 0bea 0E010000 		.4byte	0x10e
 4833 0bee 2C       		.byte	0x2c
 4834 0bef 0A       		.uleb128 0xa
 4835 0bf0 3C2B0000 		.4byte	.LASF179
 4836 0bf4 0F       		.byte	0xf
 4837 0bf5 CD02     		.2byte	0x2cd
 4838 0bf7 13010000 		.4byte	0x113
 4839 0bfb 30       		.byte	0x30
 4840 0bfc 09       		.uleb128 0x9
 4841 0bfd 53544100 		.ascii	"STA\000"
 4842 0c01 0F       		.byte	0xf
 4843 0c02 CE02     		.2byte	0x2ce
 4844 0c04 13010000 		.4byte	0x113
 4845 0c08 34       		.byte	0x34
 4846 0c09 09       		.uleb128 0x9
 4847 0c0a 49435200 		.ascii	"ICR\000"
 4848 0c0e 0F       		.byte	0xf
 4849 0c0f CF02     		.2byte	0x2cf
 4850 0c11 0E010000 		.4byte	0x10e
 4851 0c15 38       		.byte	0x38
 4852 0c16 0A       		.uleb128 0xa
 4853 0c17 DA010000 		.4byte	.LASF180
 4854 0c1b 0F       		.byte	0xf
 4855 0c1c D002     		.2byte	0x2d0
 4856 0c1e 0E010000 		.4byte	0x10e
 4857 0c22 3C       		.byte	0x3c
 4858 0c23 0A       		.uleb128 0xa
ARM GAS  C:\Users\adrie\AppData\Local\Temp\ccgB8szF.s 			page 87


 4859 0c24 EA220000 		.4byte	.LASF126
 4860 0c28 0F       		.byte	0xf
 4861 0c29 D102     		.2byte	0x2d1
 4862 0c2b 37050000 		.4byte	0x537
 4863 0c2f 40       		.byte	0x40
 4864 0c30 0A       		.uleb128 0xa
 4865 0c31 FC160000 		.4byte	.LASF181
 4866 0c35 0F       		.byte	0xf
 4867 0c36 D202     		.2byte	0x2d2
 4868 0c38 13010000 		.4byte	0x113
 4869 0c3c 48       		.byte	0x48
 4870 0c3d 0A       		.uleb128 0xa
 4871 0c3e F4220000 		.4byte	.LASF129
 4872 0c42 0F       		.byte	0xf
 4873 0c43 D302     		.2byte	0x2d3
 4874 0c45 580C0000 		.4byte	0xc58
 4875 0c49 4C       		.byte	0x4c
 4876 0c4a 0A       		.uleb128 0xa
 4877 0c4b 850A0000 		.4byte	.LASF182
 4878 0c4f 0F       		.byte	0xf
 4879 0c50 D402     		.2byte	0x2d4
 4880 0c52 0E010000 		.4byte	0x10e
 4881 0c56 80       		.byte	0x80
 4882 0c57 00       		.byte	0
 4883 0c58 13       		.uleb128 0x13
 4884 0c59 03010000 		.4byte	0x103
 4885 0c5d 680C0000 		.4byte	0xc68
 4886 0c61 14       		.uleb128 0x14
 4887 0c62 45000000 		.4byte	0x45
 4888 0c66 0C       		.byte	0xc
 4889 0c67 00       		.byte	0
 4890 0c68 1A       		.uleb128 0x1a
 4891 0c69 1E240000 		.4byte	.LASF183
 4892 0c6d 0F       		.byte	0xf
 4893 0c6e D502     		.2byte	0x2d5
 4894 0c70 4A0B0000 		.4byte	0xb4a
 4895 0c74 19       		.uleb128 0x19
 4896 0c75 24       		.byte	0x24
 4897 0c76 0F       		.byte	0xf
 4898 0c77 DB02     		.2byte	0x2db
 4899 0c79 F10C0000 		.4byte	0xcf1
 4900 0c7d 09       		.uleb128 0x9
 4901 0c7e 43523100 		.ascii	"CR1\000"
 4902 0c82 0F       		.byte	0xf
 4903 0c83 DD02     		.2byte	0x2dd
 4904 0c85 0E010000 		.4byte	0x10e
 4905 0c89 00       		.byte	0
 4906 0c8a 09       		.uleb128 0x9
 4907 0c8b 43523200 		.ascii	"CR2\000"
 4908 0c8f 0F       		.byte	0xf
 4909 0c90 DE02     		.2byte	0x2de
 4910 0c92 0E010000 		.4byte	0x10e
 4911 0c96 04       		.byte	0x4
 4912 0c97 09       		.uleb128 0x9
 4913 0c98 535200   		.ascii	"SR\000"
 4914 0c9b 0F       		.byte	0xf
 4915 0c9c DF02     		.2byte	0x2df
ARM GAS  C:\Users\adrie\AppData\Local\Temp\ccgB8szF.s 			page 88


 4916 0c9e 0E010000 		.4byte	0x10e
 4917 0ca2 08       		.byte	0x8
 4918 0ca3 09       		.uleb128 0x9
 4919 0ca4 445200   		.ascii	"DR\000"
 4920 0ca7 0F       		.byte	0xf
 4921 0ca8 E002     		.2byte	0x2e0
 4922 0caa 0E010000 		.4byte	0x10e
 4923 0cae 0C       		.byte	0xc
 4924 0caf 0A       		.uleb128 0xa
 4925 0cb0 7E080000 		.4byte	.LASF184
 4926 0cb4 0F       		.byte	0xf
 4927 0cb5 E102     		.2byte	0x2e1
 4928 0cb7 0E010000 		.4byte	0x10e
 4929 0cbb 10       		.byte	0x10
 4930 0cbc 0A       		.uleb128 0xa
 4931 0cbd AE0C0000 		.4byte	.LASF185
 4932 0cc1 0F       		.byte	0xf
 4933 0cc2 E202     		.2byte	0x2e2
 4934 0cc4 0E010000 		.4byte	0x10e
 4935 0cc8 14       		.byte	0x14
 4936 0cc9 0A       		.uleb128 0xa
 4937 0cca AC0B0000 		.4byte	.LASF186
 4938 0cce 0F       		.byte	0xf
 4939 0ccf E302     		.2byte	0x2e3
 4940 0cd1 0E010000 		.4byte	0x10e
 4941 0cd5 18       		.byte	0x18
 4942 0cd6 0A       		.uleb128 0xa
 4943 0cd7 A2260000 		.4byte	.LASF187
 4944 0cdb 0F       		.byte	0xf
 4945 0cdc E402     		.2byte	0x2e4
 4946 0cde 0E010000 		.4byte	0x10e
 4947 0ce2 1C       		.byte	0x1c
 4948 0ce3 0A       		.uleb128 0xa
 4949 0ce4 32080000 		.4byte	.LASF188
 4950 0ce8 0F       		.byte	0xf
 4951 0ce9 E502     		.2byte	0x2e5
 4952 0ceb 0E010000 		.4byte	0x10e
 4953 0cef 20       		.byte	0x20
 4954 0cf0 00       		.byte	0
 4955 0cf1 1A       		.uleb128 0x1a
 4956 0cf2 93240000 		.4byte	.LASF189
 4957 0cf6 0F       		.byte	0xf
 4958 0cf7 E602     		.2byte	0x2e6
 4959 0cf9 740C0000 		.4byte	0xc74
 4960 0cfd 19       		.uleb128 0x19
 4961 0cfe 1C       		.byte	0x1c
 4962 0cff 0F       		.byte	0xf
 4963 0d00 0903     		.2byte	0x309
 4964 0d02 600D0000 		.4byte	0xd60
 4965 0d06 09       		.uleb128 0x9
 4966 0d07 535200   		.ascii	"SR\000"
 4967 0d0a 0F       		.byte	0xf
 4968 0d0b 0B03     		.2byte	0x30b
 4969 0d0d 0E010000 		.4byte	0x10e
 4970 0d11 00       		.byte	0
 4971 0d12 09       		.uleb128 0x9
 4972 0d13 445200   		.ascii	"DR\000"
ARM GAS  C:\Users\adrie\AppData\Local\Temp\ccgB8szF.s 			page 89


 4973 0d16 0F       		.byte	0xf
 4974 0d17 0C03     		.2byte	0x30c
 4975 0d19 0E010000 		.4byte	0x10e
 4976 0d1d 04       		.byte	0x4
 4977 0d1e 09       		.uleb128 0x9
 4978 0d1f 42525200 		.ascii	"BRR\000"
 4979 0d23 0F       		.byte	0xf
 4980 0d24 0D03     		.2byte	0x30d
 4981 0d26 0E010000 		.4byte	0x10e
 4982 0d2a 08       		.byte	0x8
 4983 0d2b 09       		.uleb128 0x9
 4984 0d2c 43523100 		.ascii	"CR1\000"
 4985 0d30 0F       		.byte	0xf
 4986 0d31 0E03     		.2byte	0x30e
 4987 0d33 0E010000 		.4byte	0x10e
 4988 0d37 0C       		.byte	0xc
 4989 0d38 09       		.uleb128 0x9
 4990 0d39 43523200 		.ascii	"CR2\000"
 4991 0d3d 0F       		.byte	0xf
 4992 0d3e 0F03     		.2byte	0x30f
 4993 0d40 0E010000 		.4byte	0x10e
 4994 0d44 10       		.byte	0x10
 4995 0d45 09       		.uleb128 0x9
 4996 0d46 43523300 		.ascii	"CR3\000"
 4997 0d4a 0F       		.byte	0xf
 4998 0d4b 1003     		.2byte	0x310
 4999 0d4d 0E010000 		.4byte	0x10e
 5000 0d51 14       		.byte	0x14
 5001 0d52 0A       		.uleb128 0xa
 5002 0d53 47290000 		.4byte	.LASF190
 5003 0d57 0F       		.byte	0xf
 5004 0d58 1103     		.2byte	0x311
 5005 0d5a 0E010000 		.4byte	0x10e
 5006 0d5e 18       		.byte	0x18
 5007 0d5f 00       		.byte	0
 5008 0d60 1A       		.uleb128 0x1a
 5009 0d61 812A0000 		.4byte	.LASF191
 5010 0d65 0F       		.byte	0xf
 5011 0d66 1203     		.2byte	0x312
 5012 0d68 FD0C0000 		.4byte	0xcfd
 5013 0d6c 13       		.uleb128 0x13
 5014 0d6d 0E010000 		.4byte	0x10e
 5015 0d71 7C0D0000 		.4byte	0xd7c
 5016 0d75 14       		.uleb128 0x14
 5017 0d76 45000000 		.4byte	0x45
 5018 0d7a 0E       		.byte	0xe
 5019 0d7b 00       		.byte	0
 5020 0d7c 06       		.uleb128 0x6
 5021 0d7d 6C0D0000 		.4byte	0xd6c
 5022 0d81 04       		.uleb128 0x4
 5023 0d82 371C0000 		.4byte	.LASF192
 5024 0d86 10       		.byte	0x10
 5025 0d87 65       		.byte	0x65
 5026 0d88 C8030000 		.4byte	0x3c8
 5027 0d8c 04       		.uleb128 0x4
 5028 0d8d 110A0000 		.4byte	.LASF193
 5029 0d91 10       		.byte	0x10
ARM GAS  C:\Users\adrie\AppData\Local\Temp\ccgB8szF.s 			page 90


 5030 0d92 6D       		.byte	0x6d
 5031 0d93 18010000 		.4byte	0x118
 5032 0d97 07       		.uleb128 0x7
 5033 0d98 921B0000 		.4byte	.LASF194
 5034 0d9c 04       		.byte	0x4
 5035 0d9d 10       		.byte	0x10
 5036 0d9e 89       		.byte	0x89
 5037 0d9f B00D0000 		.4byte	0xdb0
 5038 0da3 18       		.uleb128 0x18
 5039 0da4 72313300 		.ascii	"r13\000"
 5040 0da8 10       		.byte	0x10
 5041 0da9 8A       		.byte	0x8a
 5042 0daa F10E0000 		.4byte	0xef1
 5043 0dae 00       		.byte	0
 5044 0daf 00       		.byte	0
 5045 0db0 07       		.uleb128 0x7
 5046 0db1 09000000 		.4byte	.LASF195
 5047 0db5 64       		.byte	0x64
 5048 0db6 11       		.byte	0x11
 5049 0db7 F4       		.byte	0xf4
 5050 0db8 F10E0000 		.4byte	0xef1
 5051 0dbc 18       		.uleb128 0x18
 5052 0dbd 73313600 		.ascii	"s16\000"
 5053 0dc1 11       		.byte	0x11
 5054 0dc2 F6       		.byte	0xf6
 5055 0dc3 810D0000 		.4byte	0xd81
 5056 0dc7 00       		.byte	0
 5057 0dc8 18       		.uleb128 0x18
 5058 0dc9 73313700 		.ascii	"s17\000"
 5059 0dcd 11       		.byte	0x11
 5060 0dce F7       		.byte	0xf7
 5061 0dcf 810D0000 		.4byte	0xd81
 5062 0dd3 04       		.byte	0x4
 5063 0dd4 18       		.uleb128 0x18
 5064 0dd5 73313800 		.ascii	"s18\000"
 5065 0dd9 11       		.byte	0x11
 5066 0dda F8       		.byte	0xf8
 5067 0ddb 810D0000 		.4byte	0xd81
 5068 0ddf 08       		.byte	0x8
 5069 0de0 18       		.uleb128 0x18
 5070 0de1 73313900 		.ascii	"s19\000"
 5071 0de5 11       		.byte	0x11
 5072 0de6 F9       		.byte	0xf9
 5073 0de7 810D0000 		.4byte	0xd81
 5074 0deb 0C       		.byte	0xc
 5075 0dec 18       		.uleb128 0x18
 5076 0ded 73323000 		.ascii	"s20\000"
 5077 0df1 11       		.byte	0x11
 5078 0df2 FA       		.byte	0xfa
 5079 0df3 810D0000 		.4byte	0xd81
 5080 0df7 10       		.byte	0x10
 5081 0df8 18       		.uleb128 0x18
 5082 0df9 73323100 		.ascii	"s21\000"
 5083 0dfd 11       		.byte	0x11
 5084 0dfe FB       		.byte	0xfb
 5085 0dff 810D0000 		.4byte	0xd81
 5086 0e03 14       		.byte	0x14
ARM GAS  C:\Users\adrie\AppData\Local\Temp\ccgB8szF.s 			page 91


 5087 0e04 18       		.uleb128 0x18
 5088 0e05 73323200 		.ascii	"s22\000"
 5089 0e09 11       		.byte	0x11
 5090 0e0a FC       		.byte	0xfc
 5091 0e0b 810D0000 		.4byte	0xd81
 5092 0e0f 18       		.byte	0x18
 5093 0e10 18       		.uleb128 0x18
 5094 0e11 73323300 		.ascii	"s23\000"
 5095 0e15 11       		.byte	0x11
 5096 0e16 FD       		.byte	0xfd
 5097 0e17 810D0000 		.4byte	0xd81
 5098 0e1b 1C       		.byte	0x1c
 5099 0e1c 18       		.uleb128 0x18
 5100 0e1d 73323400 		.ascii	"s24\000"
 5101 0e21 11       		.byte	0x11
 5102 0e22 FE       		.byte	0xfe
 5103 0e23 810D0000 		.4byte	0xd81
 5104 0e27 20       		.byte	0x20
 5105 0e28 18       		.uleb128 0x18
 5106 0e29 73323500 		.ascii	"s25\000"
 5107 0e2d 11       		.byte	0x11
 5108 0e2e FF       		.byte	0xff
 5109 0e2f 810D0000 		.4byte	0xd81
 5110 0e33 24       		.byte	0x24
 5111 0e34 09       		.uleb128 0x9
 5112 0e35 73323600 		.ascii	"s26\000"
 5113 0e39 11       		.byte	0x11
 5114 0e3a 0001     		.2byte	0x100
 5115 0e3c 810D0000 		.4byte	0xd81
 5116 0e40 28       		.byte	0x28
 5117 0e41 09       		.uleb128 0x9
 5118 0e42 73323700 		.ascii	"s27\000"
 5119 0e46 11       		.byte	0x11
 5120 0e47 0101     		.2byte	0x101
 5121 0e49 810D0000 		.4byte	0xd81
 5122 0e4d 2C       		.byte	0x2c
 5123 0e4e 09       		.uleb128 0x9
 5124 0e4f 73323800 		.ascii	"s28\000"
 5125 0e53 11       		.byte	0x11
 5126 0e54 0201     		.2byte	0x102
 5127 0e56 810D0000 		.4byte	0xd81
 5128 0e5a 30       		.byte	0x30
 5129 0e5b 09       		.uleb128 0x9
 5130 0e5c 73323900 		.ascii	"s29\000"
 5131 0e60 11       		.byte	0x11
 5132 0e61 0301     		.2byte	0x103
 5133 0e63 810D0000 		.4byte	0xd81
 5134 0e67 34       		.byte	0x34
 5135 0e68 09       		.uleb128 0x9
 5136 0e69 73333000 		.ascii	"s30\000"
 5137 0e6d 11       		.byte	0x11
 5138 0e6e 0401     		.2byte	0x104
 5139 0e70 810D0000 		.4byte	0xd81
 5140 0e74 38       		.byte	0x38
 5141 0e75 09       		.uleb128 0x9
 5142 0e76 73333100 		.ascii	"s31\000"
 5143 0e7a 11       		.byte	0x11
ARM GAS  C:\Users\adrie\AppData\Local\Temp\ccgB8szF.s 			page 92


 5144 0e7b 0501     		.2byte	0x105
 5145 0e7d 810D0000 		.4byte	0xd81
 5146 0e81 3C       		.byte	0x3c
 5147 0e82 09       		.uleb128 0x9
 5148 0e83 723400   		.ascii	"r4\000"
 5149 0e86 11       		.byte	0x11
 5150 0e87 0701     		.2byte	0x107
 5151 0e89 810D0000 		.4byte	0xd81
 5152 0e8d 40       		.byte	0x40
 5153 0e8e 09       		.uleb128 0x9
 5154 0e8f 723500   		.ascii	"r5\000"
 5155 0e92 11       		.byte	0x11
 5156 0e93 0801     		.2byte	0x108
 5157 0e95 810D0000 		.4byte	0xd81
 5158 0e99 44       		.byte	0x44
 5159 0e9a 09       		.uleb128 0x9
 5160 0e9b 723600   		.ascii	"r6\000"
 5161 0e9e 11       		.byte	0x11
 5162 0e9f 0901     		.2byte	0x109
 5163 0ea1 810D0000 		.4byte	0xd81
 5164 0ea5 48       		.byte	0x48
 5165 0ea6 09       		.uleb128 0x9
 5166 0ea7 723700   		.ascii	"r7\000"
 5167 0eaa 11       		.byte	0x11
 5168 0eab 0A01     		.2byte	0x10a
 5169 0ead 810D0000 		.4byte	0xd81
 5170 0eb1 4C       		.byte	0x4c
 5171 0eb2 09       		.uleb128 0x9
 5172 0eb3 723800   		.ascii	"r8\000"
 5173 0eb6 11       		.byte	0x11
 5174 0eb7 0B01     		.2byte	0x10b
 5175 0eb9 810D0000 		.4byte	0xd81
 5176 0ebd 50       		.byte	0x50
 5177 0ebe 09       		.uleb128 0x9
 5178 0ebf 723900   		.ascii	"r9\000"
 5179 0ec2 11       		.byte	0x11
 5180 0ec3 0C01     		.2byte	0x10c
 5181 0ec5 810D0000 		.4byte	0xd81
 5182 0ec9 54       		.byte	0x54
 5183 0eca 09       		.uleb128 0x9
 5184 0ecb 72313000 		.ascii	"r10\000"
 5185 0ecf 11       		.byte	0x11
 5186 0ed0 0D01     		.2byte	0x10d
 5187 0ed2 810D0000 		.4byte	0xd81
 5188 0ed6 58       		.byte	0x58
 5189 0ed7 09       		.uleb128 0x9
 5190 0ed8 72313100 		.ascii	"r11\000"
 5191 0edc 11       		.byte	0x11
 5192 0edd 0E01     		.2byte	0x10e
 5193 0edf 810D0000 		.4byte	0xd81
 5194 0ee3 5C       		.byte	0x5c
 5195 0ee4 09       		.uleb128 0x9
 5196 0ee5 6C7200   		.ascii	"lr\000"
 5197 0ee8 11       		.byte	0x11
 5198 0ee9 0F01     		.2byte	0x10f
 5199 0eeb 810D0000 		.4byte	0xd81
 5200 0eef 60       		.byte	0x60
ARM GAS  C:\Users\adrie\AppData\Local\Temp\ccgB8szF.s 			page 93


 5201 0ef0 00       		.byte	0
 5202 0ef1 0B       		.uleb128 0xb
 5203 0ef2 04       		.byte	0x4
 5204 0ef3 B00D0000 		.4byte	0xdb0
 5205 0ef7 17       		.uleb128 0x17
 5206 0ef8 10       		.byte	0x10
 5207 0ef9 12       		.byte	0x12
 5208 0efa 51       		.byte	0x51
 5209 0efb 300F0000 		.4byte	0xf30
 5210 0eff 08       		.uleb128 0x8
 5211 0f00 5E230000 		.4byte	.LASF196
 5212 0f04 12       		.byte	0x12
 5213 0f05 55       		.byte	0x55
 5214 0f06 A7010000 		.4byte	0x1a7
 5215 0f0a 00       		.byte	0
 5216 0f0b 08       		.uleb128 0x8
 5217 0f0c C91C0000 		.4byte	.LASF197
 5218 0f10 12       		.byte	0x12
 5219 0f11 59       		.byte	0x59
 5220 0f12 EB020000 		.4byte	0x2eb
 5221 0f16 04       		.byte	0x4
 5222 0f17 08       		.uleb128 0x8
 5223 0f18 580D0000 		.4byte	.LASF198
 5224 0f1c 12       		.byte	0x12
 5225 0f1d 5D       		.byte	0x5d
 5226 0f1e C8030000 		.4byte	0x3c8
 5227 0f22 08       		.byte	0x8
 5228 0f23 08       		.uleb128 0x8
 5229 0f24 220B0000 		.4byte	.LASF199
 5230 0f28 12       		.byte	0x12
 5231 0f29 61       		.byte	0x61
 5232 0f2a CD000000 		.4byte	0xcd
 5233 0f2e 0C       		.byte	0xc
 5234 0f2f 00       		.byte	0
 5235 0f30 04       		.uleb128 0x4
 5236 0f31 4E0E0000 		.4byte	.LASF200
 5237 0f35 12       		.byte	0x12
 5238 0f36 62       		.byte	0x62
 5239 0f37 F70E0000 		.4byte	0xef7
 5240 0f3b 1C       		.uleb128 0x1c
 5241 0f3c 0804     		.2byte	0x408
 5242 0f3e 12       		.byte	0x12
 5243 0f3f 67       		.byte	0x67
 5244 0f40 690F0000 		.4byte	0xf69
 5245 0f44 08       		.uleb128 0x8
 5246 0f45 300F0000 		.4byte	.LASF201
 5247 0f49 12       		.byte	0x12
 5248 0f4a 6B       		.byte	0x6b
 5249 0f4b 45000000 		.4byte	0x45
 5250 0f4f 00       		.byte	0
 5251 0f50 08       		.uleb128 0x8
 5252 0f51 2B170000 		.4byte	.LASF202
 5253 0f55 12       		.byte	0x12
 5254 0f56 6F       		.byte	0x6f
 5255 0f57 690F0000 		.4byte	0xf69
 5256 0f5b 04       		.byte	0x4
 5257 0f5c 08       		.uleb128 0x8
ARM GAS  C:\Users\adrie\AppData\Local\Temp\ccgB8szF.s 			page 94


 5258 0f5d 990A0000 		.4byte	.LASF203
 5259 0f61 12       		.byte	0x12
 5260 0f62 73       		.byte	0x73
 5261 0f63 6F0F0000 		.4byte	0xf6f
 5262 0f67 08       		.byte	0x8
 5263 0f68 00       		.byte	0
 5264 0f69 0B       		.uleb128 0xb
 5265 0f6a 04       		.byte	0x4
 5266 0f6b 300F0000 		.4byte	0xf30
 5267 0f6f 13       		.uleb128 0x13
 5268 0f70 300F0000 		.4byte	0xf30
 5269 0f74 7F0F0000 		.4byte	0xf7f
 5270 0f78 14       		.uleb128 0x14
 5271 0f79 45000000 		.4byte	0x45
 5272 0f7d 3F       		.byte	0x3f
 5273 0f7e 00       		.byte	0
 5274 0f7f 04       		.uleb128 0x4
 5275 0f80 15000000 		.4byte	.LASF204
 5276 0f84 12       		.byte	0x12
 5277 0f85 74       		.byte	0x74
 5278 0f86 3B0F0000 		.4byte	0xf3b
 5279 0f8a 17       		.uleb128 0x17
 5280 0f8b 04       		.byte	0x4
 5281 0f8c 13       		.byte	0x13
 5282 0f8d 38       		.byte	0x38
 5283 0f8e 9F0F0000 		.4byte	0xf9f
 5284 0f92 08       		.uleb128 0x8
 5285 0f93 2B240000 		.4byte	.LASF205
 5286 0f97 13       		.byte	0x13
 5287 0f98 3C       		.byte	0x3c
 5288 0f99 23010000 		.4byte	0x123
 5289 0f9d 00       		.byte	0
 5290 0f9e 00       		.byte	0
 5291 0f9f 04       		.uleb128 0x4
 5292 0fa0 2D290000 		.4byte	.LASF206
 5293 0fa4 13       		.byte	0x13
 5294 0fa5 3D       		.byte	0x3d
 5295 0fa6 8A0F0000 		.4byte	0xf8a
 5296 0faa 17       		.uleb128 0x17
 5297 0fab 18       		.byte	0x18
 5298 0fac 13       		.byte	0x13
 5299 0fad 48       		.byte	0x48
 5300 0fae ED0F0000 		.4byte	0xfed
 5301 0fb2 08       		.uleb128 0x8
 5302 0fb3 43080000 		.4byte	.LASF207
 5303 0fb7 13       		.byte	0x13
 5304 0fb8 49       		.byte	0x49
 5305 0fb9 23010000 		.4byte	0x123
 5306 0fbd 00       		.byte	0
 5307 0fbe 08       		.uleb128 0x8
 5308 0fbf 78010000 		.4byte	.LASF208
 5309 0fc3 13       		.byte	0x13
 5310 0fc4 4A       		.byte	0x4a
 5311 0fc5 23010000 		.4byte	0x123
 5312 0fc9 04       		.byte	0x4
 5313 0fca 08       		.uleb128 0x8
 5314 0fcb C01B0000 		.4byte	.LASF209
ARM GAS  C:\Users\adrie\AppData\Local\Temp\ccgB8szF.s 			page 95


 5315 0fcf 13       		.byte	0x13
 5316 0fd0 4B       		.byte	0x4b
 5317 0fd1 23010000 		.4byte	0x123
 5318 0fd5 08       		.byte	0x8
 5319 0fd6 18       		.uleb128 0x18
 5320 0fd7 6E00     		.ascii	"n\000"
 5321 0fd9 13       		.byte	0x13
 5322 0fda 4C       		.byte	0x4c
 5323 0fdb 9C010000 		.4byte	0x19c
 5324 0fdf 0C       		.byte	0xc
 5325 0fe0 08       		.uleb128 0x8
 5326 0fe1 561B0000 		.4byte	.LASF210
 5327 0fe5 13       		.byte	0x13
 5328 0fe6 4D       		.byte	0x4d
 5329 0fe7 2E010000 		.4byte	0x12e
 5330 0feb 10       		.byte	0x10
 5331 0fec 00       		.byte	0
 5332 0fed 04       		.uleb128 0x4
 5333 0fee 2E270000 		.4byte	.LASF211
 5334 0ff2 13       		.byte	0x13
 5335 0ff3 4E       		.byte	0x4e
 5336 0ff4 AA0F0000 		.4byte	0xfaa
 5337 0ff8 17       		.uleb128 0x17
 5338 0ff9 38       		.byte	0x38
 5339 0ffa 14       		.byte	0x14
 5340 0ffb 38       		.byte	0x38
 5341 0ffc 31100000 		.4byte	0x1031
 5342 1000 08       		.uleb128 0x8
 5343 1001 39070000 		.4byte	.LASF212
 5344 1005 14       		.byte	0x14
 5345 1006 39       		.byte	0x39
 5346 1007 9C010000 		.4byte	0x19c
 5347 100b 00       		.byte	0
 5348 100c 08       		.uleb128 0x8
 5349 100d F60B0000 		.4byte	.LASF213
 5350 1011 14       		.byte	0x14
 5351 1012 3A       		.byte	0x3a
 5352 1013 9C010000 		.4byte	0x19c
 5353 1017 04       		.byte	0x4
 5354 1018 08       		.uleb128 0x8
 5355 1019 85260000 		.4byte	.LASF214
 5356 101d 14       		.byte	0x14
 5357 101e 3B       		.byte	0x3b
 5358 101f ED0F0000 		.4byte	0xfed
 5359 1023 08       		.byte	0x8
 5360 1024 08       		.uleb128 0x8
 5361 1025 B6000000 		.4byte	.LASF215
 5362 1029 14       		.byte	0x14
 5363 102a 3D       		.byte	0x3d
 5364 102b ED0F0000 		.4byte	0xfed
 5365 102f 20       		.byte	0x20
 5366 1030 00       		.byte	0
 5367 1031 04       		.uleb128 0x4
 5368 1032 C2050000 		.4byte	.LASF216
 5369 1036 14       		.byte	0x14
 5370 1037 3F       		.byte	0x3f
 5371 1038 F80F0000 		.4byte	0xff8
ARM GAS  C:\Users\adrie\AppData\Local\Temp\ccgB8szF.s 			page 96


 5372 103c 1D       		.uleb128 0x1d
 5373 103d 04       		.byte	0x4
 5374 103e 0C       		.byte	0xc
 5375 103f FA       		.byte	0xfa
 5376 1040 99100000 		.4byte	0x1099
 5377 1044 1E       		.uleb128 0x1e
 5378 1045 8B120000 		.4byte	.LASF217
 5379 1049 0C       		.byte	0xc
 5380 104a 0101     		.2byte	0x101
 5381 104c 70010000 		.4byte	0x170
 5382 1050 1E       		.uleb128 0x1e
 5383 1051 07090000 		.4byte	.LASF218
 5384 1055 0C       		.byte	0xc
 5385 1056 0801     		.2byte	0x108
 5386 1058 70010000 		.4byte	0x170
 5387 105c 1E       		.uleb128 0x1e
 5388 105d BD200000 		.4byte	.LASF219
 5389 1061 0C       		.byte	0xc
 5390 1062 0F01     		.2byte	0x10f
 5391 1064 C8030000 		.4byte	0x3c8
 5392 1068 1E       		.uleb128 0x1e
 5393 1069 841B0000 		.4byte	.LASF220
 5394 106d 0C       		.byte	0xc
 5395 106e 1601     		.2byte	0x116
 5396 1070 99100000 		.4byte	0x1099
 5397 1074 1E       		.uleb128 0x1e
 5398 1075 00010000 		.4byte	.LASF221
 5399 1079 0C       		.byte	0xc
 5400 107a 1E01     		.2byte	0x11e
 5401 107c C4100000 		.4byte	0x10c4
 5402 1080 1E       		.uleb128 0x1e
 5403 1081 14210000 		.4byte	.LASF222
 5404 1085 0C       		.byte	0xc
 5405 1086 2701     		.2byte	0x127
 5406 1088 07110000 		.4byte	0x1107
 5407 108c 1E       		.uleb128 0x1e
 5408 108d D3240000 		.4byte	.LASF223
 5409 1091 0C       		.byte	0xc
 5410 1092 2F01     		.2byte	0x12f
 5411 1094 7B010000 		.4byte	0x17b
 5412 1098 00       		.byte	0
 5413 1099 0B       		.uleb128 0xb
 5414 109a 04       		.byte	0x4
 5415 109b E0020000 		.4byte	0x2e0
 5416 109f 07       		.uleb128 0x7
 5417 10a0 AB190000 		.4byte	.LASF224
 5418 10a4 0C       		.byte	0xc
 5419 10a5 15       		.byte	0x15
 5420 10a6 34       		.byte	0x34
 5421 10a7 C4100000 		.4byte	0x10c4
 5422 10ab 08       		.uleb128 0x8
 5423 10ac 7D260000 		.4byte	.LASF225
 5424 10b0 15       		.byte	0x15
 5425 10b1 35       		.byte	0x35
 5426 10b2 15030000 		.4byte	0x315
 5427 10b6 00       		.byte	0
 5428 10b7 08       		.uleb128 0x8
ARM GAS  C:\Users\adrie\AppData\Local\Temp\ccgB8szF.s 			page 97


 5429 10b8 B00A0000 		.4byte	.LASF226
 5430 10bc 15       		.byte	0x15
 5431 10bd 37       		.byte	0x37
 5432 10be 91010000 		.4byte	0x191
 5433 10c2 08       		.byte	0x8
 5434 10c3 00       		.byte	0
 5435 10c4 0B       		.uleb128 0xb
 5436 10c5 04       		.byte	0x4
 5437 10c6 9F100000 		.4byte	0x109f
 5438 10ca 07       		.uleb128 0x7
 5439 10cb C30C0000 		.4byte	.LASF227
 5440 10cf 14       		.byte	0x14
 5441 10d0 16       		.byte	0x16
 5442 10d1 39       		.byte	0x39
 5443 10d2 07110000 		.4byte	0x1107
 5444 10d6 08       		.uleb128 0x8
 5445 10d7 EA1A0000 		.4byte	.LASF228
 5446 10db 16       		.byte	0x16
 5447 10dc 3A       		.byte	0x3a
 5448 10dd 15030000 		.4byte	0x315
 5449 10e1 00       		.byte	0
 5450 10e2 08       		.uleb128 0x8
 5451 10e3 6D180000 		.4byte	.LASF229
 5452 10e7 16       		.byte	0x16
 5453 10e8 3C       		.byte	0x3c
 5454 10e9 EB020000 		.4byte	0x2eb
 5455 10ed 08       		.byte	0x8
 5456 10ee 08       		.uleb128 0x8
 5457 10ef B5010000 		.4byte	.LASF230
 5458 10f3 16       		.byte	0x16
 5459 10f4 3E       		.byte	0x3e
 5460 10f5 8D120000 		.4byte	0x128d
 5461 10f9 0C       		.byte	0xc
 5462 10fa 08       		.uleb128 0x8
 5463 10fb 8D090000 		.4byte	.LASF231
 5464 10ff 16       		.byte	0x16
 5465 1100 41       		.byte	0x41
 5466 1101 91010000 		.4byte	0x191
 5467 1105 10       		.byte	0x10
 5468 1106 00       		.byte	0
 5469 1107 0B       		.uleb128 0xb
 5470 1108 04       		.byte	0x4
 5471 1109 CA100000 		.4byte	0x10ca
 5472 110d 0B       		.uleb128 0xb
 5473 110e 04       		.byte	0x4
 5474 110f 1F110000 		.4byte	0x111f
 5475 1113 06       		.uleb128 0x6
 5476 1114 0D110000 		.4byte	0x110d
 5477 1118 02       		.uleb128 0x2
 5478 1119 01       		.byte	0x1
 5479 111a 08       		.byte	0x8
 5480 111b 491D0000 		.4byte	.LASF232
 5481 111f 05       		.uleb128 0x5
 5482 1120 18110000 		.4byte	0x1118
 5483 1124 0B       		.uleb128 0xb
 5484 1125 04       		.byte	0x4
 5485 1126 8C0D0000 		.4byte	0xd8c
ARM GAS  C:\Users\adrie\AppData\Local\Temp\ccgB8szF.s 			page 98


 5486 112a 0B       		.uleb128 0xb
 5487 112b 04       		.byte	0x4
 5488 112c CA030000 		.4byte	0x3ca
 5489 1130 13       		.uleb128 0x13
 5490 1131 8C0D0000 		.4byte	0xd8c
 5491 1135 40110000 		.4byte	0x1140
 5492 1139 14       		.uleb128 0x14
 5493 113a 45000000 		.4byte	0x45
 5494 113e 30       		.byte	0x30
 5495 113f 00       		.byte	0
 5496 1140 1F       		.uleb128 0x1f
 5497 1141 636800   		.ascii	"ch\000"
 5498 1144 0C       		.byte	0xc
 5499 1145 0902     		.2byte	0x209
 5500 1147 BF040000 		.4byte	0x4bf
 5501 114b 17       		.uleb128 0x17
 5502 114c 16       		.byte	0x16
 5503 114d 02       		.byte	0x2
 5504 114e 34       		.byte	0x34
 5505 114f 2C120000 		.4byte	0x122c
 5506 1153 08       		.uleb128 0x8
 5507 1154 B6260000 		.4byte	.LASF233
 5508 1158 02       		.byte	0x2
 5509 1159 35       		.byte	0x35
 5510 115a 2C120000 		.4byte	0x122c
 5511 115e 00       		.byte	0
 5512 115f 08       		.uleb128 0x8
 5513 1160 56290000 		.4byte	.LASF234
 5514 1164 02       		.byte	0x2
 5515 1165 36       		.byte	0x36
 5516 1166 CD000000 		.4byte	0xcd
 5517 116a 04       		.byte	0x4
 5518 116b 08       		.uleb128 0x8
 5519 116c 21030000 		.4byte	.LASF235
 5520 1170 02       		.byte	0x2
 5521 1171 37       		.byte	0x37
 5522 1172 CD000000 		.4byte	0xcd
 5523 1176 05       		.byte	0x5
 5524 1177 08       		.uleb128 0x8
 5525 1178 D2180000 		.4byte	.LASF236
 5526 117c 02       		.byte	0x2
 5527 117d 38       		.byte	0x38
 5528 117e E8000000 		.4byte	0xe8
 5529 1182 06       		.byte	0x6
 5530 1183 08       		.uleb128 0x8
 5531 1184 27000000 		.4byte	.LASF237
 5532 1188 02       		.byte	0x2
 5533 1189 39       		.byte	0x39
 5534 118a CD000000 		.4byte	0xcd
 5535 118e 08       		.byte	0x8
 5536 118f 08       		.uleb128 0x8
 5537 1190 D3160000 		.4byte	.LASF238
 5538 1194 02       		.byte	0x2
 5539 1195 3A       		.byte	0x3a
 5540 1196 CD000000 		.4byte	0xcd
 5541 119a 09       		.byte	0x9
 5542 119b 08       		.uleb128 0x8
ARM GAS  C:\Users\adrie\AppData\Local\Temp\ccgB8szF.s 			page 99


 5543 119c 76290000 		.4byte	.LASF239
 5544 11a0 02       		.byte	0x2
 5545 11a1 3B       		.byte	0x3b
 5546 11a2 CD000000 		.4byte	0xcd
 5547 11a6 0A       		.byte	0xa
 5548 11a7 08       		.uleb128 0x8
 5549 11a8 05270000 		.4byte	.LASF240
 5550 11ac 02       		.byte	0x2
 5551 11ad 3C       		.byte	0x3c
 5552 11ae CD000000 		.4byte	0xcd
 5553 11b2 0B       		.byte	0xb
 5554 11b3 08       		.uleb128 0x8
 5555 11b4 06060000 		.4byte	.LASF241
 5556 11b8 02       		.byte	0x2
 5557 11b9 3D       		.byte	0x3d
 5558 11ba CD000000 		.4byte	0xcd
 5559 11be 0C       		.byte	0xc
 5560 11bf 08       		.uleb128 0x8
 5561 11c0 200D0000 		.4byte	.LASF242
 5562 11c4 02       		.byte	0x2
 5563 11c5 3E       		.byte	0x3e
 5564 11c6 CD000000 		.4byte	0xcd
 5565 11ca 0D       		.byte	0xd
 5566 11cb 08       		.uleb128 0x8
 5567 11cc 57060000 		.4byte	.LASF243
 5568 11d0 02       		.byte	0x2
 5569 11d1 3F       		.byte	0x3f
 5570 11d2 CD000000 		.4byte	0xcd
 5571 11d6 0E       		.byte	0xe
 5572 11d7 08       		.uleb128 0x8
 5573 11d8 C70E0000 		.4byte	.LASF244
 5574 11dc 02       		.byte	0x2
 5575 11dd 40       		.byte	0x40
 5576 11de CD000000 		.4byte	0xcd
 5577 11e2 0F       		.byte	0xf
 5578 11e3 08       		.uleb128 0x8
 5579 11e4 4C040000 		.4byte	.LASF245
 5580 11e8 02       		.byte	0x2
 5581 11e9 41       		.byte	0x41
 5582 11ea CD000000 		.4byte	0xcd
 5583 11ee 10       		.byte	0x10
 5584 11ef 08       		.uleb128 0x8
 5585 11f0 9D090000 		.4byte	.LASF246
 5586 11f4 02       		.byte	0x2
 5587 11f5 43       		.byte	0x43
 5588 11f6 CD000000 		.4byte	0xcd
 5589 11fa 11       		.byte	0x11
 5590 11fb 08       		.uleb128 0x8
 5591 11fc EC020000 		.4byte	.LASF247
 5592 1200 02       		.byte	0x2
 5593 1201 44       		.byte	0x44
 5594 1202 CD000000 		.4byte	0xcd
 5595 1206 12       		.byte	0x12
 5596 1207 08       		.uleb128 0x8
 5597 1208 49180000 		.4byte	.LASF248
 5598 120c 02       		.byte	0x2
 5599 120d 45       		.byte	0x45
ARM GAS  C:\Users\adrie\AppData\Local\Temp\ccgB8szF.s 			page 100


 5600 120e CD000000 		.4byte	0xcd
 5601 1212 13       		.byte	0x13
 5602 1213 08       		.uleb128 0x8
 5603 1214 DB1F0000 		.4byte	.LASF249
 5604 1218 02       		.byte	0x2
 5605 1219 46       		.byte	0x46
 5606 121a CD000000 		.4byte	0xcd
 5607 121e 14       		.byte	0x14
 5608 121f 08       		.uleb128 0x8
 5609 1220 DE000000 		.4byte	.LASF250
 5610 1224 02       		.byte	0x2
 5611 1225 48       		.byte	0x48
 5612 1226 CD000000 		.4byte	0xcd
 5613 122a 15       		.byte	0x15
 5614 122b 00       		.byte	0
 5615 122c 13       		.uleb128 0x13
 5616 122d 18110000 		.4byte	0x1118
 5617 1231 3C120000 		.4byte	0x123c
 5618 1235 14       		.uleb128 0x14
 5619 1236 45000000 		.4byte	0x45
 5620 123a 03       		.byte	0x3
 5621 123b 00       		.byte	0
 5622 123c 04       		.uleb128 0x4
 5623 123d 66160000 		.4byte	.LASF251
 5624 1241 02       		.byte	0x2
 5625 1242 49       		.byte	0x49
 5626 1243 4B110000 		.4byte	0x114b
 5627 1247 05       		.uleb128 0x5
 5628 1248 3C120000 		.4byte	0x123c
 5629 124c 16       		.uleb128 0x16
 5630 124d 0E0C0000 		.4byte	.LASF252
 5631 1251 02       		.byte	0x2
 5632 1252 6E       		.byte	0x6e
 5633 1253 47120000 		.4byte	0x1247
 5634 1257 04       		.uleb128 0x4
 5635 1258 A3270000 		.4byte	.LASF253
 5636 125c 15       		.byte	0x15
 5637 125d 38       		.byte	0x38
 5638 125e 9F100000 		.4byte	0x109f
 5639 1262 17       		.uleb128 0x17
 5640 1263 0C       		.byte	0xc
 5641 1264 06       		.byte	0x6
 5642 1265 4B       		.byte	0x4b
 5643 1266 77120000 		.4byte	0x1277
 5644 126a 08       		.uleb128 0x8
 5645 126b 352A0000 		.4byte	.LASF254
 5646 126f 06       		.byte	0x6
 5647 1270 4C       		.byte	0x4c
 5648 1271 57120000 		.4byte	0x1257
 5649 1275 00       		.byte	0
 5650 1276 00       		.byte	0
 5651 1277 04       		.uleb128 0x4
 5652 1278 FA250000 		.4byte	.LASF255
 5653 127c 06       		.byte	0x6
 5654 127d 4D       		.byte	0x4d
 5655 127e 62120000 		.4byte	0x1262
 5656 1282 04       		.uleb128 0x4
ARM GAS  C:\Users\adrie\AppData\Local\Temp\ccgB8szF.s 			page 101


 5657 1283 A0220000 		.4byte	.LASF256
 5658 1287 16       		.byte	0x16
 5659 1288 34       		.byte	0x34
 5660 1289 CA100000 		.4byte	0x10ca
 5661 128d 0B       		.uleb128 0xb
 5662 128e 04       		.byte	0x4
 5663 128f 82120000 		.4byte	0x1282
 5664 1293 04       		.uleb128 0x4
 5665 1294 6B0C0000 		.4byte	.LASF257
 5666 1298 17       		.byte	0x17
 5667 1299 34       		.byte	0x34
 5668 129a 9E120000 		.4byte	0x129e
 5669 129e 07       		.uleb128 0x7
 5670 129f 412A0000 		.4byte	.LASF258
 5671 12a3 14       		.byte	0x14
 5672 12a4 17       		.byte	0x17
 5673 12a5 39       		.byte	0x39
 5674 12a6 E7120000 		.4byte	0x12e7
 5675 12aa 08       		.uleb128 0x8
 5676 12ab 6A020000 		.4byte	.LASF259
 5677 12af 17       		.byte	0x17
 5678 12b0 3A       		.byte	0x3a
 5679 12b1 E7120000 		.4byte	0x12e7
 5680 12b5 00       		.byte	0
 5681 12b6 08       		.uleb128 0x8
 5682 12b7 A8230000 		.4byte	.LASF260
 5683 12bb 17       		.byte	0x17
 5684 12bc 3D       		.byte	0x3d
 5685 12bd EB020000 		.4byte	0x2eb
 5686 12c1 04       		.byte	0x4
 5687 12c2 08       		.uleb128 0x8
 5688 12c3 A6030000 		.4byte	.LASF261
 5689 12c7 17       		.byte	0x17
 5690 12c8 3F       		.byte	0x3f
 5691 12c9 7B010000 		.4byte	0x17b
 5692 12cd 08       		.byte	0x8
 5693 12ce 08       		.uleb128 0x8
 5694 12cf DA240000 		.4byte	.LASF262
 5695 12d3 17       		.byte	0x17
 5696 12d4 41       		.byte	0x41
 5697 12d5 86010000 		.4byte	0x186
 5698 12d9 0C       		.byte	0xc
 5699 12da 08       		.uleb128 0x8
 5700 12db 1C0F0000 		.4byte	.LASF263
 5701 12df 17       		.byte	0x17
 5702 12e0 43       		.byte	0x43
 5703 12e1 86010000 		.4byte	0x186
 5704 12e5 10       		.byte	0x10
 5705 12e6 00       		.byte	0
 5706 12e7 0B       		.uleb128 0xb
 5707 12e8 04       		.byte	0x4
 5708 12e9 93120000 		.4byte	0x1293
 5709 12ed 07       		.uleb128 0x7
 5710 12ee 0D250000 		.4byte	.LASF264
 5711 12f2 04       		.byte	0x4
 5712 12f3 17       		.byte	0x17
 5713 12f4 4A       		.byte	0x4a
ARM GAS  C:\Users\adrie\AppData\Local\Temp\ccgB8szF.s 			page 102


 5714 12f5 06130000 		.4byte	0x1306
 5715 12f9 08       		.uleb128 0x8
 5716 12fa 5D240000 		.4byte	.LASF265
 5717 12fe 17       		.byte	0x17
 5718 12ff 4B       		.byte	0x4b
 5719 1300 E7120000 		.4byte	0x12e7
 5720 1304 00       		.byte	0
 5721 1305 00       		.byte	0
 5722 1306 04       		.uleb128 0x4
 5723 1307 04170000 		.4byte	.LASF266
 5724 130b 17       		.byte	0x17
 5725 130c 4E       		.byte	0x4e
 5726 130d ED120000 		.4byte	0x12ed
 5727 1311 04       		.uleb128 0x4
 5728 1312 5C0F0000 		.4byte	.LASF267
 5729 1316 18       		.byte	0x18
 5730 1317 3F       		.byte	0x3f
 5731 1318 1C130000 		.4byte	0x131c
 5732 131c 07       		.uleb128 0x7
 5733 131d 07130000 		.4byte	.LASF268
 5734 1321 24       		.byte	0x24
 5735 1322 18       		.byte	0x18
 5736 1323 4D       		.byte	0x4d
 5737 1324 89130000 		.4byte	0x1389
 5738 1328 08       		.uleb128 0x8
 5739 1329 D1050000 		.4byte	.LASF269
 5740 132d 18       		.byte	0x18
 5741 132e 4E       		.byte	0x4e
 5742 132f 15030000 		.4byte	0x315
 5743 1333 00       		.byte	0
 5744 1334 08       		.uleb128 0x8
 5745 1335 45220000 		.4byte	.LASF270
 5746 1339 18       		.byte	0x18
 5747 133a 4F       		.byte	0x4f
 5748 133b 3A000000 		.4byte	0x3a
 5749 133f 08       		.byte	0x8
 5750 1340 08       		.uleb128 0x8
 5751 1341 02140000 		.4byte	.LASF271
 5752 1345 18       		.byte	0x18
 5753 1346 50       		.byte	0x50
 5754 1347 AB130000 		.4byte	0x13ab
 5755 134b 0C       		.byte	0xc
 5756 134c 08       		.uleb128 0x8
 5757 134d F2040000 		.4byte	.LASF272
 5758 1351 18       		.byte	0x18
 5759 1352 51       		.byte	0x51
 5760 1353 AB130000 		.4byte	0x13ab
 5761 1357 10       		.byte	0x10
 5762 1358 08       		.uleb128 0x8
 5763 1359 E11C0000 		.4byte	.LASF273
 5764 135d 18       		.byte	0x18
 5765 135e 53       		.byte	0x53
 5766 135f AB130000 		.4byte	0x13ab
 5767 1363 14       		.byte	0x14
 5768 1364 08       		.uleb128 0x8
 5769 1365 8A1B0000 		.4byte	.LASF274
 5770 1369 18       		.byte	0x18
ARM GAS  C:\Users\adrie\AppData\Local\Temp\ccgB8szF.s 			page 103


 5771 136a 54       		.byte	0x54
 5772 136b AB130000 		.4byte	0x13ab
 5773 136f 18       		.byte	0x18
 5774 1370 08       		.uleb128 0x8
 5775 1371 0B210000 		.4byte	.LASF275
 5776 1375 18       		.byte	0x18
 5777 1376 55       		.byte	0x55
 5778 1377 89130000 		.4byte	0x1389
 5779 137b 1C       		.byte	0x1c
 5780 137c 08       		.uleb128 0x8
 5781 137d 031E0000 		.4byte	.LASF276
 5782 1381 18       		.byte	0x18
 5783 1382 56       		.byte	0x56
 5784 1383 C8030000 		.4byte	0x3c8
 5785 1387 20       		.byte	0x20
 5786 1388 00       		.byte	0
 5787 1389 04       		.uleb128 0x4
 5788 138a A9040000 		.4byte	.LASF277
 5789 138e 18       		.byte	0x18
 5790 138f 42       		.byte	0x42
 5791 1390 94130000 		.4byte	0x1394
 5792 1394 0B       		.uleb128 0xb
 5793 1395 04       		.byte	0x4
 5794 1396 9A130000 		.4byte	0x139a
 5795 139a 0D       		.uleb128 0xd
 5796 139b A5130000 		.4byte	0x13a5
 5797 139f 0E       		.uleb128 0xe
 5798 13a0 A5130000 		.4byte	0x13a5
 5799 13a4 00       		.byte	0
 5800 13a5 0B       		.uleb128 0xb
 5801 13a6 04       		.byte	0x4
 5802 13a7 11130000 		.4byte	0x1311
 5803 13ab 0B       		.uleb128 0xb
 5804 13ac 04       		.byte	0x4
 5805 13ad CD000000 		.4byte	0xcd
 5806 13b1 04       		.uleb128 0x4
 5807 13b2 11060000 		.4byte	.LASF278
 5808 13b6 18       		.byte	0x18
 5809 13b7 64       		.byte	0x64
 5810 13b8 11130000 		.4byte	0x1311
 5811 13bc 04       		.uleb128 0x4
 5812 13bd 8F2A0000 		.4byte	.LASF279
 5813 13c1 18       		.byte	0x18
 5814 13c2 71       		.byte	0x71
 5815 13c3 11130000 		.4byte	0x1311
 5816 13c7 20       		.uleb128 0x20
 5817 13c8 3A000000 		.4byte	0x3a
 5818 13cc E0130000 		.4byte	0x13e0
 5819 13d0 0E       		.uleb128 0xe
 5820 13d1 C8030000 		.4byte	0x3c8
 5821 13d5 0E       		.uleb128 0xe
 5822 13d6 E0130000 		.4byte	0x13e0
 5823 13da 0E       		.uleb128 0xe
 5824 13db 3A000000 		.4byte	0x3a
 5825 13df 00       		.byte	0
 5826 13e0 0B       		.uleb128 0xb
 5827 13e1 04       		.byte	0x4
ARM GAS  C:\Users\adrie\AppData\Local\Temp\ccgB8szF.s 			page 104


 5828 13e2 D8000000 		.4byte	0xd8
 5829 13e6 0B       		.uleb128 0xb
 5830 13e7 04       		.byte	0x4
 5831 13e8 C7130000 		.4byte	0x13c7
 5832 13ec 20       		.uleb128 0x20
 5833 13ed 3A000000 		.4byte	0x3a
 5834 13f1 05140000 		.4byte	0x1405
 5835 13f5 0E       		.uleb128 0xe
 5836 13f6 C8030000 		.4byte	0x3c8
 5837 13fa 0E       		.uleb128 0xe
 5838 13fb AB130000 		.4byte	0x13ab
 5839 13ff 0E       		.uleb128 0xe
 5840 1400 3A000000 		.4byte	0x3a
 5841 1404 00       		.byte	0
 5842 1405 0B       		.uleb128 0xb
 5843 1406 04       		.byte	0x4
 5844 1407 EC130000 		.4byte	0x13ec
 5845 140b 20       		.uleb128 0x20
 5846 140c 70010000 		.4byte	0x170
 5847 1410 1F140000 		.4byte	0x141f
 5848 1414 0E       		.uleb128 0xe
 5849 1415 C8030000 		.4byte	0x3c8
 5850 1419 0E       		.uleb128 0xe
 5851 141a CD000000 		.4byte	0xcd
 5852 141e 00       		.byte	0
 5853 141f 0B       		.uleb128 0xb
 5854 1420 04       		.byte	0x4
 5855 1421 0B140000 		.4byte	0x140b
 5856 1425 20       		.uleb128 0x20
 5857 1426 70010000 		.4byte	0x170
 5858 142a 34140000 		.4byte	0x1434
 5859 142e 0E       		.uleb128 0xe
 5860 142f C8030000 		.4byte	0x3c8
 5861 1433 00       		.byte	0
 5862 1434 0B       		.uleb128 0xb
 5863 1435 04       		.byte	0x4
 5864 1436 25140000 		.4byte	0x1425
 5865 143a 17       		.uleb128 0x17
 5866 143b 0C       		.byte	0xc
 5867 143c 19       		.byte	0x19
 5868 143d DA       		.byte	0xda
 5869 143e 7F140000 		.4byte	0x147f
 5870 1442 08       		.uleb128 0x8
 5871 1443 0B2A0000 		.4byte	.LASF280
 5872 1447 19       		.byte	0x19
 5873 1448 DB       		.byte	0xdb
 5874 1449 7F140000 		.4byte	0x147f
 5875 144d 00       		.byte	0
 5876 144e 08       		.uleb128 0x8
 5877 144f 66120000 		.4byte	.LASF281
 5878 1453 19       		.byte	0x19
 5879 1454 DC       		.byte	0xdc
 5880 1455 85140000 		.4byte	0x1485
 5881 1459 04       		.byte	0x4
 5882 145a 08       		.uleb128 0x8
 5883 145b D4040000 		.4byte	.LASF282
 5884 145f 19       		.byte	0x19
ARM GAS  C:\Users\adrie\AppData\Local\Temp\ccgB8szF.s 			page 105


 5885 1460 DD       		.byte	0xdd
 5886 1461 CD000000 		.4byte	0xcd
 5887 1465 08       		.byte	0x8
 5888 1466 08       		.uleb128 0x8
 5889 1467 96220000 		.4byte	.LASF283
 5890 146b 19       		.byte	0x19
 5891 146c DF       		.byte	0xdf
 5892 146d CD000000 		.4byte	0xcd
 5893 1471 09       		.byte	0x9
 5894 1472 08       		.uleb128 0x8
 5895 1473 DE030000 		.4byte	.LASF284
 5896 1477 19       		.byte	0x19
 5897 1478 E0       		.byte	0xe0
 5898 1479 CD000000 		.4byte	0xcd
 5899 147d 0A       		.byte	0xa
 5900 147e 00       		.byte	0
 5901 147f 0B       		.uleb128 0xb
 5902 1480 04       		.byte	0x4
 5903 1481 7D0A0000 		.4byte	0xa7d
 5904 1485 0B       		.uleb128 0xb
 5905 1486 04       		.byte	0x4
 5906 1487 0E010000 		.4byte	0x10e
 5907 148b 04       		.uleb128 0x4
 5908 148c 35150000 		.4byte	.LASF285
 5909 1490 19       		.byte	0x19
 5910 1491 E1       		.byte	0xe1
 5911 1492 3A140000 		.4byte	0x143a
 5912 1496 05       		.uleb128 0x5
 5913 1497 8B140000 		.4byte	0x148b
 5914 149b 13       		.uleb128 0x13
 5915 149c 96140000 		.4byte	0x1496
 5916 14a0 AB140000 		.4byte	0x14ab
 5917 14a4 14       		.uleb128 0x14
 5918 14a5 45000000 		.4byte	0x45
 5919 14a9 0F       		.byte	0xf
 5920 14aa 00       		.byte	0
 5921 14ab 05       		.uleb128 0x5
 5922 14ac 9B140000 		.4byte	0x149b
 5923 14b0 15       		.uleb128 0x15
 5924 14b1 EF1E0000 		.4byte	.LASF286
 5925 14b5 19       		.byte	0x19
 5926 14b6 BB01     		.2byte	0x1bb
 5927 14b8 AB140000 		.4byte	0x14ab
 5928 14bc 20       		.uleb128 0x20
 5929 14bd 70010000 		.4byte	0x170
 5930 14c1 D5140000 		.4byte	0x14d5
 5931 14c5 0E       		.uleb128 0xe
 5932 14c6 C8030000 		.4byte	0x3c8
 5933 14ca 0E       		.uleb128 0xe
 5934 14cb CD000000 		.4byte	0xcd
 5935 14cf 0E       		.uleb128 0xe
 5936 14d0 A7010000 		.4byte	0x1a7
 5937 14d4 00       		.byte	0
 5938 14d5 0B       		.uleb128 0xb
 5939 14d6 04       		.byte	0x4
 5940 14d7 BC140000 		.4byte	0x14bc
 5941 14db 20       		.uleb128 0x20
ARM GAS  C:\Users\adrie\AppData\Local\Temp\ccgB8szF.s 			page 106


 5942 14dc 70010000 		.4byte	0x170
 5943 14e0 EF140000 		.4byte	0x14ef
 5944 14e4 0E       		.uleb128 0xe
 5945 14e5 C8030000 		.4byte	0x3c8
 5946 14e9 0E       		.uleb128 0xe
 5947 14ea A7010000 		.4byte	0x1a7
 5948 14ee 00       		.byte	0
 5949 14ef 0B       		.uleb128 0xb
 5950 14f0 04       		.byte	0x4
 5951 14f1 DB140000 		.4byte	0x14db
 5952 14f5 20       		.uleb128 0x20
 5953 14f6 3A000000 		.4byte	0x3a
 5954 14fa 13150000 		.4byte	0x1513
 5955 14fe 0E       		.uleb128 0xe
 5956 14ff C8030000 		.4byte	0x3c8
 5957 1503 0E       		.uleb128 0xe
 5958 1504 E0130000 		.4byte	0x13e0
 5959 1508 0E       		.uleb128 0xe
 5960 1509 3A000000 		.4byte	0x3a
 5961 150d 0E       		.uleb128 0xe
 5962 150e A7010000 		.4byte	0x1a7
 5963 1512 00       		.byte	0
 5964 1513 0B       		.uleb128 0xb
 5965 1514 04       		.byte	0x4
 5966 1515 F5140000 		.4byte	0x14f5
 5967 1519 20       		.uleb128 0x20
 5968 151a 3A000000 		.4byte	0x3a
 5969 151e 37150000 		.4byte	0x1537
 5970 1522 0E       		.uleb128 0xe
 5971 1523 C8030000 		.4byte	0x3c8
 5972 1527 0E       		.uleb128 0xe
 5973 1528 AB130000 		.4byte	0x13ab
 5974 152c 0E       		.uleb128 0xe
 5975 152d 3A000000 		.4byte	0x3a
 5976 1531 0E       		.uleb128 0xe
 5977 1532 A7010000 		.4byte	0x1a7
 5978 1536 00       		.byte	0
 5979 1537 0B       		.uleb128 0xb
 5980 1538 04       		.byte	0x4
 5981 1539 19150000 		.4byte	0x1519
 5982 153d 21       		.uleb128 0x21
 5983 153e 07       		.byte	0x7
 5984 153f 01       		.byte	0x1
 5985 1540 6C000000 		.4byte	0x6c
 5986 1544 1A       		.byte	0x1a
 5987 1545 28       		.byte	0x28
 5988 1546 81150000 		.4byte	0x1581
 5989 154a 22       		.uleb128 0x22
 5990 154b 53010000 		.4byte	.LASF287
 5991 154f 00       		.byte	0
 5992 1550 22       		.uleb128 0x22
 5993 1551 15100000 		.4byte	.LASF288
 5994 1555 01       		.byte	0x1
 5995 1556 22       		.uleb128 0x22
 5996 1557 560C0000 		.4byte	.LASF289
 5997 155b 02       		.byte	0x2
 5998 155c 22       		.uleb128 0x22
ARM GAS  C:\Users\adrie\AppData\Local\Temp\ccgB8szF.s 			page 107


 5999 155d 54200000 		.4byte	.LASF290
 6000 1561 03       		.byte	0x3
 6001 1562 22       		.uleb128 0x22
 6002 1563 76280000 		.4byte	.LASF291
 6003 1567 04       		.byte	0x4
 6004 1568 22       		.uleb128 0x22
 6005 1569 9A080000 		.4byte	.LASF292
 6006 156d 05       		.byte	0x5
 6007 156e 22       		.uleb128 0x22
 6008 156f 6D220000 		.4byte	.LASF293
 6009 1573 06       		.byte	0x6
 6010 1574 22       		.uleb128 0x22
 6011 1575 F01B0000 		.4byte	.LASF294
 6012 1579 07       		.byte	0x7
 6013 157a 22       		.uleb128 0x22
 6014 157b 31280000 		.4byte	.LASF295
 6015 157f 08       		.byte	0x8
 6016 1580 00       		.byte	0
 6017 1581 04       		.uleb128 0x4
 6018 1582 581A0000 		.4byte	.LASF296
 6019 1586 1A       		.byte	0x1a
 6020 1587 32       		.byte	0x32
 6021 1588 3D150000 		.4byte	0x153d
 6022 158c 17       		.uleb128 0x17
 6023 158d 08       		.byte	0x8
 6024 158e 1A       		.byte	0x1a
 6025 158f 37       		.byte	0x37
 6026 1590 AD150000 		.4byte	0x15ad
 6027 1594 08       		.uleb128 0x8
 6028 1595 01080000 		.4byte	.LASF297
 6029 1599 1A       		.byte	0x1a
 6030 159a 38       		.byte	0x38
 6031 159b 03010000 		.4byte	0x103
 6032 159f 00       		.byte	0
 6033 15a0 08       		.uleb128 0x8
 6034 15a1 98210000 		.4byte	.LASF298
 6035 15a5 1A       		.byte	0x1a
 6036 15a6 39       		.byte	0x39
 6037 15a7 03010000 		.4byte	0x103
 6038 15ab 04       		.byte	0x4
 6039 15ac 00       		.byte	0
 6040 15ad 04       		.uleb128 0x4
 6041 15ae F7230000 		.4byte	.LASF299
 6042 15b2 1A       		.byte	0x1a
 6043 15b3 3A       		.byte	0x3a
 6044 15b4 8C150000 		.4byte	0x158c
 6045 15b8 20       		.uleb128 0x20
 6046 15b9 C7150000 		.4byte	0x15c7
 6047 15bd C7150000 		.4byte	0x15c7
 6048 15c1 0E       		.uleb128 0xe
 6049 15c2 C8030000 		.4byte	0x3c8
 6050 15c6 00       		.byte	0
 6051 15c7 02       		.uleb128 0x2
 6052 15c8 01       		.byte	0x1
 6053 15c9 02       		.byte	0x2
 6054 15ca 07010000 		.4byte	.LASF300
 6055 15ce 0B       		.uleb128 0xb
ARM GAS  C:\Users\adrie\AppData\Local\Temp\ccgB8szF.s 			page 108


 6056 15cf 04       		.byte	0x4
 6057 15d0 B8150000 		.4byte	0x15b8
 6058 15d4 20       		.uleb128 0x20
 6059 15d5 C7150000 		.4byte	0x15c7
 6060 15d9 F2150000 		.4byte	0x15f2
 6061 15dd 0E       		.uleb128 0xe
 6062 15de C8030000 		.4byte	0x3c8
 6063 15e2 0E       		.uleb128 0xe
 6064 15e3 03010000 		.4byte	0x103
 6065 15e7 0E       		.uleb128 0xe
 6066 15e8 AB130000 		.4byte	0x13ab
 6067 15ec 0E       		.uleb128 0xe
 6068 15ed 03010000 		.4byte	0x103
 6069 15f1 00       		.byte	0
 6070 15f2 0B       		.uleb128 0xb
 6071 15f3 04       		.byte	0x4
 6072 15f4 D4150000 		.4byte	0x15d4
 6073 15f8 20       		.uleb128 0x20
 6074 15f9 C7150000 		.4byte	0x15c7
 6075 15fd 16160000 		.4byte	0x1616
 6076 1601 0E       		.uleb128 0xe
 6077 1602 C8030000 		.4byte	0x3c8
 6078 1606 0E       		.uleb128 0xe
 6079 1607 03010000 		.4byte	0x103
 6080 160b 0E       		.uleb128 0xe
 6081 160c E0130000 		.4byte	0x13e0
 6082 1610 0E       		.uleb128 0xe
 6083 1611 03010000 		.4byte	0x103
 6084 1615 00       		.byte	0
 6085 1616 0B       		.uleb128 0xb
 6086 1617 04       		.byte	0x4
 6087 1618 F8150000 		.4byte	0x15f8
 6088 161c 20       		.uleb128 0x20
 6089 161d C7150000 		.4byte	0x15c7
 6090 1621 30160000 		.4byte	0x1630
 6091 1625 0E       		.uleb128 0xe
 6092 1626 C8030000 		.4byte	0x3c8
 6093 162a 0E       		.uleb128 0xe
 6094 162b 30160000 		.4byte	0x1630
 6095 162f 00       		.byte	0
 6096 1630 0B       		.uleb128 0xb
 6097 1631 04       		.byte	0x4
 6098 1632 AD150000 		.4byte	0x15ad
 6099 1636 0B       		.uleb128 0xb
 6100 1637 04       		.byte	0x4
 6101 1638 1C160000 		.4byte	0x161c
 6102 163c 13       		.uleb128 0x13
 6103 163d 03010000 		.4byte	0x103
 6104 1641 4C160000 		.4byte	0x164c
 6105 1645 14       		.uleb128 0x14
 6106 1646 45000000 		.4byte	0x45
 6107 164a 03       		.byte	0x3
 6108 164b 00       		.byte	0
 6109 164c 17       		.uleb128 0x17
 6110 164d 04       		.byte	0x4
 6111 164e 1B       		.byte	0x1b
 6112 164f B3       		.byte	0xb3
ARM GAS  C:\Users\adrie\AppData\Local\Temp\ccgB8szF.s 			page 109


 6113 1650 6D160000 		.4byte	0x166d
 6114 1654 18       		.uleb128 0x18
 6115 1655 73657400 		.ascii	"set\000"
 6116 1659 1B       		.byte	0x1b
 6117 165a B4       		.byte	0xb4
 6118 165b E8000000 		.4byte	0xe8
 6119 165f 00       		.byte	0
 6120 1660 08       		.uleb128 0x8
 6121 1661 1A0E0000 		.4byte	.LASF301
 6122 1665 1B       		.byte	0x1b
 6123 1666 B5       		.byte	0xb5
 6124 1667 E8000000 		.4byte	0xe8
 6125 166b 02       		.byte	0x2
 6126 166c 00       		.byte	0
 6127 166d 1D       		.uleb128 0x1d
 6128 166e 04       		.byte	0x4
 6129 166f 1B       		.byte	0x1b
 6130 1670 B1       		.byte	0xb1
 6131 1671 88160000 		.4byte	0x1688
 6132 1675 23       		.uleb128 0x23
 6133 1676 5700     		.ascii	"W\000"
 6134 1678 1B       		.byte	0x1b
 6135 1679 B2       		.byte	0xb2
 6136 167a 03010000 		.4byte	0x103
 6137 167e 23       		.uleb128 0x23
 6138 167f 4800     		.ascii	"H\000"
 6139 1681 1B       		.byte	0x1b
 6140 1682 B6       		.byte	0xb6
 6141 1683 4C160000 		.4byte	0x164c
 6142 1687 00       		.byte	0
 6143 1688 06       		.uleb128 0x6
 6144 1689 6D160000 		.4byte	0x166d
 6145 168d 17       		.uleb128 0x17
 6146 168e 2C       		.byte	0x2c
 6147 168f 1B       		.byte	0x1b
 6148 1690 A9       		.byte	0xa9
 6149 1691 1A170000 		.4byte	0x171a
 6150 1695 08       		.uleb128 0x8
 6151 1696 B8220000 		.4byte	.LASF302
 6152 169a 1B       		.byte	0x1b
 6153 169b AB       		.byte	0xab
 6154 169c 0E010000 		.4byte	0x10e
 6155 16a0 00       		.byte	0
 6156 16a1 08       		.uleb128 0x8
 6157 16a2 4F030000 		.4byte	.LASF303
 6158 16a6 1B       		.byte	0x1b
 6159 16a7 AC       		.byte	0xac
 6160 16a8 0E010000 		.4byte	0x10e
 6161 16ac 04       		.byte	0x4
 6162 16ad 08       		.uleb128 0x8
 6163 16ae D70F0000 		.4byte	.LASF304
 6164 16b2 1B       		.byte	0x1b
 6165 16b3 AD       		.byte	0xad
 6166 16b4 0E010000 		.4byte	0x10e
 6167 16b8 08       		.byte	0x8
 6168 16b9 08       		.uleb128 0x8
 6169 16ba D9210000 		.4byte	.LASF305
ARM GAS  C:\Users\adrie\AppData\Local\Temp\ccgB8szF.s 			page 110


 6170 16be 1B       		.byte	0x1b
 6171 16bf AE       		.byte	0xae
 6172 16c0 0E010000 		.4byte	0x10e
 6173 16c4 0C       		.byte	0xc
 6174 16c5 18       		.uleb128 0x18
 6175 16c6 49445200 		.ascii	"IDR\000"
 6176 16ca 1B       		.byte	0x1b
 6177 16cb AF       		.byte	0xaf
 6178 16cc 0E010000 		.4byte	0x10e
 6179 16d0 10       		.byte	0x10
 6180 16d1 18       		.uleb128 0x18
 6181 16d2 4F445200 		.ascii	"ODR\000"
 6182 16d6 1B       		.byte	0x1b
 6183 16d7 B0       		.byte	0xb0
 6184 16d8 0E010000 		.4byte	0x10e
 6185 16dc 14       		.byte	0x14
 6186 16dd 08       		.uleb128 0x8
 6187 16de 30150000 		.4byte	.LASF306
 6188 16e2 1B       		.byte	0x1b
 6189 16e3 B7       		.byte	0xb7
 6190 16e4 88160000 		.4byte	0x1688
 6191 16e8 18       		.byte	0x18
 6192 16e9 08       		.uleb128 0x8
 6193 16ea C51B0000 		.4byte	.LASF307
 6194 16ee 1B       		.byte	0x1b
 6195 16ef B8       		.byte	0xb8
 6196 16f0 0E010000 		.4byte	0x10e
 6197 16f4 1C       		.byte	0x1c
 6198 16f5 08       		.uleb128 0x8
 6199 16f6 CA1F0000 		.4byte	.LASF308
 6200 16fa 1B       		.byte	0x1b
 6201 16fb B9       		.byte	0xb9
 6202 16fc 0E010000 		.4byte	0x10e
 6203 1700 20       		.byte	0x20
 6204 1701 08       		.uleb128 0x8
 6205 1702 BE1F0000 		.4byte	.LASF309
 6206 1706 1B       		.byte	0x1b
 6207 1707 BA       		.byte	0xba
 6208 1708 0E010000 		.4byte	0x10e
 6209 170c 24       		.byte	0x24
 6210 170d 18       		.uleb128 0x18
 6211 170e 42525200 		.ascii	"BRR\000"
 6212 1712 1B       		.byte	0x1b
 6213 1713 BB       		.byte	0xbb
 6214 1714 0E010000 		.4byte	0x10e
 6215 1718 28       		.byte	0x28
 6216 1719 00       		.byte	0
 6217 171a 04       		.uleb128 0x4
 6218 171b 7E120000 		.4byte	.LASF310
 6219 171f 1B       		.byte	0x1b
 6220 1720 BC       		.byte	0xbc
 6221 1721 8D160000 		.4byte	0x168d
 6222 1725 17       		.uleb128 0x17
 6223 1726 1C       		.byte	0x1c
 6224 1727 1B       		.byte	0x1b
 6225 1728 C1       		.byte	0xc1
 6226 1729 82170000 		.4byte	0x1782
ARM GAS  C:\Users\adrie\AppData\Local\Temp\ccgB8szF.s 			page 111


 6227 172d 08       		.uleb128 0x8
 6228 172e 65260000 		.4byte	.LASF311
 6229 1732 1B       		.byte	0x1b
 6230 1733 C3       		.byte	0xc3
 6231 1734 03010000 		.4byte	0x103
 6232 1738 00       		.byte	0
 6233 1739 08       		.uleb128 0x8
 6234 173a 48030000 		.4byte	.LASF312
 6235 173e 1B       		.byte	0x1b
 6236 173f C5       		.byte	0xc5
 6237 1740 03010000 		.4byte	0x103
 6238 1744 04       		.byte	0x4
 6239 1745 08       		.uleb128 0x8
 6240 1746 5A020000 		.4byte	.LASF313
 6241 174a 1B       		.byte	0x1b
 6242 174b C7       		.byte	0xc7
 6243 174c 03010000 		.4byte	0x103
 6244 1750 08       		.byte	0x8
 6245 1751 08       		.uleb128 0x8
 6246 1752 6B250000 		.4byte	.LASF314
 6247 1756 1B       		.byte	0x1b
 6248 1757 C9       		.byte	0xc9
 6249 1758 03010000 		.4byte	0x103
 6250 175c 0C       		.byte	0xc
 6251 175d 18       		.uleb128 0x18
 6252 175e 6F647200 		.ascii	"odr\000"
 6253 1762 1B       		.byte	0x1b
 6254 1763 CB       		.byte	0xcb
 6255 1764 03010000 		.4byte	0x103
 6256 1768 10       		.byte	0x10
 6257 1769 08       		.uleb128 0x8
 6258 176a 79220000 		.4byte	.LASF315
 6259 176e 1B       		.byte	0x1b
 6260 176f CD       		.byte	0xcd
 6261 1770 03010000 		.4byte	0x103
 6262 1774 14       		.byte	0x14
 6263 1775 08       		.uleb128 0x8
 6264 1776 9D000000 		.4byte	.LASF316
 6265 177a 1B       		.byte	0x1b
 6266 177b CF       		.byte	0xcf
 6267 177c 03010000 		.4byte	0x103
 6268 1780 18       		.byte	0x18
 6269 1781 00       		.byte	0
 6270 1782 04       		.uleb128 0x4
 6271 1783 AA1E0000 		.4byte	.LASF317
 6272 1787 1B       		.byte	0x1b
 6273 1788 D0       		.byte	0xd0
 6274 1789 25170000 		.4byte	0x1725
 6275 178d 17       		.uleb128 0x17
 6276 178e FC       		.byte	0xfc
 6277 178f 1B       		.byte	0x1b
 6278 1790 D9       		.byte	0xd9
 6279 1791 02180000 		.4byte	0x1802
 6280 1795 08       		.uleb128 0x8
 6281 1796 25130000 		.4byte	.LASF318
 6282 179a 1B       		.byte	0x1b
 6283 179b DC       		.byte	0xdc
ARM GAS  C:\Users\adrie\AppData\Local\Temp\ccgB8szF.s 			page 112


 6284 179c 82170000 		.4byte	0x1782
 6285 17a0 00       		.byte	0
 6286 17a1 08       		.uleb128 0x8
 6287 17a2 1A030000 		.4byte	.LASF319
 6288 17a6 1B       		.byte	0x1b
 6289 17a7 E0       		.byte	0xe0
 6290 17a8 82170000 		.4byte	0x1782
 6291 17ac 1C       		.byte	0x1c
 6292 17ad 08       		.uleb128 0x8
 6293 17ae BC010000 		.4byte	.LASF320
 6294 17b2 1B       		.byte	0x1b
 6295 17b3 E4       		.byte	0xe4
 6296 17b4 82170000 		.4byte	0x1782
 6297 17b8 38       		.byte	0x38
 6298 17b9 08       		.uleb128 0x8
 6299 17ba 380F0000 		.4byte	.LASF321
 6300 17be 1B       		.byte	0x1b
 6301 17bf E8       		.byte	0xe8
 6302 17c0 82170000 		.4byte	0x1782
 6303 17c4 54       		.byte	0x54
 6304 17c5 08       		.uleb128 0x8
 6305 17c6 791D0000 		.4byte	.LASF322
 6306 17ca 1B       		.byte	0x1b
 6307 17cb EC       		.byte	0xec
 6308 17cc 82170000 		.4byte	0x1782
 6309 17d0 70       		.byte	0x70
 6310 17d1 08       		.uleb128 0x8
 6311 17d2 022B0000 		.4byte	.LASF323
 6312 17d6 1B       		.byte	0x1b
 6313 17d7 F0       		.byte	0xf0
 6314 17d8 82170000 		.4byte	0x1782
 6315 17dc 8C       		.byte	0x8c
 6316 17dd 08       		.uleb128 0x8
 6317 17de EF0C0000 		.4byte	.LASF324
 6318 17e2 1B       		.byte	0x1b
 6319 17e3 F4       		.byte	0xf4
 6320 17e4 82170000 		.4byte	0x1782
 6321 17e8 A8       		.byte	0xa8
 6322 17e9 08       		.uleb128 0x8
 6323 17ea 121B0000 		.4byte	.LASF325
 6324 17ee 1B       		.byte	0x1b
 6325 17ef F8       		.byte	0xf8
 6326 17f0 82170000 		.4byte	0x1782
 6327 17f4 C4       		.byte	0xc4
 6328 17f5 08       		.uleb128 0x8
 6329 17f6 3D280000 		.4byte	.LASF326
 6330 17fa 1B       		.byte	0x1b
 6331 17fb FC       		.byte	0xfc
 6332 17fc 82170000 		.4byte	0x1782
 6333 1800 E0       		.byte	0xe0
 6334 1801 00       		.byte	0
 6335 1802 04       		.uleb128 0x4
 6336 1803 2F0C0000 		.4byte	.LASF327
 6337 1807 1B       		.byte	0x1b
 6338 1808 FE       		.byte	0xfe
 6339 1809 8D170000 		.4byte	0x178d
 6340 180d 05       		.uleb128 0x5
ARM GAS  C:\Users\adrie\AppData\Local\Temp\ccgB8szF.s 			page 113


 6341 180e 02180000 		.4byte	0x1802
 6342 1812 1A       		.uleb128 0x1a
 6343 1813 191B0000 		.4byte	.LASF328
 6344 1817 1B       		.byte	0x1b
 6345 1818 1B01     		.2byte	0x11b
 6346 181a 1E180000 		.4byte	0x181e
 6347 181e 0B       		.uleb128 0xb
 6348 181f 04       		.byte	0x4
 6349 1820 1A170000 		.4byte	0x171a
 6350 1824 15       		.uleb128 0x15
 6351 1825 6F230000 		.4byte	.LASF329
 6352 1829 1B       		.byte	0x1b
 6353 182a DA01     		.2byte	0x1da
 6354 182c 0D180000 		.4byte	0x180d
 6355 1830 21       		.uleb128 0x21
 6356 1831 07       		.byte	0x7
 6357 1832 01       		.byte	0x1
 6358 1833 6C000000 		.4byte	0x6c
 6359 1837 1C       		.byte	0x1c
 6360 1838 46       		.byte	0x46
 6361 1839 62180000 		.4byte	0x1862
 6362 183d 22       		.uleb128 0x22
 6363 183e 59090000 		.4byte	.LASF330
 6364 1842 00       		.byte	0
 6365 1843 22       		.uleb128 0x22
 6366 1844 C1170000 		.4byte	.LASF331
 6367 1848 01       		.byte	0x1
 6368 1849 22       		.uleb128 0x22
 6369 184a EB250000 		.4byte	.LASF332
 6370 184e 02       		.byte	0x2
 6371 184f 22       		.uleb128 0x22
 6372 1850 10150000 		.4byte	.LASF333
 6373 1854 03       		.byte	0x3
 6374 1855 22       		.uleb128 0x22
 6375 1856 F7060000 		.4byte	.LASF334
 6376 185a 04       		.byte	0x4
 6377 185b 22       		.uleb128 0x22
 6378 185c B8140000 		.4byte	.LASF335
 6379 1860 05       		.byte	0x5
 6380 1861 00       		.byte	0
 6381 1862 04       		.uleb128 0x4
 6382 1863 B3040000 		.4byte	.LASF336
 6383 1867 1C       		.byte	0x1c
 6384 1868 4D       		.byte	0x4d
 6385 1869 30180000 		.4byte	0x1830
 6386 186d 1A       		.uleb128 0x1a
 6387 186e E8130000 		.4byte	.LASF337
 6388 1872 1D       		.byte	0x1d
 6389 1873 2701     		.2byte	0x127
 6390 1875 E8000000 		.4byte	0xe8
 6391 1879 1A       		.uleb128 0x1a
 6392 187a 7D200000 		.4byte	.LASF338
 6393 187e 1D       		.byte	0x1d
 6394 187f 2C01     		.2byte	0x12c
 6395 1881 E8000000 		.4byte	0xe8
 6396 1885 24       		.uleb128 0x24
 6397 1886 07       		.byte	0x7
ARM GAS  C:\Users\adrie\AppData\Local\Temp\ccgB8szF.s 			page 114


 6398 1887 01       		.byte	0x1
 6399 1888 6C000000 		.4byte	0x6c
 6400 188c 1D       		.byte	0x1d
 6401 188d 3301     		.2byte	0x133
 6402 188f A0180000 		.4byte	0x18a0
 6403 1893 22       		.uleb128 0x22
 6404 1894 A00F0000 		.4byte	.LASF339
 6405 1898 00       		.byte	0
 6406 1899 22       		.uleb128 0x22
 6407 189a 72020000 		.4byte	.LASF340
 6408 189e 01       		.byte	0x1
 6409 189f 00       		.byte	0
 6410 18a0 1A       		.uleb128 0x1a
 6411 18a1 5C270000 		.4byte	.LASF341
 6412 18a5 1D       		.byte	0x1d
 6413 18a6 3601     		.2byte	0x136
 6414 18a8 85180000 		.4byte	0x1885
 6415 18ac 1A       		.uleb128 0x1a
 6416 18ad 6F100000 		.4byte	.LASF342
 6417 18b1 1D       		.byte	0x1d
 6418 18b2 3B01     		.2byte	0x13b
 6419 18b4 B8180000 		.4byte	0x18b8
 6420 18b8 0C       		.uleb128 0xc
 6421 18b9 6F100000 		.4byte	.LASF342
 6422 18bd 38       		.byte	0x38
 6423 18be 1D       		.byte	0x1d
 6424 18bf 9F01     		.2byte	0x19f
 6425 18c1 48190000 		.4byte	0x1948
 6426 18c5 0A       		.uleb128 0xa
 6427 18c6 CC180000 		.4byte	.LASF343
 6428 18ca 1D       		.byte	0x1d
 6429 18cb A301     		.2byte	0x1a3
 6430 18cd 62180000 		.4byte	0x1862
 6431 18d1 00       		.byte	0
 6432 18d2 0A       		.uleb128 0xa
 6433 18d3 16200000 		.4byte	.LASF344
 6434 18d7 1D       		.byte	0x1d
 6435 18d8 A701     		.2byte	0x1a7
 6436 18da 6F1A0000 		.4byte	0x1a6f
 6437 18de 04       		.byte	0x4
 6438 18df 0A       		.uleb128 0xa
 6439 18e0 DF010000 		.4byte	.LASF345
 6440 18e4 1D       		.byte	0x1d
 6441 18e5 AB01     		.2byte	0x1ab
 6442 18e7 75190000 		.4byte	0x1975
 6443 18eb 08       		.byte	0x8
 6444 18ec 0A       		.uleb128 0xa
 6445 18ed 591C0000 		.4byte	.LASF346
 6446 18f1 1D       		.byte	0x1d
 6447 18f2 AF01     		.2byte	0x1af
 6448 18f4 3A000000 		.4byte	0x3a
 6449 18f8 0C       		.byte	0xc
 6450 18f9 0A       		.uleb128 0xa
 6451 18fa 9B230000 		.4byte	.LASF347
 6452 18fe 1D       		.byte	0x1d
 6453 18ff B301     		.2byte	0x1b3
 6454 1901 751A0000 		.4byte	0x1a75
ARM GAS  C:\Users\adrie\AppData\Local\Temp\ccgB8szF.s 			page 115


 6455 1905 10       		.byte	0x10
 6456 1906 0A       		.uleb128 0xa
 6457 1907 D8070000 		.4byte	.LASF348
 6458 190b 1D       		.byte	0x1d
 6459 190c B801     		.2byte	0x1b8
 6460 190e E0020000 		.4byte	0x2e0
 6461 1912 14       		.byte	0x14
 6462 1913 0A       		.uleb128 0xa
 6463 1914 E10D0000 		.4byte	.LASF349
 6464 1918 1D       		.byte	0x1d
 6465 1919 BE01     		.2byte	0x1be
 6466 191b 82120000 		.4byte	0x1282
 6467 191f 18       		.byte	0x18
 6468 1920 09       		.uleb128 0x9
 6469 1921 61646300 		.ascii	"adc\000"
 6470 1925 1D       		.byte	0x1d
 6471 1926 C701     		.2byte	0x1c7
 6472 1928 7B1A0000 		.4byte	0x1a7b
 6473 192c 2C       		.byte	0x2c
 6474 192d 0A       		.uleb128 0xa
 6475 192e C60B0000 		.4byte	.LASF350
 6476 1932 1D       		.byte	0x1d
 6477 1933 CB01     		.2byte	0x1cb
 6478 1935 811A0000 		.4byte	0x1a81
 6479 1939 30       		.byte	0x30
 6480 193a 0A       		.uleb128 0xa
 6481 193b 4E1B0000 		.4byte	.LASF351
 6482 193f 1D       		.byte	0x1d
 6483 1940 CF01     		.2byte	0x1cf
 6484 1942 03010000 		.4byte	0x103
 6485 1946 34       		.byte	0x34
 6486 1947 00       		.byte	0
 6487 1948 1A       		.uleb128 0x1a
 6488 1949 4B1F0000 		.4byte	.LASF352
 6489 194d 1D       		.byte	0x1d
 6490 194e 4501     		.2byte	0x145
 6491 1950 54190000 		.4byte	0x1954
 6492 1954 0B       		.uleb128 0xb
 6493 1955 04       		.byte	0x4
 6494 1956 5A190000 		.4byte	0x195a
 6495 195a 0D       		.uleb128 0xd
 6496 195b 6F190000 		.4byte	0x196f
 6497 195f 0E       		.uleb128 0xe
 6498 1960 6F190000 		.4byte	0x196f
 6499 1964 0E       		.uleb128 0xe
 6500 1965 75190000 		.4byte	0x1975
 6501 1969 0E       		.uleb128 0xe
 6502 196a 3A000000 		.4byte	0x3a
 6503 196e 00       		.byte	0
 6504 196f 0B       		.uleb128 0xb
 6505 1970 04       		.byte	0x4
 6506 1971 AC180000 		.4byte	0x18ac
 6507 1975 0B       		.uleb128 0xb
 6508 1976 04       		.byte	0x4
 6509 1977 6D180000 		.4byte	0x186d
 6510 197b 1A       		.uleb128 0x1a
 6511 197c AE180000 		.4byte	.LASF353
ARM GAS  C:\Users\adrie\AppData\Local\Temp\ccgB8szF.s 			page 116


 6512 1980 1D       		.byte	0x1d
 6513 1981 4E01     		.2byte	0x14e
 6514 1983 87190000 		.4byte	0x1987
 6515 1987 0B       		.uleb128 0xb
 6516 1988 04       		.byte	0x4
 6517 1989 8D190000 		.4byte	0x198d
 6518 198d 0D       		.uleb128 0xd
 6519 198e 9D190000 		.4byte	0x199d
 6520 1992 0E       		.uleb128 0xe
 6521 1993 6F190000 		.4byte	0x196f
 6522 1997 0E       		.uleb128 0xe
 6523 1998 A0180000 		.4byte	0x18a0
 6524 199c 00       		.byte	0
 6525 199d 19       		.uleb128 0x19
 6526 199e 28       		.byte	0x28
 6527 199f 1D       		.byte	0x1d
 6528 19a0 5801     		.2byte	0x158
 6529 19a2 361A0000 		.4byte	0x1a36
 6530 19a6 0A       		.uleb128 0xa
 6531 19a7 51260000 		.4byte	.LASF354
 6532 19ab 1D       		.byte	0x1d
 6533 19ac 5C01     		.2byte	0x15c
 6534 19ae C7150000 		.4byte	0x15c7
 6535 19b2 00       		.byte	0
 6536 19b3 0A       		.uleb128 0xa
 6537 19b4 D0120000 		.4byte	.LASF355
 6538 19b8 1D       		.byte	0x1d
 6539 19b9 6001     		.2byte	0x160
 6540 19bb 79180000 		.4byte	0x1879
 6541 19bf 02       		.byte	0x2
 6542 19c0 0A       		.uleb128 0xa
 6543 19c1 4D0A0000 		.4byte	.LASF356
 6544 19c5 1D       		.byte	0x1d
 6545 19c6 6401     		.2byte	0x164
 6546 19c8 48190000 		.4byte	0x1948
 6547 19cc 04       		.byte	0x4
 6548 19cd 0A       		.uleb128 0xa
 6549 19ce 68280000 		.4byte	.LASF357
 6550 19d2 1D       		.byte	0x1d
 6551 19d3 6801     		.2byte	0x168
 6552 19d5 7B190000 		.4byte	0x197b
 6553 19d9 08       		.byte	0x8
 6554 19da 09       		.uleb128 0x9
 6555 19db 63723100 		.ascii	"cr1\000"
 6556 19df 1D       		.byte	0x1d
 6557 19e0 6F01     		.2byte	0x16f
 6558 19e2 03010000 		.4byte	0x103
 6559 19e6 0C       		.byte	0xc
 6560 19e7 09       		.uleb128 0x9
 6561 19e8 63723200 		.ascii	"cr2\000"
 6562 19ec 1D       		.byte	0x1d
 6563 19ed 7601     		.2byte	0x176
 6564 19ef 03010000 		.4byte	0x103
 6565 19f3 10       		.byte	0x10
 6566 19f4 0A       		.uleb128 0xa
 6567 19f5 1C1A0000 		.4byte	.LASF358
 6568 19f9 1D       		.byte	0x1d
ARM GAS  C:\Users\adrie\AppData\Local\Temp\ccgB8szF.s 			page 117


 6569 19fa 7C01     		.2byte	0x17c
 6570 19fc 03010000 		.4byte	0x103
 6571 1a00 14       		.byte	0x14
 6572 1a01 0A       		.uleb128 0xa
 6573 1a02 221A0000 		.4byte	.LASF359
 6574 1a06 1D       		.byte	0x1d
 6575 1a07 8201     		.2byte	0x182
 6576 1a09 03010000 		.4byte	0x103
 6577 1a0d 18       		.byte	0x18
 6578 1a0e 0A       		.uleb128 0xa
 6579 1a0f 44010000 		.4byte	.LASF360
 6580 1a13 1D       		.byte	0x1d
 6581 1a14 8701     		.2byte	0x187
 6582 1a16 03010000 		.4byte	0x103
 6583 1a1a 1C       		.byte	0x1c
 6584 1a1b 0A       		.uleb128 0xa
 6585 1a1c C8290000 		.4byte	.LASF361
 6586 1a20 1D       		.byte	0x1d
 6587 1a21 8C01     		.2byte	0x18c
 6588 1a23 03010000 		.4byte	0x103
 6589 1a27 20       		.byte	0x20
 6590 1a28 0A       		.uleb128 0xa
 6591 1a29 CD290000 		.4byte	.LASF362
 6592 1a2d 1D       		.byte	0x1d
 6593 1a2e 9101     		.2byte	0x191
 6594 1a30 03010000 		.4byte	0x103
 6595 1a34 24       		.byte	0x24
 6596 1a35 00       		.byte	0
 6597 1a36 1A       		.uleb128 0x1a
 6598 1a37 1F060000 		.4byte	.LASF363
 6599 1a3b 1D       		.byte	0x1d
 6600 1a3c 9201     		.2byte	0x192
 6601 1a3e 9D190000 		.4byte	0x199d
 6602 1a42 05       		.uleb128 0x5
 6603 1a43 361A0000 		.4byte	0x1a36
 6604 1a47 19       		.uleb128 0x19
 6605 1a48 04       		.byte	0x4
 6606 1a49 1D       		.byte	0x1d
 6607 1a4a 9801     		.2byte	0x198
 6608 1a4c 5E1A0000 		.4byte	0x1a5e
 6609 1a50 0A       		.uleb128 0xa
 6610 1a51 122A0000 		.4byte	.LASF364
 6611 1a55 1D       		.byte	0x1d
 6612 1a56 9901     		.2byte	0x199
 6613 1a58 03010000 		.4byte	0x103
 6614 1a5c 00       		.byte	0
 6615 1a5d 00       		.byte	0
 6616 1a5e 1A       		.uleb128 0x1a
 6617 1a5f 87100000 		.4byte	.LASF365
 6618 1a63 1D       		.byte	0x1d
 6619 1a64 9A01     		.2byte	0x19a
 6620 1a66 471A0000 		.4byte	0x1a47
 6621 1a6a 05       		.uleb128 0x5
 6622 1a6b 5E1A0000 		.4byte	0x1a5e
 6623 1a6f 0B       		.uleb128 0xb
 6624 1a70 04       		.byte	0x4
 6625 1a71 6A1A0000 		.4byte	0x1a6a
ARM GAS  C:\Users\adrie\AppData\Local\Temp\ccgB8szF.s 			page 118


 6626 1a75 0B       		.uleb128 0xb
 6627 1a76 04       		.byte	0x4
 6628 1a77 421A0000 		.4byte	0x1a42
 6629 1a7b 0B       		.uleb128 0xb
 6630 1a7c 04       		.byte	0x4
 6631 1a7d 65060000 		.4byte	0x665
 6632 1a81 0B       		.uleb128 0xb
 6633 1a82 04       		.byte	0x4
 6634 1a83 96140000 		.4byte	0x1496
 6635 1a87 15       		.uleb128 0x15
 6636 1a88 371B0000 		.4byte	.LASF366
 6637 1a8c 1D       		.byte	0x1d
 6638 1a8d 1402     		.2byte	0x214
 6639 1a8f AC180000 		.4byte	0x18ac
 6640 1a93 15       		.uleb128 0x15
 6641 1a94 3D1B0000 		.4byte	.LASF367
 6642 1a98 1D       		.byte	0x1d
 6643 1a99 1802     		.2byte	0x218
 6644 1a9b AC180000 		.4byte	0x18ac
 6645 1a9f 15       		.uleb128 0x15
 6646 1aa0 431B0000 		.4byte	.LASF368
 6647 1aa4 1D       		.byte	0x1d
 6648 1aa5 1C02     		.2byte	0x21c
 6649 1aa7 AC180000 		.4byte	0x18ac
 6650 1aab 21       		.uleb128 0x21
 6651 1aac 07       		.byte	0x7
 6652 1aad 01       		.byte	0x1
 6653 1aae 6C000000 		.4byte	0x6c
 6654 1ab2 1E       		.byte	0x1e
 6655 1ab3 5F       		.byte	0x5f
 6656 1ab4 D71A0000 		.4byte	0x1ad7
 6657 1ab8 22       		.uleb128 0x22
 6658 1ab9 2B0B0000 		.4byte	.LASF369
 6659 1abd 00       		.byte	0
 6660 1abe 22       		.uleb128 0x22
 6661 1abf D5000000 		.4byte	.LASF370
 6662 1ac3 01       		.byte	0x1
 6663 1ac4 22       		.uleb128 0x22
 6664 1ac5 5C000000 		.4byte	.LASF371
 6665 1ac9 02       		.byte	0x2
 6666 1aca 22       		.uleb128 0x22
 6667 1acb 4D060000 		.4byte	.LASF372
 6668 1acf 03       		.byte	0x3
 6669 1ad0 22       		.uleb128 0x22
 6670 1ad1 180B0000 		.4byte	.LASF373
 6671 1ad5 04       		.byte	0x4
 6672 1ad6 00       		.byte	0
 6673 1ad7 04       		.uleb128 0x4
 6674 1ad8 7C060000 		.4byte	.LASF374
 6675 1adc 1E       		.byte	0x1e
 6676 1add 65       		.byte	0x65
 6677 1ade AB1A0000 		.4byte	0x1aab
 6678 1ae2 13       		.uleb128 0x13
 6679 1ae3 CD000000 		.4byte	0xcd
 6680 1ae7 F21A0000 		.4byte	0x1af2
 6681 1aeb 14       		.uleb128 0x14
 6682 1aec 45000000 		.4byte	0x45
ARM GAS  C:\Users\adrie\AppData\Local\Temp\ccgB8szF.s 			page 119


 6683 1af0 07       		.byte	0x7
 6684 1af1 00       		.byte	0
 6685 1af2 17       		.uleb128 0x17
 6686 1af3 08       		.byte	0x8
 6687 1af4 1F       		.byte	0x1f
 6688 1af5 F4       		.byte	0xf4
 6689 1af6 141B0000 		.4byte	0x1b14
 6690 1afa 18       		.uleb128 0x18
 6691 1afb 6D637200 		.ascii	"mcr\000"
 6692 1aff 1F       		.byte	0x1f
 6693 1b00 FA       		.byte	0xfa
 6694 1b01 03010000 		.4byte	0x103
 6695 1b05 00       		.byte	0
 6696 1b06 09       		.uleb128 0x9
 6697 1b07 62747200 		.ascii	"btr\000"
 6698 1b0b 1F       		.byte	0x1f
 6699 1b0c 0001     		.2byte	0x100
 6700 1b0e 03010000 		.4byte	0x103
 6701 1b12 04       		.byte	0x4
 6702 1b13 00       		.byte	0
 6703 1b14 1A       		.uleb128 0x1a
 6704 1b15 6F1D0000 		.4byte	.LASF375
 6705 1b19 1F       		.byte	0x1f
 6706 1b1a 0101     		.2byte	0x101
 6707 1b1c F21A0000 		.4byte	0x1af2
 6708 1b20 05       		.uleb128 0x5
 6709 1b21 141B0000 		.4byte	0x1b14
 6710 1b25 19       		.uleb128 0x19
 6711 1b26 30       		.byte	0x30
 6712 1b27 1F       		.byte	0x1f
 6713 1b28 0601     		.2byte	0x106
 6714 1b2a B11B0000 		.4byte	0x1bb1
 6715 1b2e 0A       		.uleb128 0xa
 6716 1b2f CC180000 		.4byte	.LASF343
 6717 1b33 1F       		.byte	0x1f
 6718 1b34 0A01     		.2byte	0x10a
 6719 1b36 D71A0000 		.4byte	0x1ad7
 6720 1b3a 00       		.byte	0
 6721 1b3b 0A       		.uleb128 0xa
 6722 1b3c 16200000 		.4byte	.LASF344
 6723 1b40 1F       		.byte	0x1f
 6724 1b41 0E01     		.2byte	0x10e
 6725 1b43 B11B0000 		.4byte	0x1bb1
 6726 1b47 04       		.byte	0x4
 6727 1b48 0A       		.uleb128 0xa
 6728 1b49 A30A0000 		.4byte	.LASF376
 6729 1b4d 1F       		.byte	0x1f
 6730 1b4e 1201     		.2byte	0x112
 6731 1b50 15030000 		.4byte	0x315
 6732 1b54 08       		.byte	0x8
 6733 1b55 0A       		.uleb128 0xa
 6734 1b56 56230000 		.4byte	.LASF377
 6735 1b5a 1F       		.byte	0x1f
 6736 1b5b 1601     		.2byte	0x116
 6737 1b5d 15030000 		.4byte	0x315
 6738 1b61 10       		.byte	0x10
 6739 1b62 0A       		.uleb128 0xa
ARM GAS  C:\Users\adrie\AppData\Local\Temp\ccgB8szF.s 			page 120


 6740 1b63 2A1D0000 		.4byte	.LASF378
 6741 1b67 1F       		.byte	0x1f
 6742 1b68 2301     		.2byte	0x123
 6743 1b6a 06130000 		.4byte	0x1306
 6744 1b6e 18       		.byte	0x18
 6745 1b6f 0A       		.uleb128 0xa
 6746 1b70 CC0C0000 		.4byte	.LASF379
 6747 1b74 1F       		.byte	0x1f
 6748 1b75 2A01     		.2byte	0x12a
 6749 1b77 06130000 		.4byte	0x1306
 6750 1b7b 1C       		.byte	0x1c
 6751 1b7c 0A       		.uleb128 0xa
 6752 1b7d C4120000 		.4byte	.LASF380
 6753 1b81 1F       		.byte	0x1f
 6754 1b82 3001     		.2byte	0x130
 6755 1b84 06130000 		.4byte	0x1306
 6756 1b88 20       		.byte	0x20
 6757 1b89 0A       		.uleb128 0xa
 6758 1b8a BB030000 		.4byte	.LASF381
 6759 1b8e 1F       		.byte	0x1f
 6760 1b8f 3501     		.2byte	0x135
 6761 1b91 06130000 		.4byte	0x1306
 6762 1b95 24       		.byte	0x24
 6763 1b96 0A       		.uleb128 0xa
 6764 1b97 2E0A0000 		.4byte	.LASF382
 6765 1b9b 1F       		.byte	0x1f
 6766 1b9c 3901     		.2byte	0x139
 6767 1b9e 06130000 		.4byte	0x1306
 6768 1ba2 28       		.byte	0x28
 6769 1ba3 09       		.uleb128 0x9
 6770 1ba4 63616E00 		.ascii	"can\000"
 6771 1ba8 1F       		.byte	0x1f
 6772 1ba9 3F01     		.2byte	0x13f
 6773 1bab B71B0000 		.4byte	0x1bb7
 6774 1baf 2C       		.byte	0x2c
 6775 1bb0 00       		.byte	0
 6776 1bb1 0B       		.uleb128 0xb
 6777 1bb2 04       		.byte	0x4
 6778 1bb3 201B0000 		.4byte	0x1b20
 6779 1bb7 0B       		.uleb128 0xb
 6780 1bb8 04       		.byte	0x4
 6781 1bb9 AE080000 		.4byte	0x8ae
 6782 1bbd 1A       		.uleb128 0x1a
 6783 1bbe 42040000 		.4byte	.LASF383
 6784 1bc2 1F       		.byte	0x1f
 6785 1bc3 4001     		.2byte	0x140
 6786 1bc5 251B0000 		.4byte	0x1b25
 6787 1bc9 15       		.uleb128 0x15
 6788 1bca 24250000 		.4byte	.LASF384
 6789 1bce 1F       		.byte	0x1f
 6790 1bcf 4B01     		.2byte	0x14b
 6791 1bd1 BD1B0000 		.4byte	0x1bbd
 6792 1bd5 21       		.uleb128 0x21
 6793 1bd6 07       		.byte	0x7
 6794 1bd7 01       		.byte	0x1
 6795 1bd8 6C000000 		.4byte	0x6c
 6796 1bdc 20       		.byte	0x20
ARM GAS  C:\Users\adrie\AppData\Local\Temp\ccgB8szF.s 			page 121


 6797 1bdd 46       		.byte	0x46
 6798 1bde 071C0000 		.4byte	0x1c07
 6799 1be2 22       		.uleb128 0x22
 6800 1be3 72200000 		.4byte	.LASF385
 6801 1be7 00       		.byte	0
 6802 1be8 22       		.uleb128 0x22
 6803 1be9 90260000 		.4byte	.LASF386
 6804 1bed 01       		.byte	0x1
 6805 1bee 22       		.uleb128 0x22
 6806 1bef DF0F0000 		.4byte	.LASF387
 6807 1bf3 02       		.byte	0x2
 6808 1bf4 22       		.uleb128 0x22
 6809 1bf5 C1180000 		.4byte	.LASF388
 6810 1bf9 03       		.byte	0x3
 6811 1bfa 22       		.uleb128 0x22
 6812 1bfb F21F0000 		.4byte	.LASF389
 6813 1bff 04       		.byte	0x4
 6814 1c00 22       		.uleb128 0x22
 6815 1c01 20120000 		.4byte	.LASF390
 6816 1c05 05       		.byte	0x5
 6817 1c06 00       		.byte	0
 6818 1c07 04       		.uleb128 0x4
 6819 1c08 B11C0000 		.4byte	.LASF391
 6820 1c0c 20       		.byte	0x20
 6821 1c0d 4D       		.byte	0x4d
 6822 1c0e D51B0000 		.4byte	0x1bd5
 6823 1c12 17       		.uleb128 0x17
 6824 1c13 1C       		.byte	0x1c
 6825 1c14 21       		.byte	0x21
 6826 1c15 F9       		.byte	0xf9
 6827 1c16 751C0000 		.4byte	0x1c75
 6828 1c1a 18       		.uleb128 0x18
 6829 1c1b 64616300 		.ascii	"dac\000"
 6830 1c1f 21       		.byte	0x21
 6831 1c20 FD       		.byte	0xfd
 6832 1c21 751C0000 		.4byte	0x1c75
 6833 1c25 00       		.byte	0
 6834 1c26 0A       		.uleb128 0xa
 6835 1c27 DD1B0000 		.4byte	.LASF392
 6836 1c2b 21       		.byte	0x21
 6837 1c2c 0101     		.2byte	0x101
 6838 1c2e 03010000 		.4byte	0x103
 6839 1c32 04       		.byte	0x4
 6840 1c33 0A       		.uleb128 0xa
 6841 1c34 DF070000 		.4byte	.LASF393
 6842 1c38 21       		.byte	0x21
 6843 1c39 0501     		.2byte	0x105
 6844 1c3b 03010000 		.4byte	0x103
 6845 1c3f 08       		.byte	0x8
 6846 1c40 0A       		.uleb128 0xa
 6847 1c41 FD010000 		.4byte	.LASF394
 6848 1c45 21       		.byte	0x21
 6849 1c46 0901     		.2byte	0x109
 6850 1c48 03010000 		.4byte	0x103
 6851 1c4c 0C       		.byte	0xc
 6852 1c4d 09       		.uleb128 0x9
 6853 1c4e 646D6100 		.ascii	"dma\000"
ARM GAS  C:\Users\adrie\AppData\Local\Temp\ccgB8szF.s 			page 122


 6854 1c52 21       		.byte	0x21
 6855 1c53 0D01     		.2byte	0x10d
 6856 1c55 811A0000 		.4byte	0x1a81
 6857 1c59 10       		.byte	0x10
 6858 1c5a 0A       		.uleb128 0xa
 6859 1c5b 4E1B0000 		.4byte	.LASF351
 6860 1c5f 21       		.byte	0x21
 6861 1c60 1101     		.2byte	0x111
 6862 1c62 03010000 		.4byte	0x103
 6863 1c66 14       		.byte	0x14
 6864 1c67 0A       		.uleb128 0xa
 6865 1c68 F21A0000 		.4byte	.LASF395
 6866 1c6c 21       		.byte	0x21
 6867 1c6d 1501     		.2byte	0x115
 6868 1c6f 03010000 		.4byte	0x103
 6869 1c73 18       		.byte	0x18
 6870 1c74 00       		.byte	0
 6871 1c75 0B       		.uleb128 0xb
 6872 1c76 04       		.byte	0x4
 6873 1c77 78090000 		.4byte	0x978
 6874 1c7b 1A       		.uleb128 0x1a
 6875 1c7c 62030000 		.4byte	.LASF396
 6876 1c80 21       		.byte	0x21
 6877 1c81 1601     		.2byte	0x116
 6878 1c83 121C0000 		.4byte	0x1c12
 6879 1c87 05       		.uleb128 0x5
 6880 1c88 7B1C0000 		.4byte	0x1c7b
 6881 1c8c 1A       		.uleb128 0x1a
 6882 1c8d F60D0000 		.4byte	.LASF397
 6883 1c91 21       		.byte	0x21
 6884 1c92 1B01     		.2byte	0x11b
 6885 1c94 981C0000 		.4byte	0x1c98
 6886 1c98 0C       		.uleb128 0xc
 6887 1c99 F60D0000 		.4byte	.LASF397
 6888 1c9d 30       		.byte	0x30
 6889 1c9e 21       		.byte	0x21
 6890 1c9f 7B01     		.2byte	0x17b
 6891 1ca1 0E1D0000 		.4byte	0x1d0e
 6892 1ca5 0A       		.uleb128 0xa
 6893 1ca6 CC180000 		.4byte	.LASF343
 6894 1caa 21       		.byte	0x21
 6895 1cab 7F01     		.2byte	0x17f
 6896 1cad 071C0000 		.4byte	0x1c07
 6897 1cb1 00       		.byte	0
 6898 1cb2 0A       		.uleb128 0xa
 6899 1cb3 9B230000 		.4byte	.LASF347
 6900 1cb7 21       		.byte	0x21
 6901 1cb8 8301     		.2byte	0x183
 6902 1cba 4C1E0000 		.4byte	0x1e4c
 6903 1cbe 04       		.byte	0x4
 6904 1cbf 0A       		.uleb128 0xa
 6905 1cc0 DF010000 		.4byte	.LASF345
 6906 1cc4 21       		.byte	0x21
 6907 1cc5 8701     		.2byte	0x187
 6908 1cc7 731D0000 		.4byte	0x1d73
 6909 1ccb 08       		.byte	0x8
 6910 1ccc 0A       		.uleb128 0xa
ARM GAS  C:\Users\adrie\AppData\Local\Temp\ccgB8szF.s 			page 123


 6911 1ccd 591C0000 		.4byte	.LASF346
 6912 1cd1 21       		.byte	0x21
 6913 1cd2 8B01     		.2byte	0x18b
 6914 1cd4 E8000000 		.4byte	0xe8
 6915 1cd8 0C       		.byte	0xc
 6916 1cd9 0A       		.uleb128 0xa
 6917 1cda 16200000 		.4byte	.LASF344
 6918 1cde 21       		.byte	0x21
 6919 1cdf 8F01     		.2byte	0x18f
 6920 1ce1 521E0000 		.4byte	0x1e52
 6921 1ce5 10       		.byte	0x10
 6922 1ce6 0A       		.uleb128 0xa
 6923 1ce7 D8070000 		.4byte	.LASF348
 6924 1ceb 21       		.byte	0x21
 6925 1cec 9401     		.2byte	0x194
 6926 1cee E0020000 		.4byte	0x2e0
 6927 1cf2 14       		.byte	0x14
 6928 1cf3 0A       		.uleb128 0xa
 6929 1cf4 E10D0000 		.4byte	.LASF349
 6930 1cf8 21       		.byte	0x21
 6931 1cf9 9A01     		.2byte	0x19a
 6932 1cfb 82120000 		.4byte	0x1282
 6933 1cff 18       		.byte	0x18
 6934 1d00 0A       		.uleb128 0xa
 6935 1d01 6D130000 		.4byte	.LASF398
 6936 1d05 21       		.byte	0x21
 6937 1d06 A301     		.2byte	0x1a3
 6938 1d08 581E0000 		.4byte	0x1e58
 6939 1d0c 2C       		.byte	0x2c
 6940 1d0d 00       		.byte	0
 6941 1d0e 1A       		.uleb128 0x1a
 6942 1d0f E91C0000 		.4byte	.LASF399
 6943 1d13 21       		.byte	0x21
 6944 1d14 2001     		.2byte	0x120
 6945 1d16 E8000000 		.4byte	0xe8
 6946 1d1a 05       		.uleb128 0x5
 6947 1d1b 0E1D0000 		.4byte	0x1d0e
 6948 1d1f 24       		.uleb128 0x24
 6949 1d20 07       		.byte	0x7
 6950 1d21 01       		.byte	0x1
 6951 1d22 6C000000 		.4byte	0x6c
 6952 1d26 21       		.byte	0x21
 6953 1d27 2701     		.2byte	0x127
 6954 1d29 3A1D0000 		.4byte	0x1d3a
 6955 1d2d 22       		.uleb128 0x22
 6956 1d2e AE1D0000 		.4byte	.LASF400
 6957 1d32 00       		.byte	0
 6958 1d33 22       		.uleb128 0x22
 6959 1d34 1C0A0000 		.4byte	.LASF401
 6960 1d38 01       		.byte	0x1
 6961 1d39 00       		.byte	0
 6962 1d3a 1A       		.uleb128 0x1a
 6963 1d3b D2130000 		.4byte	.LASF402
 6964 1d3f 21       		.byte	0x21
 6965 1d40 2A01     		.2byte	0x12a
 6966 1d42 1F1D0000 		.4byte	0x1d1f
 6967 1d46 1A       		.uleb128 0x1a
ARM GAS  C:\Users\adrie\AppData\Local\Temp\ccgB8szF.s 			page 124


 6968 1d47 55080000 		.4byte	.LASF403
 6969 1d4b 21       		.byte	0x21
 6970 1d4c 3401     		.2byte	0x134
 6971 1d4e 521D0000 		.4byte	0x1d52
 6972 1d52 0B       		.uleb128 0xb
 6973 1d53 04       		.byte	0x4
 6974 1d54 581D0000 		.4byte	0x1d58
 6975 1d58 0D       		.uleb128 0xd
 6976 1d59 6D1D0000 		.4byte	0x1d6d
 6977 1d5d 0E       		.uleb128 0xe
 6978 1d5e 6D1D0000 		.4byte	0x1d6d
 6979 1d62 0E       		.uleb128 0xe
 6980 1d63 731D0000 		.4byte	0x1d73
 6981 1d67 0E       		.uleb128 0xe
 6982 1d68 3A000000 		.4byte	0x3a
 6983 1d6c 00       		.byte	0
 6984 1d6d 0B       		.uleb128 0xb
 6985 1d6e 04       		.byte	0x4
 6986 1d6f 8C1C0000 		.4byte	0x1c8c
 6987 1d73 0B       		.uleb128 0xb
 6988 1d74 04       		.byte	0x4
 6989 1d75 1A1D0000 		.4byte	0x1d1a
 6990 1d79 1A       		.uleb128 0x1a
 6991 1d7a 71250000 		.4byte	.LASF404
 6992 1d7e 21       		.byte	0x21
 6993 1d7f 3F01     		.2byte	0x13f
 6994 1d81 851D0000 		.4byte	0x1d85
 6995 1d85 0B       		.uleb128 0xb
 6996 1d86 04       		.byte	0x4
 6997 1d87 8B1D0000 		.4byte	0x1d8b
 6998 1d8b 0D       		.uleb128 0xd
 6999 1d8c 9B1D0000 		.4byte	0x1d9b
 7000 1d90 0E       		.uleb128 0xe
 7001 1d91 6D1D0000 		.4byte	0x1d6d
 7002 1d95 0E       		.uleb128 0xe
 7003 1d96 3A1D0000 		.4byte	0x1d3a
 7004 1d9a 00       		.byte	0
 7005 1d9b 24       		.uleb128 0x24
 7006 1d9c 07       		.byte	0x7
 7007 1d9d 01       		.byte	0x1
 7008 1d9e 6C000000 		.4byte	0x6c
 7009 1da2 21       		.byte	0x21
 7010 1da3 4401     		.2byte	0x144
 7011 1da5 BC1D0000 		.4byte	0x1dbc
 7012 1da9 22       		.uleb128 0x22
 7013 1daa CC200000 		.4byte	.LASF405
 7014 1dae 00       		.byte	0
 7015 1daf 22       		.uleb128 0x22
 7016 1db0 8F150000 		.4byte	.LASF406
 7017 1db4 01       		.byte	0x1
 7018 1db5 22       		.uleb128 0x22
 7019 1db6 7E190000 		.4byte	.LASF407
 7020 1dba 02       		.byte	0x2
 7021 1dbb 00       		.byte	0
 7022 1dbc 1A       		.uleb128 0x1a
 7023 1dbd B30B0000 		.4byte	.LASF408
 7024 1dc1 21       		.byte	0x21
ARM GAS  C:\Users\adrie\AppData\Local\Temp\ccgB8szF.s 			page 125


 7025 1dc2 4D01     		.2byte	0x14d
 7026 1dc4 9B1D0000 		.4byte	0x1d9b
 7027 1dc8 19       		.uleb128 0x19
 7028 1dc9 10       		.byte	0x10
 7029 1dca 21       		.byte	0x21
 7030 1dcb 5201     		.2byte	0x152
 7031 1dcd 061E0000 		.4byte	0x1e06
 7032 1dd1 0A       		.uleb128 0xa
 7033 1dd2 D0120000 		.4byte	.LASF355
 7034 1dd6 21       		.byte	0x21
 7035 1dd7 5601     		.2byte	0x156
 7036 1dd9 03010000 		.4byte	0x103
 7037 1ddd 00       		.byte	0
 7038 1dde 0A       		.uleb128 0xa
 7039 1ddf 4D0A0000 		.4byte	.LASF356
 7040 1de3 21       		.byte	0x21
 7041 1de4 5A01     		.2byte	0x15a
 7042 1de6 461D0000 		.4byte	0x1d46
 7043 1dea 04       		.byte	0x4
 7044 1deb 0A       		.uleb128 0xa
 7045 1dec 68280000 		.4byte	.LASF357
 7046 1df0 21       		.byte	0x21
 7047 1df1 5E01     		.2byte	0x15e
 7048 1df3 791D0000 		.4byte	0x1d79
 7049 1df7 08       		.byte	0x8
 7050 1df8 0A       		.uleb128 0xa
 7051 1df9 32170000 		.4byte	.LASF409
 7052 1dfd 21       		.byte	0x21
 7053 1dfe 6601     		.2byte	0x166
 7054 1e00 03010000 		.4byte	0x103
 7055 1e04 0C       		.byte	0xc
 7056 1e05 00       		.byte	0
 7057 1e06 1A       		.uleb128 0x1a
 7058 1e07 86140000 		.4byte	.LASF410
 7059 1e0b 21       		.byte	0x21
 7060 1e0c 6701     		.2byte	0x167
 7061 1e0e C81D0000 		.4byte	0x1dc8
 7062 1e12 05       		.uleb128 0x5
 7063 1e13 061E0000 		.4byte	0x1e06
 7064 1e17 19       		.uleb128 0x19
 7065 1e18 04       		.byte	0x4
 7066 1e19 21       		.byte	0x21
 7067 1e1a 6C01     		.2byte	0x16c
 7068 1e1c 3B1E0000 		.4byte	0x1e3b
 7069 1e20 0A       		.uleb128 0xa
 7070 1e21 1C0C0000 		.4byte	.LASF411
 7071 1e25 21       		.byte	0x21
 7072 1e26 7101     		.2byte	0x171
 7073 1e28 0E1D0000 		.4byte	0x1d0e
 7074 1e2c 00       		.byte	0
 7075 1e2d 0A       		.uleb128 0xa
 7076 1e2e 0D010000 		.4byte	.LASF412
 7077 1e32 21       		.byte	0x21
 7078 1e33 7501     		.2byte	0x175
 7079 1e35 BC1D0000 		.4byte	0x1dbc
 7080 1e39 02       		.byte	0x2
 7081 1e3a 00       		.byte	0
ARM GAS  C:\Users\adrie\AppData\Local\Temp\ccgB8szF.s 			page 126


 7082 1e3b 1A       		.uleb128 0x1a
 7083 1e3c 000E0000 		.4byte	.LASF413
 7084 1e40 21       		.byte	0x21
 7085 1e41 7601     		.2byte	0x176
 7086 1e43 171E0000 		.4byte	0x1e17
 7087 1e47 05       		.uleb128 0x5
 7088 1e48 3B1E0000 		.4byte	0x1e3b
 7089 1e4c 0B       		.uleb128 0xb
 7090 1e4d 04       		.byte	0x4
 7091 1e4e 121E0000 		.4byte	0x1e12
 7092 1e52 0B       		.uleb128 0xb
 7093 1e53 04       		.byte	0x4
 7094 1e54 471E0000 		.4byte	0x1e47
 7095 1e58 0B       		.uleb128 0xb
 7096 1e59 04       		.byte	0x4
 7097 1e5a 871C0000 		.4byte	0x1c87
 7098 1e5e 15       		.uleb128 0x15
 7099 1e5f 3C040000 		.4byte	.LASF414
 7100 1e63 21       		.byte	0x21
 7101 1e64 B301     		.2byte	0x1b3
 7102 1e66 8C1C0000 		.4byte	0x1c8c
 7103 1e6a 21       		.uleb128 0x21
 7104 1e6b 07       		.byte	0x7
 7105 1e6c 01       		.byte	0x1
 7106 1e6d 6C000000 		.4byte	0x6c
 7107 1e71 22       		.byte	0x22
 7108 1e72 3F       		.byte	0x3f
 7109 1e73 8A1E0000 		.4byte	0x1e8a
 7110 1e77 22       		.uleb128 0x22
 7111 1e78 0D0B0000 		.4byte	.LASF415
 7112 1e7c 00       		.byte	0
 7113 1e7d 22       		.uleb128 0x22
 7114 1e7e 092B0000 		.4byte	.LASF416
 7115 1e82 01       		.byte	0x1
 7116 1e83 22       		.uleb128 0x22
 7117 1e84 43020000 		.4byte	.LASF417
 7118 1e88 02       		.byte	0x2
 7119 1e89 00       		.byte	0
 7120 1e8a 04       		.uleb128 0x4
 7121 1e8b 821F0000 		.4byte	.LASF418
 7122 1e8f 22       		.byte	0x22
 7123 1e90 43       		.byte	0x43
 7124 1e91 6A1E0000 		.4byte	0x1e6a
 7125 1e95 04       		.uleb128 0x4
 7126 1e96 93090000 		.4byte	.LASF419
 7127 1e9a 22       		.byte	0x22
 7128 1e9b 48       		.byte	0x48
 7129 1e9c A01E0000 		.4byte	0x1ea0
 7130 1ea0 07       		.uleb128 0x7
 7131 1ea1 93090000 		.4byte	.LASF419
 7132 1ea5 08       		.byte	0x8
 7133 1ea6 23       		.byte	0x23
 7134 1ea7 71       		.byte	0x71
 7135 1ea8 C51E0000 		.4byte	0x1ec5
 7136 1eac 08       		.uleb128 0x8
 7137 1ead CC180000 		.4byte	.LASF343
 7138 1eb1 23       		.byte	0x23
ARM GAS  C:\Users\adrie\AppData\Local\Temp\ccgB8szF.s 			page 127


 7139 1eb2 75       		.byte	0x75
 7140 1eb3 8A1E0000 		.4byte	0x1e8a
 7141 1eb7 00       		.byte	0
 7142 1eb8 08       		.uleb128 0x8
 7143 1eb9 16200000 		.4byte	.LASF344
 7144 1ebd 23       		.byte	0x23
 7145 1ebe 79       		.byte	0x79
 7146 1ebf 571F0000 		.4byte	0x1f57
 7147 1ec3 04       		.byte	0x4
 7148 1ec4 00       		.byte	0
 7149 1ec5 04       		.uleb128 0x4
 7150 1ec6 B6280000 		.4byte	.LASF420
 7151 1eca 23       		.byte	0x23
 7152 1ecb 47       		.byte	0x47
 7153 1ecc 03010000 		.4byte	0x103
 7154 1ed0 04       		.uleb128 0x4
 7155 1ed1 48230000 		.4byte	.LASF421
 7156 1ed5 23       		.byte	0x23
 7157 1ed6 4F       		.byte	0x4f
 7158 1ed7 DB1E0000 		.4byte	0x1edb
 7159 1edb 0B       		.uleb128 0xb
 7160 1edc 04       		.byte	0x4
 7161 1edd E11E0000 		.4byte	0x1ee1
 7162 1ee1 0D       		.uleb128 0xd
 7163 1ee2 F11E0000 		.4byte	0x1ef1
 7164 1ee6 0E       		.uleb128 0xe
 7165 1ee7 F11E0000 		.4byte	0x1ef1
 7166 1eeb 0E       		.uleb128 0xe
 7167 1eec C51E0000 		.4byte	0x1ec5
 7168 1ef0 00       		.byte	0
 7169 1ef1 0B       		.uleb128 0xb
 7170 1ef2 04       		.byte	0x4
 7171 1ef3 951E0000 		.4byte	0x1e95
 7172 1ef7 17       		.uleb128 0x17
 7173 1ef8 08       		.byte	0x8
 7174 1ef9 23       		.byte	0x23
 7175 1efa 54       		.byte	0x54
 7176 1efb 171F0000 		.4byte	0x1f17
 7177 1eff 08       		.uleb128 0x8
 7178 1f00 78090000 		.4byte	.LASF422
 7179 1f04 23       		.byte	0x23
 7180 1f05 58       		.byte	0x58
 7181 1f06 03010000 		.4byte	0x103
 7182 1f0a 00       		.byte	0
 7183 1f0b 18       		.uleb128 0x18
 7184 1f0c 636200   		.ascii	"cb\000"
 7185 1f0f 23       		.byte	0x23
 7186 1f10 5F       		.byte	0x5f
 7187 1f11 D01E0000 		.4byte	0x1ed0
 7188 1f15 04       		.byte	0x4
 7189 1f16 00       		.byte	0
 7190 1f17 04       		.uleb128 0x4
 7191 1f18 C60F0000 		.4byte	.LASF423
 7192 1f1c 23       		.byte	0x23
 7193 1f1d 60       		.byte	0x60
 7194 1f1e F71E0000 		.4byte	0x1ef7
 7195 1f22 17       		.uleb128 0x17
ARM GAS  C:\Users\adrie\AppData\Local\Temp\ccgB8szF.s 			page 128


 7196 1f23 B8       		.byte	0xb8
 7197 1f24 23       		.byte	0x23
 7198 1f25 66       		.byte	0x66
 7199 1f26 371F0000 		.4byte	0x1f37
 7200 1f2a 08       		.uleb128 0x8
 7201 1f2b 96250000 		.4byte	.LASF424
 7202 1f2f 23       		.byte	0x23
 7203 1f30 6A       		.byte	0x6a
 7204 1f31 371F0000 		.4byte	0x1f37
 7205 1f35 00       		.byte	0
 7206 1f36 00       		.byte	0
 7207 1f37 13       		.uleb128 0x13
 7208 1f38 171F0000 		.4byte	0x1f17
 7209 1f3c 471F0000 		.4byte	0x1f47
 7210 1f40 14       		.uleb128 0x14
 7211 1f41 45000000 		.4byte	0x45
 7212 1f45 16       		.byte	0x16
 7213 1f46 00       		.byte	0
 7214 1f47 04       		.uleb128 0x4
 7215 1f48 25220000 		.4byte	.LASF425
 7216 1f4c 23       		.byte	0x23
 7217 1f4d 6C       		.byte	0x6c
 7218 1f4e 221F0000 		.4byte	0x1f22
 7219 1f52 05       		.uleb128 0x5
 7220 1f53 471F0000 		.4byte	0x1f47
 7221 1f57 0B       		.uleb128 0xb
 7222 1f58 04       		.byte	0x4
 7223 1f59 521F0000 		.4byte	0x1f52
 7224 1f5d 16       		.uleb128 0x16
 7225 1f5e 6D060000 		.4byte	.LASF426
 7226 1f62 23       		.byte	0x23
 7227 1f63 86       		.byte	0x86
 7228 1f64 951E0000 		.4byte	0x1e95
 7229 1f68 21       		.uleb128 0x21
 7230 1f69 07       		.byte	0x7
 7231 1f6a 01       		.byte	0x1
 7232 1f6b 6C000000 		.4byte	0x6c
 7233 1f6f 24       		.byte	0x24
 7234 1f70 31       		.byte	0x31
 7235 1f71 941F0000 		.4byte	0x1f94
 7236 1f75 22       		.uleb128 0x22
 7237 1f76 92190000 		.4byte	.LASF427
 7238 1f7a 00       		.byte	0
 7239 1f7b 22       		.uleb128 0x22
 7240 1f7c 5A170000 		.4byte	.LASF428
 7241 1f80 01       		.byte	0x1
 7242 1f81 22       		.uleb128 0x22
 7243 1f82 A71C0000 		.4byte	.LASF429
 7244 1f86 02       		.byte	0x2
 7245 1f87 22       		.uleb128 0x22
 7246 1f88 B9080000 		.4byte	.LASF430
 7247 1f8c 03       		.byte	0x3
 7248 1f8d 22       		.uleb128 0x22
 7249 1f8e E6040000 		.4byte	.LASF431
 7250 1f92 04       		.byte	0x4
 7251 1f93 00       		.byte	0
 7252 1f94 04       		.uleb128 0x4
ARM GAS  C:\Users\adrie\AppData\Local\Temp\ccgB8szF.s 			page 129


 7253 1f95 10160000 		.4byte	.LASF432
 7254 1f99 24       		.byte	0x24
 7255 1f9a 37       		.byte	0x37
 7256 1f9b 681F0000 		.4byte	0x1f68
 7257 1f9f 04       		.uleb128 0x4
 7258 1fa0 FD1A0000 		.4byte	.LASF433
 7259 1fa4 24       		.byte	0x24
 7260 1fa5 3C       		.byte	0x3c
 7261 1fa6 AA1F0000 		.4byte	0x1faa
 7262 1faa 0C       		.uleb128 0xc
 7263 1fab FD1A0000 		.4byte	.LASF433
 7264 1faf 10       		.byte	0x10
 7265 1fb0 25       		.byte	0x25
 7266 1fb1 9701     		.2byte	0x197
 7267 1fb3 EC1F0000 		.4byte	0x1fec
 7268 1fb7 0A       		.uleb128 0xa
 7269 1fb8 CC180000 		.4byte	.LASF343
 7270 1fbc 25       		.byte	0x25
 7271 1fbd 9B01     		.2byte	0x19b
 7272 1fbf 941F0000 		.4byte	0x1f94
 7273 1fc3 00       		.byte	0
 7274 1fc4 0A       		.uleb128 0xa
 7275 1fc5 16200000 		.4byte	.LASF344
 7276 1fc9 25       		.byte	0x25
 7277 1fca 9F01     		.2byte	0x19f
 7278 1fcc 81210000 		.4byte	0x2181
 7279 1fd0 04       		.byte	0x4
 7280 1fd1 0A       		.uleb128 0xa
 7281 1fd2 140E0000 		.4byte	.LASF434
 7282 1fd6 25       		.byte	0x25
 7283 1fd7 A701     		.2byte	0x1a7
 7284 1fd9 03010000 		.4byte	0x103
 7285 1fdd 08       		.byte	0x8
 7286 1fde 09       		.uleb128 0x9
 7287 1fdf 74696D00 		.ascii	"tim\000"
 7288 1fe3 25       		.byte	0x25
 7289 1fe4 AB01     		.2byte	0x1ab
 7290 1fe6 87210000 		.4byte	0x2187
 7291 1fea 0C       		.byte	0xc
 7292 1feb 00       		.byte	0
 7293 1fec 04       		.uleb128 0x4
 7294 1fed F4130000 		.4byte	.LASF435
 7295 1ff1 24       		.byte	0x24
 7296 1ff2 43       		.byte	0x43
 7297 1ff3 F71F0000 		.4byte	0x1ff7
 7298 1ff7 0B       		.uleb128 0xb
 7299 1ff8 04       		.byte	0x4
 7300 1ff9 FD1F0000 		.4byte	0x1ffd
 7301 1ffd 0D       		.uleb128 0xd
 7302 1ffe 08200000 		.4byte	0x2008
 7303 2002 0E       		.uleb128 0xe
 7304 2003 08200000 		.4byte	0x2008
 7305 2007 00       		.byte	0
 7306 2008 0B       		.uleb128 0xb
 7307 2009 04       		.byte	0x4
 7308 200a 9F1F0000 		.4byte	0x1f9f
 7309 200e 19       		.uleb128 0x19
ARM GAS  C:\Users\adrie\AppData\Local\Temp\ccgB8szF.s 			page 130


 7310 200f 60       		.byte	0x60
 7311 2010 26       		.byte	0x26
 7312 2011 9E01     		.2byte	0x19e
 7313 2013 1A210000 		.4byte	0x211a
 7314 2017 09       		.uleb128 0x9
 7315 2018 43523100 		.ascii	"CR1\000"
 7316 201c 26       		.byte	0x26
 7317 201d 9F01     		.2byte	0x19f
 7318 201f 0E010000 		.4byte	0x10e
 7319 2023 00       		.byte	0
 7320 2024 09       		.uleb128 0x9
 7321 2025 43523200 		.ascii	"CR2\000"
 7322 2029 26       		.byte	0x26
 7323 202a A001     		.2byte	0x1a0
 7324 202c 0E010000 		.4byte	0x10e
 7325 2030 04       		.byte	0x4
 7326 2031 0A       		.uleb128 0xa
 7327 2032 A7240000 		.4byte	.LASF436
 7328 2036 26       		.byte	0x26
 7329 2037 A101     		.2byte	0x1a1
 7330 2039 0E010000 		.4byte	0x10e
 7331 203d 08       		.byte	0x8
 7332 203e 0A       		.uleb128 0xa
 7333 203f 590B0000 		.4byte	.LASF437
 7334 2043 26       		.byte	0x26
 7335 2044 A201     		.2byte	0x1a2
 7336 2046 0E010000 		.4byte	0x10e
 7337 204a 0C       		.byte	0xc
 7338 204b 09       		.uleb128 0x9
 7339 204c 535200   		.ascii	"SR\000"
 7340 204f 26       		.byte	0x26
 7341 2050 A301     		.2byte	0x1a3
 7342 2052 0E010000 		.4byte	0x10e
 7343 2056 10       		.byte	0x10
 7344 2057 09       		.uleb128 0x9
 7345 2058 45475200 		.ascii	"EGR\000"
 7346 205c 26       		.byte	0x26
 7347 205d A401     		.2byte	0x1a4
 7348 205f 0E010000 		.4byte	0x10e
 7349 2063 14       		.byte	0x14
 7350 2064 0A       		.uleb128 0xa
 7351 2065 A9290000 		.4byte	.LASF438
 7352 2069 26       		.byte	0x26
 7353 206a A501     		.2byte	0x1a5
 7354 206c 0E010000 		.4byte	0x10e
 7355 2070 18       		.byte	0x18
 7356 2071 0A       		.uleb128 0xa
 7357 2072 AF290000 		.4byte	.LASF439
 7358 2076 26       		.byte	0x26
 7359 2077 A601     		.2byte	0x1a6
 7360 2079 0E010000 		.4byte	0x10e
 7361 207d 1C       		.byte	0x1c
 7362 207e 0A       		.uleb128 0xa
 7363 207f 2D080000 		.4byte	.LASF440
 7364 2083 26       		.byte	0x26
 7365 2084 A701     		.2byte	0x1a7
 7366 2086 0E010000 		.4byte	0x10e
ARM GAS  C:\Users\adrie\AppData\Local\Temp\ccgB8szF.s 			page 131


 7367 208a 20       		.byte	0x20
 7368 208b 09       		.uleb128 0x9
 7369 208c 434E5400 		.ascii	"CNT\000"
 7370 2090 26       		.byte	0x26
 7371 2091 A801     		.2byte	0x1a8
 7372 2093 0E010000 		.4byte	0x10e
 7373 2097 24       		.byte	0x24
 7374 2098 09       		.uleb128 0x9
 7375 2099 50534300 		.ascii	"PSC\000"
 7376 209d 26       		.byte	0x26
 7377 209e A901     		.2byte	0x1a9
 7378 20a0 0E010000 		.4byte	0x10e
 7379 20a4 28       		.byte	0x28
 7380 20a5 09       		.uleb128 0x9
 7381 20a6 41525200 		.ascii	"ARR\000"
 7382 20aa 26       		.byte	0x26
 7383 20ab AA01     		.2byte	0x1aa
 7384 20ad 0E010000 		.4byte	0x10e
 7385 20b1 2C       		.byte	0x2c
 7386 20b2 09       		.uleb128 0x9
 7387 20b3 52435200 		.ascii	"RCR\000"
 7388 20b7 26       		.byte	0x26
 7389 20b8 AB01     		.2byte	0x1ab
 7390 20ba 0E010000 		.4byte	0x10e
 7391 20be 30       		.byte	0x30
 7392 20bf 09       		.uleb128 0x9
 7393 20c0 43435200 		.ascii	"CCR\000"
 7394 20c4 26       		.byte	0x26
 7395 20c5 AC01     		.2byte	0x1ac
 7396 20c7 AE0A0000 		.4byte	0xaae
 7397 20cb 34       		.byte	0x34
 7398 20cc 0A       		.uleb128 0xa
 7399 20cd F8010000 		.4byte	.LASF441
 7400 20d1 26       		.byte	0x26
 7401 20d2 AD01     		.2byte	0x1ad
 7402 20d4 0E010000 		.4byte	0x10e
 7403 20d8 44       		.byte	0x44
 7404 20d9 09       		.uleb128 0x9
 7405 20da 44435200 		.ascii	"DCR\000"
 7406 20de 26       		.byte	0x26
 7407 20df AE01     		.2byte	0x1ae
 7408 20e1 0E010000 		.4byte	0x10e
 7409 20e5 48       		.byte	0x48
 7410 20e6 0A       		.uleb128 0xa
 7411 20e7 35190000 		.4byte	.LASF442
 7412 20eb 26       		.byte	0x26
 7413 20ec AF01     		.2byte	0x1af
 7414 20ee 0E010000 		.4byte	0x10e
 7415 20f2 4C       		.byte	0x4c
 7416 20f3 09       		.uleb128 0x9
 7417 20f4 4F5200   		.ascii	"OR\000"
 7418 20f7 26       		.byte	0x26
 7419 20f8 B001     		.2byte	0x1b0
 7420 20fa 0E010000 		.4byte	0x10e
 7421 20fe 50       		.byte	0x50
 7422 20ff 0A       		.uleb128 0xa
 7423 2100 B5290000 		.4byte	.LASF443
ARM GAS  C:\Users\adrie\AppData\Local\Temp\ccgB8szF.s 			page 132


 7424 2104 26       		.byte	0x26
 7425 2105 B101     		.2byte	0x1b1
 7426 2107 0E010000 		.4byte	0x10e
 7427 210b 54       		.byte	0x54
 7428 210c 0A       		.uleb128 0xa
 7429 210d 200E0000 		.4byte	.LASF444
 7430 2111 26       		.byte	0x26
 7431 2112 B201     		.2byte	0x1b2
 7432 2114 990A0000 		.4byte	0xa99
 7433 2118 58       		.byte	0x58
 7434 2119 00       		.byte	0
 7435 211a 1A       		.uleb128 0x1a
 7436 211b D2230000 		.4byte	.LASF445
 7437 211f 26       		.byte	0x26
 7438 2120 B301     		.2byte	0x1b3
 7439 2122 0E200000 		.4byte	0x200e
 7440 2126 1A       		.uleb128 0x1a
 7441 2127 D0090000 		.4byte	.LASF446
 7442 212b 25       		.byte	0x25
 7443 212c 6D01     		.2byte	0x16d
 7444 212e 03010000 		.4byte	0x103
 7445 2132 19       		.uleb128 0x19
 7446 2133 10       		.byte	0x10
 7447 2134 25       		.byte	0x25
 7448 2135 7801     		.2byte	0x178
 7449 2137 70210000 		.4byte	0x2170
 7450 213b 0A       		.uleb128 0xa
 7451 213c 05290000 		.4byte	.LASF447
 7452 2140 25       		.byte	0x25
 7453 2141 7E01     		.2byte	0x17e
 7454 2143 26210000 		.4byte	0x2126
 7455 2147 00       		.byte	0
 7456 2148 0A       		.uleb128 0xa
 7457 2149 3A190000 		.4byte	.LASF448
 7458 214d 25       		.byte	0x25
 7459 214e 8501     		.2byte	0x185
 7460 2150 EC1F0000 		.4byte	0x1fec
 7461 2154 04       		.byte	0x4
 7462 2155 09       		.uleb128 0x9
 7463 2156 63723200 		.ascii	"cr2\000"
 7464 215a 25       		.byte	0x25
 7465 215b 8B01     		.2byte	0x18b
 7466 215d 03010000 		.4byte	0x103
 7467 2161 08       		.byte	0x8
 7468 2162 0A       		.uleb128 0xa
 7469 2163 770D0000 		.4byte	.LASF449
 7470 2167 25       		.byte	0x25
 7471 2168 9101     		.2byte	0x191
 7472 216a 03010000 		.4byte	0x103
 7473 216e 0C       		.byte	0xc
 7474 216f 00       		.byte	0
 7475 2170 1A       		.uleb128 0x1a
 7476 2171 11070000 		.4byte	.LASF450
 7477 2175 25       		.byte	0x25
 7478 2176 9201     		.2byte	0x192
 7479 2178 32210000 		.4byte	0x2132
 7480 217c 05       		.uleb128 0x5
ARM GAS  C:\Users\adrie\AppData\Local\Temp\ccgB8szF.s 			page 133


 7481 217d 70210000 		.4byte	0x2170
 7482 2181 0B       		.uleb128 0xb
 7483 2182 04       		.byte	0x4
 7484 2183 7C210000 		.4byte	0x217c
 7485 2187 0B       		.uleb128 0xb
 7486 2188 04       		.byte	0x4
 7487 2189 1A210000 		.4byte	0x211a
 7488 218d 15       		.uleb128 0x15
 7489 218e 4E280000 		.4byte	.LASF451
 7490 2192 25       		.byte	0x25
 7491 2193 F201     		.2byte	0x1f2
 7492 2195 9F1F0000 		.4byte	0x1f9f
 7493 2199 15       		.uleb128 0x15
 7494 219a 1D200000 		.4byte	.LASF452
 7495 219e 25       		.byte	0x25
 7496 219f 0202     		.2byte	0x202
 7497 21a1 9F1F0000 		.4byte	0x1f9f
 7498 21a5 15       		.uleb128 0x15
 7499 21a6 24200000 		.4byte	.LASF453
 7500 21aa 25       		.byte	0x25
 7501 21ab 0602     		.2byte	0x206
 7502 21ad 9F1F0000 		.4byte	0x1f9f
 7503 21b1 21       		.uleb128 0x21
 7504 21b2 07       		.byte	0x7
 7505 21b3 01       		.byte	0x1
 7506 21b4 6C000000 		.4byte	0x6c
 7507 21b8 27       		.byte	0x27
 7508 21b9 4C       		.byte	0x4c
 7509 21ba E3210000 		.4byte	0x21e3
 7510 21be 22       		.uleb128 0x22
 7511 21bf DC060000 		.4byte	.LASF454
 7512 21c3 00       		.byte	0
 7513 21c4 22       		.uleb128 0x22
 7514 21c5 7D0F0000 		.4byte	.LASF455
 7515 21c9 01       		.byte	0x1
 7516 21ca 22       		.uleb128 0x22
 7517 21cb 60070000 		.4byte	.LASF456
 7518 21cf 02       		.byte	0x2
 7519 21d0 22       		.uleb128 0x22
 7520 21d1 15050000 		.4byte	.LASF457
 7521 21d5 03       		.byte	0x3
 7522 21d6 22       		.uleb128 0x22
 7523 21d7 8F030000 		.4byte	.LASF458
 7524 21db 04       		.byte	0x4
 7525 21dc 22       		.uleb128 0x22
 7526 21dd CE150000 		.4byte	.LASF459
 7527 21e1 05       		.byte	0x5
 7528 21e2 00       		.byte	0
 7529 21e3 04       		.uleb128 0x4
 7530 21e4 9B130000 		.4byte	.LASF460
 7531 21e8 27       		.byte	0x27
 7532 21e9 53       		.byte	0x53
 7533 21ea B1210000 		.4byte	0x21b1
 7534 21ee 1A       		.uleb128 0x1a
 7535 21ef 98050000 		.4byte	.LASF461
 7536 21f3 28       		.byte	0x28
 7537 21f4 6A01     		.2byte	0x16a
ARM GAS  C:\Users\adrie\AppData\Local\Temp\ccgB8szF.s 			page 134


 7538 21f6 E8000000 		.4byte	0xe8
 7539 21fa 1A       		.uleb128 0x1a
 7540 21fb 69040000 		.4byte	.LASF462
 7541 21ff 28       		.byte	0x28
 7542 2200 6F01     		.2byte	0x16f
 7543 2202 03010000 		.4byte	0x103
 7544 2206 24       		.uleb128 0x24
 7545 2207 07       		.byte	0x7
 7546 2208 01       		.byte	0x1
 7547 2209 6C000000 		.4byte	0x6c
 7548 220d 28       		.byte	0x28
 7549 220e 7401     		.2byte	0x174
 7550 2210 27220000 		.4byte	0x2227
 7551 2214 22       		.uleb128 0x22
 7552 2215 28050000 		.4byte	.LASF463
 7553 2219 01       		.byte	0x1
 7554 221a 22       		.uleb128 0x22
 7555 221b A2000000 		.4byte	.LASF464
 7556 221f 02       		.byte	0x2
 7557 2220 22       		.uleb128 0x22
 7558 2221 CD0A0000 		.4byte	.LASF465
 7559 2225 03       		.byte	0x3
 7560 2226 00       		.byte	0
 7561 2227 1A       		.uleb128 0x1a
 7562 2228 182A0000 		.4byte	.LASF466
 7563 222c 28       		.byte	0x28
 7564 222d 7801     		.2byte	0x178
 7565 222f 06220000 		.4byte	0x2206
 7566 2233 24       		.uleb128 0x24
 7567 2234 07       		.byte	0x7
 7568 2235 01       		.byte	0x1
 7569 2236 6C000000 		.4byte	0x6c
 7570 223a 28       		.byte	0x28
 7571 223b 7D01     		.2byte	0x17d
 7572 223d 54220000 		.4byte	0x2254
 7573 2241 22       		.uleb128 0x22
 7574 2242 3E060000 		.4byte	.LASF467
 7575 2246 01       		.byte	0x1
 7576 2247 22       		.uleb128 0x22
 7577 2248 5E290000 		.4byte	.LASF468
 7578 224c 02       		.byte	0x2
 7579 224d 22       		.uleb128 0x22
 7580 224e D20B0000 		.4byte	.LASF469
 7581 2252 03       		.byte	0x3
 7582 2253 00       		.byte	0
 7583 2254 1A       		.uleb128 0x1a
 7584 2255 AE070000 		.4byte	.LASF470
 7585 2259 28       		.byte	0x28
 7586 225a 8101     		.2byte	0x181
 7587 225c 33220000 		.4byte	0x2233
 7588 2260 19       		.uleb128 0x19
 7589 2261 0C       		.byte	0xc
 7590 2262 28       		.byte	0x28
 7591 2263 8601     		.2byte	0x186
 7592 2265 91220000 		.4byte	0x2291
 7593 2269 0A       		.uleb128 0xa
 7594 226a 82170000 		.4byte	.LASF471
ARM GAS  C:\Users\adrie\AppData\Local\Temp\ccgB8szF.s 			page 135


 7595 226e 28       		.byte	0x28
 7596 226f 8801     		.2byte	0x188
 7597 2271 27220000 		.4byte	0x2227
 7598 2275 00       		.byte	0
 7599 2276 0A       		.uleb128 0xa
 7600 2277 1E040000 		.4byte	.LASF472
 7601 227b 28       		.byte	0x28
 7602 227c 8901     		.2byte	0x189
 7603 227e 03010000 		.4byte	0x103
 7604 2282 04       		.byte	0x4
 7605 2283 0A       		.uleb128 0xa
 7606 2284 C72A0000 		.4byte	.LASF473
 7607 2288 28       		.byte	0x28
 7608 2289 8C01     		.2byte	0x18c
 7609 228b 54220000 		.4byte	0x2254
 7610 228f 08       		.byte	0x8
 7611 2290 00       		.byte	0
 7612 2291 1A       		.uleb128 0x1a
 7613 2292 11020000 		.4byte	.LASF474
 7614 2296 28       		.byte	0x28
 7615 2297 8E01     		.2byte	0x18e
 7616 2299 60220000 		.4byte	0x2260
 7617 229d 05       		.uleb128 0x5
 7618 229e 91220000 		.4byte	0x2291
 7619 22a2 1A       		.uleb128 0x1a
 7620 22a3 0B050000 		.4byte	.LASF475
 7621 22a7 28       		.byte	0x28
 7622 22a8 9301     		.2byte	0x193
 7623 22aa AE220000 		.4byte	0x22ae
 7624 22ae 0C       		.uleb128 0xc
 7625 22af 0B050000 		.4byte	.LASF475
 7626 22b3 3C       		.byte	0x3c
 7627 22b4 28       		.byte	0x28
 7628 22b5 9801     		.2byte	0x198
 7629 22b7 4B230000 		.4byte	0x234b
 7630 22bb 0A       		.uleb128 0xa
 7631 22bc CC180000 		.4byte	.LASF343
 7632 22c0 28       		.byte	0x28
 7633 22c1 9C01     		.2byte	0x19c
 7634 22c3 E3210000 		.4byte	0x21e3
 7635 22c7 00       		.byte	0
 7636 22c8 0A       		.uleb128 0xa
 7637 22c9 16200000 		.4byte	.LASF344
 7638 22cd 28       		.byte	0x28
 7639 22ce A001     		.2byte	0x1a0
 7640 22d0 4B230000 		.4byte	0x234b
 7641 22d4 04       		.byte	0x4
 7642 22d5 0A       		.uleb128 0xa
 7643 22d6 68010000 		.4byte	.LASF476
 7644 22da 28       		.byte	0x28
 7645 22db A401     		.2byte	0x1a4
 7646 22dd FA210000 		.4byte	0x21fa
 7647 22e1 08       		.byte	0x8
 7648 22e2 0A       		.uleb128 0xa
 7649 22e3 E10D0000 		.4byte	.LASF349
 7650 22e7 28       		.byte	0x28
 7651 22e8 A901     		.2byte	0x1a9
ARM GAS  C:\Users\adrie\AppData\Local\Temp\ccgB8szF.s 			page 136


 7652 22ea 82120000 		.4byte	0x1282
 7653 22ee 0C       		.byte	0xc
 7654 22ef 0A       		.uleb128 0xa
 7655 22f0 D8070000 		.4byte	.LASF348
 7656 22f4 28       		.byte	0x28
 7657 22f5 B201     		.2byte	0x1b2
 7658 22f7 E0020000 		.4byte	0x2e0
 7659 22fb 20       		.byte	0x20
 7660 22fc 0A       		.uleb128 0xa
 7661 22fd 960F0000 		.4byte	.LASF477
 7662 2301 28       		.byte	0x28
 7663 2302 B601     		.2byte	0x1b6
 7664 2304 EE210000 		.4byte	0x21ee
 7665 2308 24       		.byte	0x24
 7666 2309 0A       		.uleb128 0xa
 7667 230a 64090000 		.4byte	.LASF478
 7668 230e 28       		.byte	0x28
 7669 230f BA01     		.2byte	0x1ba
 7670 2311 03010000 		.4byte	0x103
 7671 2315 28       		.byte	0x28
 7672 2316 0A       		.uleb128 0xa
 7673 2317 BE090000 		.4byte	.LASF479
 7674 231b 28       		.byte	0x28
 7675 231c BE01     		.2byte	0x1be
 7676 231e 03010000 		.4byte	0x103
 7677 2322 2C       		.byte	0x2c
 7678 2323 0A       		.uleb128 0xa
 7679 2324 16010000 		.4byte	.LASF480
 7680 2328 28       		.byte	0x28
 7681 2329 C201     		.2byte	0x1c2
 7682 232b 811A0000 		.4byte	0x1a81
 7683 232f 30       		.byte	0x30
 7684 2330 0A       		.uleb128 0xa
 7685 2331 24020000 		.4byte	.LASF481
 7686 2335 28       		.byte	0x28
 7687 2336 C601     		.2byte	0x1c6
 7688 2338 811A0000 		.4byte	0x1a81
 7689 233c 34       		.byte	0x34
 7690 233d 09       		.uleb128 0x9
 7691 233e 69326300 		.ascii	"i2c\000"
 7692 2342 28       		.byte	0x28
 7693 2343 CA01     		.2byte	0x1ca
 7694 2345 51230000 		.4byte	0x2351
 7695 2349 38       		.byte	0x38
 7696 234a 00       		.byte	0
 7697 234b 0B       		.uleb128 0xb
 7698 234c 04       		.byte	0x4
 7699 234d 9D220000 		.4byte	0x229d
 7700 2351 0B       		.uleb128 0xb
 7701 2352 04       		.byte	0x4
 7702 2353 3E0B0000 		.4byte	0xb3e
 7703 2357 15       		.uleb128 0x15
 7704 2358 12140000 		.4byte	.LASF482
 7705 235c 28       		.byte	0x28
 7706 235d E001     		.2byte	0x1e0
 7707 235f A2220000 		.4byte	0x22a2
 7708 2363 21       		.uleb128 0x21
ARM GAS  C:\Users\adrie\AppData\Local\Temp\ccgB8szF.s 			page 137


 7709 2364 07       		.byte	0x7
 7710 2365 01       		.byte	0x1
 7711 2366 6C000000 		.4byte	0x6c
 7712 236a 29       		.byte	0x29
 7713 236b 39       		.byte	0x39
 7714 236c 8F230000 		.4byte	0x238f
 7715 2370 22       		.uleb128 0x22
 7716 2371 6B120000 		.4byte	.LASF483
 7717 2375 00       		.byte	0
 7718 2376 22       		.uleb128 0x22
 7719 2377 B30D0000 		.4byte	.LASF484
 7720 237b 01       		.byte	0x1
 7721 237c 22       		.uleb128 0x22
 7722 237d 1C010000 		.4byte	.LASF485
 7723 2381 02       		.byte	0x2
 7724 2382 22       		.uleb128 0x22
 7725 2383 9C1C0000 		.4byte	.LASF486
 7726 2387 03       		.byte	0x3
 7727 2388 22       		.uleb128 0x22
 7728 2389 D4220000 		.4byte	.LASF487
 7729 238d 04       		.byte	0x4
 7730 238e 00       		.byte	0
 7731 238f 04       		.uleb128 0x4
 7732 2390 5A260000 		.4byte	.LASF488
 7733 2394 29       		.byte	0x29
 7734 2395 3F       		.byte	0x3f
 7735 2396 63230000 		.4byte	0x2363
 7736 239a 04       		.uleb128 0x4
 7737 239b BD2A0000 		.4byte	.LASF489
 7738 239f 2A       		.byte	0x2a
 7739 23a0 E2       		.byte	0xe2
 7740 23a1 A5230000 		.4byte	0x23a5
 7741 23a5 0C       		.uleb128 0xc
 7742 23a6 BD2A0000 		.4byte	.LASF489
 7743 23aa 20       		.byte	0x20
 7744 23ab 2A       		.byte	0x2a
 7745 23ac 1B01     		.2byte	0x11b
 7746 23ae 1B240000 		.4byte	0x241b
 7747 23b2 0A       		.uleb128 0xa
 7748 23b3 CC180000 		.4byte	.LASF343
 7749 23b7 2A       		.byte	0x2a
 7750 23b8 1F01     		.2byte	0x11f
 7751 23ba 8F230000 		.4byte	0x238f
 7752 23be 00       		.byte	0
 7753 23bf 0A       		.uleb128 0xa
 7754 23c0 16200000 		.4byte	.LASF344
 7755 23c4 2A       		.byte	0x2a
 7756 23c5 2301     		.2byte	0x123
 7757 23c7 B3240000 		.4byte	0x24b3
 7758 23cb 04       		.byte	0x4
 7759 23cc 09       		.uleb128 0x9
 7760 23cd 73706900 		.ascii	"spi\000"
 7761 23d1 2A       		.byte	0x2a
 7762 23d2 2801     		.2byte	0x128
 7763 23d4 B9240000 		.4byte	0x24b9
 7764 23d8 08       		.byte	0x8
 7765 23d9 09       		.uleb128 0x9
ARM GAS  C:\Users\adrie\AppData\Local\Temp\ccgB8szF.s 			page 138


 7766 23da 63666700 		.ascii	"cfg\000"
 7767 23de 2A       		.byte	0x2a
 7768 23df 2C01     		.2byte	0x12c
 7769 23e1 E8000000 		.4byte	0xe8
 7770 23e5 0C       		.byte	0xc
 7771 23e6 0A       		.uleb128 0xa
 7772 23e7 16010000 		.4byte	.LASF480
 7773 23eb 2A       		.byte	0x2a
 7774 23ec 3001     		.2byte	0x130
 7775 23ee 811A0000 		.4byte	0x1a81
 7776 23f2 10       		.byte	0x10
 7777 23f3 0A       		.uleb128 0xa
 7778 23f4 24020000 		.4byte	.LASF481
 7779 23f8 2A       		.byte	0x2a
 7780 23f9 3401     		.2byte	0x134
 7781 23fb 811A0000 		.4byte	0x1a81
 7782 23ff 14       		.byte	0x14
 7783 2400 0A       		.uleb128 0xa
 7784 2401 64090000 		.4byte	.LASF478
 7785 2405 2A       		.byte	0x2a
 7786 2406 3801     		.2byte	0x138
 7787 2408 03010000 		.4byte	0x103
 7788 240c 18       		.byte	0x18
 7789 240d 0A       		.uleb128 0xa
 7790 240e BE090000 		.4byte	.LASF479
 7791 2412 2A       		.byte	0x2a
 7792 2413 3C01     		.2byte	0x13c
 7793 2415 03010000 		.4byte	0x103
 7794 2419 1C       		.byte	0x1c
 7795 241a 00       		.byte	0
 7796 241b 04       		.uleb128 0x4
 7797 241c AA090000 		.4byte	.LASF490
 7798 2420 2A       		.byte	0x2a
 7799 2421 EB       		.byte	0xeb
 7800 2422 26240000 		.4byte	0x2426
 7801 2426 0B       		.uleb128 0xb
 7802 2427 04       		.byte	0x4
 7803 2428 2C240000 		.4byte	0x242c
 7804 242c 0D       		.uleb128 0xd
 7805 242d 41240000 		.4byte	0x2441
 7806 2431 0E       		.uleb128 0xe
 7807 2432 41240000 		.4byte	0x2441
 7808 2436 0E       		.uleb128 0xe
 7809 2437 3A000000 		.4byte	0x3a
 7810 243b 0E       		.uleb128 0xe
 7811 243c 3A000000 		.4byte	0x3a
 7812 2440 00       		.byte	0
 7813 2441 0B       		.uleb128 0xb
 7814 2442 04       		.byte	0x4
 7815 2443 9A230000 		.4byte	0x239a
 7816 2447 17       		.uleb128 0x17
 7817 2448 14       		.byte	0x14
 7818 2449 2A       		.byte	0x2a
 7819 244a F1       		.byte	0xf1
 7820 244b 9B240000 		.4byte	0x249b
 7821 244f 08       		.uleb128 0x8
 7822 2450 93010000 		.4byte	.LASF491
ARM GAS  C:\Users\adrie\AppData\Local\Temp\ccgB8szF.s 			page 139


 7823 2454 2A       		.byte	0x2a
 7824 2455 F6       		.byte	0xf6
 7825 2456 9B240000 		.4byte	0x249b
 7826 245a 00       		.byte	0
 7827 245b 08       		.uleb128 0x8
 7828 245c 5E010000 		.4byte	.LASF492
 7829 2460 2A       		.byte	0x2a
 7830 2461 FB       		.byte	0xfb
 7831 2462 C8030000 		.4byte	0x3c8
 7832 2466 04       		.byte	0x4
 7833 2467 08       		.uleb128 0x8
 7834 2468 E70D0000 		.4byte	.LASF493
 7835 246c 2A       		.byte	0x2a
 7836 246d FF       		.byte	0xff
 7837 246e 3A000000 		.4byte	0x3a
 7838 2472 08       		.byte	0x8
 7839 2473 0A       		.uleb128 0xa
 7840 2474 4D0A0000 		.4byte	.LASF356
 7841 2478 2A       		.byte	0x2a
 7842 2479 0301     		.2byte	0x103
 7843 247b 1B240000 		.4byte	0x241b
 7844 247f 0C       		.byte	0xc
 7845 2480 0A       		.uleb128 0xa
 7846 2481 111D0000 		.4byte	.LASF494
 7847 2485 2A       		.byte	0x2a
 7848 2486 0F01     		.2byte	0x10f
 7849 2488 DD000000 		.4byte	0xdd
 7850 248c 10       		.byte	0x10
 7851 248d 0A       		.uleb128 0xa
 7852 248e 47070000 		.4byte	.LASF495
 7853 2492 2A       		.byte	0x2a
 7854 2493 1501     		.2byte	0x115
 7855 2495 DD000000 		.4byte	0xdd
 7856 2499 12       		.byte	0x12
 7857 249a 00       		.byte	0
 7858 249b 0B       		.uleb128 0xb
 7859 249c 04       		.byte	0x4
 7860 249d A1240000 		.4byte	0x24a1
 7861 24a1 25       		.uleb128 0x25
 7862 24a2 1A       		.uleb128 0x1a
 7863 24a3 D22A0000 		.4byte	.LASF496
 7864 24a7 2A       		.byte	0x2a
 7865 24a8 1601     		.2byte	0x116
 7866 24aa 47240000 		.4byte	0x2447
 7867 24ae 05       		.uleb128 0x5
 7868 24af A2240000 		.4byte	0x24a2
 7869 24b3 0B       		.uleb128 0xb
 7870 24b4 04       		.byte	0x4
 7871 24b5 AE240000 		.4byte	0x24ae
 7872 24b9 0B       		.uleb128 0xb
 7873 24ba 04       		.byte	0x4
 7874 24bb F10C0000 		.4byte	0xcf1
 7875 24bf 15       		.uleb128 0x15
 7876 24c0 1A2B0000 		.4byte	.LASF497
 7877 24c4 2A       		.byte	0x2a
 7878 24c5 4801     		.2byte	0x148
 7879 24c7 9A230000 		.4byte	0x239a
ARM GAS  C:\Users\adrie\AppData\Local\Temp\ccgB8szF.s 			page 140


 7880 24cb 21       		.uleb128 0x21
 7881 24cc 07       		.byte	0x7
 7882 24cd 01       		.byte	0x1
 7883 24ce 6C000000 		.4byte	0x6c
 7884 24d2 2B       		.byte	0x2b
 7885 24d3 4A       		.byte	0x4a
 7886 24d4 EB240000 		.4byte	0x24eb
 7887 24d8 22       		.uleb128 0x22
 7888 24d9 38080000 		.4byte	.LASF498
 7889 24dd 00       		.byte	0
 7890 24de 22       		.uleb128 0x22
 7891 24df BC0D0000 		.4byte	.LASF499
 7892 24e3 01       		.byte	0x1
 7893 24e4 22       		.uleb128 0x22
 7894 24e5 9A120000 		.4byte	.LASF500
 7895 24e9 02       		.byte	0x2
 7896 24ea 00       		.byte	0
 7897 24eb 04       		.uleb128 0x4
 7898 24ec B0030000 		.4byte	.LASF501
 7899 24f0 2B       		.byte	0x2b
 7900 24f1 4E       		.byte	0x4e
 7901 24f2 CB240000 		.4byte	0x24cb
 7902 24f6 04       		.uleb128 0x4
 7903 24f7 E50C0000 		.4byte	.LASF502
 7904 24fb 2B       		.byte	0x2b
 7905 24fc 53       		.byte	0x53
 7906 24fd 01250000 		.4byte	0x2501
 7907 2501 0C       		.uleb128 0xc
 7908 2502 E50C0000 		.4byte	.LASF502
 7909 2506 1C       		.byte	0x1c
 7910 2507 2C       		.byte	0x2c
 7911 2508 7901     		.2byte	0x179
 7912 250a 6A250000 		.4byte	0x256a
 7913 250e 0A       		.uleb128 0xa
 7914 250f CC180000 		.4byte	.LASF343
 7915 2513 2C       		.byte	0x2c
 7916 2514 7D01     		.2byte	0x17d
 7917 2516 EB240000 		.4byte	0x24eb
 7918 251a 00       		.byte	0
 7919 251b 0A       		.uleb128 0xa
 7920 251c 16200000 		.4byte	.LASF344
 7921 2520 2C       		.byte	0x2c
 7922 2521 8101     		.2byte	0x181
 7923 2523 65260000 		.4byte	0x2665
 7924 2527 04       		.byte	0x4
 7925 2528 0A       		.uleb128 0xa
 7926 2529 B4150000 		.4byte	.LASF503
 7927 252d 2C       		.byte	0x2c
 7928 252e 8501     		.2byte	0x185
 7929 2530 B0250000 		.4byte	0x25b0
 7930 2534 08       		.byte	0x8
 7931 2535 0A       		.uleb128 0xa
 7932 2536 A61D0000 		.4byte	.LASF504
 7933 253a 2C       		.byte	0x2c
 7934 253b 8901     		.2byte	0x189
 7935 253d A4250000 		.4byte	0x25a4
 7936 2541 0C       		.byte	0xc
ARM GAS  C:\Users\adrie\AppData\Local\Temp\ccgB8szF.s 			page 141


 7937 2542 0A       		.uleb128 0xa
 7938 2543 96250000 		.4byte	.LASF424
 7939 2547 2C       		.byte	0x2c
 7940 2548 8D01     		.2byte	0x18d
 7941 254a 98250000 		.4byte	0x2598
 7942 254e 10       		.byte	0x10
 7943 254f 0A       		.uleb128 0xa
 7944 2550 140E0000 		.4byte	.LASF434
 7945 2554 2C       		.byte	0x2c
 7946 2555 9501     		.2byte	0x195
 7947 2557 03010000 		.4byte	0x103
 7948 255b 14       		.byte	0x14
 7949 255c 09       		.uleb128 0x9
 7950 255d 74696D00 		.ascii	"tim\000"
 7951 2561 2C       		.byte	0x2c
 7952 2562 9901     		.2byte	0x199
 7953 2564 87210000 		.4byte	0x2187
 7954 2568 18       		.byte	0x18
 7955 2569 00       		.byte	0
 7956 256a 04       		.uleb128 0x4
 7957 256b 57130000 		.4byte	.LASF505
 7958 256f 2B       		.byte	0x2b
 7959 2570 5A       		.byte	0x5a
 7960 2571 75250000 		.4byte	0x2575
 7961 2575 0B       		.uleb128 0xb
 7962 2576 04       		.byte	0x4
 7963 2577 7B250000 		.4byte	0x257b
 7964 257b 0D       		.uleb128 0xd
 7965 257c 86250000 		.4byte	0x2586
 7966 2580 0E       		.uleb128 0xe
 7967 2581 86250000 		.4byte	0x2586
 7968 2585 00       		.byte	0
 7969 2586 0B       		.uleb128 0xb
 7970 2587 04       		.byte	0x4
 7971 2588 F6240000 		.4byte	0x24f6
 7972 258c 1A       		.uleb128 0x1a
 7973 258d E3170000 		.4byte	.LASF506
 7974 2591 2C       		.byte	0x2c
 7975 2592 2501     		.2byte	0x125
 7976 2594 03010000 		.4byte	0x103
 7977 2598 1A       		.uleb128 0x1a
 7978 2599 941A0000 		.4byte	.LASF507
 7979 259d 2C       		.byte	0x2c
 7980 259e 2A01     		.2byte	0x12a
 7981 25a0 CD000000 		.4byte	0xcd
 7982 25a4 1A       		.uleb128 0x1a
 7983 25a5 0E030000 		.4byte	.LASF508
 7984 25a9 2C       		.byte	0x2c
 7985 25aa 2F01     		.2byte	0x12f
 7986 25ac 03010000 		.4byte	0x103
 7987 25b0 1A       		.uleb128 0x1a
 7988 25b1 E40E0000 		.4byte	.LASF509
 7989 25b5 2C       		.byte	0x2c
 7990 25b6 3401     		.2byte	0x134
 7991 25b8 03010000 		.4byte	0x103
 7992 25bc 19       		.uleb128 0x19
 7993 25bd 08       		.byte	0x8
ARM GAS  C:\Users\adrie\AppData\Local\Temp\ccgB8szF.s 			page 142


 7994 25be 2C       		.byte	0x2c
 7995 25bf 3901     		.2byte	0x139
 7996 25c1 E0250000 		.4byte	0x25e0
 7997 25c5 0A       		.uleb128 0xa
 7998 25c6 78090000 		.4byte	.LASF422
 7999 25ca 2C       		.byte	0x2c
 8000 25cb 3D01     		.2byte	0x13d
 8001 25cd 8C250000 		.4byte	0x258c
 8002 25d1 00       		.byte	0
 8003 25d2 0A       		.uleb128 0xa
 8004 25d3 3A190000 		.4byte	.LASF448
 8005 25d7 2C       		.byte	0x2c
 8006 25d8 4301     		.2byte	0x143
 8007 25da 6A250000 		.4byte	0x256a
 8008 25de 04       		.byte	0x4
 8009 25df 00       		.byte	0
 8010 25e0 1A       		.uleb128 0x1a
 8011 25e1 D30E0000 		.4byte	.LASF510
 8012 25e5 2C       		.byte	0x2c
 8013 25e6 4501     		.2byte	0x145
 8014 25e8 BC250000 		.4byte	0x25bc
 8015 25ec 19       		.uleb128 0x19
 8016 25ed 34       		.byte	0x34
 8017 25ee 2C       		.byte	0x2c
 8018 25ef 4A01     		.2byte	0x14a
 8019 25f1 44260000 		.4byte	0x2644
 8020 25f5 0A       		.uleb128 0xa
 8021 25f6 05290000 		.4byte	.LASF447
 8022 25fa 2C       		.byte	0x2c
 8023 25fb 5001     		.2byte	0x150
 8024 25fd 03010000 		.4byte	0x103
 8025 2601 00       		.byte	0
 8026 2602 0A       		.uleb128 0xa
 8027 2603 B4150000 		.4byte	.LASF503
 8028 2607 2C       		.byte	0x2c
 8029 2608 5601     		.2byte	0x156
 8030 260a B0250000 		.4byte	0x25b0
 8031 260e 04       		.byte	0x4
 8032 260f 0A       		.uleb128 0xa
 8033 2610 3A190000 		.4byte	.LASF448
 8034 2614 2C       		.byte	0x2c
 8035 2615 5C01     		.2byte	0x15c
 8036 2617 6A250000 		.4byte	0x256a
 8037 261b 08       		.byte	0x8
 8038 261c 0A       		.uleb128 0xa
 8039 261d 96250000 		.4byte	.LASF424
 8040 2621 2C       		.byte	0x2c
 8041 2622 6001     		.2byte	0x160
 8042 2624 44260000 		.4byte	0x2644
 8043 2628 0C       		.byte	0xc
 8044 2629 09       		.uleb128 0x9
 8045 262a 63723200 		.ascii	"cr2\000"
 8046 262e 2C       		.byte	0x2c
 8047 262f 6601     		.2byte	0x166
 8048 2631 03010000 		.4byte	0x103
 8049 2635 2C       		.byte	0x2c
 8050 2636 0A       		.uleb128 0xa
ARM GAS  C:\Users\adrie\AppData\Local\Temp\ccgB8szF.s 			page 143


 8051 2637 770D0000 		.4byte	.LASF449
 8052 263b 2C       		.byte	0x2c
 8053 263c 7301     		.2byte	0x173
 8054 263e 03010000 		.4byte	0x103
 8055 2642 30       		.byte	0x30
 8056 2643 00       		.byte	0
 8057 2644 13       		.uleb128 0x13
 8058 2645 E0250000 		.4byte	0x25e0
 8059 2649 54260000 		.4byte	0x2654
 8060 264d 14       		.uleb128 0x14
 8061 264e 45000000 		.4byte	0x45
 8062 2652 03       		.byte	0x3
 8063 2653 00       		.byte	0
 8064 2654 1A       		.uleb128 0x1a
 8065 2655 FD0C0000 		.4byte	.LASF511
 8066 2659 2C       		.byte	0x2c
 8067 265a 7401     		.2byte	0x174
 8068 265c EC250000 		.4byte	0x25ec
 8069 2660 05       		.uleb128 0x5
 8070 2661 54260000 		.4byte	0x2654
 8071 2665 0B       		.uleb128 0xb
 8072 2666 04       		.byte	0x4
 8073 2667 60260000 		.4byte	0x2660
 8074 266b 15       		.uleb128 0x15
 8075 266c 43140000 		.4byte	.LASF512
 8076 2670 2C       		.byte	0x2c
 8077 2671 BC01     		.2byte	0x1bc
 8078 2673 F6240000 		.4byte	0x24f6
 8079 2677 15       		.uleb128 0x15
 8080 2678 49140000 		.4byte	.LASF513
 8081 267c 2C       		.byte	0x2c
 8082 267d C001     		.2byte	0x1c0
 8083 267f F6240000 		.4byte	0x24f6
 8084 2683 15       		.uleb128 0x15
 8085 2684 4F140000 		.4byte	.LASF514
 8086 2688 2C       		.byte	0x2c
 8087 2689 C401     		.2byte	0x1c4
 8088 268b F6240000 		.4byte	0x24f6
 8089 268f 15       		.uleb128 0x15
 8090 2690 55140000 		.4byte	.LASF515
 8091 2694 2C       		.byte	0x2c
 8092 2695 C801     		.2byte	0x1c8
 8093 2697 F6240000 		.4byte	0x24f6
 8094 269b 21       		.uleb128 0x21
 8095 269c 07       		.byte	0x7
 8096 269d 01       		.byte	0x1
 8097 269e 6C000000 		.4byte	0x6c
 8098 26a2 2D       		.byte	0x2d
 8099 26a3 55       		.byte	0x55
 8100 26a4 BB260000 		.4byte	0x26bb
 8101 26a8 22       		.uleb128 0x22
 8102 26a9 1B070000 		.4byte	.LASF516
 8103 26ad 00       		.byte	0
 8104 26ae 22       		.uleb128 0x22
 8105 26af 5D0E0000 		.4byte	.LASF517
 8106 26b3 01       		.byte	0x1
 8107 26b4 22       		.uleb128 0x22
ARM GAS  C:\Users\adrie\AppData\Local\Temp\ccgB8szF.s 			page 144


 8108 26b5 B4100000 		.4byte	.LASF518
 8109 26b9 02       		.byte	0x2
 8110 26ba 00       		.byte	0
 8111 26bb 04       		.uleb128 0x4
 8112 26bc CA1B0000 		.4byte	.LASF519
 8113 26c0 2D       		.byte	0x2d
 8114 26c1 59       		.byte	0x59
 8115 26c2 9B260000 		.4byte	0x269b
 8116 26c6 04       		.uleb128 0x4
 8117 26c7 C1250000 		.4byte	.LASF520
 8118 26cb 2D       		.byte	0x2d
 8119 26cc 5E       		.byte	0x5e
 8120 26cd D1260000 		.4byte	0x26d1
 8121 26d1 07       		.uleb128 0x7
 8122 26d2 C1250000 		.4byte	.LASF520
 8123 26d6 78       		.byte	0x78
 8124 26d7 2D       		.byte	0x2d
 8125 26d8 78       		.byte	0x78
 8126 26d9 3C270000 		.4byte	0x273c
 8127 26dd 18       		.uleb128 0x18
 8128 26de 766D7400 		.ascii	"vmt\000"
 8129 26e2 2D       		.byte	0x2d
 8130 26e3 7A       		.byte	0x7a
 8131 26e4 BA270000 		.4byte	0x27ba
 8132 26e8 00       		.byte	0
 8133 26e9 08       		.uleb128 0x8
 8134 26ea 47000000 		.4byte	.LASF521
 8135 26ee 2D       		.byte	0x2d
 8136 26ef 7B       		.byte	0x7b
 8137 26f0 06130000 		.4byte	0x1306
 8138 26f4 04       		.byte	0x4
 8139 26f5 08       		.uleb128 0x8
 8140 26f6 CC180000 		.4byte	.LASF343
 8141 26fa 2D       		.byte	0x2d
 8142 26fb 7B       		.byte	0x7b
 8143 26fc BB260000 		.4byte	0x26bb
 8144 2700 08       		.byte	0x8
 8145 2701 08       		.uleb128 0x8
 8146 2702 AB1B0000 		.4byte	.LASF522
 8147 2706 2D       		.byte	0x2d
 8148 2707 7B       		.byte	0x7b
 8149 2708 B1130000 		.4byte	0x13b1
 8150 270c 0C       		.byte	0xc
 8151 270d 08       		.uleb128 0x8
 8152 270e 69140000 		.4byte	.LASF523
 8153 2712 2D       		.byte	0x2d
 8154 2713 7B       		.byte	0x7b
 8155 2714 BC130000 		.4byte	0x13bc
 8156 2718 30       		.byte	0x30
 8157 2719 18       		.uleb128 0x18
 8158 271a 696200   		.ascii	"ib\000"
 8159 271d 2D       		.byte	0x2d
 8160 271e 7B       		.byte	0x7b
 8161 271f C0270000 		.4byte	0x27c0
 8162 2723 54       		.byte	0x54
 8163 2724 18       		.uleb128 0x18
 8164 2725 6F6200   		.ascii	"ob\000"
ARM GAS  C:\Users\adrie\AppData\Local\Temp\ccgB8szF.s 			page 145


 8165 2728 2D       		.byte	0x2d
 8166 2729 7B       		.byte	0x7b
 8167 272a C0270000 		.4byte	0x27c0
 8168 272e 64       		.byte	0x64
 8169 272f 08       		.uleb128 0x8
 8170 2730 CE1D0000 		.4byte	.LASF524
 8171 2734 2D       		.byte	0x2d
 8172 2735 7B       		.byte	0x7b
 8173 2736 D0270000 		.4byte	0x27d0
 8174 273a 74       		.byte	0x74
 8175 273b 00       		.byte	0
 8176 273c 1F       		.uleb128 0x1f
 8177 273d 53443300 		.ascii	"SD3\000"
 8178 2741 2E       		.byte	0x2e
 8179 2742 1501     		.2byte	0x115
 8180 2744 C6260000 		.4byte	0x26c6
 8181 2748 07       		.uleb128 0x7
 8182 2749 1E100000 		.4byte	.LASF525
 8183 274d 20       		.byte	0x20
 8184 274e 2D       		.byte	0x2d
 8185 274f 6D       		.byte	0x6d
 8186 2750 B5270000 		.4byte	0x27b5
 8187 2754 08       		.uleb128 0x8
 8188 2755 9A1B0000 		.4byte	.LASF526
 8189 2759 2D       		.byte	0x2d
 8190 275a 6E       		.byte	0x6e
 8191 275b E6130000 		.4byte	0x13e6
 8192 275f 00       		.byte	0
 8193 2760 08       		.uleb128 0x8
 8194 2761 23050000 		.4byte	.LASF527
 8195 2765 2D       		.byte	0x2d
 8196 2766 6E       		.byte	0x6e
 8197 2767 05140000 		.4byte	0x1405
 8198 276b 04       		.byte	0x4
 8199 276c 18       		.uleb128 0x18
 8200 276d 70757400 		.ascii	"put\000"
 8201 2771 2D       		.byte	0x2d
 8202 2772 6E       		.byte	0x6e
 8203 2773 1F140000 		.4byte	0x141f
 8204 2777 08       		.byte	0x8
 8205 2778 18       		.uleb128 0x18
 8206 2779 67657400 		.ascii	"get\000"
 8207 277d 2D       		.byte	0x2d
 8208 277e 6E       		.byte	0x6e
 8209 277f 34140000 		.4byte	0x1434
 8210 2783 0C       		.byte	0xc
 8211 2784 08       		.uleb128 0x8
 8212 2785 B7160000 		.4byte	.LASF528
 8213 2789 2D       		.byte	0x2d
 8214 278a 6E       		.byte	0x6e
 8215 278b D5140000 		.4byte	0x14d5
 8216 278f 10       		.byte	0x10
 8217 2790 08       		.uleb128 0x8
 8218 2791 6D1B0000 		.4byte	.LASF529
 8219 2795 2D       		.byte	0x2d
 8220 2796 6E       		.byte	0x6e
 8221 2797 EF140000 		.4byte	0x14ef
ARM GAS  C:\Users\adrie\AppData\Local\Temp\ccgB8szF.s 			page 146


 8222 279b 14       		.byte	0x14
 8223 279c 08       		.uleb128 0x8
 8224 279d C4260000 		.4byte	.LASF530
 8225 27a1 2D       		.byte	0x2d
 8226 27a2 6E       		.byte	0x6e
 8227 27a3 13150000 		.4byte	0x1513
 8228 27a7 18       		.byte	0x18
 8229 27a8 08       		.uleb128 0x8
 8230 27a9 F9150000 		.4byte	.LASF531
 8231 27ad 2D       		.byte	0x2d
 8232 27ae 6E       		.byte	0x6e
 8233 27af 37150000 		.4byte	0x1537
 8234 27b3 1C       		.byte	0x1c
 8235 27b4 00       		.byte	0
 8236 27b5 05       		.uleb128 0x5
 8237 27b6 48270000 		.4byte	0x2748
 8238 27ba 0B       		.uleb128 0xb
 8239 27bb 04       		.byte	0x4
 8240 27bc B5270000 		.4byte	0x27b5
 8241 27c0 13       		.uleb128 0x13
 8242 27c1 CD000000 		.4byte	0xcd
 8243 27c5 D0270000 		.4byte	0x27d0
 8244 27c9 14       		.uleb128 0x14
 8245 27ca 45000000 		.4byte	0x45
 8246 27ce 0F       		.byte	0xf
 8247 27cf 00       		.byte	0
 8248 27d0 0B       		.uleb128 0xb
 8249 27d1 04       		.byte	0x4
 8250 27d2 600D0000 		.4byte	0xd60
 8251 27d6 21       		.uleb128 0x21
 8252 27d7 07       		.byte	0x7
 8253 27d8 01       		.byte	0x1
 8254 27d9 6C000000 		.4byte	0x6c
 8255 27dd 2F       		.byte	0x2f
 8256 27de 6C       		.byte	0x6c
 8257 27df F6270000 		.4byte	0x27f6
 8258 27e3 22       		.uleb128 0x22
 8259 27e4 6E030000 		.4byte	.LASF532
 8260 27e8 00       		.byte	0
 8261 27e9 22       		.uleb128 0x22
 8262 27ea F9170000 		.4byte	.LASF533
 8263 27ee 01       		.byte	0x1
 8264 27ef 22       		.uleb128 0x22
 8265 27f0 68150000 		.4byte	.LASF534
 8266 27f4 02       		.byte	0x2
 8267 27f5 00       		.byte	0
 8268 27f6 04       		.uleb128 0x4
 8269 27f7 311F0000 		.4byte	.LASF535
 8270 27fb 2F       		.byte	0x2f
 8271 27fc 70       		.byte	0x70
 8272 27fd D6270000 		.4byte	0x27d6
 8273 2801 04       		.uleb128 0x4
 8274 2802 F91D0000 		.4byte	.LASF536
 8275 2806 30       		.byte	0x30
 8276 2807 BF       		.byte	0xbf
 8277 2808 03010000 		.4byte	0x103
 8278 280c 04       		.uleb128 0x4
ARM GAS  C:\Users\adrie\AppData\Local\Temp\ccgB8szF.s 			page 147


 8279 280d 071B0000 		.4byte	.LASF537
 8280 2811 30       		.byte	0x30
 8281 2812 C4       		.byte	0xc4
 8282 2813 03010000 		.4byte	0x103
 8283 2817 04       		.uleb128 0x4
 8284 2818 A5250000 		.4byte	.LASF538
 8285 281c 30       		.byte	0x30
 8286 281d C9       		.byte	0xc9
 8287 281e 22280000 		.4byte	0x2822
 8288 2822 07       		.uleb128 0x7
 8289 2823 A5250000 		.4byte	.LASF538
 8290 2827 4C       		.byte	0x4c
 8291 2828 30       		.byte	0x30
 8292 2829 F2       		.byte	0xf2
 8293 282a D1280000 		.4byte	0x28d1
 8294 282e 18       		.uleb128 0x18
 8295 282f 766D7400 		.ascii	"vmt\000"
 8296 2833 30       		.byte	0x30
 8297 2834 F6       		.byte	0xf6
 8298 2835 74290000 		.4byte	0x2974
 8299 2839 00       		.byte	0
 8300 283a 08       		.uleb128 0x8
 8301 283b CC180000 		.4byte	.LASF343
 8302 283f 30       		.byte	0x30
 8303 2840 F7       		.byte	0xf7
 8304 2841 81150000 		.4byte	0x1581
 8305 2845 04       		.byte	0x4
 8306 2846 18       		.uleb128 0x18
 8307 2847 63696400 		.ascii	"cid\000"
 8308 284b 30       		.byte	0x30
 8309 284c F7       		.byte	0xf7
 8310 284d 3C160000 		.4byte	0x163c
 8311 2851 08       		.byte	0x8
 8312 2852 18       		.uleb128 0x18
 8313 2853 63736400 		.ascii	"csd\000"
 8314 2857 30       		.byte	0x30
 8315 2858 F7       		.byte	0xf7
 8316 2859 3C160000 		.4byte	0x163c
 8317 285d 18       		.byte	0x18
 8318 285e 08       		.uleb128 0x8
 8319 285f F2200000 		.4byte	.LASF539
 8320 2863 30       		.byte	0x30
 8321 2864 F7       		.byte	0xf7
 8322 2865 03010000 		.4byte	0x103
 8323 2869 28       		.byte	0x28
 8324 286a 08       		.uleb128 0x8
 8325 286b 16200000 		.4byte	.LASF344
 8326 286f 30       		.byte	0x30
 8327 2870 FB       		.byte	0xfb
 8328 2871 7A290000 		.4byte	0x297a
 8329 2875 2C       		.byte	0x2c
 8330 2876 08       		.uleb128 0x8
 8331 2877 A2170000 		.4byte	.LASF540
 8332 287b 30       		.byte	0x30
 8333 287c FF       		.byte	0xff
 8334 287d 01280000 		.4byte	0x2801
 8335 2881 30       		.byte	0x30
ARM GAS  C:\Users\adrie\AppData\Local\Temp\ccgB8szF.s 			page 148


 8336 2882 0A       		.uleb128 0xa
 8337 2883 68010000 		.4byte	.LASF476
 8338 2887 30       		.byte	0x30
 8339 2888 0301     		.2byte	0x103
 8340 288a 0C280000 		.4byte	0x280c
 8341 288e 34       		.byte	0x34
 8342 288f 09       		.uleb128 0x9
 8343 2890 72636100 		.ascii	"rca\000"
 8344 2894 30       		.byte	0x30
 8345 2895 0701     		.2byte	0x107
 8346 2897 03010000 		.4byte	0x103
 8347 289b 38       		.byte	0x38
 8348 289c 0A       		.uleb128 0xa
 8349 289d D8070000 		.4byte	.LASF348
 8350 28a1 30       		.byte	0x30
 8351 28a2 0C01     		.2byte	0x10c
 8352 28a4 E0020000 		.4byte	0x2e0
 8353 28a8 3C       		.byte	0x3c
 8354 28a9 0A       		.uleb128 0xa
 8355 28aa 4E1B0000 		.4byte	.LASF351
 8356 28ae 30       		.byte	0x30
 8357 28af 1001     		.2byte	0x110
 8358 28b1 03010000 		.4byte	0x103
 8359 28b5 40       		.byte	0x40
 8360 28b6 09       		.uleb128 0x9
 8361 28b7 646D6100 		.ascii	"dma\000"
 8362 28bb 30       		.byte	0x30
 8363 28bc 1401     		.2byte	0x114
 8364 28be 811A0000 		.4byte	0x1a81
 8365 28c2 44       		.byte	0x44
 8366 28c3 0A       		.uleb128 0xa
 8367 28c4 E4180000 		.4byte	.LASF541
 8368 28c8 30       		.byte	0x30
 8369 28c9 1901     		.2byte	0x119
 8370 28cb 80290000 		.4byte	0x2980
 8371 28cf 48       		.byte	0x48
 8372 28d0 00       		.byte	0
 8373 28d1 17       		.uleb128 0x17
 8374 28d2 08       		.byte	0x8
 8375 28d3 30       		.byte	0x30
 8376 28d4 CF       		.byte	0xcf
 8377 28d5 F2280000 		.4byte	0x28f2
 8378 28d9 08       		.uleb128 0x8
 8379 28da 3F0F0000 		.4byte	.LASF542
 8380 28de 30       		.byte	0x30
 8381 28df D8       		.byte	0xd8
 8382 28e0 AB130000 		.4byte	0x13ab
 8383 28e4 00       		.byte	0
 8384 28e5 08       		.uleb128 0x8
 8385 28e6 BC270000 		.4byte	.LASF543
 8386 28ea 30       		.byte	0x30
 8387 28eb DC       		.byte	0xdc
 8388 28ec F6270000 		.4byte	0x27f6
 8389 28f0 04       		.byte	0x4
 8390 28f1 00       		.byte	0
 8391 28f2 04       		.uleb128 0x4
 8392 28f3 63180000 		.4byte	.LASF544
ARM GAS  C:\Users\adrie\AppData\Local\Temp\ccgB8szF.s 			page 149


 8393 28f7 30       		.byte	0x30
 8394 28f8 DE       		.byte	0xde
 8395 28f9 D1280000 		.4byte	0x28d1
 8396 28fd 05       		.uleb128 0x5
 8397 28fe F2280000 		.4byte	0x28f2
 8398 2902 07       		.uleb128 0x7
 8399 2903 E2270000 		.4byte	.LASF545
 8400 2907 20       		.byte	0x20
 8401 2908 30       		.byte	0x30
 8402 2909 EB       		.byte	0xeb
 8403 290a 6F290000 		.4byte	0x296f
 8404 290e 08       		.uleb128 0x8
 8405 290f 202B0000 		.4byte	.LASF546
 8406 2913 30       		.byte	0x30
 8407 2914 EC       		.byte	0xec
 8408 2915 CE150000 		.4byte	0x15ce
 8409 2919 00       		.byte	0
 8410 291a 08       		.uleb128 0x8
 8411 291b 7C0D0000 		.4byte	.LASF547
 8412 291f 30       		.byte	0x30
 8413 2920 EC       		.byte	0xec
 8414 2921 CE150000 		.4byte	0x15ce
 8415 2925 04       		.byte	0x4
 8416 2926 08       		.uleb128 0x8
 8417 2927 62100000 		.4byte	.LASF548
 8418 292b 30       		.byte	0x30
 8419 292c EC       		.byte	0xec
 8420 292d CE150000 		.4byte	0x15ce
 8421 2931 08       		.byte	0x8
 8422 2932 08       		.uleb128 0x8
 8423 2933 A5160000 		.4byte	.LASF549
 8424 2937 30       		.byte	0x30
 8425 2938 EC       		.byte	0xec
 8426 2939 CE150000 		.4byte	0x15ce
 8427 293d 0C       		.byte	0xc
 8428 293e 08       		.uleb128 0x8
 8429 293f 23050000 		.4byte	.LASF527
 8430 2943 30       		.byte	0x30
 8431 2944 EC       		.byte	0xec
 8432 2945 F2150000 		.4byte	0x15f2
 8433 2949 10       		.byte	0x10
 8434 294a 08       		.uleb128 0x8
 8435 294b 9A1B0000 		.4byte	.LASF526
 8436 294f 30       		.byte	0x30
 8437 2950 EC       		.byte	0xec
 8438 2951 16160000 		.4byte	0x1616
 8439 2955 14       		.byte	0x14
 8440 2956 08       		.uleb128 0x8
 8441 2957 C91D0000 		.4byte	.LASF550
 8442 295b 30       		.byte	0x30
 8443 295c EC       		.byte	0xec
 8444 295d CE150000 		.4byte	0x15ce
 8445 2961 18       		.byte	0x18
 8446 2962 08       		.uleb128 0x8
 8447 2963 53270000 		.4byte	.LASF551
 8448 2967 30       		.byte	0x30
 8449 2968 EC       		.byte	0xec
ARM GAS  C:\Users\adrie\AppData\Local\Temp\ccgB8szF.s 			page 150


 8450 2969 36160000 		.4byte	0x1636
 8451 296d 1C       		.byte	0x1c
 8452 296e 00       		.byte	0
 8453 296f 05       		.uleb128 0x5
 8454 2970 02290000 		.4byte	0x2902
 8455 2974 0B       		.uleb128 0xb
 8456 2975 04       		.byte	0x4
 8457 2976 6F290000 		.4byte	0x296f
 8458 297a 0B       		.uleb128 0xb
 8459 297b 04       		.byte	0x4
 8460 297c FD280000 		.4byte	0x28fd
 8461 2980 0B       		.uleb128 0xb
 8462 2981 04       		.byte	0x4
 8463 2982 680C0000 		.4byte	0xc68
 8464 2986 15       		.uleb128 0x15
 8465 2987 360B0000 		.4byte	.LASF552
 8466 298b 30       		.byte	0x30
 8467 298c 2501     		.2byte	0x125
 8468 298e 17280000 		.4byte	0x2817
 8469 2992 21       		.uleb128 0x21
 8470 2993 07       		.byte	0x7
 8471 2994 01       		.byte	0x1
 8472 2995 6C000000 		.4byte	0x6c
 8473 2999 31       		.byte	0x31
 8474 299a 46       		.byte	0x46
 8475 299b BE290000 		.4byte	0x29be
 8476 299f 22       		.uleb128 0x22
 8477 29a0 EE070000 		.4byte	.LASF553
 8478 29a4 00       		.byte	0
 8479 29a5 22       		.uleb128 0x22
 8480 29a6 05030000 		.4byte	.LASF554
 8481 29aa 01       		.byte	0x1
 8482 29ab 22       		.uleb128 0x22
 8483 29ac 99270000 		.4byte	.LASF555
 8484 29b0 02       		.byte	0x2
 8485 29b1 22       		.uleb128 0x22
 8486 29b2 B30F0000 		.4byte	.LASF556
 8487 29b6 03       		.byte	0x3
 8488 29b7 22       		.uleb128 0x22
 8489 29b8 2D160000 		.4byte	.LASF557
 8490 29bc 04       		.byte	0x4
 8491 29bd 00       		.byte	0
 8492 29be 04       		.uleb128 0x4
 8493 29bf 720F0000 		.4byte	.LASF558
 8494 29c3 31       		.byte	0x31
 8495 29c4 4C       		.byte	0x4c
 8496 29c5 92290000 		.4byte	0x2992
 8497 29c9 1A       		.uleb128 0x1a
 8498 29ca 38250000 		.4byte	.LASF559
 8499 29ce 32       		.byte	0x32
 8500 29cf 9601     		.2byte	0x196
 8501 29d1 D5290000 		.4byte	0x29d5
 8502 29d5 0C       		.uleb128 0xc
 8503 29d6 38250000 		.4byte	.LASF559
 8504 29da 34       		.byte	0x34
 8505 29db 32       		.byte	0x32
 8506 29dc BA01     		.2byte	0x1ba
ARM GAS  C:\Users\adrie\AppData\Local\Temp\ccgB8szF.s 			page 151


 8507 29de 582A0000 		.4byte	0x2a58
 8508 29e2 0A       		.uleb128 0xa
 8509 29e3 CC180000 		.4byte	.LASF343
 8510 29e7 32       		.byte	0x32
 8511 29e8 BE01     		.2byte	0x1be
 8512 29ea BE290000 		.4byte	0x29be
 8513 29ee 00       		.byte	0
 8514 29ef 0A       		.uleb128 0xa
 8515 29f0 16200000 		.4byte	.LASF344
 8516 29f4 32       		.byte	0x32
 8517 29f5 C201     		.2byte	0x1c2
 8518 29f7 CA2A0000 		.4byte	0x2aca
 8519 29fb 04       		.byte	0x4
 8520 29fc 0A       		.uleb128 0xa
 8521 29fd D8070000 		.4byte	.LASF348
 8522 2a01 32       		.byte	0x32
 8523 2a02 C701     		.2byte	0x1c7
 8524 2a04 E0020000 		.4byte	0x2e0
 8525 2a08 08       		.byte	0x8
 8526 2a09 0A       		.uleb128 0xa
 8527 2a0a E10D0000 		.4byte	.LASF349
 8528 2a0e 32       		.byte	0x32
 8529 2a0f CD01     		.2byte	0x1cd
 8530 2a11 82120000 		.4byte	0x1282
 8531 2a15 0C       		.byte	0xc
 8532 2a16 09       		.uleb128 0x9
 8533 2a17 73706900 		.ascii	"spi\000"
 8534 2a1b 32       		.byte	0x32
 8535 2a1c D601     		.2byte	0x1d6
 8536 2a1e B9240000 		.4byte	0x24b9
 8537 2a22 20       		.byte	0x20
 8538 2a23 0A       		.uleb128 0xa
 8539 2a24 16010000 		.4byte	.LASF480
 8540 2a28 32       		.byte	0x32
 8541 2a29 DA01     		.2byte	0x1da
 8542 2a2b 811A0000 		.4byte	0x1a81
 8543 2a2f 24       		.byte	0x24
 8544 2a30 0A       		.uleb128 0xa
 8545 2a31 24020000 		.4byte	.LASF481
 8546 2a35 32       		.byte	0x32
 8547 2a36 DE01     		.2byte	0x1de
 8548 2a38 811A0000 		.4byte	0x1a81
 8549 2a3c 28       		.byte	0x28
 8550 2a3d 0A       		.uleb128 0xa
 8551 2a3e 64090000 		.4byte	.LASF478
 8552 2a42 32       		.byte	0x32
 8553 2a43 E201     		.2byte	0x1e2
 8554 2a45 03010000 		.4byte	0x103
 8555 2a49 2C       		.byte	0x2c
 8556 2a4a 0A       		.uleb128 0xa
 8557 2a4b BE090000 		.4byte	.LASF479
 8558 2a4f 32       		.byte	0x32
 8559 2a50 E601     		.2byte	0x1e6
 8560 2a52 03010000 		.4byte	0x103
 8561 2a56 30       		.byte	0x30
 8562 2a57 00       		.byte	0
 8563 2a58 1A       		.uleb128 0x1a
ARM GAS  C:\Users\adrie\AppData\Local\Temp\ccgB8szF.s 			page 152


 8564 2a59 15180000 		.4byte	.LASF560
 8565 2a5d 32       		.byte	0x32
 8566 2a5e 9E01     		.2byte	0x19e
 8567 2a60 642A0000 		.4byte	0x2a64
 8568 2a64 0B       		.uleb128 0xb
 8569 2a65 04       		.byte	0x4
 8570 2a66 6A2A0000 		.4byte	0x2a6a
 8571 2a6a 0D       		.uleb128 0xd
 8572 2a6b 752A0000 		.4byte	0x2a75
 8573 2a6f 0E       		.uleb128 0xe
 8574 2a70 752A0000 		.4byte	0x2a75
 8575 2a74 00       		.byte	0
 8576 2a75 0B       		.uleb128 0xb
 8577 2a76 04       		.byte	0x4
 8578 2a77 C9290000 		.4byte	0x29c9
 8579 2a7b 19       		.uleb128 0x19
 8580 2a7c 0C       		.byte	0xc
 8581 2a7d 32       		.byte	0x32
 8582 2a7e A301     		.2byte	0x1a3
 8583 2a80 B92A0000 		.4byte	0x2ab9
 8584 2a84 0A       		.uleb128 0xa
 8585 2a85 4D0A0000 		.4byte	.LASF356
 8586 2a89 32       		.byte	0x32
 8587 2a8a A701     		.2byte	0x1a7
 8588 2a8c 582A0000 		.4byte	0x2a58
 8589 2a90 00       		.byte	0
 8590 2a91 0A       		.uleb128 0xa
 8591 2a92 88280000 		.4byte	.LASF561
 8592 2a96 32       		.byte	0x32
 8593 2a97 AC01     		.2byte	0x1ac
 8594 2a99 12180000 		.4byte	0x1812
 8595 2a9d 04       		.byte	0x4
 8596 2a9e 0A       		.uleb128 0xa
 8597 2a9f B8090000 		.4byte	.LASF562
 8598 2aa3 32       		.byte	0x32
 8599 2aa4 B001     		.2byte	0x1b0
 8600 2aa6 E8000000 		.4byte	0xe8
 8601 2aaa 08       		.byte	0x8
 8602 2aab 09       		.uleb128 0x9
 8603 2aac 63723100 		.ascii	"cr1\000"
 8604 2ab0 32       		.byte	0x32
 8605 2ab1 B401     		.2byte	0x1b4
 8606 2ab3 E8000000 		.4byte	0xe8
 8607 2ab7 0A       		.byte	0xa
 8608 2ab8 00       		.byte	0
 8609 2ab9 1A       		.uleb128 0x1a
 8610 2aba 48250000 		.4byte	.LASF563
 8611 2abe 32       		.byte	0x32
 8612 2abf B501     		.2byte	0x1b5
 8613 2ac1 7B2A0000 		.4byte	0x2a7b
 8614 2ac5 05       		.uleb128 0x5
 8615 2ac6 B92A0000 		.4byte	0x2ab9
 8616 2aca 0B       		.uleb128 0xb
 8617 2acb 04       		.byte	0x4
 8618 2acc C52A0000 		.4byte	0x2ac5
 8619 2ad0 15       		.uleb128 0x15
 8620 2ad1 671B0000 		.4byte	.LASF564
ARM GAS  C:\Users\adrie\AppData\Local\Temp\ccgB8szF.s 			page 153


 8621 2ad5 32       		.byte	0x32
 8622 2ad6 F201     		.2byte	0x1f2
 8623 2ad8 C9290000 		.4byte	0x29c9
 8624 2adc 04       		.uleb128 0x4
 8625 2add 1F140000 		.4byte	.LASF565
 8626 2ae1 33       		.byte	0x33
 8627 2ae2 FA       		.byte	0xfa
 8628 2ae3 E72A0000 		.4byte	0x2ae7
 8629 2ae7 10       		.uleb128 0x10
 8630 2ae8 1F140000 		.4byte	.LASF565
 8631 2aec 6002     		.2byte	0x260
 8632 2aee 34       		.byte	0x34
 8633 2aef 7701     		.2byte	0x177
 8634 2af1 132C0000 		.4byte	0x2c13
 8635 2af5 0A       		.uleb128 0xa
 8636 2af6 CC180000 		.4byte	.LASF343
 8637 2afa 34       		.byte	0x34
 8638 2afb 7B01     		.2byte	0x17b
 8639 2afd 4B2C0000 		.4byte	0x2c4b
 8640 2b01 00       		.byte	0
 8641 2b02 0A       		.uleb128 0xa
 8642 2b03 16200000 		.4byte	.LASF344
 8643 2b07 34       		.byte	0x34
 8644 2b08 7F01     		.2byte	0x17f
 8645 2b0a 6E350000 		.4byte	0x356e
 8646 2b0e 04       		.byte	0x4
 8647 2b0f 0A       		.uleb128 0xa
 8648 2b10 89250000 		.4byte	.LASF566
 8649 2b14 34       		.byte	0x34
 8650 2b15 8301     		.2byte	0x183
 8651 2b17 E8000000 		.4byte	0xe8
 8652 2b1b 08       		.byte	0x8
 8653 2b1c 0A       		.uleb128 0xa
 8654 2b1d CD280000 		.4byte	.LASF567
 8655 2b21 34       		.byte	0x34
 8656 2b22 8701     		.2byte	0x187
 8657 2b24 E8000000 		.4byte	0xe8
 8658 2b28 0A       		.byte	0xa
 8659 2b29 09       		.uleb128 0x9
 8660 2b2a 65706300 		.ascii	"epc\000"
 8661 2b2e 34       		.byte	0x34
 8662 2b2f 8B01     		.2byte	0x18b
 8663 2b31 74350000 		.4byte	0x3574
 8664 2b35 0C       		.byte	0xc
 8665 2b36 0A       		.uleb128 0xa
 8666 2b37 23080000 		.4byte	.LASF568
 8667 2b3b 34       		.byte	0x34
 8668 2b3c 9201     		.2byte	0x192
 8669 2b3e 8A350000 		.4byte	0x358a
 8670 2b42 1C       		.byte	0x1c
 8671 2b43 0A       		.uleb128 0xa
 8672 2b44 4D0D0000 		.4byte	.LASF569
 8673 2b48 34       		.byte	0x34
 8674 2b49 9901     		.2byte	0x199
 8675 2b4b 8A350000 		.4byte	0x358a
 8676 2b4f 28       		.byte	0x28
 8677 2b50 0A       		.uleb128 0xa
ARM GAS  C:\Users\adrie\AppData\Local\Temp\ccgB8szF.s 			page 154


 8678 2b51 49120000 		.4byte	.LASF570
 8679 2b55 34       		.byte	0x34
 8680 2b56 9D01     		.2byte	0x19d
 8681 2b58 902C0000 		.4byte	0x2c90
 8682 2b5c 34       		.byte	0x34
 8683 2b5d 0A       		.uleb128 0xa
 8684 2b5e A11F0000 		.4byte	.LASF571
 8685 2b62 34       		.byte	0x34
 8686 2b63 A101     		.2byte	0x1a1
 8687 2b65 AB130000 		.4byte	0x13ab
 8688 2b69 38       		.byte	0x38
 8689 2b6a 0A       		.uleb128 0xa
 8690 2b6b DC1A0000 		.4byte	.LASF572
 8691 2b6f 34       		.byte	0x34
 8692 2b70 A501     		.2byte	0x1a5
 8693 2b72 3A000000 		.4byte	0x3a
 8694 2b76 3C       		.byte	0x3c
 8695 2b77 0A       		.uleb128 0xa
 8696 2b78 84220000 		.4byte	.LASF573
 8697 2b7c 34       		.byte	0x34
 8698 2b7d A901     		.2byte	0x1a9
 8699 2b7f 102D0000 		.4byte	0x2d10
 8700 2b83 40       		.byte	0x40
 8701 2b84 0A       		.uleb128 0xa
 8702 2b85 E8070000 		.4byte	.LASF574
 8703 2b89 34       		.byte	0x34
 8704 2b8a AD01     		.2byte	0x1ad
 8705 2b8c E21A0000 		.4byte	0x1ae2
 8706 2b90 44       		.byte	0x44
 8707 2b91 0A       		.uleb128 0xa
 8708 2b92 ED170000 		.4byte	.LASF575
 8709 2b96 34       		.byte	0x34
 8710 2b97 B101     		.2byte	0x1b1
 8711 2b99 E8000000 		.4byte	0xe8
 8712 2b9d 4C       		.byte	0x4c
 8713 2b9e 0A       		.uleb128 0xa
 8714 2b9f 36180000 		.4byte	.LASF576
 8715 2ba3 34       		.byte	0x34
 8716 2ba4 B501     		.2byte	0x1b5
 8717 2ba6 CD000000 		.4byte	0xcd
 8718 2baa 4E       		.byte	0x4e
 8719 2bab 0A       		.uleb128 0xa
 8720 2bac 691E0000 		.4byte	.LASF577
 8721 2bb0 34       		.byte	0x34
 8722 2bb1 B901     		.2byte	0x1b9
 8723 2bb3 CD000000 		.4byte	0xcd
 8724 2bb7 4F       		.byte	0x4f
 8725 2bb8 09       		.uleb128 0x9
 8726 2bb9 6F746700 		.ascii	"otg\000"
 8727 2bbd 34       		.byte	0x34
 8728 2bbe C101     		.2byte	0x1c1
 8729 2bc0 9A350000 		.4byte	0x359a
 8730 2bc4 50       		.byte	0x50
 8731 2bc5 0A       		.uleb128 0xa
 8732 2bc6 260F0000 		.4byte	.LASF578
 8733 2bca 34       		.byte	0x34
 8734 2bcb C501     		.2byte	0x1c5
ARM GAS  C:\Users\adrie\AppData\Local\Temp\ccgB8szF.s 			page 155


 8735 2bcd A0350000 		.4byte	0x35a0
 8736 2bd1 54       		.byte	0x54
 8737 2bd2 0A       		.uleb128 0xa
 8738 2bd3 951C0000 		.4byte	.LASF579
 8739 2bd7 34       		.byte	0x34
 8740 2bd8 C901     		.2byte	0x1c9
 8741 2bda 03010000 		.4byte	0x103
 8742 2bde 58       		.byte	0x58
 8743 2bdf 0A       		.uleb128 0xa
 8744 2be0 0A0E0000 		.4byte	.LASF580
 8745 2be4 34       		.byte	0x34
 8746 2be5 CD01     		.2byte	0x1cd
 8747 2be7 03010000 		.4byte	0x103
 8748 2beb 5C       		.byte	0x5c
 8749 2bec 0A       		.uleb128 0xa
 8750 2bed 15090000 		.4byte	.LASF581
 8751 2bf1 34       		.byte	0x34
 8752 2bf2 D101     		.2byte	0x1d1
 8753 2bf4 E0020000 		.4byte	0x2e0
 8754 2bf8 60       		.byte	0x60
 8755 2bf9 09       		.uleb128 0x9
 8756 2bfa 747200   		.ascii	"tr\000"
 8757 2bfd 34       		.byte	0x34
 8758 2bfe D601     		.2byte	0x1d6
 8759 2c00 E0020000 		.4byte	0x2e0
 8760 2c04 64       		.byte	0x64
 8761 2c05 0A       		.uleb128 0xa
 8762 2c06 F4160000 		.4byte	.LASF582
 8763 2c0a 34       		.byte	0x34
 8764 2c0b DA01     		.2byte	0x1da
 8765 2c0d A6350000 		.4byte	0x35a6
 8766 2c11 68       		.byte	0x68
 8767 2c12 00       		.byte	0
 8768 2c13 04       		.uleb128 0x4
 8769 2c14 FA0A0000 		.4byte	.LASF583
 8770 2c18 33       		.byte	0x33
 8771 2c19 FF       		.byte	0xff
 8772 2c1a CD000000 		.4byte	0xcd
 8773 2c1e 24       		.uleb128 0x24
 8774 2c1f 07       		.byte	0x7
 8775 2c20 01       		.byte	0x1
 8776 2c21 6C000000 		.4byte	0x6c
 8777 2c25 33       		.byte	0x33
 8778 2c26 0401     		.2byte	0x104
 8779 2c28 4B2C0000 		.4byte	0x2c4b
 8780 2c2c 22       		.uleb128 0x22
 8781 2c2d 002A0000 		.4byte	.LASF584
 8782 2c31 00       		.byte	0
 8783 2c32 22       		.uleb128 0x22
 8784 2c33 00000000 		.4byte	.LASF585
 8785 2c37 01       		.byte	0x1
 8786 2c38 22       		.uleb128 0x22
 8787 2c39 EF150000 		.4byte	.LASF586
 8788 2c3d 02       		.byte	0x2
 8789 2c3e 22       		.uleb128 0x22
 8790 2c3f 651C0000 		.4byte	.LASF587
 8791 2c43 03       		.byte	0x3
ARM GAS  C:\Users\adrie\AppData\Local\Temp\ccgB8szF.s 			page 156


 8792 2c44 22       		.uleb128 0x22
 8793 2c45 2D090000 		.4byte	.LASF588
 8794 2c49 04       		.byte	0x4
 8795 2c4a 00       		.byte	0
 8796 2c4b 1A       		.uleb128 0x1a
 8797 2c4c 552B0000 		.4byte	.LASF589
 8798 2c50 33       		.byte	0x33
 8799 2c51 0A01     		.2byte	0x10a
 8800 2c53 1E2C0000 		.4byte	0x2c1e
 8801 2c57 24       		.uleb128 0x24
 8802 2c58 07       		.byte	0x7
 8803 2c59 01       		.byte	0x1
 8804 2c5a 6C000000 		.4byte	0x6c
 8805 2c5e 33       		.byte	0x33
 8806 2c5f 1801     		.2byte	0x118
 8807 2c61 902C0000 		.4byte	0x2c90
 8808 2c65 22       		.uleb128 0x22
 8809 2c66 4F220000 		.4byte	.LASF590
 8810 2c6a 00       		.byte	0
 8811 2c6b 22       		.uleb128 0x22
 8812 2c6c 3E120000 		.4byte	.LASF591
 8813 2c70 01       		.byte	0x1
 8814 2c71 22       		.uleb128 0x22
 8815 2c72 8D1F0000 		.4byte	.LASF592
 8816 2c76 02       		.byte	0x2
 8817 2c77 22       		.uleb128 0x22
 8818 2c78 F1180000 		.4byte	.LASF593
 8819 2c7c 03       		.byte	0x3
 8820 2c7d 22       		.uleb128 0x22
 8821 2c7e CA170000 		.4byte	.LASF594
 8822 2c82 04       		.byte	0x4
 8823 2c83 22       		.uleb128 0x22
 8824 2c84 74130000 		.4byte	.LASF595
 8825 2c88 05       		.byte	0x5
 8826 2c89 22       		.uleb128 0x22
 8827 2c8a 2E100000 		.4byte	.LASF596
 8828 2c8e 06       		.byte	0x6
 8829 2c8f 00       		.byte	0
 8830 2c90 1A       		.uleb128 0x1a
 8831 2c91 C4130000 		.4byte	.LASF597
 8832 2c95 33       		.byte	0x33
 8833 2c96 2001     		.2byte	0x120
 8834 2c98 572C0000 		.4byte	0x2c57
 8835 2c9c 24       		.uleb128 0x24
 8836 2c9d 07       		.byte	0x7
 8837 2c9e 01       		.byte	0x1
 8838 2c9f 6C000000 		.4byte	0x6c
 8839 2ca3 33       		.byte	0x33
 8840 2ca4 2501     		.2byte	0x125
 8841 2ca6 CF2C0000 		.4byte	0x2ccf
 8842 2caa 22       		.uleb128 0x22
 8843 2cab A0210000 		.4byte	.LASF598
 8844 2caf 00       		.byte	0
 8845 2cb0 22       		.uleb128 0x22
 8846 2cb1 FF1C0000 		.4byte	.LASF599
 8847 2cb5 01       		.byte	0x1
 8848 2cb6 22       		.uleb128 0x22
ARM GAS  C:\Users\adrie\AppData\Local\Temp\ccgB8szF.s 			page 157


 8849 2cb7 90160000 		.4byte	.LASF600
 8850 2cbb 02       		.byte	0x2
 8851 2cbc 22       		.uleb128 0x22
 8852 2cbd 40170000 		.4byte	.LASF601
 8853 2cc1 03       		.byte	0x3
 8854 2cc2 22       		.uleb128 0x22
 8855 2cc3 05280000 		.4byte	.LASF602
 8856 2cc7 04       		.byte	0x4
 8857 2cc8 22       		.uleb128 0x22
 8858 2cc9 54160000 		.4byte	.LASF603
 8859 2ccd 05       		.byte	0x5
 8860 2cce 00       		.byte	0
 8861 2ccf 1A       		.uleb128 0x1a
 8862 2cd0 371D0000 		.4byte	.LASF604
 8863 2cd4 33       		.byte	0x33
 8864 2cd5 2C01     		.2byte	0x12c
 8865 2cd7 9C2C0000 		.4byte	0x2c9c
 8866 2cdb 19       		.uleb128 0x19
 8867 2cdc 08       		.byte	0x8
 8868 2cdd 33       		.byte	0x33
 8869 2cde 3101     		.2byte	0x131
 8870 2ce0 FF2C0000 		.4byte	0x2cff
 8871 2ce4 0A       		.uleb128 0xa
 8872 2ce5 DC2A0000 		.4byte	.LASF605
 8873 2ce9 33       		.byte	0x33
 8874 2cea 3501     		.2byte	0x135
 8875 2cec 3A000000 		.4byte	0x3a
 8876 2cf0 00       		.byte	0
 8877 2cf1 0A       		.uleb128 0xa
 8878 2cf2 01050000 		.4byte	.LASF606
 8879 2cf6 33       		.byte	0x33
 8880 2cf7 3901     		.2byte	0x139
 8881 2cf9 E0130000 		.4byte	0x13e0
 8882 2cfd 04       		.byte	0x4
 8883 2cfe 00       		.byte	0
 8884 2cff 1A       		.uleb128 0x1a
 8885 2d00 07180000 		.4byte	.LASF607
 8886 2d04 33       		.byte	0x33
 8887 2d05 3A01     		.2byte	0x13a
 8888 2d07 DB2C0000 		.4byte	0x2cdb
 8889 2d0b 05       		.uleb128 0x5
 8890 2d0c FF2C0000 		.4byte	0x2cff
 8891 2d10 1A       		.uleb128 0x1a
 8892 2d11 602A0000 		.4byte	.LASF608
 8893 2d15 33       		.byte	0x33
 8894 2d16 4201     		.2byte	0x142
 8895 2d18 1C2D0000 		.4byte	0x2d1c
 8896 2d1c 0B       		.uleb128 0xb
 8897 2d1d 04       		.byte	0x4
 8898 2d1e 222D0000 		.4byte	0x2d22
 8899 2d22 0D       		.uleb128 0xd
 8900 2d23 2D2D0000 		.4byte	0x2d2d
 8901 2d27 0E       		.uleb128 0xe
 8902 2d28 2D2D0000 		.4byte	0x2d2d
 8903 2d2c 00       		.byte	0
 8904 2d2d 0B       		.uleb128 0xb
 8905 2d2e 04       		.byte	0x4
ARM GAS  C:\Users\adrie\AppData\Local\Temp\ccgB8szF.s 			page 158


 8906 2d2f DC2A0000 		.4byte	0x2adc
 8907 2d33 1A       		.uleb128 0x1a
 8908 2d34 88050000 		.4byte	.LASF609
 8909 2d38 33       		.byte	0x33
 8910 2d39 4B01     		.2byte	0x14b
 8911 2d3b 3F2D0000 		.4byte	0x2d3f
 8912 2d3f 0B       		.uleb128 0xb
 8913 2d40 04       		.byte	0x4
 8914 2d41 452D0000 		.4byte	0x2d45
 8915 2d45 0D       		.uleb128 0xd
 8916 2d46 552D0000 		.4byte	0x2d55
 8917 2d4a 0E       		.uleb128 0xe
 8918 2d4b 2D2D0000 		.4byte	0x2d2d
 8919 2d4f 0E       		.uleb128 0xe
 8920 2d50 132C0000 		.4byte	0x2c13
 8921 2d54 00       		.byte	0
 8922 2d55 1A       		.uleb128 0x1a
 8923 2d56 490C0000 		.4byte	.LASF610
 8924 2d5a 33       		.byte	0x33
 8925 2d5b 5401     		.2byte	0x154
 8926 2d5d 612D0000 		.4byte	0x2d61
 8927 2d61 0B       		.uleb128 0xb
 8928 2d62 04       		.byte	0x4
 8929 2d63 672D0000 		.4byte	0x2d67
 8930 2d67 0D       		.uleb128 0xd
 8931 2d68 772D0000 		.4byte	0x2d77
 8932 2d6c 0E       		.uleb128 0xe
 8933 2d6d 2D2D0000 		.4byte	0x2d2d
 8934 2d71 0E       		.uleb128 0xe
 8935 2d72 CF2C0000 		.4byte	0x2ccf
 8936 2d76 00       		.byte	0
 8937 2d77 1A       		.uleb128 0x1a
 8938 2d78 E7060000 		.4byte	.LASF611
 8939 2d7c 33       		.byte	0x33
 8940 2d7d 6001     		.2byte	0x160
 8941 2d7f 832D0000 		.4byte	0x2d83
 8942 2d83 0B       		.uleb128 0xb
 8943 2d84 04       		.byte	0x4
 8944 2d85 892D0000 		.4byte	0x2d89
 8945 2d89 20       		.uleb128 0x20
 8946 2d8a C7150000 		.4byte	0x15c7
 8947 2d8e 982D0000 		.4byte	0x2d98
 8948 2d92 0E       		.uleb128 0xe
 8949 2d93 2D2D0000 		.4byte	0x2d2d
 8950 2d97 00       		.byte	0
 8951 2d98 1A       		.uleb128 0x1a
 8952 2d99 BD100000 		.4byte	.LASF612
 8953 2d9d 33       		.byte	0x33
 8954 2d9e 6501     		.2byte	0x165
 8955 2da0 A42D0000 		.4byte	0x2da4
 8956 2da4 0B       		.uleb128 0xb
 8957 2da5 04       		.byte	0x4
 8958 2da6 AA2D0000 		.4byte	0x2daa
 8959 2daa 20       		.uleb128 0x20
 8960 2dab C82D0000 		.4byte	0x2dc8
 8961 2daf C82D0000 		.4byte	0x2dc8
 8962 2db3 0E       		.uleb128 0xe
ARM GAS  C:\Users\adrie\AppData\Local\Temp\ccgB8szF.s 			page 159


 8963 2db4 2D2D0000 		.4byte	0x2d2d
 8964 2db8 0E       		.uleb128 0xe
 8965 2db9 CD000000 		.4byte	0xcd
 8966 2dbd 0E       		.uleb128 0xe
 8967 2dbe CD000000 		.4byte	0xcd
 8968 2dc2 0E       		.uleb128 0xe
 8969 2dc3 E8000000 		.4byte	0xe8
 8970 2dc7 00       		.byte	0
 8971 2dc8 0B       		.uleb128 0xb
 8972 2dc9 04       		.byte	0x4
 8973 2dca 0B2D0000 		.4byte	0x2d0b
 8974 2dce 17       		.uleb128 0x17
 8975 2dcf 20       		.byte	0x20
 8976 2dd0 35       		.byte	0x35
 8977 2dd1 35       		.byte	0x35
 8978 2dd2 372E0000 		.4byte	0x2e37
 8979 2dd6 08       		.uleb128 0x8
 8980 2dd7 7C030000 		.4byte	.LASF613
 8981 2ddb 35       		.byte	0x35
 8982 2ddc 36       		.byte	0x36
 8983 2ddd 0E010000 		.4byte	0x10e
 8984 2de1 00       		.byte	0
 8985 2de2 08       		.uleb128 0x8
 8986 2de3 650E0000 		.4byte	.LASF614
 8987 2de7 35       		.byte	0x35
 8988 2de8 38       		.byte	0x38
 8989 2de9 0E010000 		.4byte	0x10e
 8990 2ded 04       		.byte	0x4
 8991 2dee 08       		.uleb128 0x8
 8992 2def DA020000 		.4byte	.LASF615
 8993 2df3 35       		.byte	0x35
 8994 2df4 39       		.byte	0x39
 8995 2df5 0E010000 		.4byte	0x10e
 8996 2df9 08       		.byte	0x8
 8997 2dfa 08       		.uleb128 0x8
 8998 2dfb 07200000 		.4byte	.LASF616
 8999 2dff 35       		.byte	0x35
 9000 2e00 3A       		.byte	0x3a
 9001 2e01 0E010000 		.4byte	0x10e
 9002 2e05 0C       		.byte	0xc
 9003 2e06 08       		.uleb128 0x8
 9004 2e07 89160000 		.4byte	.LASF617
 9005 2e0b 35       		.byte	0x35
 9006 2e0c 3C       		.byte	0x3c
 9007 2e0d 0E010000 		.4byte	0x10e
 9008 2e11 10       		.byte	0x10
 9009 2e12 08       		.uleb128 0x8
 9010 2e13 A80E0000 		.4byte	.LASF618
 9011 2e17 35       		.byte	0x35
 9012 2e18 3E       		.byte	0x3e
 9013 2e19 0E010000 		.4byte	0x10e
 9014 2e1d 14       		.byte	0x14
 9015 2e1e 08       		.uleb128 0x8
 9016 2e1f B00E0000 		.4byte	.LASF619
 9017 2e23 35       		.byte	0x35
 9018 2e24 3F       		.byte	0x3f
 9019 2e25 0E010000 		.4byte	0x10e
ARM GAS  C:\Users\adrie\AppData\Local\Temp\ccgB8szF.s 			page 160


 9020 2e29 18       		.byte	0x18
 9021 2e2a 08       		.uleb128 0x8
 9022 2e2b 61040000 		.4byte	.LASF620
 9023 2e2f 35       		.byte	0x35
 9024 2e30 40       		.byte	0x40
 9025 2e31 0E010000 		.4byte	0x10e
 9026 2e35 1C       		.byte	0x1c
 9027 2e36 00       		.byte	0
 9028 2e37 04       		.uleb128 0x4
 9029 2e38 A91F0000 		.4byte	.LASF621
 9030 2e3c 35       		.byte	0x35
 9031 2e3d 41       		.byte	0x41
 9032 2e3e CE2D0000 		.4byte	0x2dce
 9033 2e42 17       		.uleb128 0x17
 9034 2e43 20       		.byte	0x20
 9035 2e44 35       		.byte	0x35
 9036 2e45 46       		.byte	0x46
 9037 2e46 AB2E0000 		.4byte	0x2eab
 9038 2e4a 08       		.uleb128 0x8
 9039 2e4b 140F0000 		.4byte	.LASF622
 9040 2e4f 35       		.byte	0x35
 9041 2e50 47       		.byte	0x47
 9042 2e51 0E010000 		.4byte	0x10e
 9043 2e55 00       		.byte	0
 9044 2e56 08       		.uleb128 0x8
 9045 2e57 18140000 		.4byte	.LASF623
 9046 2e5b 35       		.byte	0x35
 9047 2e5c 49       		.byte	0x49
 9048 2e5d 0E010000 		.4byte	0x10e
 9049 2e61 04       		.byte	0x4
 9050 2e62 08       		.uleb128 0x8
 9051 2e63 8B240000 		.4byte	.LASF624
 9052 2e67 35       		.byte	0x35
 9053 2e68 4A       		.byte	0x4a
 9054 2e69 0E010000 		.4byte	0x10e
 9055 2e6d 08       		.byte	0x8
 9056 2e6e 08       		.uleb128 0x8
 9057 2e6f 3C140000 		.4byte	.LASF625
 9058 2e73 35       		.byte	0x35
 9059 2e74 4C       		.byte	0x4c
 9060 2e75 0E010000 		.4byte	0x10e
 9061 2e79 0C       		.byte	0xc
 9062 2e7a 08       		.uleb128 0x8
 9063 2e7b F6190000 		.4byte	.LASF626
 9064 2e7f 35       		.byte	0x35
 9065 2e80 4D       		.byte	0x4d
 9066 2e81 0E010000 		.4byte	0x10e
 9067 2e85 10       		.byte	0x10
 9068 2e86 08       		.uleb128 0x8
 9069 2e87 A80E0000 		.4byte	.LASF618
 9070 2e8b 35       		.byte	0x35
 9071 2e8c 4F       		.byte	0x4f
 9072 2e8d 0E010000 		.4byte	0x10e
 9073 2e91 14       		.byte	0x14
 9074 2e92 08       		.uleb128 0x8
 9075 2e93 F9070000 		.4byte	.LASF627
 9076 2e97 35       		.byte	0x35
ARM GAS  C:\Users\adrie\AppData\Local\Temp\ccgB8szF.s 			page 161


 9077 2e98 50       		.byte	0x50
 9078 2e99 0E010000 		.4byte	0x10e
 9079 2e9d 18       		.byte	0x18
 9080 2e9e 08       		.uleb128 0x8
 9081 2e9f 74240000 		.4byte	.LASF628
 9082 2ea3 35       		.byte	0x35
 9083 2ea4 52       		.byte	0x52
 9084 2ea5 0E010000 		.4byte	0x10e
 9085 2ea9 1C       		.byte	0x1c
 9086 2eaa 00       		.byte	0
 9087 2eab 04       		.uleb128 0x4
 9088 2eac 41090000 		.4byte	.LASF629
 9089 2eb0 35       		.byte	0x35
 9090 2eb1 53       		.byte	0x53
 9091 2eb2 422E0000 		.4byte	0x2e42
 9092 2eb6 17       		.uleb128 0x17
 9093 2eb7 20       		.byte	0x20
 9094 2eb8 35       		.byte	0x35
 9095 2eb9 58       		.byte	0x58
 9096 2eba 1F2F0000 		.4byte	0x2f1f
 9097 2ebe 08       		.uleb128 0x8
 9098 2ebf FF1F0000 		.4byte	.LASF630
 9099 2ec3 35       		.byte	0x35
 9100 2ec4 59       		.byte	0x59
 9101 2ec5 0E010000 		.4byte	0x10e
 9102 2ec9 00       		.byte	0
 9103 2eca 08       		.uleb128 0x8
 9104 2ecb 18140000 		.4byte	.LASF623
 9105 2ecf 35       		.byte	0x35
 9106 2ed0 5B       		.byte	0x5b
 9107 2ed1 0E010000 		.4byte	0x10e
 9108 2ed5 04       		.byte	0x4
 9109 2ed6 08       		.uleb128 0x8
 9110 2ed7 B81B0000 		.4byte	.LASF631
 9111 2edb 35       		.byte	0x35
 9112 2edc 5C       		.byte	0x5c
 9113 2edd 0E010000 		.4byte	0x10e
 9114 2ee1 08       		.byte	0x8
 9115 2ee2 08       		.uleb128 0x8
 9116 2ee3 3C140000 		.4byte	.LASF625
 9117 2ee7 35       		.byte	0x35
 9118 2ee8 5E       		.byte	0x5e
 9119 2ee9 0E010000 		.4byte	0x10e
 9120 2eed 0C       		.byte	0xc
 9121 2eee 08       		.uleb128 0x8
 9122 2eef E2250000 		.4byte	.LASF632
 9123 2ef3 35       		.byte	0x35
 9124 2ef4 5F       		.byte	0x5f
 9125 2ef5 0E010000 		.4byte	0x10e
 9126 2ef9 10       		.byte	0x10
 9127 2efa 08       		.uleb128 0x8
 9128 2efb A80E0000 		.4byte	.LASF618
 9129 2eff 35       		.byte	0x35
 9130 2f00 61       		.byte	0x61
 9131 2f01 0E010000 		.4byte	0x10e
 9132 2f05 14       		.byte	0x14
 9133 2f06 08       		.uleb128 0x8
ARM GAS  C:\Users\adrie\AppData\Local\Temp\ccgB8szF.s 			page 162


 9134 2f07 B00E0000 		.4byte	.LASF619
 9135 2f0b 35       		.byte	0x35
 9136 2f0c 62       		.byte	0x62
 9137 2f0d 0E010000 		.4byte	0x10e
 9138 2f11 18       		.byte	0x18
 9139 2f12 08       		.uleb128 0x8
 9140 2f13 74240000 		.4byte	.LASF628
 9141 2f17 35       		.byte	0x35
 9142 2f18 63       		.byte	0x63
 9143 2f19 0E010000 		.4byte	0x10e
 9144 2f1d 1C       		.byte	0x1c
 9145 2f1e 00       		.byte	0
 9146 2f1f 04       		.uleb128 0x4
 9147 2f20 E4080000 		.4byte	.LASF633
 9148 2f24 35       		.byte	0x35
 9149 2f25 64       		.byte	0x64
 9150 2f26 B62E0000 		.4byte	0x2eb6
 9151 2f2a 26       		.uleb128 0x26
 9152 2f2b 00100100 		.4byte	0x11000
 9153 2f2f 35       		.byte	0x35
 9154 2f30 69       		.byte	0x69
 9155 2f31 07320000 		.4byte	0x3207
 9156 2f35 08       		.uleb128 0x8
 9157 2f36 67050000 		.4byte	.LASF634
 9158 2f3a 35       		.byte	0x35
 9159 2f3b 6A       		.byte	0x6a
 9160 2f3c 0E010000 		.4byte	0x10e
 9161 2f40 00       		.byte	0
 9162 2f41 08       		.uleb128 0x8
 9163 2f42 350D0000 		.4byte	.LASF635
 9164 2f46 35       		.byte	0x35
 9165 2f47 6B       		.byte	0x6b
 9166 2f48 0E010000 		.4byte	0x10e
 9167 2f4c 04       		.byte	0x4
 9168 2f4d 08       		.uleb128 0x8
 9169 2f4e 4D080000 		.4byte	.LASF636
 9170 2f52 35       		.byte	0x35
 9171 2f53 6C       		.byte	0x6c
 9172 2f54 0E010000 		.4byte	0x10e
 9173 2f58 08       		.byte	0x8
 9174 2f59 08       		.uleb128 0x8
 9175 2f5a 792A0000 		.4byte	.LASF637
 9176 2f5e 35       		.byte	0x35
 9177 2f5f 6D       		.byte	0x6d
 9178 2f60 0E010000 		.4byte	0x10e
 9179 2f64 0C       		.byte	0xc
 9180 2f65 08       		.uleb128 0x8
 9181 2f66 08160000 		.4byte	.LASF638
 9182 2f6a 35       		.byte	0x35
 9183 2f6b 6E       		.byte	0x6e
 9184 2f6c 0E010000 		.4byte	0x10e
 9185 2f70 10       		.byte	0x10
 9186 2f71 08       		.uleb128 0x8
 9187 2f72 BB0C0000 		.4byte	.LASF639
 9188 2f76 35       		.byte	0x35
 9189 2f77 6F       		.byte	0x6f
 9190 2f78 0E010000 		.4byte	0x10e
ARM GAS  C:\Users\adrie\AppData\Local\Temp\ccgB8szF.s 			page 163


 9191 2f7c 14       		.byte	0x14
 9192 2f7d 08       		.uleb128 0x8
 9193 2f7e 581E0000 		.4byte	.LASF640
 9194 2f82 35       		.byte	0x35
 9195 2f83 70       		.byte	0x70
 9196 2f84 0E010000 		.4byte	0x10e
 9197 2f88 18       		.byte	0x18
 9198 2f89 08       		.uleb128 0x8
 9199 2f8a FF080000 		.4byte	.LASF641
 9200 2f8e 35       		.byte	0x35
 9201 2f8f 71       		.byte	0x71
 9202 2f90 0E010000 		.4byte	0x10e
 9203 2f94 1C       		.byte	0x1c
 9204 2f95 08       		.uleb128 0x8
 9205 2f96 F7080000 		.4byte	.LASF642
 9206 2f9a 35       		.byte	0x35
 9207 2f9b 73       		.byte	0x73
 9208 2f9c 0E010000 		.4byte	0x10e
 9209 2fa0 20       		.byte	0x20
 9210 2fa1 08       		.uleb128 0x8
 9211 2fa2 C11D0000 		.4byte	.LASF643
 9212 2fa6 35       		.byte	0x35
 9213 2fa7 75       		.byte	0x75
 9214 2fa8 0E010000 		.4byte	0x10e
 9215 2fac 24       		.byte	0x24
 9216 2fad 08       		.uleb128 0x8
 9217 2fae C6000000 		.4byte	.LASF644
 9218 2fb2 35       		.byte	0x35
 9219 2fb3 76       		.byte	0x76
 9220 2fb4 0E010000 		.4byte	0x10e
 9221 2fb8 28       		.byte	0x28
 9222 2fb9 08       		.uleb128 0x8
 9223 2fba 601E0000 		.4byte	.LASF645
 9224 2fbe 35       		.byte	0x35
 9225 2fbf 78       		.byte	0x78
 9226 2fc0 0E010000 		.4byte	0x10e
 9227 2fc4 2C       		.byte	0x2c
 9228 2fc5 08       		.uleb128 0x8
 9229 2fc6 E90F0000 		.4byte	.LASF646
 9230 2fca 35       		.byte	0x35
 9231 2fcb 7A       		.byte	0x7a
 9232 2fcc 0E010000 		.4byte	0x10e
 9233 2fd0 30       		.byte	0x30
 9234 2fd1 08       		.uleb128 0x8
 9235 2fd2 F80F0000 		.4byte	.LASF647
 9236 2fd6 35       		.byte	0x35
 9237 2fd7 7B       		.byte	0x7b
 9238 2fd8 0E010000 		.4byte	0x10e
 9239 2fdc 34       		.byte	0x34
 9240 2fdd 08       		.uleb128 0x8
 9241 2fde F2010000 		.4byte	.LASF648
 9242 2fe2 35       		.byte	0x35
 9243 2fe3 7C       		.byte	0x7c
 9244 2fe4 0E010000 		.4byte	0x10e
 9245 2fe8 38       		.byte	0x38
 9246 2fe9 18       		.uleb128 0x18
 9247 2fea 43494400 		.ascii	"CID\000"
ARM GAS  C:\Users\adrie\AppData\Local\Temp\ccgB8szF.s 			page 164


 9248 2fee 35       		.byte	0x35
 9249 2fef 7D       		.byte	0x7d
 9250 2ff0 0E010000 		.4byte	0x10e
 9251 2ff4 3C       		.byte	0x3c
 9252 2ff5 08       		.uleb128 0x8
 9253 2ff6 DD120000 		.4byte	.LASF649
 9254 2ffa 35       		.byte	0x35
 9255 2ffb 7E       		.byte	0x7e
 9256 2ffc 17320000 		.4byte	0x3217
 9257 3000 40       		.byte	0x40
 9258 3001 27       		.uleb128 0x27
 9259 3002 E7260000 		.4byte	.LASF650
 9260 3006 35       		.byte	0x35
 9261 3007 7F       		.byte	0x7f
 9262 3008 0E010000 		.4byte	0x10e
 9263 300c 0001     		.2byte	0x100
 9264 300e 27       		.uleb128 0x27
 9265 300f 62020000 		.4byte	.LASF651
 9266 3013 35       		.byte	0x35
 9267 3014 81       		.byte	0x81
 9268 3015 7C0D0000 		.4byte	0xd7c
 9269 3019 0401     		.2byte	0x104
 9270 301b 27       		.uleb128 0x27
 9271 301c 13170000 		.4byte	.LASF652
 9272 3020 35       		.byte	0x35
 9273 3021 83       		.byte	0x83
 9274 3022 2C320000 		.4byte	0x322c
 9275 3026 4001     		.2byte	0x140
 9276 3028 27       		.uleb128 0x27
 9277 3029 491B0000 		.4byte	.LASF653
 9278 302d 35       		.byte	0x35
 9279 302e 84       		.byte	0x84
 9280 302f 0E010000 		.4byte	0x10e
 9281 3033 0004     		.2byte	0x400
 9282 3035 27       		.uleb128 0x27
 9283 3036 DD290000 		.4byte	.LASF654
 9284 303a 35       		.byte	0x35
 9285 303b 85       		.byte	0x85
 9286 303c 0E010000 		.4byte	0x10e
 9287 3040 0404     		.2byte	0x404
 9288 3042 27       		.uleb128 0x27
 9289 3043 9C040000 		.4byte	.LASF655
 9290 3047 35       		.byte	0x35
 9291 3048 86       		.byte	0x86
 9292 3049 0E010000 		.4byte	0x10e
 9293 304d 0804     		.2byte	0x408
 9294 304f 27       		.uleb128 0x27
 9295 3050 48260000 		.4byte	.LASF656
 9296 3054 35       		.byte	0x35
 9297 3055 88       		.byte	0x88
 9298 3056 0E010000 		.4byte	0x10e
 9299 305a 0C04     		.2byte	0x40c
 9300 305c 27       		.uleb128 0x27
 9301 305d 40030000 		.4byte	.LASF657
 9302 3061 35       		.byte	0x35
 9303 3062 89       		.byte	0x89
 9304 3063 0E010000 		.4byte	0x10e
ARM GAS  C:\Users\adrie\AppData\Local\Temp\ccgB8szF.s 			page 165


 9305 3067 1004     		.2byte	0x410
 9306 3069 27       		.uleb128 0x27
 9307 306a 74040000 		.4byte	.LASF658
 9308 306e 35       		.byte	0x35
 9309 306f 8B       		.byte	0x8b
 9310 3070 0E010000 		.4byte	0x10e
 9311 3074 1404     		.2byte	0x414
 9312 3076 27       		.uleb128 0x27
 9313 3077 440D0000 		.4byte	.LASF659
 9314 307b 35       		.byte	0x35
 9315 307c 8D       		.byte	0x8d
 9316 307d 0E010000 		.4byte	0x10e
 9317 3081 1804     		.2byte	0x418
 9318 3083 27       		.uleb128 0x27
 9319 3084 63210000 		.4byte	.LASF660
 9320 3088 35       		.byte	0x35
 9321 3089 8F       		.byte	0x8f
 9322 308a 41320000 		.4byte	0x3241
 9323 308e 1C04     		.2byte	0x41c
 9324 3090 27       		.uleb128 0x27
 9325 3091 D5020000 		.4byte	.LASF661
 9326 3095 35       		.byte	0x35
 9327 3096 90       		.byte	0x90
 9328 3097 0E010000 		.4byte	0x10e
 9329 309b 4004     		.2byte	0x440
 9330 309d 27       		.uleb128 0x27
 9331 309e 66230000 		.4byte	.LASF662
 9332 30a2 35       		.byte	0x35
 9333 30a3 92       		.byte	0x92
 9334 30a4 56320000 		.4byte	0x3256
 9335 30a8 4404     		.2byte	0x444
 9336 30aa 28       		.uleb128 0x28
 9337 30ab 686300   		.ascii	"hc\000"
 9338 30ae 35       		.byte	0x35
 9339 30af 93       		.byte	0x93
 9340 30b0 5B320000 		.4byte	0x325b
 9341 30b4 0005     		.2byte	0x500
 9342 30b6 27       		.uleb128 0x27
 9343 30b7 99260000 		.4byte	.LASF663
 9344 30bb 35       		.byte	0x35
 9345 30bc 94       		.byte	0x94
 9346 30bd 7B320000 		.4byte	0x327b
 9347 30c1 0007     		.2byte	0x700
 9348 30c3 27       		.uleb128 0x27
 9349 30c4 421E0000 		.4byte	.LASF664
 9350 30c8 35       		.byte	0x35
 9351 30c9 95       		.byte	0x95
 9352 30ca 0E010000 		.4byte	0x10e
 9353 30ce 0008     		.2byte	0x800
 9354 30d0 27       		.uleb128 0x27
 9355 30d1 DD270000 		.4byte	.LASF665
 9356 30d5 35       		.byte	0x35
 9357 30d6 96       		.byte	0x96
 9358 30d7 0E010000 		.4byte	0x10e
 9359 30db 0408     		.2byte	0x804
 9360 30dd 27       		.uleb128 0x27
 9361 30de 32060000 		.4byte	.LASF666
ARM GAS  C:\Users\adrie\AppData\Local\Temp\ccgB8szF.s 			page 166


 9362 30e2 35       		.byte	0x35
 9363 30e3 97       		.byte	0x97
 9364 30e4 0E010000 		.4byte	0x10e
 9365 30e8 0808     		.2byte	0x808
 9366 30ea 27       		.uleb128 0x27
 9367 30eb 33050000 		.4byte	.LASF667
 9368 30ef 35       		.byte	0x35
 9369 30f0 98       		.byte	0x98
 9370 30f1 0E010000 		.4byte	0x10e
 9371 30f5 0C08     		.2byte	0x80c
 9372 30f7 27       		.uleb128 0x27
 9373 30f8 2D0D0000 		.4byte	.LASF668
 9374 30fc 35       		.byte	0x35
 9375 30fd 99       		.byte	0x99
 9376 30fe 0E010000 		.4byte	0x10e
 9377 3102 1008     		.2byte	0x810
 9378 3104 27       		.uleb128 0x27
 9379 3105 AC240000 		.4byte	.LASF669
 9380 3109 35       		.byte	0x35
 9381 310a 9B       		.byte	0x9b
 9382 310b 0E010000 		.4byte	0x10e
 9383 310f 1408     		.2byte	0x814
 9384 3111 27       		.uleb128 0x27
 9385 3112 42250000 		.4byte	.LASF670
 9386 3116 35       		.byte	0x35
 9387 3117 9D       		.byte	0x9d
 9388 3118 0E010000 		.4byte	0x10e
 9389 311c 1808     		.2byte	0x818
 9390 311e 27       		.uleb128 0x27
 9391 311f 09220000 		.4byte	.LASF671
 9392 3123 35       		.byte	0x35
 9393 3124 9F       		.byte	0x9f
 9394 3125 0E010000 		.4byte	0x10e
 9395 3129 1C08     		.2byte	0x81c
 9396 312b 27       		.uleb128 0x27
 9397 312c 9C060000 		.4byte	.LASF672
 9398 3130 35       		.byte	0x35
 9399 3131 A1       		.byte	0xa1
 9400 3132 0E010000 		.4byte	0x10e
 9401 3136 2008     		.2byte	0x820
 9402 3138 27       		.uleb128 0x27
 9403 3139 AF050000 		.4byte	.LASF673
 9404 313d 35       		.byte	0x35
 9405 313e A2       		.byte	0xa2
 9406 313f 0E010000 		.4byte	0x10e
 9407 3143 2408     		.2byte	0x824
 9408 3145 27       		.uleb128 0x27
 9409 3146 4F1E0000 		.4byte	.LASF674
 9410 314a 35       		.byte	0x35
 9411 314b A3       		.byte	0xa3
 9412 314c 0E010000 		.4byte	0x10e
 9413 3150 2808     		.2byte	0x828
 9414 3152 27       		.uleb128 0x27
 9415 3153 00100000 		.4byte	.LASF675
 9416 3157 35       		.byte	0x35
 9417 3158 A5       		.byte	0xa5
 9418 3159 0E010000 		.4byte	0x10e
ARM GAS  C:\Users\adrie\AppData\Local\Temp\ccgB8szF.s 			page 167


 9419 315d 2C08     		.2byte	0x82c
 9420 315f 27       		.uleb128 0x27
 9421 3160 57070000 		.4byte	.LASF676
 9422 3164 35       		.byte	0x35
 9423 3165 A7       		.byte	0xa7
 9424 3166 0E010000 		.4byte	0x10e
 9425 316a 3008     		.2byte	0x830
 9426 316c 27       		.uleb128 0x27
 9427 316d ED0E0000 		.4byte	.LASF677
 9428 3171 35       		.byte	0x35
 9429 3172 A8       		.byte	0xa8
 9430 3173 0E010000 		.4byte	0x10e
 9431 3177 3408     		.2byte	0x834
 9432 3179 27       		.uleb128 0x27
 9433 317a A5070000 		.4byte	.LASF678
 9434 317e 35       		.byte	0x35
 9435 317f AA       		.byte	0xaa
 9436 3180 0E010000 		.4byte	0x10e
 9437 3184 3808     		.2byte	0x838
 9438 3186 27       		.uleb128 0x27
 9439 3187 CF070000 		.4byte	.LASF679
 9440 318b 35       		.byte	0x35
 9441 318c AB       		.byte	0xab
 9442 318d 0E010000 		.4byte	0x10e
 9443 3191 3C08     		.2byte	0x83c
 9444 3193 27       		.uleb128 0x27
 9445 3194 75080000 		.4byte	.LASF680
 9446 3198 35       		.byte	0x35
 9447 3199 AC       		.byte	0xac
 9448 319a 90320000 		.4byte	0x3290
 9449 319e 4008     		.2byte	0x840
 9450 31a0 27       		.uleb128 0x27
 9451 31a1 800E0000 		.4byte	.LASF681
 9452 31a5 35       		.byte	0x35
 9453 31a6 AD       		.byte	0xad
 9454 31a7 90320000 		.4byte	0x3290
 9455 31ab 8008     		.2byte	0x880
 9456 31ad 27       		.uleb128 0x27
 9457 31ae 29140000 		.4byte	.LASF682
 9458 31b2 35       		.byte	0x35
 9459 31b3 AE       		.byte	0xae
 9460 31b4 90320000 		.4byte	0x3290
 9461 31b8 C008     		.2byte	0x8c0
 9462 31ba 28       		.uleb128 0x28
 9463 31bb 696500   		.ascii	"ie\000"
 9464 31be 35       		.byte	0x35
 9465 31bf AF       		.byte	0xaf
 9466 31c0 95320000 		.4byte	0x3295
 9467 31c4 0009     		.2byte	0x900
 9468 31c6 28       		.uleb128 0x28
 9469 31c7 6F6500   		.ascii	"oe\000"
 9470 31ca 35       		.byte	0x35
 9471 31cb B0       		.byte	0xb0
 9472 31cc A5320000 		.4byte	0x32a5
 9473 31d0 000B     		.2byte	0xb00
 9474 31d2 27       		.uleb128 0x27
 9475 31d3 A50C0000 		.4byte	.LASF683
ARM GAS  C:\Users\adrie\AppData\Local\Temp\ccgB8szF.s 			page 168


 9476 31d7 35       		.byte	0x35
 9477 31d8 B1       		.byte	0xb1
 9478 31d9 7B320000 		.4byte	0x327b
 9479 31dd 000D     		.2byte	0xd00
 9480 31df 27       		.uleb128 0x27
 9481 31e0 FD270000 		.4byte	.LASF684
 9482 31e4 35       		.byte	0x35
 9483 31e5 B2       		.byte	0xb2
 9484 31e6 0E010000 		.4byte	0x10e
 9485 31ea 000E     		.2byte	0xe00
 9486 31ec 27       		.uleb128 0x27
 9487 31ed E11A0000 		.4byte	.LASF685
 9488 31f1 35       		.byte	0x35
 9489 31f2 B4       		.byte	0xb4
 9490 31f3 C5320000 		.4byte	0x32c5
 9491 31f7 040E     		.2byte	0xe04
 9492 31f9 27       		.uleb128 0x27
 9493 31fa 850A0000 		.4byte	.LASF182
 9494 31fe 35       		.byte	0x35
 9495 31ff B5       		.byte	0xb5
 9496 3200 E1320000 		.4byte	0x32e1
 9497 3204 0010     		.2byte	0x1000
 9498 3206 00       		.byte	0
 9499 3207 13       		.uleb128 0x13
 9500 3208 0E010000 		.4byte	0x10e
 9501 320c 17320000 		.4byte	0x3217
 9502 3210 14       		.uleb128 0x14
 9503 3211 45000000 		.4byte	0x45
 9504 3215 2F       		.byte	0x2f
 9505 3216 00       		.byte	0
 9506 3217 06       		.uleb128 0x6
 9507 3218 07320000 		.4byte	0x3207
 9508 321c 13       		.uleb128 0x13
 9509 321d 0E010000 		.4byte	0x10e
 9510 3221 2C320000 		.4byte	0x322c
 9511 3225 14       		.uleb128 0x14
 9512 3226 45000000 		.4byte	0x45
 9513 322a AF       		.byte	0xaf
 9514 322b 00       		.byte	0
 9515 322c 06       		.uleb128 0x6
 9516 322d 1C320000 		.4byte	0x321c
 9517 3231 13       		.uleb128 0x13
 9518 3232 0E010000 		.4byte	0x10e
 9519 3236 41320000 		.4byte	0x3241
 9520 323a 14       		.uleb128 0x14
 9521 323b 45000000 		.4byte	0x45
 9522 323f 08       		.byte	0x8
 9523 3240 00       		.byte	0
 9524 3241 06       		.uleb128 0x6
 9525 3242 31320000 		.4byte	0x3231
 9526 3246 13       		.uleb128 0x13
 9527 3247 0E010000 		.4byte	0x10e
 9528 324b 56320000 		.4byte	0x3256
 9529 324f 14       		.uleb128 0x14
 9530 3250 45000000 		.4byte	0x45
 9531 3254 2E       		.byte	0x2e
 9532 3255 00       		.byte	0
ARM GAS  C:\Users\adrie\AppData\Local\Temp\ccgB8szF.s 			page 169


 9533 3256 06       		.uleb128 0x6
 9534 3257 46320000 		.4byte	0x3246
 9535 325b 13       		.uleb128 0x13
 9536 325c 372E0000 		.4byte	0x2e37
 9537 3260 6B320000 		.4byte	0x326b
 9538 3264 14       		.uleb128 0x14
 9539 3265 45000000 		.4byte	0x45
 9540 3269 0F       		.byte	0xf
 9541 326a 00       		.byte	0
 9542 326b 13       		.uleb128 0x13
 9543 326c 0E010000 		.4byte	0x10e
 9544 3270 7B320000 		.4byte	0x327b
 9545 3274 14       		.uleb128 0x14
 9546 3275 45000000 		.4byte	0x45
 9547 3279 3F       		.byte	0x3f
 9548 327a 00       		.byte	0
 9549 327b 06       		.uleb128 0x6
 9550 327c 6B320000 		.4byte	0x326b
 9551 3280 13       		.uleb128 0x13
 9552 3281 0E010000 		.4byte	0x10e
 9553 3285 90320000 		.4byte	0x3290
 9554 3289 14       		.uleb128 0x14
 9555 328a 45000000 		.4byte	0x45
 9556 328e 0F       		.byte	0xf
 9557 328f 00       		.byte	0
 9558 3290 06       		.uleb128 0x6
 9559 3291 80320000 		.4byte	0x3280
 9560 3295 13       		.uleb128 0x13
 9561 3296 AB2E0000 		.4byte	0x2eab
 9562 329a A5320000 		.4byte	0x32a5
 9563 329e 14       		.uleb128 0x14
 9564 329f 45000000 		.4byte	0x45
 9565 32a3 0F       		.byte	0xf
 9566 32a4 00       		.byte	0
 9567 32a5 13       		.uleb128 0x13
 9568 32a6 1F2F0000 		.4byte	0x2f1f
 9569 32aa B5320000 		.4byte	0x32b5
 9570 32ae 14       		.uleb128 0x14
 9571 32af 45000000 		.4byte	0x45
 9572 32b3 0F       		.byte	0xf
 9573 32b4 00       		.byte	0
 9574 32b5 13       		.uleb128 0x13
 9575 32b6 0E010000 		.4byte	0x10e
 9576 32ba C5320000 		.4byte	0x32c5
 9577 32be 14       		.uleb128 0x14
 9578 32bf 45000000 		.4byte	0x45
 9579 32c3 7E       		.byte	0x7e
 9580 32c4 00       		.byte	0
 9581 32c5 06       		.uleb128 0x6
 9582 32c6 B5320000 		.4byte	0x32b5
 9583 32ca 13       		.uleb128 0x13
 9584 32cb 0E010000 		.4byte	0x10e
 9585 32cf E1320000 		.4byte	0x32e1
 9586 32d3 14       		.uleb128 0x14
 9587 32d4 45000000 		.4byte	0x45
 9588 32d8 0F       		.byte	0xf
 9589 32d9 29       		.uleb128 0x29
ARM GAS  C:\Users\adrie\AppData\Local\Temp\ccgB8szF.s 			page 170


 9590 32da 45000000 		.4byte	0x45
 9591 32de FF03     		.2byte	0x3ff
 9592 32e0 00       		.byte	0
 9593 32e1 06       		.uleb128 0x6
 9594 32e2 CA320000 		.4byte	0x32ca
 9595 32e6 04       		.uleb128 0x4
 9596 32e7 A62A0000 		.4byte	.LASF686
 9597 32eb 35       		.byte	0x35
 9598 32ec B6       		.byte	0xb6
 9599 32ed 2A2F0000 		.4byte	0x2f2a
 9600 32f1 17       		.uleb128 0x17
 9601 32f2 0C       		.byte	0xc
 9602 32f3 34       		.byte	0x34
 9603 32f4 C6       		.byte	0xc6
 9604 32f5 1E330000 		.4byte	0x331e
 9605 32f9 08       		.uleb128 0x8
 9606 32fa 040A0000 		.4byte	.LASF687
 9607 32fe 34       		.byte	0x34
 9608 32ff C7       		.byte	0xc7
 9609 3300 03010000 		.4byte	0x103
 9610 3304 00       		.byte	0
 9611 3305 08       		.uleb128 0x8
 9612 3306 850C0000 		.4byte	.LASF688
 9613 330a 34       		.byte	0x34
 9614 330b C8       		.byte	0xc8
 9615 330c 03010000 		.4byte	0x103
 9616 3310 04       		.byte	0x4
 9617 3311 08       		.uleb128 0x8
 9618 3312 79100000 		.4byte	.LASF689
 9619 3316 34       		.byte	0x34
 9620 3317 C9       		.byte	0xc9
 9621 3318 03010000 		.4byte	0x103
 9622 331c 08       		.byte	0x8
 9623 331d 00       		.byte	0
 9624 331e 04       		.uleb128 0x4
 9625 331f 920C0000 		.4byte	.LASF690
 9626 3323 34       		.byte	0x34
 9627 3324 CA       		.byte	0xca
 9628 3325 F1320000 		.4byte	0x32f1
 9629 3329 05       		.uleb128 0x5
 9630 332a 1E330000 		.4byte	0x331e
 9631 332e 17       		.uleb128 0x17
 9632 332f 04       		.byte	0x4
 9633 3330 34       		.byte	0x34
 9634 3331 DD       		.byte	0xdd
 9635 3332 43330000 		.4byte	0x3343
 9636 3336 08       		.uleb128 0x8
 9637 3337 F7270000 		.4byte	.LASF691
 9638 333b 34       		.byte	0x34
 9639 333c E1       		.byte	0xe1
 9640 333d E0130000 		.4byte	0x13e0
 9641 3341 00       		.byte	0
 9642 3342 00       		.byte	0
 9643 3343 17       		.uleb128 0x17
 9644 3344 04       		.byte	0x4
 9645 3345 34       		.byte	0x34
 9646 3346 E3       		.byte	0xe3
ARM GAS  C:\Users\adrie\AppData\Local\Temp\ccgB8szF.s 			page 171


 9647 3347 58330000 		.4byte	0x3358
 9648 334b 08       		.uleb128 0x8
 9649 334c A30A0000 		.4byte	.LASF376
 9650 3350 34       		.byte	0x34
 9651 3351 E7       		.byte	0xe7
 9652 3352 58330000 		.4byte	0x3358
 9653 3356 00       		.byte	0
 9654 3357 00       		.byte	0
 9655 3358 0B       		.uleb128 0xb
 9656 3359 04       		.byte	0x4
 9657 335a BC130000 		.4byte	0x13bc
 9658 335e 1D       		.uleb128 0x1d
 9659 335f 04       		.byte	0x4
 9660 3360 34       		.byte	0x34
 9661 3361 DC       		.byte	0xdc
 9662 3362 7D330000 		.4byte	0x337d
 9663 3366 2A       		.uleb128 0x2a
 9664 3367 B4230000 		.4byte	.LASF692
 9665 336b 34       		.byte	0x34
 9666 336c E2       		.byte	0xe2
 9667 336d 2E330000 		.4byte	0x332e
 9668 3371 2A       		.uleb128 0x2a
 9669 3372 7E220000 		.4byte	.LASF693
 9670 3376 34       		.byte	0x34
 9671 3377 E8       		.byte	0xe8
 9672 3378 43330000 		.4byte	0x3343
 9673 337c 00       		.byte	0
 9674 337d 17       		.uleb128 0x17
 9675 337e 14       		.byte	0x14
 9676 337f 34       		.byte	0x34
 9677 3380 CF       		.byte	0xcf
 9678 3381 C2330000 		.4byte	0x33c2
 9679 3385 08       		.uleb128 0x8
 9680 3386 C8080000 		.4byte	.LASF694
 9681 338a 34       		.byte	0x34
 9682 338b D3       		.byte	0xd3
 9683 338c C7150000 		.4byte	0x15c7
 9684 3390 00       		.byte	0
 9685 3391 08       		.uleb128 0x8
 9686 3392 83150000 		.4byte	.LASF695
 9687 3396 34       		.byte	0x34
 9688 3397 D7       		.byte	0xd7
 9689 3398 3A000000 		.4byte	0x3a
 9690 339c 04       		.byte	0x4
 9691 339d 08       		.uleb128 0x8
 9692 339e 390C0000 		.4byte	.LASF696
 9693 33a2 34       		.byte	0x34
 9694 33a3 DB       		.byte	0xdb
 9695 33a4 3A000000 		.4byte	0x3a
 9696 33a8 08       		.byte	0x8
 9697 33a9 08       		.uleb128 0x8
 9698 33aa 78090000 		.4byte	.LASF422
 9699 33ae 34       		.byte	0x34
 9700 33af E9       		.byte	0xe9
 9701 33b0 5E330000 		.4byte	0x335e
 9702 33b4 0C       		.byte	0xc
 9703 33b5 08       		.uleb128 0x8
ARM GAS  C:\Users\adrie\AppData\Local\Temp\ccgB8szF.s 			page 172


 9704 33b6 91100000 		.4byte	.LASF697
 9705 33ba 34       		.byte	0x34
 9706 33bb ED       		.byte	0xed
 9707 33bc 3A000000 		.4byte	0x3a
 9708 33c0 10       		.byte	0x10
 9709 33c1 00       		.byte	0
 9710 33c2 04       		.uleb128 0x4
 9711 33c3 E5120000 		.4byte	.LASF698
 9712 33c7 34       		.byte	0x34
 9713 33c8 EE       		.byte	0xee
 9714 33c9 7D330000 		.4byte	0x337d
 9715 33cd 19       		.uleb128 0x19
 9716 33ce 04       		.byte	0x4
 9717 33cf 34       		.byte	0x34
 9718 33d0 0101     		.2byte	0x101
 9719 33d2 E4330000 		.4byte	0x33e4
 9720 33d6 0A       		.uleb128 0xa
 9721 33d7 B50C0000 		.4byte	.LASF699
 9722 33db 34       		.byte	0x34
 9723 33dc 0501     		.2byte	0x105
 9724 33de AB130000 		.4byte	0x13ab
 9725 33e2 00       		.byte	0
 9726 33e3 00       		.byte	0
 9727 33e4 19       		.uleb128 0x19
 9728 33e5 04       		.byte	0x4
 9729 33e6 34       		.byte	0x34
 9730 33e7 0701     		.2byte	0x107
 9731 33e9 FB330000 		.4byte	0x33fb
 9732 33ed 0A       		.uleb128 0xa
 9733 33ee 56230000 		.4byte	.LASF377
 9734 33f2 34       		.byte	0x34
 9735 33f3 0B01     		.2byte	0x10b
 9736 33f5 FB330000 		.4byte	0x33fb
 9737 33f9 00       		.byte	0
 9738 33fa 00       		.byte	0
 9739 33fb 0B       		.uleb128 0xb
 9740 33fc 04       		.byte	0x4
 9741 33fd B1130000 		.4byte	0x13b1
 9742 3401 2B       		.uleb128 0x2b
 9743 3402 04       		.byte	0x4
 9744 3403 34       		.byte	0x34
 9745 3404 0001     		.2byte	0x100
 9746 3406 23340000 		.4byte	0x3423
 9747 340a 1E       		.uleb128 0x1e
 9748 340b B4230000 		.4byte	.LASF692
 9749 340f 34       		.byte	0x34
 9750 3410 0601     		.2byte	0x106
 9751 3412 CD330000 		.4byte	0x33cd
 9752 3416 1E       		.uleb128 0x1e
 9753 3417 7E220000 		.4byte	.LASF693
 9754 341b 34       		.byte	0x34
 9755 341c 0C01     		.2byte	0x10c
 9756 341e E4330000 		.4byte	0x33e4
 9757 3422 00       		.byte	0
 9758 3423 17       		.uleb128 0x17
 9759 3424 14       		.byte	0x14
 9760 3425 34       		.byte	0x34
ARM GAS  C:\Users\adrie\AppData\Local\Temp\ccgB8szF.s 			page 173


 9761 3426 F3       		.byte	0xf3
 9762 3427 6A340000 		.4byte	0x346a
 9763 342b 08       		.uleb128 0x8
 9764 342c 73060000 		.4byte	.LASF700
 9765 3430 34       		.byte	0x34
 9766 3431 F7       		.byte	0xf7
 9767 3432 C7150000 		.4byte	0x15c7
 9768 3436 00       		.byte	0
 9769 3437 08       		.uleb128 0x8
 9770 3438 82160000 		.4byte	.LASF701
 9771 343c 34       		.byte	0x34
 9772 343d FB       		.byte	0xfb
 9773 343e 3A000000 		.4byte	0x3a
 9774 3442 04       		.byte	0x4
 9775 3443 08       		.uleb128 0x8
 9776 3444 53090000 		.4byte	.LASF702
 9777 3448 34       		.byte	0x34
 9778 3449 FF       		.byte	0xff
 9779 344a 3A000000 		.4byte	0x3a
 9780 344e 08       		.byte	0x8
 9781 344f 0A       		.uleb128 0xa
 9782 3450 78090000 		.4byte	.LASF422
 9783 3454 34       		.byte	0x34
 9784 3455 0D01     		.2byte	0x10d
 9785 3457 01340000 		.4byte	0x3401
 9786 345b 0C       		.byte	0xc
 9787 345c 0A       		.uleb128 0xa
 9788 345d 91100000 		.4byte	.LASF697
 9789 3461 34       		.byte	0x34
 9790 3462 1101     		.2byte	0x111
 9791 3464 3A000000 		.4byte	0x3a
 9792 3468 10       		.byte	0x10
 9793 3469 00       		.byte	0
 9794 346a 1A       		.uleb128 0x1a
 9795 346b 4F210000 		.4byte	.LASF703
 9796 346f 34       		.byte	0x34
 9797 3470 1201     		.2byte	0x112
 9798 3472 23340000 		.4byte	0x3423
 9799 3476 19       		.uleb128 0x19
 9800 3477 24       		.byte	0x24
 9801 3478 34       		.byte	0x34
 9802 3479 1801     		.2byte	0x118
 9803 347b 02350000 		.4byte	0x3502
 9804 347f 0A       		.uleb128 0xa
 9805 3480 8C1A0000 		.4byte	.LASF704
 9806 3484 34       		.byte	0x34
 9807 3485 1C01     		.2byte	0x11c
 9808 3487 03010000 		.4byte	0x103
 9809 348b 00       		.byte	0
 9810 348c 0A       		.uleb128 0xa
 9811 348d 660A0000 		.4byte	.LASF705
 9812 3491 34       		.byte	0x34
 9813 3492 2701     		.2byte	0x127
 9814 3494 332D0000 		.4byte	0x2d33
 9815 3498 04       		.byte	0x4
 9816 3499 0A       		.uleb128 0xa
 9817 349a B21B0000 		.4byte	.LASF706
ARM GAS  C:\Users\adrie\AppData\Local\Temp\ccgB8szF.s 			page 174


 9818 349e 34       		.byte	0x34
 9819 349f 2D01     		.2byte	0x12d
 9820 34a1 332D0000 		.4byte	0x2d33
 9821 34a5 08       		.byte	0x8
 9822 34a6 0A       		.uleb128 0xa
 9823 34a7 3D0D0000 		.4byte	.LASF707
 9824 34ab 34       		.byte	0x34
 9825 34ac 3301     		.2byte	0x133
 9826 34ae 332D0000 		.4byte	0x2d33
 9827 34b2 0C       		.byte	0xc
 9828 34b3 0A       		.uleb128 0xa
 9829 34b4 F72A0000 		.4byte	.LASF708
 9830 34b8 34       		.byte	0x34
 9831 34b9 3901     		.2byte	0x139
 9832 34bb E8000000 		.4byte	0xe8
 9833 34bf 10       		.byte	0x10
 9834 34c0 0A       		.uleb128 0xa
 9835 34c1 990D0000 		.4byte	.LASF709
 9836 34c5 34       		.byte	0x34
 9837 34c6 3F01     		.2byte	0x13f
 9838 34c8 E8000000 		.4byte	0xe8
 9839 34cc 12       		.byte	0x12
 9840 34cd 0A       		.uleb128 0xa
 9841 34ce 3E290000 		.4byte	.LASF710
 9842 34d2 34       		.byte	0x34
 9843 34d3 4401     		.2byte	0x144
 9844 34d5 02350000 		.4byte	0x3502
 9845 34d9 14       		.byte	0x14
 9846 34da 0A       		.uleb128 0xa
 9847 34db 520F0000 		.4byte	.LASF711
 9848 34df 34       		.byte	0x34
 9849 34e0 4901     		.2byte	0x149
 9850 34e2 08350000 		.4byte	0x3508
 9851 34e6 18       		.byte	0x18
 9852 34e7 0A       		.uleb128 0xa
 9853 34e8 AA140000 		.4byte	.LASF712
 9854 34ec 34       		.byte	0x34
 9855 34ed 5001     		.2byte	0x150
 9856 34ef E8000000 		.4byte	0xe8
 9857 34f3 1C       		.byte	0x1c
 9858 34f4 0A       		.uleb128 0xa
 9859 34f5 44280000 		.4byte	.LASF713
 9860 34f9 34       		.byte	0x34
 9861 34fa 5601     		.2byte	0x156
 9862 34fc AB130000 		.4byte	0x13ab
 9863 3500 20       		.byte	0x20
 9864 3501 00       		.byte	0
 9865 3502 0B       		.uleb128 0xb
 9866 3503 04       		.byte	0x4
 9867 3504 C2330000 		.4byte	0x33c2
 9868 3508 0B       		.uleb128 0xb
 9869 3509 04       		.byte	0x4
 9870 350a 6A340000 		.4byte	0x346a
 9871 350e 1A       		.uleb128 0x1a
 9872 350f 26230000 		.4byte	.LASF714
 9873 3513 34       		.byte	0x34
 9874 3514 5701     		.2byte	0x157
ARM GAS  C:\Users\adrie\AppData\Local\Temp\ccgB8szF.s 			page 175


 9875 3516 76340000 		.4byte	0x3476
 9876 351a 05       		.uleb128 0x5
 9877 351b 0E350000 		.4byte	0x350e
 9878 351f 19       		.uleb128 0x19
 9879 3520 10       		.byte	0x10
 9880 3521 34       		.byte	0x34
 9881 3522 5C01     		.2byte	0x15c
 9882 3524 5D350000 		.4byte	0x355d
 9883 3528 0A       		.uleb128 0xa
 9884 3529 3C050000 		.4byte	.LASF715
 9885 352d 34       		.byte	0x34
 9886 352e 6101     		.2byte	0x161
 9887 3530 552D0000 		.4byte	0x2d55
 9888 3534 00       		.byte	0
 9889 3535 0A       		.uleb128 0xa
 9890 3536 72270000 		.4byte	.LASF716
 9891 353a 34       		.byte	0x34
 9892 353b 6601     		.2byte	0x166
 9893 353d 982D0000 		.4byte	0x2d98
 9894 3541 04       		.byte	0x4
 9895 3542 0A       		.uleb128 0xa
 9896 3543 48150000 		.4byte	.LASF717
 9897 3547 34       		.byte	0x34
 9898 3548 6C01     		.2byte	0x16c
 9899 354a 772D0000 		.4byte	0x2d77
 9900 354e 08       		.byte	0x8
 9901 354f 0A       		.uleb128 0xa
 9902 3550 2A020000 		.4byte	.LASF718
 9903 3554 34       		.byte	0x34
 9904 3555 7001     		.2byte	0x170
 9905 3557 102D0000 		.4byte	0x2d10
 9906 355b 0C       		.byte	0xc
 9907 355c 00       		.byte	0
 9908 355d 1A       		.uleb128 0x1a
 9909 355e 32140000 		.4byte	.LASF719
 9910 3562 34       		.byte	0x34
 9911 3563 7201     		.2byte	0x172
 9912 3565 1F350000 		.4byte	0x351f
 9913 3569 05       		.uleb128 0x5
 9914 356a 5D350000 		.4byte	0x355d
 9915 356e 0B       		.uleb128 0xb
 9916 356f 04       		.byte	0x4
 9917 3570 69350000 		.4byte	0x3569
 9918 3574 13       		.uleb128 0x13
 9919 3575 84350000 		.4byte	0x3584
 9920 3579 84350000 		.4byte	0x3584
 9921 357d 14       		.uleb128 0x14
 9922 357e 45000000 		.4byte	0x45
 9923 3582 03       		.byte	0x3
 9924 3583 00       		.byte	0
 9925 3584 0B       		.uleb128 0xb
 9926 3585 04       		.byte	0x4
 9927 3586 1A350000 		.4byte	0x351a
 9928 358a 13       		.uleb128 0x13
 9929 358b C8030000 		.4byte	0x3c8
 9930 358f 9A350000 		.4byte	0x359a
 9931 3593 14       		.uleb128 0x14
ARM GAS  C:\Users\adrie\AppData\Local\Temp\ccgB8szF.s 			page 176


 9932 3594 45000000 		.4byte	0x45
 9933 3598 02       		.byte	0x2
 9934 3599 00       		.byte	0
 9935 359a 0B       		.uleb128 0xb
 9936 359b 04       		.byte	0x4
 9937 359c E6320000 		.4byte	0x32e6
 9938 35a0 0B       		.uleb128 0xb
 9939 35a1 04       		.byte	0x4
 9940 35a2 29330000 		.4byte	0x3329
 9941 35a6 13       		.uleb128 0x13
 9942 35a7 8C0D0000 		.4byte	0xd8c
 9943 35ab B6350000 		.4byte	0x35b6
 9944 35af 14       		.uleb128 0x14
 9945 35b0 45000000 		.4byte	0x45
 9946 35b4 3E       		.byte	0x3e
 9947 35b5 00       		.byte	0
 9948 35b6 15       		.uleb128 0x15
 9949 35b7 CF000000 		.4byte	.LASF720
 9950 35bb 34       		.byte	0x34
 9951 35bc 0602     		.2byte	0x206
 9952 35be DC2A0000 		.4byte	0x2adc
 9953 35c2 21       		.uleb128 0x21
 9954 35c3 07       		.byte	0x7
 9955 35c4 01       		.byte	0x1
 9956 35c5 6C000000 		.4byte	0x6c
 9957 35c9 36       		.byte	0x36
 9958 35ca 97       		.byte	0x97
 9959 35cb E2350000 		.4byte	0x35e2
 9960 35cf 22       		.uleb128 0x22
 9961 35d0 DA0C0000 		.4byte	.LASF721
 9962 35d4 00       		.byte	0
 9963 35d5 22       		.uleb128 0x22
 9964 35d6 191D0000 		.4byte	.LASF722
 9965 35da 01       		.byte	0x1
 9966 35db 22       		.uleb128 0x22
 9967 35dc 63080000 		.4byte	.LASF723
 9968 35e0 02       		.byte	0x2
 9969 35e1 00       		.byte	0
 9970 35e2 04       		.uleb128 0x4
 9971 35e3 BD070000 		.4byte	.LASF724
 9972 35e7 36       		.byte	0x36
 9973 35e8 9B       		.byte	0x9b
 9974 35e9 C2350000 		.4byte	0x35c2
 9975 35ed 04       		.uleb128 0x4
 9976 35ee 83020000 		.4byte	.LASF725
 9977 35f2 36       		.byte	0x36
 9978 35f3 A0       		.byte	0xa0
 9979 35f4 F8350000 		.4byte	0x35f8
 9980 35f8 2C       		.uleb128 0x2c
 9981 35f9 83020000 		.4byte	.LASF725
 9982 35fd 5802     		.2byte	0x258
 9983 35ff 36       		.byte	0x36
 9984 3600 E5       		.byte	0xe5
 9985 3601 66360000 		.4byte	0x3666
 9986 3605 18       		.uleb128 0x18
 9987 3606 766D7400 		.ascii	"vmt\000"
 9988 360a 36       		.byte	0x36
ARM GAS  C:\Users\adrie\AppData\Local\Temp\ccgB8szF.s 			page 177


 9989 360b E7       		.byte	0xe7
 9990 360c 21370000 		.4byte	0x3721
 9991 3610 00       		.byte	0
 9992 3611 08       		.uleb128 0x8
 9993 3612 47000000 		.4byte	.LASF521
 9994 3616 36       		.byte	0x36
 9995 3617 E8       		.byte	0xe8
 9996 3618 06130000 		.4byte	0x1306
 9997 361c 04       		.byte	0x4
 9998 361d 08       		.uleb128 0x8
 9999 361e CC180000 		.4byte	.LASF343
 10000 3622 36       		.byte	0x36
 10001 3623 E8       		.byte	0xe8
 10002 3624 E2350000 		.4byte	0x35e2
 10003 3628 08       		.byte	0x8
 10004 3629 08       		.uleb128 0x8
 10005 362a AB1B0000 		.4byte	.LASF522
 10006 362e 36       		.byte	0x36
 10007 362f E8       		.byte	0xe8
 10008 3630 B1130000 		.4byte	0x13b1
 10009 3634 0C       		.byte	0xc
 10010 3635 08       		.uleb128 0x8
 10011 3636 69140000 		.4byte	.LASF523
 10012 363a 36       		.byte	0x36
 10013 363b E8       		.byte	0xe8
 10014 363c BC130000 		.4byte	0x13bc
 10015 3640 30       		.byte	0x30
 10016 3641 18       		.uleb128 0x18
 10017 3642 696200   		.ascii	"ib\000"
 10018 3645 36       		.byte	0x36
 10019 3646 E8       		.byte	0xe8
 10020 3647 27370000 		.4byte	0x3727
 10021 364b 54       		.byte	0x54
 10022 364c 28       		.uleb128 0x28
 10023 364d 6F6200   		.ascii	"ob\000"
 10024 3650 36       		.byte	0x36
 10025 3651 E8       		.byte	0xe8
 10026 3652 27370000 		.4byte	0x3727
 10027 3656 5401     		.2byte	0x154
 10028 3658 27       		.uleb128 0x27
 10029 3659 16200000 		.4byte	.LASF344
 10030 365d 36       		.byte	0x36
 10031 365e E8       		.byte	0xe8
 10032 365f 37370000 		.4byte	0x3737
 10033 3663 5402     		.2byte	0x254
 10034 3665 00       		.byte	0
 10035 3666 17       		.uleb128 0x17
 10036 3667 08       		.byte	0x8
 10037 3668 36       		.byte	0x36
 10038 3669 A7       		.byte	0xa7
 10039 366a 9F360000 		.4byte	0x369f
 10040 366e 08       		.uleb128 0x8
 10041 366f AA260000 		.4byte	.LASF726
 10042 3673 36       		.byte	0x36
 10043 3674 AB       		.byte	0xab
 10044 3675 2D2D0000 		.4byte	0x2d2d
 10045 3679 00       		.byte	0
ARM GAS  C:\Users\adrie\AppData\Local\Temp\ccgB8szF.s 			page 178


 10046 367a 08       		.uleb128 0x8
 10047 367b 76120000 		.4byte	.LASF727
 10048 367f 36       		.byte	0x36
 10049 3680 AF       		.byte	0xaf
 10050 3681 132C0000 		.4byte	0x2c13
 10051 3685 04       		.byte	0x4
 10052 3686 08       		.uleb128 0x8
 10053 3687 7F050000 		.4byte	.LASF728
 10054 368b 36       		.byte	0x36
 10055 368c B3       		.byte	0xb3
 10056 368d 132C0000 		.4byte	0x2c13
 10057 3691 05       		.byte	0x5
 10058 3692 08       		.uleb128 0x8
 10059 3693 94130000 		.4byte	.LASF729
 10060 3697 36       		.byte	0x36
 10061 3698 B9       		.byte	0xb9
 10062 3699 132C0000 		.4byte	0x2c13
 10063 369d 06       		.byte	0x6
 10064 369e 00       		.byte	0
 10065 369f 04       		.uleb128 0x4
 10066 36a0 FB200000 		.4byte	.LASF730
 10067 36a4 36       		.byte	0x36
 10068 36a5 BA       		.byte	0xba
 10069 36a6 66360000 		.4byte	0x3666
 10070 36aa 05       		.uleb128 0x5
 10071 36ab 9F360000 		.4byte	0x369f
 10072 36af 07       		.uleb128 0x7
 10073 36b0 C9190000 		.4byte	.LASF731
 10074 36b4 20       		.byte	0x20
 10075 36b5 36       		.byte	0x36
 10076 36b6 DA       		.byte	0xda
 10077 36b7 1C370000 		.4byte	0x371c
 10078 36bb 08       		.uleb128 0x8
 10079 36bc 9A1B0000 		.4byte	.LASF526
 10080 36c0 36       		.byte	0x36
 10081 36c1 DB       		.byte	0xdb
 10082 36c2 E6130000 		.4byte	0x13e6
 10083 36c6 00       		.byte	0
 10084 36c7 08       		.uleb128 0x8
 10085 36c8 23050000 		.4byte	.LASF527
 10086 36cc 36       		.byte	0x36
 10087 36cd DB       		.byte	0xdb
 10088 36ce 05140000 		.4byte	0x1405
 10089 36d2 04       		.byte	0x4
 10090 36d3 18       		.uleb128 0x18
 10091 36d4 70757400 		.ascii	"put\000"
 10092 36d8 36       		.byte	0x36
 10093 36d9 DB       		.byte	0xdb
 10094 36da 1F140000 		.4byte	0x141f
 10095 36de 08       		.byte	0x8
 10096 36df 18       		.uleb128 0x18
 10097 36e0 67657400 		.ascii	"get\000"
 10098 36e4 36       		.byte	0x36
 10099 36e5 DB       		.byte	0xdb
 10100 36e6 34140000 		.4byte	0x1434
 10101 36ea 0C       		.byte	0xc
 10102 36eb 08       		.uleb128 0x8
ARM GAS  C:\Users\adrie\AppData\Local\Temp\ccgB8szF.s 			page 179


 10103 36ec B7160000 		.4byte	.LASF528
 10104 36f0 36       		.byte	0x36
 10105 36f1 DB       		.byte	0xdb
 10106 36f2 D5140000 		.4byte	0x14d5
 10107 36f6 10       		.byte	0x10
 10108 36f7 08       		.uleb128 0x8
 10109 36f8 6D1B0000 		.4byte	.LASF529
 10110 36fc 36       		.byte	0x36
 10111 36fd DB       		.byte	0xdb
 10112 36fe EF140000 		.4byte	0x14ef
 10113 3702 14       		.byte	0x14
 10114 3703 08       		.uleb128 0x8
 10115 3704 C4260000 		.4byte	.LASF530
 10116 3708 36       		.byte	0x36
 10117 3709 DB       		.byte	0xdb
 10118 370a 13150000 		.4byte	0x1513
 10119 370e 18       		.byte	0x18
 10120 370f 08       		.uleb128 0x8
 10121 3710 F9150000 		.4byte	.LASF531
 10122 3714 36       		.byte	0x36
 10123 3715 DB       		.byte	0xdb
 10124 3716 37150000 		.4byte	0x1537
 10125 371a 1C       		.byte	0x1c
 10126 371b 00       		.byte	0
 10127 371c 05       		.uleb128 0x5
 10128 371d AF360000 		.4byte	0x36af
 10129 3721 0B       		.uleb128 0xb
 10130 3722 04       		.byte	0x4
 10131 3723 1C370000 		.4byte	0x371c
 10132 3727 13       		.uleb128 0x13
 10133 3728 CD000000 		.4byte	0xcd
 10134 372c 37370000 		.4byte	0x3737
 10135 3730 14       		.uleb128 0x14
 10136 3731 45000000 		.4byte	0x45
 10137 3735 FF       		.byte	0xff
 10138 3736 00       		.byte	0
 10139 3737 0B       		.uleb128 0xb
 10140 3738 04       		.byte	0x4
 10141 3739 AA360000 		.4byte	0x36aa
 10142 373d 21       		.uleb128 0x21
 10143 373e 07       		.byte	0x7
 10144 373f 01       		.byte	0x1
 10145 3740 6C000000 		.4byte	0x6c
 10146 3744 37       		.byte	0x37
 10147 3745 83       		.byte	0x83
 10148 3746 57370000 		.4byte	0x3757
 10149 374a 22       		.uleb128 0x22
 10150 374b 54280000 		.4byte	.LASF732
 10151 374f 00       		.byte	0
 10152 3750 22       		.uleb128 0x22
 10153 3751 581D0000 		.4byte	.LASF733
 10154 3755 01       		.byte	0x1
 10155 3756 00       		.byte	0
 10156 3757 04       		.uleb128 0x4
 10157 3758 AA280000 		.4byte	.LASF734
 10158 375c 37       		.byte	0x37
 10159 375d 86       		.byte	0x86
ARM GAS  C:\Users\adrie\AppData\Local\Temp\ccgB8szF.s 			page 180


 10160 375e 3D370000 		.4byte	0x373d
 10161 3762 21       		.uleb128 0x21
 10162 3763 07       		.byte	0x7
 10163 3764 01       		.byte	0x1
 10164 3765 6C000000 		.4byte	0x6c
 10165 3769 37       		.byte	0x37
 10166 376a 8B       		.byte	0x8b
 10167 376b A0370000 		.4byte	0x37a0
 10168 376f 22       		.uleb128 0x22
 10169 3770 25070000 		.4byte	.LASF735
 10170 3774 00       		.byte	0
 10171 3775 22       		.uleb128 0x22
 10172 3776 36030000 		.4byte	.LASF736
 10173 377a 01       		.byte	0x1
 10174 377b 22       		.uleb128 0x22
 10175 377c BB230000 		.4byte	.LASF737
 10176 3780 02       		.byte	0x2
 10177 3781 22       		.uleb128 0x22
 10178 3782 12220000 		.4byte	.LASF738
 10179 3786 03       		.byte	0x3
 10180 3787 22       		.uleb128 0x22
 10181 3788 83000000 		.4byte	.LASF739
 10182 378c 04       		.byte	0x4
 10183 378d 22       		.uleb128 0x22
 10184 378e 15080000 		.4byte	.LASF740
 10185 3792 05       		.byte	0x5
 10186 3793 22       		.uleb128 0x22
 10187 3794 05150000 		.4byte	.LASF741
 10188 3798 06       		.byte	0x6
 10189 3799 22       		.uleb128 0x22
 10190 379a BC1C0000 		.4byte	.LASF742
 10191 379e 07       		.byte	0x7
 10192 379f 00       		.byte	0
 10193 37a0 04       		.uleb128 0x4
 10194 37a1 EA190000 		.4byte	.LASF743
 10195 37a5 37       		.byte	0x37
 10196 37a6 94       		.byte	0x94
 10197 37a7 62370000 		.4byte	0x3762
 10198 37ab 04       		.uleb128 0x4
 10199 37ac D2290000 		.4byte	.LASF744
 10200 37b0 37       		.byte	0x37
 10201 37b1 99       		.byte	0x99
 10202 37b2 B6370000 		.4byte	0x37b6
 10203 37b6 07       		.uleb128 0x7
 10204 37b7 D2290000 		.4byte	.LASF744
 10205 37bb 14       		.byte	0x14
 10206 37bc 37       		.byte	0x37
 10207 37bd C3       		.byte	0xc3
 10208 37be FF370000 		.4byte	0x37ff
 10209 37c2 08       		.uleb128 0x8
 10210 37c3 CC180000 		.4byte	.LASF343
 10211 37c7 37       		.byte	0x37
 10212 37c8 C7       		.byte	0xc7
 10213 37c9 A0370000 		.4byte	0x37a0
 10214 37cd 00       		.byte	0
 10215 37ce 08       		.uleb128 0x8
 10216 37cf 16200000 		.4byte	.LASF344
ARM GAS  C:\Users\adrie\AppData\Local\Temp\ccgB8szF.s 			page 181


 10217 37d3 37       		.byte	0x37
 10218 37d4 CB       		.byte	0xcb
 10219 37d5 8A380000 		.4byte	0x388a
 10220 37d9 04       		.byte	0x4
 10221 37da 08       		.uleb128 0x8
 10222 37db 84250000 		.4byte	.LASF745
 10223 37df 37       		.byte	0x37
 10224 37e0 CF       		.byte	0xcf
 10225 37e1 90380000 		.4byte	0x3890
 10226 37e5 08       		.byte	0x8
 10227 37e6 08       		.uleb128 0x8
 10228 37e7 C60B0000 		.4byte	.LASF350
 10229 37eb 37       		.byte	0x37
 10230 37ec D3       		.byte	0xd3
 10231 37ed 811A0000 		.4byte	0x1a81
 10232 37f1 0C       		.byte	0xc
 10233 37f2 08       		.uleb128 0x8
 10234 37f3 4E1B0000 		.4byte	.LASF351
 10235 37f7 37       		.byte	0x37
 10236 37f8 D7       		.byte	0xd7
 10237 37f9 03010000 		.4byte	0x103
 10238 37fd 10       		.byte	0x10
 10239 37fe 00       		.byte	0
 10240 37ff 04       		.uleb128 0x4
 10241 3800 050F0000 		.4byte	.LASF746
 10242 3804 37       		.byte	0x37
 10243 3805 A0       		.byte	0xa0
 10244 3806 0A380000 		.4byte	0x380a
 10245 380a 0B       		.uleb128 0xb
 10246 380b 04       		.byte	0x4
 10247 380c 10380000 		.4byte	0x3810
 10248 3810 0D       		.uleb128 0xd
 10249 3811 1B380000 		.4byte	0x381b
 10250 3815 0E       		.uleb128 0xe
 10251 3816 1B380000 		.4byte	0x381b
 10252 381a 00       		.byte	0
 10253 381b 0B       		.uleb128 0xb
 10254 381c 04       		.byte	0x4
 10255 381d AB370000 		.4byte	0x37ab
 10256 3821 04       		.uleb128 0x4
 10257 3822 2E1E0000 		.4byte	.LASF747
 10258 3826 37       		.byte	0x37
 10259 3827 A8       		.byte	0xa8
 10260 3828 2C380000 		.4byte	0x382c
 10261 382c 0B       		.uleb128 0xb
 10262 382d 04       		.byte	0x4
 10263 382e 32380000 		.4byte	0x3832
 10264 3832 0D       		.uleb128 0xd
 10265 3833 42380000 		.4byte	0x3842
 10266 3837 0E       		.uleb128 0xe
 10267 3838 1B380000 		.4byte	0x381b
 10268 383c 0E       		.uleb128 0xe
 10269 383d 57370000 		.4byte	0x3757
 10270 3841 00       		.byte	0
 10271 3842 17       		.uleb128 0x17
 10272 3843 10       		.byte	0x10
 10273 3844 37       		.byte	0x37
ARM GAS  C:\Users\adrie\AppData\Local\Temp\ccgB8szF.s 			page 182


 10274 3845 AD       		.byte	0xad
 10275 3846 7A380000 		.4byte	0x387a
 10276 384a 08       		.uleb128 0x8
 10277 384b 2F210000 		.4byte	.LASF748
 10278 384f 37       		.byte	0x37
 10279 3850 B1       		.byte	0xb1
 10280 3851 FF370000 		.4byte	0x37ff
 10281 3855 00       		.byte	0
 10282 3856 08       		.uleb128 0x8
 10283 3857 F0260000 		.4byte	.LASF749
 10284 385b 37       		.byte	0x37
 10285 385c B5       		.byte	0xb5
 10286 385d FF370000 		.4byte	0x37ff
 10287 3861 04       		.byte	0x4
 10288 3862 08       		.uleb128 0x8
 10289 3863 68280000 		.4byte	.LASF357
 10290 3867 37       		.byte	0x37
 10291 3868 B9       		.byte	0xb9
 10292 3869 21380000 		.4byte	0x3821
 10293 386d 08       		.byte	0x8
 10294 386e 18       		.uleb128 0x18
 10295 386f 637200   		.ascii	"cr\000"
 10296 3872 37       		.byte	0x37
 10297 3873 BD       		.byte	0xbd
 10298 3874 03010000 		.4byte	0x103
 10299 3878 0C       		.byte	0xc
 10300 3879 00       		.byte	0
 10301 387a 04       		.uleb128 0x4
 10302 387b E2290000 		.4byte	.LASF750
 10303 387f 37       		.byte	0x37
 10304 3880 BE       		.byte	0xbe
 10305 3881 42380000 		.4byte	0x3842
 10306 3885 05       		.uleb128 0x5
 10307 3886 7A380000 		.4byte	0x387a
 10308 388a 0B       		.uleb128 0xb
 10309 388b 04       		.byte	0x4
 10310 388c 85380000 		.4byte	0x3885
 10311 3890 0B       		.uleb128 0xb
 10312 3891 04       		.byte	0x4
 10313 3892 1A0A0000 		.4byte	0xa1a
 10314 3896 16       		.uleb128 0x16
 10315 3897 CE040000 		.4byte	.LASF751
 10316 389b 37       		.byte	0x37
 10317 389c E3       		.byte	0xe3
 10318 389d AB370000 		.4byte	0x37ab
 10319 38a1 04       		.uleb128 0x4
 10320 38a2 6D080000 		.4byte	.LASF752
 10321 38a6 38       		.byte	0x38
 10322 38a7 22       		.byte	0x22
 10323 38a8 AC380000 		.4byte	0x38ac
 10324 38ac 0B       		.uleb128 0xb
 10325 38ad 04       		.byte	0x4
 10326 38ae B2380000 		.4byte	0x38b2
 10327 38b2 2D       		.uleb128 0x2d
 10328 38b3 37060000 		.4byte	.LASF882
 10329 38b7 04       		.uleb128 0x4
 10330 38b8 470E0000 		.4byte	.LASF753
ARM GAS  C:\Users\adrie\AppData\Local\Temp\ccgB8szF.s 			page 183


 10331 38bc 39       		.byte	0x39
 10332 38bd 2C       		.byte	0x2c
 10333 38be A2000000 		.4byte	0xa2
 10334 38c2 04       		.uleb128 0x4
 10335 38c3 C4200000 		.4byte	.LASF754
 10336 38c7 39       		.byte	0x39
 10337 38c8 72       		.byte	0x72
 10338 38c9 A2000000 		.4byte	0xa2
 10339 38cd 1A       		.uleb128 0x1a
 10340 38ce 5B100000 		.4byte	.LASF755
 10341 38d2 07       		.byte	0x7
 10342 38d3 6501     		.2byte	0x165
 10343 38d5 45000000 		.4byte	0x45
 10344 38d9 1D       		.uleb128 0x1d
 10345 38da 04       		.byte	0x4
 10346 38db 39       		.byte	0x39
 10347 38dc A6       		.byte	0xa6
 10348 38dd F8380000 		.4byte	0x38f8
 10349 38e1 2A       		.uleb128 0x2a
 10350 38e2 9D190000 		.4byte	.LASF756
 10351 38e6 39       		.byte	0x39
 10352 38e7 A8       		.byte	0xa8
 10353 38e8 CD380000 		.4byte	0x38cd
 10354 38ec 2A       		.uleb128 0x2a
 10355 38ed F10F0000 		.4byte	.LASF757
 10356 38f1 39       		.byte	0x39
 10357 38f2 A9       		.byte	0xa9
 10358 38f3 F8380000 		.4byte	0x38f8
 10359 38f7 00       		.byte	0
 10360 38f8 13       		.uleb128 0x13
 10361 38f9 6C000000 		.4byte	0x6c
 10362 38fd 08390000 		.4byte	0x3908
 10363 3901 14       		.uleb128 0x14
 10364 3902 45000000 		.4byte	0x45
 10365 3906 03       		.byte	0x3
 10366 3907 00       		.byte	0
 10367 3908 17       		.uleb128 0x17
 10368 3909 08       		.byte	0x8
 10369 390a 39       		.byte	0x39
 10370 390b A3       		.byte	0xa3
 10371 390c 29390000 		.4byte	0x3929
 10372 3910 08       		.uleb128 0x8
 10373 3911 980E0000 		.4byte	.LASF758
 10374 3915 39       		.byte	0x39
 10375 3916 A5       		.byte	0xa5
 10376 3917 2C000000 		.4byte	0x2c
 10377 391b 00       		.byte	0
 10378 391c 08       		.uleb128 0x8
 10379 391d A3190000 		.4byte	.LASF759
 10380 3921 39       		.byte	0x39
 10381 3922 AA       		.byte	0xaa
 10382 3923 D9380000 		.4byte	0x38d9
 10383 3927 04       		.byte	0x4
 10384 3928 00       		.byte	0
 10385 3929 04       		.uleb128 0x4
 10386 392a 74210000 		.4byte	.LASF760
 10387 392e 39       		.byte	0x39
ARM GAS  C:\Users\adrie\AppData\Local\Temp\ccgB8szF.s 			page 184


 10388 392f AB       		.byte	0xab
 10389 3930 08390000 		.4byte	0x3908
 10390 3934 04       		.uleb128 0x4
 10391 3935 19260000 		.4byte	.LASF761
 10392 3939 39       		.byte	0x39
 10393 393a AF       		.byte	0xaf
 10394 393b A1380000 		.4byte	0x38a1
 10395 393f 0B       		.uleb128 0xb
 10396 3940 04       		.byte	0x4
 10397 3941 18110000 		.4byte	0x1118
 10398 3945 16       		.uleb128 0x16
 10399 3946 BE0F0000 		.4byte	.LASF762
 10400 394a 3A       		.byte	0x3a
 10401 394b 10       		.byte	0x10
 10402 394c 50390000 		.4byte	0x3950
 10403 3950 0B       		.uleb128 0xb
 10404 3951 04       		.byte	0x4
 10405 3952 3F390000 		.4byte	0x393f
 10406 3956 16       		.uleb128 0x16
 10407 3957 C8070000 		.4byte	.LASF763
 10408 395b 3A       		.byte	0x3a
 10409 395c E8       		.byte	0xe8
 10410 395d 3F390000 		.4byte	0x393f
 10411 3961 16       		.uleb128 0x16
 10412 3962 AF260000 		.4byte	.LASF764
 10413 3966 3A       		.byte	0x3a
 10414 3967 E9       		.byte	0xe9
 10415 3968 2C000000 		.4byte	0x2c
 10416 396c 16       		.uleb128 0x16
 10417 396d 29190000 		.4byte	.LASF765
 10418 3971 3A       		.byte	0x3a
 10419 3972 E9       		.byte	0xe9
 10420 3973 2C000000 		.4byte	0x2c
 10421 3977 16       		.uleb128 0x16
 10422 3978 B0160000 		.4byte	.LASF766
 10423 397c 3A       		.byte	0x3a
 10424 397d E9       		.byte	0xe9
 10425 397e 2C000000 		.4byte	0x2c
 10426 3982 16       		.uleb128 0x16
 10427 3983 38090000 		.4byte	.LASF767
 10428 3987 3A       		.byte	0x3a
 10429 3988 EB       		.byte	0xeb
 10430 3989 2C000000 		.4byte	0x2c
 10431 398d 07       		.uleb128 0x7
 10432 398e 5E120000 		.4byte	.LASF768
 10433 3992 5C       		.byte	0x5c
 10434 3993 3B       		.byte	0x3b
 10435 3994 0C       		.byte	0xc
 10436 3995 FA390000 		.4byte	0x39fa
 10437 3999 08       		.uleb128 0x8
 10438 399a C31F0000 		.4byte	.LASF769
 10439 399e 3B       		.byte	0x3b
 10440 399f 0D       		.byte	0xd
 10441 39a0 C8030000 		.4byte	0x3c8
 10442 39a4 00       		.byte	0
 10443 39a5 08       		.uleb128 0x8
 10444 39a6 101C0000 		.4byte	.LASF770
ARM GAS  C:\Users\adrie\AppData\Local\Temp\ccgB8szF.s 			page 185


 10445 39aa 3B       		.byte	0x3b
 10446 39ab 0E       		.byte	0xe
 10447 39ac 3A000000 		.4byte	0x3a
 10448 39b0 04       		.byte	0x4
 10449 39b1 08       		.uleb128 0x8
 10450 39b2 CD0B0000 		.4byte	.LASF771
 10451 39b6 3B       		.byte	0x3b
 10452 39b7 0F       		.byte	0xf
 10453 39b8 C8030000 		.4byte	0x3c8
 10454 39bc 08       		.byte	0x8
 10455 39bd 08       		.uleb128 0x8
 10456 39be 3F070000 		.4byte	.LASF772
 10457 39c2 3B       		.byte	0x3b
 10458 39c3 10       		.byte	0x10
 10459 39c4 C8030000 		.4byte	0x3c8
 10460 39c8 0C       		.byte	0xc
 10461 39c9 08       		.uleb128 0x8
 10462 39ca F5250000 		.4byte	.LASF773
 10463 39ce 3B       		.byte	0x3b
 10464 39cf 11       		.byte	0x11
 10465 39d0 FA390000 		.4byte	0x39fa
 10466 39d4 10       		.byte	0x10
 10467 39d5 08       		.uleb128 0x8
 10468 39d6 49010000 		.4byte	.LASF774
 10469 39da 3B       		.byte	0x3b
 10470 39db 12       		.byte	0x12
 10471 39dc C7150000 		.4byte	0x15c7
 10472 39e0 51       		.byte	0x51
 10473 39e1 08       		.uleb128 0x8
 10474 39e2 E1220000 		.4byte	.LASF775
 10475 39e6 3B       		.byte	0x3b
 10476 39e7 13       		.byte	0x13
 10477 39e8 2F3A0000 		.4byte	0x3a2f
 10478 39ec 54       		.byte	0x54
 10479 39ed 08       		.uleb128 0x8
 10480 39ee 55020000 		.4byte	.LASF776
 10481 39f2 3B       		.byte	0x3b
 10482 39f3 14       		.byte	0x14
 10483 39f4 353A0000 		.4byte	0x3a35
 10484 39f8 58       		.byte	0x58
 10485 39f9 00       		.byte	0
 10486 39fa 13       		.uleb128 0x13
 10487 39fb 18110000 		.4byte	0x1118
 10488 39ff 0A3A0000 		.4byte	0x3a0a
 10489 3a03 14       		.uleb128 0x14
 10490 3a04 45000000 		.4byte	0x45
 10491 3a08 40       		.byte	0x40
 10492 3a09 00       		.byte	0
 10493 3a0a 07       		.uleb128 0x7
 10494 3a0b 32000000 		.4byte	.LASF777
 10495 3a0f 08       		.byte	0x8
 10496 3a10 3B       		.byte	0x3b
 10497 3a11 25       		.byte	0x25
 10498 3a12 2F3A0000 		.4byte	0x3a2f
 10499 3a16 08       		.uleb128 0x8
 10500 3a17 D3210000 		.4byte	.LASF778
 10501 3a1b 3B       		.byte	0x3b
ARM GAS  C:\Users\adrie\AppData\Local\Temp\ccgB8szF.s 			page 186


 10502 3a1c 26       		.byte	0x26
 10503 3a1d D53A0000 		.4byte	0x3ad5
 10504 3a21 00       		.byte	0
 10505 3a22 08       		.uleb128 0x8
 10506 3a23 55020000 		.4byte	.LASF776
 10507 3a27 3B       		.byte	0x3b
 10508 3a28 27       		.byte	0x27
 10509 3a29 2F3A0000 		.4byte	0x3a2f
 10510 3a2d 04       		.byte	0x4
 10511 3a2e 00       		.byte	0
 10512 3a2f 0B       		.uleb128 0xb
 10513 3a30 04       		.byte	0x4
 10514 3a31 0A3A0000 		.4byte	0x3a0a
 10515 3a35 0B       		.uleb128 0xb
 10516 3a36 04       		.byte	0x4
 10517 3a37 8D390000 		.4byte	0x398d
 10518 3a3b 04       		.uleb128 0x4
 10519 3a3c 241B0000 		.4byte	.LASF779
 10520 3a40 3B       		.byte	0x3b
 10521 3a41 15       		.byte	0x15
 10522 3a42 8D390000 		.4byte	0x398d
 10523 3a46 17       		.uleb128 0x17
 10524 3a47 04       		.byte	0x4
 10525 3a48 3B       		.byte	0x3b
 10526 3a49 18       		.byte	0x18
 10527 3a4a 5B3A0000 		.4byte	0x3a5b
 10528 3a4e 08       		.uleb128 0x8
 10529 3a4f 5E0B0000 		.4byte	.LASF780
 10530 3a53 3B       		.byte	0x3b
 10531 3a54 19       		.byte	0x19
 10532 3a55 5B3A0000 		.4byte	0x3a5b
 10533 3a59 00       		.byte	0
 10534 3a5a 00       		.byte	0
 10535 3a5b 0B       		.uleb128 0xb
 10536 3a5c 04       		.byte	0x4
 10537 3a5d 3B3A0000 		.4byte	0x3a3b
 10538 3a61 17       		.uleb128 0x17
 10539 3a62 0C       		.byte	0xc
 10540 3a63 3B       		.byte	0x3b
 10541 3a64 17       		.byte	0x17
 10542 3a65 8E3A0000 		.4byte	0x3a8e
 10543 3a69 08       		.uleb128 0x8
 10544 3a6a 45240000 		.4byte	.LASF781
 10545 3a6e 3B       		.byte	0x3b
 10546 3a6f 1A       		.byte	0x1a
 10547 3a70 463A0000 		.4byte	0x3a46
 10548 3a74 00       		.byte	0
 10549 3a75 08       		.uleb128 0x8
 10550 3a76 CD0B0000 		.4byte	.LASF771
 10551 3a7a 3B       		.byte	0x3b
 10552 3a7b 1B       		.byte	0x1b
 10553 3a7c C8030000 		.4byte	0x3c8
 10554 3a80 04       		.byte	0x4
 10555 3a81 08       		.uleb128 0x8
 10556 3a82 3F070000 		.4byte	.LASF772
 10557 3a86 3B       		.byte	0x3b
 10558 3a87 1C       		.byte	0x1c
ARM GAS  C:\Users\adrie\AppData\Local\Temp\ccgB8szF.s 			page 187


 10559 3a88 C8030000 		.4byte	0x3c8
 10560 3a8c 08       		.byte	0x8
 10561 3a8d 00       		.byte	0
 10562 3a8e 04       		.uleb128 0x4
 10563 3a8f 31120000 		.4byte	.LASF782
 10564 3a93 3B       		.byte	0x3b
 10565 3a94 1D       		.byte	0x1d
 10566 3a95 613A0000 		.4byte	0x3a61
 10567 3a99 07       		.uleb128 0x7
 10568 3a9a 8E1D0000 		.4byte	.LASF783
 10569 3a9e 0C       		.byte	0xc
 10570 3a9f 3B       		.byte	0x3b
 10571 3aa0 1F       		.byte	0x1f
 10572 3aa1 CA3A0000 		.4byte	0x3aca
 10573 3aa5 08       		.uleb128 0x8
 10574 3aa6 CD0B0000 		.4byte	.LASF771
 10575 3aaa 3B       		.byte	0x3b
 10576 3aab 20       		.byte	0x20
 10577 3aac C8030000 		.4byte	0x3c8
 10578 3ab0 00       		.byte	0
 10579 3ab1 08       		.uleb128 0x8
 10580 3ab2 3F070000 		.4byte	.LASF772
 10581 3ab6 3B       		.byte	0x3b
 10582 3ab7 21       		.byte	0x21
 10583 3ab8 C8030000 		.4byte	0x3c8
 10584 3abc 04       		.byte	0x4
 10585 3abd 08       		.uleb128 0x8
 10586 3abe BE040000 		.4byte	.LASF784
 10587 3ac2 3B       		.byte	0x3b
 10588 3ac3 22       		.byte	0x22
 10589 3ac4 5B3A0000 		.4byte	0x3a5b
 10590 3ac8 08       		.byte	0x8
 10591 3ac9 00       		.byte	0
 10592 3aca 04       		.uleb128 0x4
 10593 3acb 591F0000 		.4byte	.LASF785
 10594 3acf 3B       		.byte	0x3b
 10595 3ad0 23       		.byte	0x23
 10596 3ad1 993A0000 		.4byte	0x3a99
 10597 3ad5 0B       		.uleb128 0xb
 10598 3ad6 04       		.byte	0x4
 10599 3ad7 CA3A0000 		.4byte	0x3aca
 10600 3adb 04       		.uleb128 0x4
 10601 3adc 1B160000 		.4byte	.LASF786
 10602 3ae0 3C       		.byte	0x3c
 10603 3ae1 16       		.byte	0x16
 10604 3ae2 B4000000 		.4byte	0xb4
 10605 3ae6 07       		.uleb128 0x7
 10606 3ae7 471E0000 		.4byte	.LASF787
 10607 3aeb 18       		.byte	0x18
 10608 3aec 3C       		.byte	0x3c
 10609 3aed 2F       		.byte	0x2f
 10610 3aee 393B0000 		.4byte	0x3b39
 10611 3af2 08       		.uleb128 0x8
 10612 3af3 37130000 		.4byte	.LASF788
 10613 3af7 3C       		.byte	0x3c
 10614 3af8 31       		.byte	0x31
 10615 3af9 393B0000 		.4byte	0x3b39
ARM GAS  C:\Users\adrie\AppData\Local\Temp\ccgB8szF.s 			page 188


 10616 3afd 00       		.byte	0
 10617 3afe 18       		.uleb128 0x18
 10618 3aff 5F6B00   		.ascii	"_k\000"
 10619 3b02 3C       		.byte	0x3c
 10620 3b03 32       		.byte	0x32
 10621 3b04 2C000000 		.4byte	0x2c
 10622 3b08 04       		.byte	0x4
 10623 3b09 08       		.uleb128 0x8
 10624 3b0a E81B0000 		.4byte	.LASF789
 10625 3b0e 3C       		.byte	0x3c
 10626 3b0f 32       		.byte	0x32
 10627 3b10 2C000000 		.4byte	0x2c
 10628 3b14 08       		.byte	0x8
 10629 3b15 08       		.uleb128 0x8
 10630 3b16 1B1C0000 		.4byte	.LASF790
 10631 3b1a 3C       		.byte	0x3c
 10632 3b1b 32       		.byte	0x32
 10633 3b1c 2C000000 		.4byte	0x2c
 10634 3b20 0C       		.byte	0xc
 10635 3b21 08       		.uleb128 0x8
 10636 3b22 020B0000 		.4byte	.LASF791
 10637 3b26 3C       		.byte	0x3c
 10638 3b27 32       		.byte	0x32
 10639 3b28 2C000000 		.4byte	0x2c
 10640 3b2c 10       		.byte	0x10
 10641 3b2d 18       		.uleb128 0x18
 10642 3b2e 5F7800   		.ascii	"_x\000"
 10643 3b31 3C       		.byte	0x3c
 10644 3b32 33       		.byte	0x33
 10645 3b33 3F3B0000 		.4byte	0x3b3f
 10646 3b37 14       		.byte	0x14
 10647 3b38 00       		.byte	0
 10648 3b39 0B       		.uleb128 0xb
 10649 3b3a 04       		.byte	0x4
 10650 3b3b E63A0000 		.4byte	0x3ae6
 10651 3b3f 13       		.uleb128 0x13
 10652 3b40 DB3A0000 		.4byte	0x3adb
 10653 3b44 4F3B0000 		.4byte	0x3b4f
 10654 3b48 14       		.uleb128 0x14
 10655 3b49 45000000 		.4byte	0x45
 10656 3b4d 00       		.byte	0
 10657 3b4e 00       		.byte	0
 10658 3b4f 07       		.uleb128 0x7
 10659 3b50 3E1F0000 		.4byte	.LASF792
 10660 3b54 24       		.byte	0x24
 10661 3b55 3C       		.byte	0x3c
 10662 3b56 37       		.byte	0x37
 10663 3b57 C83B0000 		.4byte	0x3bc8
 10664 3b5b 08       		.uleb128 0x8
 10665 3b5c A1140000 		.4byte	.LASF793
 10666 3b60 3C       		.byte	0x3c
 10667 3b61 39       		.byte	0x39
 10668 3b62 2C000000 		.4byte	0x2c
 10669 3b66 00       		.byte	0
 10670 3b67 08       		.uleb128 0x8
 10671 3b68 260C0000 		.4byte	.LASF794
 10672 3b6c 3C       		.byte	0x3c
ARM GAS  C:\Users\adrie\AppData\Local\Temp\ccgB8szF.s 			page 189


 10673 3b6d 3A       		.byte	0x3a
 10674 3b6e 2C000000 		.4byte	0x2c
 10675 3b72 04       		.byte	0x4
 10676 3b73 08       		.uleb128 0x8
 10677 3b74 0B100000 		.4byte	.LASF795
 10678 3b78 3C       		.byte	0x3c
 10679 3b79 3B       		.byte	0x3b
 10680 3b7a 2C000000 		.4byte	0x2c
 10681 3b7e 08       		.byte	0x8
 10682 3b7f 08       		.uleb128 0x8
 10683 3b80 F3090000 		.4byte	.LASF796
 10684 3b84 3C       		.byte	0x3c
 10685 3b85 3C       		.byte	0x3c
 10686 3b86 2C000000 		.4byte	0x2c
 10687 3b8a 0C       		.byte	0xc
 10688 3b8b 08       		.uleb128 0x8
 10689 3b8c 9D010000 		.4byte	.LASF797
 10690 3b90 3C       		.byte	0x3c
 10691 3b91 3D       		.byte	0x3d
 10692 3b92 2C000000 		.4byte	0x2c
 10693 3b96 10       		.byte	0x10
 10694 3b97 08       		.uleb128 0x8
 10695 3b98 610C0000 		.4byte	.LASF798
 10696 3b9c 3C       		.byte	0x3c
 10697 3b9d 3E       		.byte	0x3e
 10698 3b9e 2C000000 		.4byte	0x2c
 10699 3ba2 14       		.byte	0x14
 10700 3ba3 08       		.uleb128 0x8
 10701 3ba4 DA090000 		.4byte	.LASF799
 10702 3ba8 3C       		.byte	0x3c
 10703 3ba9 3F       		.byte	0x3f
 10704 3baa 2C000000 		.4byte	0x2c
 10705 3bae 18       		.byte	0x18
 10706 3baf 08       		.uleb128 0x8
 10707 3bb0 430A0000 		.4byte	.LASF800
 10708 3bb4 3C       		.byte	0x3c
 10709 3bb5 40       		.byte	0x40
 10710 3bb6 2C000000 		.4byte	0x2c
 10711 3bba 1C       		.byte	0x1c
 10712 3bbb 08       		.uleb128 0x8
 10713 3bbc B22A0000 		.4byte	.LASF801
 10714 3bc0 3C       		.byte	0x3c
 10715 3bc1 41       		.byte	0x41
 10716 3bc2 2C000000 		.4byte	0x2c
 10717 3bc6 20       		.byte	0x20
 10718 3bc7 00       		.byte	0
 10719 3bc8 2C       		.uleb128 0x2c
 10720 3bc9 C2140000 		.4byte	.LASF802
 10721 3bcd 0801     		.2byte	0x108
 10722 3bcf 3C       		.byte	0x3c
 10723 3bd0 4A       		.byte	0x4a
 10724 3bd1 083C0000 		.4byte	0x3c08
 10725 3bd5 08       		.uleb128 0x8
 10726 3bd6 92120000 		.4byte	.LASF803
 10727 3bda 3C       		.byte	0x3c
 10728 3bdb 4B       		.byte	0x4b
 10729 3bdc 083C0000 		.4byte	0x3c08
ARM GAS  C:\Users\adrie\AppData\Local\Temp\ccgB8szF.s 			page 190


 10730 3be0 00       		.byte	0
 10731 3be1 08       		.uleb128 0x8
 10732 3be2 83030000 		.4byte	.LASF804
 10733 3be6 3C       		.byte	0x3c
 10734 3be7 4C       		.byte	0x4c
 10735 3be8 083C0000 		.4byte	0x3c08
 10736 3bec 80       		.byte	0x80
 10737 3bed 27       		.uleb128 0x27
 10738 3bee A6010000 		.4byte	.LASF805
 10739 3bf2 3C       		.byte	0x3c
 10740 3bf3 4E       		.byte	0x4e
 10741 3bf4 DB3A0000 		.4byte	0x3adb
 10742 3bf8 0001     		.2byte	0x100
 10743 3bfa 27       		.uleb128 0x27
 10744 3bfb 65220000 		.4byte	.LASF806
 10745 3bff 3C       		.byte	0x3c
 10746 3c00 51       		.byte	0x51
 10747 3c01 DB3A0000 		.4byte	0x3adb
 10748 3c05 0401     		.2byte	0x104
 10749 3c07 00       		.byte	0
 10750 3c08 13       		.uleb128 0x13
 10751 3c09 C8030000 		.4byte	0x3c8
 10752 3c0d 183C0000 		.4byte	0x3c18
 10753 3c11 14       		.uleb128 0x14
 10754 3c12 45000000 		.4byte	0x45
 10755 3c16 1F       		.byte	0x1f
 10756 3c17 00       		.byte	0
 10757 3c18 2C       		.uleb128 0x2c
 10758 3c19 26010000 		.4byte	.LASF807
 10759 3c1d 9001     		.2byte	0x190
 10760 3c1f 3C       		.byte	0x3c
 10761 3c20 5D       		.byte	0x5d
 10762 3c21 563C0000 		.4byte	0x3c56
 10763 3c25 08       		.uleb128 0x8
 10764 3c26 37130000 		.4byte	.LASF788
 10765 3c2a 3C       		.byte	0x3c
 10766 3c2b 5E       		.byte	0x5e
 10767 3c2c 563C0000 		.4byte	0x3c56
 10768 3c30 00       		.byte	0
 10769 3c31 08       		.uleb128 0x8
 10770 3c32 C8010000 		.4byte	.LASF808
 10771 3c36 3C       		.byte	0x3c
 10772 3c37 5F       		.byte	0x5f
 10773 3c38 2C000000 		.4byte	0x2c
 10774 3c3c 04       		.byte	0x4
 10775 3c3d 08       		.uleb128 0x8
 10776 3c3e 2A210000 		.4byte	.LASF809
 10777 3c42 3C       		.byte	0x3c
 10778 3c43 61       		.byte	0x61
 10779 3c44 5C3C0000 		.4byte	0x3c5c
 10780 3c48 08       		.byte	0x8
 10781 3c49 08       		.uleb128 0x8
 10782 3c4a C2140000 		.4byte	.LASF802
 10783 3c4e 3C       		.byte	0x3c
 10784 3c4f 62       		.byte	0x62
 10785 3c50 C83B0000 		.4byte	0x3bc8
 10786 3c54 88       		.byte	0x88
ARM GAS  C:\Users\adrie\AppData\Local\Temp\ccgB8szF.s 			page 191


 10787 3c55 00       		.byte	0
 10788 3c56 0B       		.uleb128 0xb
 10789 3c57 04       		.byte	0x4
 10790 3c58 183C0000 		.4byte	0x3c18
 10791 3c5c 13       		.uleb128 0x13
 10792 3c5d 6C3C0000 		.4byte	0x3c6c
 10793 3c61 6C3C0000 		.4byte	0x3c6c
 10794 3c65 14       		.uleb128 0x14
 10795 3c66 45000000 		.4byte	0x45
 10796 3c6a 1F       		.byte	0x1f
 10797 3c6b 00       		.byte	0
 10798 3c6c 0B       		.uleb128 0xb
 10799 3c6d 04       		.byte	0x4
 10800 3c6e 723C0000 		.4byte	0x3c72
 10801 3c72 2E       		.uleb128 0x2e
 10802 3c73 07       		.uleb128 0x7
 10803 3c74 DD180000 		.4byte	.LASF810
 10804 3c78 08       		.byte	0x8
 10805 3c79 3C       		.byte	0x3c
 10806 3c7a 75       		.byte	0x75
 10807 3c7b 983C0000 		.4byte	0x3c98
 10808 3c7f 08       		.uleb128 0x8
 10809 3c80 1B150000 		.4byte	.LASF811
 10810 3c84 3C       		.byte	0x3c
 10811 3c85 76       		.byte	0x76
 10812 3c86 983C0000 		.4byte	0x3c98
 10813 3c8a 00       		.byte	0
 10814 3c8b 08       		.uleb128 0x8
 10815 3c8c E70B0000 		.4byte	.LASF812
 10816 3c90 3C       		.byte	0x3c
 10817 3c91 77       		.byte	0x77
 10818 3c92 2C000000 		.4byte	0x2c
 10819 3c96 04       		.byte	0x4
 10820 3c97 00       		.byte	0
 10821 3c98 0B       		.uleb128 0xb
 10822 3c99 04       		.byte	0x4
 10823 3c9a 6C000000 		.4byte	0x6c
 10824 3c9e 07       		.uleb128 0x7
 10825 3c9f 1B210000 		.4byte	.LASF813
 10826 3ca3 68       		.byte	0x68
 10827 3ca4 3C       		.byte	0x3c
 10828 3ca5 B5       		.byte	0xb5
 10829 3ca6 C83D0000 		.4byte	0x3dc8
 10830 3caa 18       		.uleb128 0x18
 10831 3cab 5F7000   		.ascii	"_p\000"
 10832 3cae 3C       		.byte	0x3c
 10833 3caf B6       		.byte	0xb6
 10834 3cb0 983C0000 		.4byte	0x3c98
 10835 3cb4 00       		.byte	0
 10836 3cb5 18       		.uleb128 0x18
 10837 3cb6 5F7200   		.ascii	"_r\000"
 10838 3cb9 3C       		.byte	0x3c
 10839 3cba B7       		.byte	0xb7
 10840 3cbb 2C000000 		.4byte	0x2c
 10841 3cbf 04       		.byte	0x4
 10842 3cc0 18       		.uleb128 0x18
 10843 3cc1 5F7700   		.ascii	"_w\000"
ARM GAS  C:\Users\adrie\AppData\Local\Temp\ccgB8szF.s 			page 192


 10844 3cc4 3C       		.byte	0x3c
 10845 3cc5 B8       		.byte	0xb8
 10846 3cc6 2C000000 		.4byte	0x2c
 10847 3cca 08       		.byte	0x8
 10848 3ccb 08       		.uleb128 0x8
 10849 3ccc 4E020000 		.4byte	.LASF814
 10850 3cd0 3C       		.byte	0x3c
 10851 3cd1 B9       		.byte	0xb9
 10852 3cd2 7E000000 		.4byte	0x7e
 10853 3cd6 0C       		.byte	0xc
 10854 3cd7 08       		.uleb128 0x8
 10855 3cd8 E1200000 		.4byte	.LASF815
 10856 3cdc 3C       		.byte	0x3c
 10857 3cdd BA       		.byte	0xba
 10858 3cde 7E000000 		.4byte	0x7e
 10859 3ce2 0E       		.byte	0xe
 10860 3ce3 18       		.uleb128 0x18
 10861 3ce4 5F626600 		.ascii	"_bf\000"
 10862 3ce8 3C       		.byte	0x3c
 10863 3ce9 BB       		.byte	0xbb
 10864 3cea 733C0000 		.4byte	0x3c73
 10865 3cee 10       		.byte	0x10
 10866 3cef 08       		.uleb128 0x8
 10867 3cf0 F8040000 		.4byte	.LASF816
 10868 3cf4 3C       		.byte	0x3c
 10869 3cf5 BC       		.byte	0xbc
 10870 3cf6 2C000000 		.4byte	0x2c
 10871 3cfa 18       		.byte	0x18
 10872 3cfb 08       		.uleb128 0x8
 10873 3cfc A6130000 		.4byte	.LASF817
 10874 3d00 3C       		.byte	0x3c
 10875 3d01 C3       		.byte	0xc3
 10876 3d02 C8030000 		.4byte	0x3c8
 10877 3d06 1C       		.byte	0x1c
 10878 3d07 08       		.uleb128 0x8
 10879 3d08 6E2A0000 		.4byte	.LASF818
 10880 3d0c 3C       		.byte	0x3c
 10881 3d0d C5       		.byte	0xc5
 10882 3d0e 233F0000 		.4byte	0x3f23
 10883 3d12 20       		.byte	0x20
 10884 3d13 08       		.uleb128 0x8
 10885 3d14 A50B0000 		.4byte	.LASF819
 10886 3d18 3C       		.byte	0x3c
 10887 3d19 C7       		.byte	0xc7
 10888 3d1a 473F0000 		.4byte	0x3f47
 10889 3d1e 24       		.byte	0x24
 10890 3d1f 08       		.uleb128 0x8
 10891 3d20 3A170000 		.4byte	.LASF820
 10892 3d24 3C       		.byte	0x3c
 10893 3d25 CA       		.byte	0xca
 10894 3d26 6B3F0000 		.4byte	0x3f6b
 10895 3d2a 28       		.byte	0x28
 10896 3d2b 08       		.uleb128 0x8
 10897 3d2c 421D0000 		.4byte	.LASF821
 10898 3d30 3C       		.byte	0x3c
 10899 3d31 CB       		.byte	0xcb
 10900 3d32 853F0000 		.4byte	0x3f85
ARM GAS  C:\Users\adrie\AppData\Local\Temp\ccgB8szF.s 			page 193


 10901 3d36 2C       		.byte	0x2c
 10902 3d37 18       		.uleb128 0x18
 10903 3d38 5F756200 		.ascii	"_ub\000"
 10904 3d3c 3C       		.byte	0x3c
 10905 3d3d CE       		.byte	0xce
 10906 3d3e 733C0000 		.4byte	0x3c73
 10907 3d42 30       		.byte	0x30
 10908 3d43 18       		.uleb128 0x18
 10909 3d44 5F757000 		.ascii	"_up\000"
 10910 3d48 3C       		.byte	0x3c
 10911 3d49 CF       		.byte	0xcf
 10912 3d4a 983C0000 		.4byte	0x3c98
 10913 3d4e 38       		.byte	0x38
 10914 3d4f 18       		.uleb128 0x18
 10915 3d50 5F757200 		.ascii	"_ur\000"
 10916 3d54 3C       		.byte	0x3c
 10917 3d55 D0       		.byte	0xd0
 10918 3d56 2C000000 		.4byte	0x2c
 10919 3d5a 3C       		.byte	0x3c
 10920 3d5b 08       		.uleb128 0x8
 10921 3d5c 10200000 		.4byte	.LASF822
 10922 3d60 3C       		.byte	0x3c
 10923 3d61 D3       		.byte	0xd3
 10924 3d62 8B3F0000 		.4byte	0x3f8b
 10925 3d66 40       		.byte	0x40
 10926 3d67 08       		.uleb128 0x8
 10927 3d68 FF020000 		.4byte	.LASF823
 10928 3d6c 3C       		.byte	0x3c
 10929 3d6d D4       		.byte	0xd4
 10930 3d6e 9B3F0000 		.4byte	0x3f9b
 10931 3d72 43       		.byte	0x43
 10932 3d73 18       		.uleb128 0x18
 10933 3d74 5F6C6200 		.ascii	"_lb\000"
 10934 3d78 3C       		.byte	0x3c
 10935 3d79 D7       		.byte	0xd7
 10936 3d7a 733C0000 		.4byte	0x3c73
 10937 3d7e 44       		.byte	0x44
 10938 3d7f 08       		.uleb128 0x8
 10939 3d80 7C0C0000 		.4byte	.LASF824
 10940 3d84 3C       		.byte	0x3c
 10941 3d85 DA       		.byte	0xda
 10942 3d86 2C000000 		.4byte	0x2c
 10943 3d8a 4C       		.byte	0x4c
 10944 3d8b 08       		.uleb128 0x8
 10945 3d8c 82180000 		.4byte	.LASF825
 10946 3d90 3C       		.byte	0x3c
 10947 3d91 DB       		.byte	0xdb
 10948 3d92 B7380000 		.4byte	0x38b7
 10949 3d96 50       		.byte	0x50
 10950 3d97 08       		.uleb128 0x8
 10951 3d98 F2240000 		.4byte	.LASF826
 10952 3d9c 3C       		.byte	0x3c
 10953 3d9d DE       		.byte	0xde
 10954 3d9e E63D0000 		.4byte	0x3de6
 10955 3da2 54       		.byte	0x54
 10956 3da3 08       		.uleb128 0x8
 10957 3da4 F9020000 		.4byte	.LASF827
ARM GAS  C:\Users\adrie\AppData\Local\Temp\ccgB8szF.s 			page 194


 10958 3da8 3C       		.byte	0x3c
 10959 3da9 E2       		.byte	0xe2
 10960 3daa 34390000 		.4byte	0x3934
 10961 3dae 58       		.byte	0x58
 10962 3daf 08       		.uleb128 0x8
 10963 3db0 FF150000 		.4byte	.LASF828
 10964 3db4 3C       		.byte	0x3c
 10965 3db5 E4       		.byte	0xe4
 10966 3db6 29390000 		.4byte	0x3929
 10967 3dba 5C       		.byte	0x5c
 10968 3dbb 08       		.uleb128 0x8
 10969 3dbc 11270000 		.4byte	.LASF829
 10970 3dc0 3C       		.byte	0x3c
 10971 3dc1 E5       		.byte	0xe5
 10972 3dc2 2C000000 		.4byte	0x2c
 10973 3dc6 64       		.byte	0x64
 10974 3dc7 00       		.byte	0
 10975 3dc8 20       		.uleb128 0x20
 10976 3dc9 2C000000 		.4byte	0x2c
 10977 3dcd E63D0000 		.4byte	0x3de6
 10978 3dd1 0E       		.uleb128 0xe
 10979 3dd2 E63D0000 		.4byte	0x3de6
 10980 3dd6 0E       		.uleb128 0xe
 10981 3dd7 C8030000 		.4byte	0x3c8
 10982 3ddb 0E       		.uleb128 0xe
 10983 3ddc 3F390000 		.4byte	0x393f
 10984 3de0 0E       		.uleb128 0xe
 10985 3de1 2C000000 		.4byte	0x2c
 10986 3de5 00       		.byte	0
 10987 3de6 0B       		.uleb128 0xb
 10988 3de7 04       		.byte	0x4
 10989 3de8 F13D0000 		.4byte	0x3df1
 10990 3dec 05       		.uleb128 0x5
 10991 3ded E63D0000 		.4byte	0x3de6
 10992 3df1 10       		.uleb128 0x10
 10993 3df2 53190000 		.4byte	.LASF830
 10994 3df6 2804     		.2byte	0x428
 10995 3df8 3C       		.byte	0x3c
 10996 3df9 3902     		.2byte	0x239
 10997 3dfb 233F0000 		.4byte	0x3f23
 10998 3dff 0A       		.uleb128 0xa
 10999 3e00 2A120000 		.4byte	.LASF831
 11000 3e04 3C       		.byte	0x3c
 11001 3e05 3B02     		.2byte	0x23b
 11002 3e07 2C000000 		.4byte	0x2c
 11003 3e0b 00       		.byte	0
 11004 3e0c 0A       		.uleb128 0xa
 11005 3e0d 670D0000 		.4byte	.LASF832
 11006 3e11 3C       		.byte	0x3c
 11007 3e12 4002     		.2byte	0x240
 11008 3e14 F23F0000 		.4byte	0x3ff2
 11009 3e18 04       		.byte	0x4
 11010 3e19 0A       		.uleb128 0xa
 11011 3e1a 7D0A0000 		.4byte	.LASF833
 11012 3e1e 3C       		.byte	0x3c
 11013 3e1f 4002     		.2byte	0x240
 11014 3e21 F23F0000 		.4byte	0x3ff2
ARM GAS  C:\Users\adrie\AppData\Local\Temp\ccgB8szF.s 			page 195


 11015 3e25 08       		.byte	0x8
 11016 3e26 0A       		.uleb128 0xa
 11017 3e27 7D090000 		.4byte	.LASF834
 11018 3e2b 3C       		.byte	0x3c
 11019 3e2c 4002     		.2byte	0x240
 11020 3e2e F23F0000 		.4byte	0x3ff2
 11021 3e32 0C       		.byte	0xc
 11022 3e33 0A       		.uleb128 0xa
 11023 3e34 C3010000 		.4byte	.LASF835
 11024 3e38 3C       		.byte	0x3c
 11025 3e39 4202     		.2byte	0x242
 11026 3e3b 2C000000 		.4byte	0x2c
 11027 3e3f 10       		.byte	0x10
 11028 3e40 0A       		.uleb128 0xa
 11029 3e41 670F0000 		.4byte	.LASF836
 11030 3e45 3C       		.byte	0x3c
 11031 3e46 4302     		.2byte	0x243
 11032 3e48 D4410000 		.4byte	0x41d4
 11033 3e4c 14       		.byte	0x14
 11034 3e4d 0A       		.uleb128 0xa
 11035 3e4e 52250000 		.4byte	.LASF837
 11036 3e52 3C       		.byte	0x3c
 11037 3e53 4602     		.2byte	0x246
 11038 3e55 2C000000 		.4byte	0x2c
 11039 3e59 30       		.byte	0x30
 11040 3e5a 0A       		.uleb128 0xa
 11041 3e5b 84270000 		.4byte	.LASF838
 11042 3e5f 3C       		.byte	0x3c
 11043 3e60 4702     		.2byte	0x247
 11044 3e62 E9410000 		.4byte	0x41e9
 11045 3e66 34       		.byte	0x34
 11046 3e67 0A       		.uleb128 0xa
 11047 3e68 B6250000 		.4byte	.LASF839
 11048 3e6c 3C       		.byte	0x3c
 11049 3e6d 4902     		.2byte	0x249
 11050 3e6f 2C000000 		.4byte	0x2c
 11051 3e73 38       		.byte	0x38
 11052 3e74 0A       		.uleb128 0xa
 11053 3e75 68200000 		.4byte	.LASF840
 11054 3e79 3C       		.byte	0x3c
 11055 3e7a 4B02     		.2byte	0x24b
 11056 3e7c FA410000 		.4byte	0x41fa
 11057 3e80 3C       		.byte	0x3c
 11058 3e81 0A       		.uleb128 0xa
 11059 3e82 85090000 		.4byte	.LASF841
 11060 3e86 3C       		.byte	0x3c
 11061 3e87 4E02     		.2byte	0x24e
 11062 3e89 393B0000 		.4byte	0x3b39
 11063 3e8d 40       		.byte	0x40
 11064 3e8e 0A       		.uleb128 0xa
 11065 3e8f 6E090000 		.4byte	.LASF842
 11066 3e93 3C       		.byte	0x3c
 11067 3e94 4F02     		.2byte	0x24f
 11068 3e96 2C000000 		.4byte	0x2c
 11069 3e9a 44       		.byte	0x44
 11070 3e9b 0A       		.uleb128 0xa
 11071 3e9c A8220000 		.4byte	.LASF843
ARM GAS  C:\Users\adrie\AppData\Local\Temp\ccgB8szF.s 			page 196


 11072 3ea0 3C       		.byte	0x3c
 11073 3ea1 5002     		.2byte	0x250
 11074 3ea3 393B0000 		.4byte	0x3b39
 11075 3ea7 48       		.byte	0x48
 11076 3ea8 0A       		.uleb128 0xa
 11077 3ea9 2C180000 		.4byte	.LASF844
 11078 3ead 3C       		.byte	0x3c
 11079 3eae 5102     		.2byte	0x251
 11080 3eb0 00420000 		.4byte	0x4200
 11081 3eb4 4C       		.byte	0x4c
 11082 3eb5 0A       		.uleb128 0xa
 11083 3eb6 93020000 		.4byte	.LASF845
 11084 3eba 3C       		.byte	0x3c
 11085 3ebb 5402     		.2byte	0x254
 11086 3ebd 2C000000 		.4byte	0x2c
 11087 3ec1 50       		.byte	0x50
 11088 3ec2 0A       		.uleb128 0xa
 11089 3ec3 4A0F0000 		.4byte	.LASF846
 11090 3ec7 3C       		.byte	0x3c
 11091 3ec8 5502     		.2byte	0x255
 11092 3eca 3F390000 		.4byte	0x393f
 11093 3ece 54       		.byte	0x54
 11094 3ecf 0A       		.uleb128 0xa
 11095 3ed0 53050000 		.4byte	.LASF847
 11096 3ed4 3C       		.byte	0x3c
 11097 3ed5 7802     		.2byte	0x278
 11098 3ed7 B2410000 		.4byte	0x41b2
 11099 3edb 58       		.byte	0x58
 11100 3edc 11       		.uleb128 0x11
 11101 3edd 26010000 		.4byte	.LASF807
 11102 3ee1 3C       		.byte	0x3c
 11103 3ee2 7C02     		.2byte	0x27c
 11104 3ee4 563C0000 		.4byte	0x3c56
 11105 3ee8 4801     		.2byte	0x148
 11106 3eea 11       		.uleb128 0x11
 11107 3eeb 771E0000 		.4byte	.LASF848
 11108 3eef 3C       		.byte	0x3c
 11109 3ef0 7D02     		.2byte	0x27d
 11110 3ef2 183C0000 		.4byte	0x3c18
 11111 3ef6 4C01     		.2byte	0x14c
 11112 3ef8 11       		.uleb128 0x11
 11113 3ef9 C3020000 		.4byte	.LASF849
 11114 3efd 3C       		.byte	0x3c
 11115 3efe 8102     		.2byte	0x281
 11116 3f00 11420000 		.4byte	0x4211
 11117 3f04 DC02     		.2byte	0x2dc
 11118 3f06 11       		.uleb128 0x11
 11119 3f07 38200000 		.4byte	.LASF850
 11120 3f0b 3C       		.byte	0x3c
 11121 3f0c 8602     		.2byte	0x286
 11122 3f0e B73F0000 		.4byte	0x3fb7
 11123 3f12 E002     		.2byte	0x2e0
 11124 3f14 11       		.uleb128 0x11
 11125 3f15 97060000 		.4byte	.LASF851
 11126 3f19 3C       		.byte	0x3c
 11127 3f1a 8802     		.2byte	0x288
 11128 3f1c 1D420000 		.4byte	0x421d
ARM GAS  C:\Users\adrie\AppData\Local\Temp\ccgB8szF.s 			page 197


 11129 3f20 EC02     		.2byte	0x2ec
 11130 3f22 00       		.byte	0
 11131 3f23 0B       		.uleb128 0xb
 11132 3f24 04       		.byte	0x4
 11133 3f25 C83D0000 		.4byte	0x3dc8
 11134 3f29 20       		.uleb128 0x20
 11135 3f2a 2C000000 		.4byte	0x2c
 11136 3f2e 473F0000 		.4byte	0x3f47
 11137 3f32 0E       		.uleb128 0xe
 11138 3f33 E63D0000 		.4byte	0x3de6
 11139 3f37 0E       		.uleb128 0xe
 11140 3f38 C8030000 		.4byte	0x3c8
 11141 3f3c 0E       		.uleb128 0xe
 11142 3f3d 0D110000 		.4byte	0x110d
 11143 3f41 0E       		.uleb128 0xe
 11144 3f42 2C000000 		.4byte	0x2c
 11145 3f46 00       		.byte	0
 11146 3f47 0B       		.uleb128 0xb
 11147 3f48 04       		.byte	0x4
 11148 3f49 293F0000 		.4byte	0x3f29
 11149 3f4d 20       		.uleb128 0x20
 11150 3f4e C2380000 		.4byte	0x38c2
 11151 3f52 6B3F0000 		.4byte	0x3f6b
 11152 3f56 0E       		.uleb128 0xe
 11153 3f57 E63D0000 		.4byte	0x3de6
 11154 3f5b 0E       		.uleb128 0xe
 11155 3f5c C8030000 		.4byte	0x3c8
 11156 3f60 0E       		.uleb128 0xe
 11157 3f61 C2380000 		.4byte	0x38c2
 11158 3f65 0E       		.uleb128 0xe
 11159 3f66 2C000000 		.4byte	0x2c
 11160 3f6a 00       		.byte	0
 11161 3f6b 0B       		.uleb128 0xb
 11162 3f6c 04       		.byte	0x4
 11163 3f6d 4D3F0000 		.4byte	0x3f4d
 11164 3f71 20       		.uleb128 0x20
 11165 3f72 2C000000 		.4byte	0x2c
 11166 3f76 853F0000 		.4byte	0x3f85
 11167 3f7a 0E       		.uleb128 0xe
 11168 3f7b E63D0000 		.4byte	0x3de6
 11169 3f7f 0E       		.uleb128 0xe
 11170 3f80 C8030000 		.4byte	0x3c8
 11171 3f84 00       		.byte	0
 11172 3f85 0B       		.uleb128 0xb
 11173 3f86 04       		.byte	0x4
 11174 3f87 713F0000 		.4byte	0x3f71
 11175 3f8b 13       		.uleb128 0x13
 11176 3f8c 6C000000 		.4byte	0x6c
 11177 3f90 9B3F0000 		.4byte	0x3f9b
 11178 3f94 14       		.uleb128 0x14
 11179 3f95 45000000 		.4byte	0x45
 11180 3f99 02       		.byte	0x2
 11181 3f9a 00       		.byte	0
 11182 3f9b 13       		.uleb128 0x13
 11183 3f9c 6C000000 		.4byte	0x6c
 11184 3fa0 AB3F0000 		.4byte	0x3fab
 11185 3fa4 14       		.uleb128 0x14
ARM GAS  C:\Users\adrie\AppData\Local\Temp\ccgB8szF.s 			page 198


 11186 3fa5 45000000 		.4byte	0x45
 11187 3fa9 00       		.byte	0
 11188 3faa 00       		.byte	0
 11189 3fab 1A       		.uleb128 0x1a
 11190 3fac E6280000 		.4byte	.LASF852
 11191 3fb0 3C       		.byte	0x3c
 11192 3fb1 1F01     		.2byte	0x11f
 11193 3fb3 9E3C0000 		.4byte	0x3c9e
 11194 3fb7 0C       		.uleb128 0xc
 11195 3fb8 881D0000 		.4byte	.LASF853
 11196 3fbc 0C       		.byte	0xc
 11197 3fbd 3C       		.byte	0x3c
 11198 3fbe 2301     		.2byte	0x123
 11199 3fc0 EC3F0000 		.4byte	0x3fec
 11200 3fc4 0A       		.uleb128 0xa
 11201 3fc5 37130000 		.4byte	.LASF788
 11202 3fc9 3C       		.byte	0x3c
 11203 3fca 2501     		.2byte	0x125
 11204 3fcc EC3F0000 		.4byte	0x3fec
 11205 3fd0 00       		.byte	0
 11206 3fd1 0A       		.uleb128 0xa
 11207 3fd2 AD100000 		.4byte	.LASF854
 11208 3fd6 3C       		.byte	0x3c
 11209 3fd7 2601     		.2byte	0x126
 11210 3fd9 2C000000 		.4byte	0x2c
 11211 3fdd 04       		.byte	0x4
 11212 3fde 0A       		.uleb128 0xa
 11213 3fdf 611B0000 		.4byte	.LASF855
 11214 3fe3 3C       		.byte	0x3c
 11215 3fe4 2701     		.2byte	0x127
 11216 3fe6 F23F0000 		.4byte	0x3ff2
 11217 3fea 08       		.byte	0x8
 11218 3feb 00       		.byte	0
 11219 3fec 0B       		.uleb128 0xb
 11220 3fed 04       		.byte	0x4
 11221 3fee B73F0000 		.4byte	0x3fb7
 11222 3ff2 0B       		.uleb128 0xb
 11223 3ff3 04       		.byte	0x4
 11224 3ff4 AB3F0000 		.4byte	0x3fab
 11225 3ff8 0C       		.uleb128 0xc
 11226 3ff9 9E2A0000 		.4byte	.LASF856
 11227 3ffd 0E       		.byte	0xe
 11228 3ffe 3C       		.byte	0x3c
 11229 3fff 3F01     		.2byte	0x13f
 11230 4001 2D400000 		.4byte	0x402d
 11231 4005 0A       		.uleb128 0xa
 11232 4006 25170000 		.4byte	.LASF857
 11233 400a 3C       		.byte	0x3c
 11234 400b 4001     		.2byte	0x140
 11235 400d 2D400000 		.4byte	0x402d
 11236 4011 00       		.byte	0
 11237 4012 0A       		.uleb128 0xa
 11238 4013 502A0000 		.4byte	.LASF858
 11239 4017 3C       		.byte	0x3c
 11240 4018 4101     		.2byte	0x141
 11241 401a 2D400000 		.4byte	0x402d
 11242 401e 06       		.byte	0x6
ARM GAS  C:\Users\adrie\AppData\Local\Temp\ccgB8szF.s 			page 199


 11243 401f 0A       		.uleb128 0xa
 11244 4020 30190000 		.4byte	.LASF859
 11245 4024 3C       		.byte	0x3c
 11246 4025 4201     		.2byte	0x142
 11247 4027 90000000 		.4byte	0x90
 11248 402b 0C       		.byte	0xc
 11249 402c 00       		.byte	0
 11250 402d 13       		.uleb128 0x13
 11251 402e 90000000 		.4byte	0x90
 11252 4032 3D400000 		.4byte	0x403d
 11253 4036 14       		.uleb128 0x14
 11254 4037 45000000 		.4byte	0x45
 11255 403b 02       		.byte	0x2
 11256 403c 00       		.byte	0
 11257 403d 19       		.uleb128 0x19
 11258 403e D0       		.byte	0xd0
 11259 403f 3C       		.byte	0x3c
 11260 4040 5902     		.2byte	0x259
 11261 4042 3E410000 		.4byte	0x413e
 11262 4046 0A       		.uleb128 0xa
 11263 4047 D7080000 		.4byte	.LASF860
 11264 404b 3C       		.byte	0x3c
 11265 404c 5B02     		.2byte	0x25b
 11266 404e 45000000 		.4byte	0x45
 11267 4052 00       		.byte	0
 11268 4053 0A       		.uleb128 0xa
 11269 4054 C6160000 		.4byte	.LASF861
 11270 4058 3C       		.byte	0x3c
 11271 4059 5C02     		.2byte	0x25c
 11272 405b 3F390000 		.4byte	0x393f
 11273 405f 04       		.byte	0x4
 11274 4060 0A       		.uleb128 0xa
 11275 4061 71190000 		.4byte	.LASF862
 11276 4065 3C       		.byte	0x3c
 11277 4066 5D02     		.2byte	0x25d
 11278 4068 3E410000 		.4byte	0x413e
 11279 406c 08       		.byte	0x8
 11280 406d 0A       		.uleb128 0xa
 11281 406e EE140000 		.4byte	.LASF863
 11282 4072 3C       		.byte	0x3c
 11283 4073 5E02     		.2byte	0x25e
 11284 4075 4F3B0000 		.4byte	0x3b4f
 11285 4079 24       		.byte	0x24
 11286 407a 0A       		.uleb128 0xa
 11287 407b 65240000 		.4byte	.LASF864
 11288 407f 3C       		.byte	0x3c
 11289 4080 5F02     		.2byte	0x25f
 11290 4082 2C000000 		.4byte	0x2c
 11291 4086 48       		.byte	0x48
 11292 4087 0A       		.uleb128 0xa
 11293 4088 A01B0000 		.4byte	.LASF865
 11294 408c 3C       		.byte	0x3c
 11295 408d 6002     		.2byte	0x260
 11296 408f C6000000 		.4byte	0xc6
 11297 4093 50       		.byte	0x50
 11298 4094 0A       		.uleb128 0xa
 11299 4095 16280000 		.4byte	.LASF866
ARM GAS  C:\Users\adrie\AppData\Local\Temp\ccgB8szF.s 			page 200


 11300 4099 3C       		.byte	0x3c
 11301 409a 6102     		.2byte	0x261
 11302 409c F83F0000 		.4byte	0x3ff8
 11303 40a0 58       		.byte	0x58
 11304 40a1 0A       		.uleb128 0xa
 11305 40a2 2B200000 		.4byte	.LASF867
 11306 40a6 3C       		.byte	0x3c
 11307 40a7 6202     		.2byte	0x262
 11308 40a9 29390000 		.4byte	0x3929
 11309 40ad 68       		.byte	0x68
 11310 40ae 0A       		.uleb128 0xa
 11311 40af CE060000 		.4byte	.LASF868
 11312 40b3 3C       		.byte	0x3c
 11313 40b4 6302     		.2byte	0x263
 11314 40b6 29390000 		.4byte	0x3929
 11315 40ba 70       		.byte	0x70
 11316 40bb 0A       		.uleb128 0xa
 11317 40bc 07040000 		.4byte	.LASF869
 11318 40c0 3C       		.byte	0x3c
 11319 40c1 6402     		.2byte	0x264
 11320 40c3 29390000 		.4byte	0x3929
 11321 40c7 78       		.byte	0x78
 11322 40c8 0A       		.uleb128 0xa
 11323 40c9 67190000 		.4byte	.LASF870
 11324 40cd 3C       		.byte	0x3c
 11325 40ce 6502     		.2byte	0x265
 11326 40d0 4E410000 		.4byte	0x414e
 11327 40d4 80       		.byte	0x80
 11328 40d5 0A       		.uleb128 0xa
 11329 40d6 88130000 		.4byte	.LASF871
 11330 40da 3C       		.byte	0x3c
 11331 40db 6602     		.2byte	0x266
 11332 40dd 5E410000 		.4byte	0x415e
 11333 40e1 88       		.byte	0x88
 11334 40e2 0A       		.uleb128 0xa
 11335 40e3 121F0000 		.4byte	.LASF872
 11336 40e7 3C       		.byte	0x3c
 11337 40e8 6702     		.2byte	0x267
 11338 40ea 2C000000 		.4byte	0x2c
 11339 40ee A0       		.byte	0xa0
 11340 40ef 0A       		.uleb128 0xa
 11341 40f0 070D0000 		.4byte	.LASF873
 11342 40f4 3C       		.byte	0x3c
 11343 40f5 6802     		.2byte	0x268
 11344 40f7 29390000 		.4byte	0x3929
 11345 40fb A4       		.byte	0xa4
 11346 40fc 0A       		.uleb128 0xa
 11347 40fd 4D000000 		.4byte	.LASF874
 11348 4101 3C       		.byte	0x3c
 11349 4102 6902     		.2byte	0x269
 11350 4104 29390000 		.4byte	0x3929
 11351 4108 AC       		.byte	0xac
 11352 4109 0A       		.uleb128 0xa
 11353 410a E90A0000 		.4byte	.LASF875
 11354 410e 3C       		.byte	0x3c
 11355 410f 6A02     		.2byte	0x26a
 11356 4111 29390000 		.4byte	0x3929
ARM GAS  C:\Users\adrie\AppData\Local\Temp\ccgB8szF.s 			page 201


 11357 4115 B4       		.byte	0xb4
 11358 4116 0A       		.uleb128 0xa
 11359 4117 59150000 		.4byte	.LASF876
 11360 411b 3C       		.byte	0x3c
 11361 411c 6B02     		.2byte	0x26b
 11362 411e 29390000 		.4byte	0x3929
 11363 4122 BC       		.byte	0xbc
 11364 4123 0A       		.uleb128 0xa
 11365 4124 B8190000 		.4byte	.LASF877
 11366 4128 3C       		.byte	0x3c
 11367 4129 6C02     		.2byte	0x26c
 11368 412b 29390000 		.4byte	0x3929
 11369 412f C4       		.byte	0xc4
 11370 4130 0A       		.uleb128 0xa
 11371 4131 7F210000 		.4byte	.LASF878
 11372 4135 3C       		.byte	0x3c
 11373 4136 6D02     		.2byte	0x26d
 11374 4138 2C000000 		.4byte	0x2c
 11375 413c CC       		.byte	0xcc
 11376 413d 00       		.byte	0
 11377 413e 13       		.uleb128 0x13
 11378 413f 18110000 		.4byte	0x1118
 11379 4143 4E410000 		.4byte	0x414e
 11380 4147 14       		.uleb128 0x14
 11381 4148 45000000 		.4byte	0x45
 11382 414c 19       		.byte	0x19
 11383 414d 00       		.byte	0
 11384 414e 13       		.uleb128 0x13
 11385 414f 18110000 		.4byte	0x1118
 11386 4153 5E410000 		.4byte	0x415e
 11387 4157 14       		.uleb128 0x14
 11388 4158 45000000 		.4byte	0x45
 11389 415c 07       		.byte	0x7
 11390 415d 00       		.byte	0
 11391 415e 13       		.uleb128 0x13
 11392 415f 18110000 		.4byte	0x1118
 11393 4163 6E410000 		.4byte	0x416e
 11394 4167 14       		.uleb128 0x14
 11395 4168 45000000 		.4byte	0x45
 11396 416c 17       		.byte	0x17
 11397 416d 00       		.byte	0
 11398 416e 19       		.uleb128 0x19
 11399 416f F0       		.byte	0xf0
 11400 4170 3C       		.byte	0x3c
 11401 4171 7202     		.2byte	0x272
 11402 4173 92410000 		.4byte	0x4192
 11403 4177 0A       		.uleb128 0xa
 11404 4178 19270000 		.4byte	.LASF879
 11405 417c 3C       		.byte	0x3c
 11406 417d 7502     		.2byte	0x275
 11407 417f 92410000 		.4byte	0x4192
 11408 4183 00       		.byte	0
 11409 4184 0A       		.uleb128 0xa
 11410 4185 6E0D0000 		.4byte	.LASF880
 11411 4189 3C       		.byte	0x3c
 11412 418a 7602     		.2byte	0x276
 11413 418c A2410000 		.4byte	0x41a2
ARM GAS  C:\Users\adrie\AppData\Local\Temp\ccgB8szF.s 			page 202


 11414 4190 78       		.byte	0x78
 11415 4191 00       		.byte	0
 11416 4192 13       		.uleb128 0x13
 11417 4193 983C0000 		.4byte	0x3c98
 11418 4197 A2410000 		.4byte	0x41a2
 11419 419b 14       		.uleb128 0x14
 11420 419c 45000000 		.4byte	0x45
 11421 41a0 1D       		.byte	0x1d
 11422 41a1 00       		.byte	0
 11423 41a2 13       		.uleb128 0x13
 11424 41a3 45000000 		.4byte	0x45
 11425 41a7 B2410000 		.4byte	0x41b2
 11426 41ab 14       		.uleb128 0x14
 11427 41ac 45000000 		.4byte	0x45
 11428 41b0 1D       		.byte	0x1d
 11429 41b1 00       		.byte	0
 11430 41b2 2B       		.uleb128 0x2b
 11431 41b3 F0       		.byte	0xf0
 11432 41b4 3C       		.byte	0x3c
 11433 41b5 5702     		.2byte	0x257
 11434 41b7 D4410000 		.4byte	0x41d4
 11435 41bb 1E       		.uleb128 0x1e
 11436 41bc 53190000 		.4byte	.LASF830
 11437 41c0 3C       		.byte	0x3c
 11438 41c1 6E02     		.2byte	0x26e
 11439 41c3 3D400000 		.4byte	0x403d
 11440 41c7 1E       		.uleb128 0x1e
 11441 41c8 EA1F0000 		.4byte	.LASF881
 11442 41cc 3C       		.byte	0x3c
 11443 41cd 7702     		.2byte	0x277
 11444 41cf 6E410000 		.4byte	0x416e
 11445 41d3 00       		.byte	0
 11446 41d4 13       		.uleb128 0x13
 11447 41d5 18110000 		.4byte	0x1118
 11448 41d9 E4410000 		.4byte	0x41e4
 11449 41dd 14       		.uleb128 0x14
 11450 41de 45000000 		.4byte	0x45
 11451 41e2 18       		.byte	0x18
 11452 41e3 00       		.byte	0
 11453 41e4 2D       		.uleb128 0x2d
 11454 41e5 40200000 		.4byte	.LASF883
 11455 41e9 0B       		.uleb128 0xb
 11456 41ea 04       		.byte	0x4
 11457 41eb E4410000 		.4byte	0x41e4
 11458 41ef 0D       		.uleb128 0xd
 11459 41f0 FA410000 		.4byte	0x41fa
 11460 41f4 0E       		.uleb128 0xe
 11461 41f5 E63D0000 		.4byte	0x3de6
 11462 41f9 00       		.byte	0
 11463 41fa 0B       		.uleb128 0xb
 11464 41fb 04       		.byte	0x4
 11465 41fc EF410000 		.4byte	0x41ef
 11466 4200 0B       		.uleb128 0xb
 11467 4201 04       		.byte	0x4
 11468 4202 393B0000 		.4byte	0x3b39
 11469 4206 0D       		.uleb128 0xd
 11470 4207 11420000 		.4byte	0x4211
ARM GAS  C:\Users\adrie\AppData\Local\Temp\ccgB8szF.s 			page 203


 11471 420b 0E       		.uleb128 0xe
 11472 420c 2C000000 		.4byte	0x2c
 11473 4210 00       		.byte	0
 11474 4211 0B       		.uleb128 0xb
 11475 4212 04       		.byte	0x4
 11476 4213 17420000 		.4byte	0x4217
 11477 4217 0B       		.uleb128 0xb
 11478 4218 04       		.byte	0x4
 11479 4219 06420000 		.4byte	0x4206
 11480 421d 13       		.uleb128 0x13
 11481 421e AB3F0000 		.4byte	0x3fab
 11482 4222 2D420000 		.4byte	0x422d
 11483 4226 14       		.uleb128 0x14
 11484 4227 45000000 		.4byte	0x45
 11485 422b 02       		.byte	0x2
 11486 422c 00       		.byte	0
 11487 422d 15       		.uleb128 0x15
 11488 422e CF1F0000 		.4byte	.LASF884
 11489 4232 3C       		.byte	0x3c
 11490 4233 0703     		.2byte	0x307
 11491 4235 E63D0000 		.4byte	0x3de6
 11492 4239 15       		.uleb128 0x15
 11493 423a 82230000 		.4byte	.LASF885
 11494 423e 3C       		.byte	0x3c
 11495 423f 0803     		.2byte	0x308
 11496 4241 EC3D0000 		.4byte	0x3dec
 11497 4245 16       		.uleb128 0x16
 11498 4246 3A010000 		.4byte	.LASF886
 11499 424a 3D       		.byte	0x3d
 11500 424b 63       		.byte	0x63
 11501 424c 3F390000 		.4byte	0x393f
 11502 4250 04       		.uleb128 0x4
 11503 4251 AE130000 		.4byte	.LASF887
 11504 4255 3E       		.byte	0x3e
 11505 4256 08       		.byte	0x8
 11506 4257 5B420000 		.4byte	0x425b
 11507 425b 07       		.uleb128 0x7
 11508 425c 2F220000 		.4byte	.LASF888
 11509 4260 18       		.byte	0x18
 11510 4261 3E       		.byte	0x3e
 11511 4262 0B       		.byte	0xb
 11512 4263 AF420000 		.4byte	0x42af
 11513 4267 18       		.uleb128 0x18
 11514 4268 696400   		.ascii	"id\000"
 11515 426b 3E       		.byte	0x3e
 11516 426c 0C       		.byte	0xc
 11517 426d 0D110000 		.4byte	0x110d
 11518 4271 00       		.byte	0
 11519 4272 08       		.uleb128 0x8
 11520 4273 2E010000 		.4byte	.LASF889
 11521 4277 3E       		.byte	0x3e
 11522 4278 0D       		.byte	0xd
 11523 4279 F3000000 		.4byte	0xf3
 11524 427d 04       		.byte	0x4
 11525 427e 08       		.uleb128 0x8
 11526 427f A2040000 		.4byte	.LASF890
 11527 4283 3E       		.byte	0x3e
ARM GAS  C:\Users\adrie\AppData\Local\Temp\ccgB8szF.s 			page 204


 11528 4284 0E       		.byte	0xe
 11529 4285 19430000 		.4byte	0x4319
 11530 4289 08       		.byte	0x8
 11531 428a 08       		.uleb128 0x8
 11532 428b 3F0C0000 		.4byte	.LASF891
 11533 428f 3E       		.byte	0x3e
 11534 4290 0F       		.byte	0xf
 11535 4291 19430000 		.4byte	0x4319
 11536 4295 0C       		.byte	0xc
 11537 4296 08       		.uleb128 0x8
 11538 4297 55020000 		.4byte	.LASF776
 11539 429b 3E       		.byte	0x3e
 11540 429c 10       		.byte	0x10
 11541 429d 19430000 		.4byte	0x4319
 11542 42a1 10       		.byte	0x10
 11543 42a2 08       		.uleb128 0x8
 11544 42a3 D7280000 		.4byte	.LASF892
 11545 42a7 3E       		.byte	0x3e
 11546 42a8 11       		.byte	0x11
 11547 42a9 1F430000 		.4byte	0x431f
 11548 42ad 14       		.byte	0x14
 11549 42ae 00       		.byte	0
 11550 42af 04       		.uleb128 0x4
 11551 42b0 96170000 		.4byte	.LASF893
 11552 42b4 3E       		.byte	0x3e
 11553 42b5 09       		.byte	0x9
 11554 42b6 BA420000 		.4byte	0x42ba
 11555 42ba 07       		.uleb128 0x7
 11556 42bb 52120000 		.4byte	.LASF894
 11557 42bf 18       		.byte	0x18
 11558 42c0 3E       		.byte	0x3e
 11559 42c1 2E       		.byte	0x2e
 11560 42c2 19430000 		.4byte	0x4319
 11561 42c6 18       		.uleb128 0x18
 11562 42c7 696400   		.ascii	"id\000"
 11563 42ca 3E       		.byte	0x3e
 11564 42cb 2F       		.byte	0x2f
 11565 42cc 0D110000 		.4byte	0x110d
 11566 42d0 00       		.byte	0
 11567 42d1 18       		.uleb128 0x18
 11568 42d2 6E7300   		.ascii	"ns\000"
 11569 42d5 3E       		.byte	0x3e
 11570 42d6 30       		.byte	0x30
 11571 42d7 19430000 		.4byte	0x4319
 11572 42db 04       		.byte	0x4
 11573 42dc 08       		.uleb128 0x8
 11574 42dd 55020000 		.4byte	.LASF776
 11575 42e1 3E       		.byte	0x3e
 11576 42e2 31       		.byte	0x31
 11577 42e3 1F430000 		.4byte	0x431f
 11578 42e7 08       		.byte	0x8
 11579 42e8 08       		.uleb128 0x8
 11580 42e9 6C210000 		.4byte	.LASF895
 11581 42ed 3E       		.byte	0x3e
 11582 42ee 32       		.byte	0x32
 11583 42ef C7150000 		.4byte	0x15c7
 11584 42f3 0C       		.byte	0xc
ARM GAS  C:\Users\adrie\AppData\Local\Temp\ccgB8szF.s 			page 205


 11585 42f4 08       		.uleb128 0x8
 11586 42f5 FF120000 		.4byte	.LASF896
 11587 42f9 3E       		.byte	0x3e
 11588 42fa 33       		.byte	0x33
 11589 42fb C7150000 		.4byte	0x15c7
 11590 42ff 0D       		.byte	0xd
 11591 4300 08       		.uleb128 0x8
 11592 4301 48080000 		.4byte	.LASF897
 11593 4305 3E       		.byte	0x3e
 11594 4306 34       		.byte	0x34
 11595 4307 CD000000 		.4byte	0xcd
 11596 430b 0E       		.byte	0xe
 11597 430c 08       		.uleb128 0x8
 11598 430d 1A0D0000 		.4byte	.LASF898
 11599 4311 3E       		.byte	0x3e
 11600 4312 3C       		.byte	0x3c
 11601 4313 BA430000 		.4byte	0x43ba
 11602 4317 10       		.byte	0x10
 11603 4318 00       		.byte	0
 11604 4319 0B       		.uleb128 0xb
 11605 431a 04       		.byte	0x4
 11606 431b 50420000 		.4byte	0x4250
 11607 431f 0B       		.uleb128 0xb
 11608 4320 04       		.byte	0x4
 11609 4321 AF420000 		.4byte	0x42af
 11610 4325 07       		.uleb128 0x7
 11611 4326 0B1A0000 		.4byte	.LASF899
 11612 432a 08       		.byte	0x8
 11613 432b 3E       		.byte	0x3e
 11614 432c 14       		.byte	0x14
 11615 432d 56430000 		.4byte	0x4356
 11616 4331 18       		.uleb128 0x18
 11617 4332 62756600 		.ascii	"buf\000"
 11618 4336 3E       		.byte	0x3e
 11619 4337 15       		.byte	0x15
 11620 4338 3F390000 		.4byte	0x393f
 11621 433c 00       		.byte	0
 11622 433d 08       		.uleb128 0x8
 11623 433e 8F280000 		.4byte	.LASF900
 11624 4342 3E       		.byte	0x3e
 11625 4343 16       		.byte	0x16
 11626 4344 E8000000 		.4byte	0xe8
 11627 4348 04       		.byte	0x4
 11628 4349 18       		.uleb128 0x18
 11629 434a 6C656E00 		.ascii	"len\000"
 11630 434e 3E       		.byte	0x3e
 11631 434f 17       		.byte	0x17
 11632 4350 E8000000 		.4byte	0xe8
 11633 4354 06       		.byte	0x6
 11634 4355 00       		.byte	0
 11635 4356 07       		.uleb128 0x7
 11636 4357 8A180000 		.4byte	.LASF901
 11637 435b 08       		.byte	0x8
 11638 435c 3E       		.byte	0x3e
 11639 435d 1A       		.byte	0x1a
 11640 435e 87430000 		.4byte	0x4387
 11641 4362 18       		.uleb128 0x18
ARM GAS  C:\Users\adrie\AppData\Local\Temp\ccgB8szF.s 			page 206


 11642 4363 62756600 		.ascii	"buf\000"
 11643 4367 3E       		.byte	0x3e
 11644 4368 1B       		.byte	0x1b
 11645 4369 87430000 		.4byte	0x4387
 11646 436d 00       		.byte	0
 11647 436e 08       		.uleb128 0x8
 11648 436f C8090000 		.4byte	.LASF902
 11649 4373 3E       		.byte	0x3e
 11650 4374 1C       		.byte	0x1c
 11651 4375 E8000000 		.4byte	0xe8
 11652 4379 04       		.byte	0x4
 11653 437a 18       		.uleb128 0x18
 11654 437b 64696D00 		.ascii	"dim\000"
 11655 437f 3E       		.byte	0x3e
 11656 4380 1D       		.byte	0x1d
 11657 4381 E8000000 		.4byte	0xe8
 11658 4385 06       		.byte	0x6
 11659 4386 00       		.byte	0
 11660 4387 0B       		.uleb128 0xb
 11661 4388 04       		.byte	0x4
 11662 4389 25000000 		.4byte	0x25
 11663 438d 07       		.uleb128 0x7
 11664 438e 99100000 		.4byte	.LASF903
 11665 4392 08       		.byte	0x8
 11666 4393 3E       		.byte	0x3e
 11667 4394 20       		.byte	0x20
 11668 4395 BA430000 		.4byte	0x43ba
 11669 4399 18       		.uleb128 0x18
 11670 439a 62756600 		.ascii	"buf\000"
 11671 439e 3E       		.byte	0x3e
 11672 439f 21       		.byte	0x21
 11673 43a0 87430000 		.4byte	0x4387
 11674 43a4 00       		.byte	0
 11675 43a5 18       		.uleb128 0x18
 11676 43a6 6E00     		.ascii	"n\000"
 11677 43a8 3E       		.byte	0x3e
 11678 43a9 22       		.byte	0x22
 11679 43aa E8000000 		.4byte	0xe8
 11680 43ae 04       		.byte	0x4
 11681 43af 18       		.uleb128 0x18
 11682 43b0 6D00     		.ascii	"m\000"
 11683 43b2 3E       		.byte	0x3e
 11684 43b3 23       		.byte	0x23
 11685 43b4 E8000000 		.4byte	0xe8
 11686 43b8 06       		.byte	0x6
 11687 43b9 00       		.byte	0
 11688 43ba 1D       		.uleb128 0x1d
 11689 43bb 08       		.byte	0x8
 11690 43bc 3E       		.byte	0x3e
 11691 43bd 35       		.byte	0x35
 11692 43be FF430000 		.4byte	0x43ff
 11693 43c2 23       		.uleb128 0x23
 11694 43c3 6200     		.ascii	"b\000"
 11695 43c5 3E       		.byte	0x3e
 11696 43c6 36       		.byte	0x36
 11697 43c7 C7150000 		.4byte	0x15c7
 11698 43cb 23       		.uleb128 0x23
ARM GAS  C:\Users\adrie\AppData\Local\Temp\ccgB8szF.s 			page 207


 11699 43cc 7300     		.ascii	"s\000"
 11700 43ce 3E       		.byte	0x3e
 11701 43cf 37       		.byte	0x37
 11702 43d0 25000000 		.4byte	0x25
 11703 43d4 23       		.uleb128 0x23
 11704 43d5 6900     		.ascii	"i\000"
 11705 43d7 3E       		.byte	0x3e
 11706 43d8 38       		.byte	0x38
 11707 43d9 F3000000 		.4byte	0xf3
 11708 43dd 23       		.uleb128 0x23
 11709 43de 73747200 		.ascii	"str\000"
 11710 43e2 3E       		.byte	0x3e
 11711 43e3 39       		.byte	0x39
 11712 43e4 25430000 		.4byte	0x4325
 11713 43e8 2A       		.uleb128 0x2a
 11714 43e9 C1000000 		.4byte	.LASF904
 11715 43ed 3E       		.byte	0x3e
 11716 43ee 3A       		.byte	0x3a
 11717 43ef 56430000 		.4byte	0x4356
 11718 43f3 23       		.uleb128 0x23
 11719 43f4 6D617400 		.ascii	"mat\000"
 11720 43f8 3E       		.byte	0x3e
 11721 43f9 3B       		.byte	0x3b
 11722 43fa 8D430000 		.4byte	0x438d
 11723 43fe 00       		.byte	0
 11724 43ff 2F       		.uleb128 0x2f
 11725 4400 62757300 		.ascii	"bus\000"
 11726 4404 3F       		.byte	0x3f
 11727 4405 0E       		.byte	0xe
 11728 4406 8E3A0000 		.4byte	0x3a8e
 11729 440a 16       		.uleb128 0x16
 11730 440b 890E0000 		.4byte	.LASF905
 11731 440f 3F       		.byte	0x3f
 11732 4410 10       		.byte	0x10
 11733 4411 50420000 		.4byte	0x4250
 11734 4415 16       		.uleb128 0x16
 11735 4416 FD090000 		.4byte	.LASF906
 11736 441a 40       		.byte	0x40
 11737 441b 14       		.byte	0x14
 11738 441c 69350000 		.4byte	0x3569
 11739 4420 16       		.uleb128 0x16
 11740 4421 DF0A0000 		.4byte	.LASF907
 11741 4425 40       		.byte	0x40
 11742 4426 15       		.byte	0x15
 11743 4427 9F360000 		.4byte	0x369f
 11744 442b 16       		.uleb128 0x16
 11745 442c 3D130000 		.4byte	.LASF908
 11746 4430 40       		.byte	0x40
 11747 4431 16       		.byte	0x16
 11748 4432 ED350000 		.4byte	0x35ed
 11749 4436 0B       		.uleb128 0xb
 11750 4437 04       		.byte	0x4
 11751 4438 DD000000 		.4byte	0xdd
 11752 443c 07       		.uleb128 0x7
 11753 443d 56030000 		.4byte	.LASF909
 11754 4441 08       		.byte	0x8
 11755 4442 41       		.byte	0x41
ARM GAS  C:\Users\adrie\AppData\Local\Temp\ccgB8szF.s 			page 208


 11756 4443 07       		.byte	0x7
 11757 4444 61440000 		.4byte	0x4461
 11758 4448 18       		.uleb128 0x18
 11759 4449 6D617800 		.ascii	"max\000"
 11760 444d 41       		.byte	0x41
 11761 444e 08       		.byte	0x8
 11762 444f 2C000000 		.4byte	0x2c
 11763 4453 00       		.byte	0
 11764 4454 08       		.uleb128 0x8
 11765 4455 71280000 		.4byte	.LASF910
 11766 4459 41       		.byte	0x41
 11767 445a 08       		.byte	0x8
 11768 445b 2C000000 		.4byte	0x2c
 11769 445f 04       		.byte	0x4
 11770 4460 00       		.byte	0
 11771 4461 04       		.uleb128 0x4
 11772 4462 56030000 		.4byte	.LASF909
 11773 4466 41       		.byte	0x41
 11774 4467 09       		.byte	0x9
 11775 4468 3C440000 		.4byte	0x443c
 11776 446c 21       		.uleb128 0x21
 11777 446d 07       		.byte	0x7
 11778 446e 01       		.byte	0x1
 11779 446f 6C000000 		.4byte	0x6c
 11780 4473 41       		.byte	0x41
 11781 4474 0B       		.byte	0xb
 11782 4475 AA440000 		.4byte	0x44aa
 11783 4479 22       		.uleb128 0x22
 11784 447a A3150000 		.4byte	.LASF911
 11785 447e 00       		.byte	0
 11786 447f 22       		.uleb128 0x22
 11787 4480 6B260000 		.4byte	.LASF912
 11788 4484 01       		.byte	0x1
 11789 4485 22       		.uleb128 0x22
 11790 4486 1F1F0000 		.4byte	.LASF913
 11791 448a 02       		.byte	0x2
 11792 448b 22       		.uleb128 0x22
 11793 448c DD140000 		.4byte	.LASF914
 11794 4490 03       		.byte	0x3
 11795 4491 22       		.uleb128 0x22
 11796 4492 D21E0000 		.4byte	.LASF915
 11797 4496 04       		.byte	0x4
 11798 4497 22       		.uleb128 0x22
 11799 4498 F80E0000 		.4byte	.LASF916
 11800 449c 05       		.byte	0x5
 11801 449d 22       		.uleb128 0x22
 11802 449e D0140000 		.4byte	.LASF917
 11803 44a2 06       		.byte	0x6
 11804 44a3 22       		.uleb128 0x22
 11805 44a4 C6230000 		.4byte	.LASF918
 11806 44a8 07       		.byte	0x7
 11807 44a9 00       		.byte	0
 11808 44aa 04       		.uleb128 0x4
 11809 44ab DC190000 		.4byte	.LASF919
 11810 44af 41       		.byte	0x41
 11811 44b0 16       		.byte	0x16
 11812 44b1 6C440000 		.4byte	0x446c
ARM GAS  C:\Users\adrie\AppData\Local\Temp\ccgB8szF.s 			page 209


 11813 44b5 21       		.uleb128 0x21
 11814 44b6 07       		.byte	0x7
 11815 44b7 01       		.byte	0x1
 11816 44b8 6C000000 		.4byte	0x6c
 11817 44bc 41       		.byte	0x41
 11818 44bd 18       		.byte	0x18
 11819 44be DB440000 		.4byte	0x44db
 11820 44c2 22       		.uleb128 0x22
 11821 44c3 63200000 		.4byte	.LASF920
 11822 44c7 00       		.byte	0
 11823 44c8 22       		.uleb128 0x22
 11824 44c9 95230000 		.4byte	.LASF921
 11825 44cd 01       		.byte	0x1
 11826 44ce 22       		.uleb128 0x22
 11827 44cf C00B0000 		.4byte	.LASF922
 11828 44d3 02       		.byte	0x2
 11829 44d4 22       		.uleb128 0x22
 11830 44d5 8A150000 		.4byte	.LASF923
 11831 44d9 03       		.byte	0x3
 11832 44da 00       		.byte	0
 11833 44db 04       		.uleb128 0x4
 11834 44dc 3A160000 		.4byte	.LASF924
 11835 44e0 41       		.byte	0x41
 11836 44e1 1D       		.byte	0x1d
 11837 44e2 B5440000 		.4byte	0x44b5
 11838 44e6 30       		.uleb128 0x30
 11839 44e7 631A0000 		.4byte	.LASF1036
 11840 44eb 05       		.byte	0x5
 11841 44ec 01       		.byte	0x1
 11842 44ed 5A000000 		.4byte	0x5a
 11843 44f1 42       		.byte	0x42
 11844 44f2 8202     		.2byte	0x282
 11845 44f4 11450000 		.4byte	0x4511
 11846 44f8 31       		.uleb128 0x31
 11847 44f9 D5170000 		.4byte	.LASF925
 11848 44fd 7F       		.sleb128 -1
 11849 44fe 22       		.uleb128 0x22
 11850 44ff B5020000 		.4byte	.LASF926
 11851 4503 00       		.byte	0
 11852 4504 22       		.uleb128 0x22
 11853 4505 B0210000 		.4byte	.LASF927
 11854 4509 01       		.byte	0x1
 11855 450a 22       		.uleb128 0x22
 11856 450b E4090000 		.4byte	.LASF928
 11857 450f 02       		.byte	0x2
 11858 4510 00       		.byte	0
 11859 4511 15       		.uleb128 0x15
 11860 4512 99290000 		.4byte	.LASF929
 11861 4516 42       		.byte	0x42
 11862 4517 8D02     		.2byte	0x28d
 11863 4519 E6440000 		.4byte	0x44e6
 11864 451d 21       		.uleb128 0x21
 11865 451e 07       		.byte	0x7
 11866 451f 01       		.byte	0x1
 11867 4520 6C000000 		.4byte	0x6c
 11868 4524 43       		.byte	0x43
 11869 4525 0D       		.byte	0xd
ARM GAS  C:\Users\adrie\AppData\Local\Temp\ccgB8szF.s 			page 210


 11870 4526 49450000 		.4byte	0x4549
 11871 452a 22       		.uleb128 0x22
 11872 452b 801E0000 		.4byte	.LASF930
 11873 452f 00       		.byte	0
 11874 4530 22       		.uleb128 0x22
 11875 4531 851E0000 		.4byte	.LASF931
 11876 4535 01       		.byte	0x1
 11877 4536 22       		.uleb128 0x22
 11878 4537 8A1E0000 		.4byte	.LASF932
 11879 453b 02       		.byte	0x2
 11880 453c 22       		.uleb128 0x22
 11881 453d 8F1E0000 		.4byte	.LASF933
 11882 4541 03       		.byte	0x3
 11883 4542 22       		.uleb128 0x22
 11884 4543 65130000 		.4byte	.LASF934
 11885 4547 04       		.byte	0x4
 11886 4548 00       		.byte	0
 11887 4549 32       		.uleb128 0x32
 11888 454a BB150000 		.4byte	.LASF935
 11889 454e 01       		.byte	0x1
 11890 454f 10       		.byte	0x10
 11891 4550 77120000 		.4byte	0x1277
 11892 4554 05       		.uleb128 0x5
 11893 4555 03       		.byte	0x3
 11894 4556 00000000 		.4byte	sendToComputer_sem
 11895 455a 32       		.uleb128 0x32
 11896 455b AF010000 		.4byte	.LASF936
 11897 455f 01       		.byte	0x1
 11898 4560 14       		.byte	0x14
 11899 4561 2C000000 		.4byte	0x2c
 11900 4565 05       		.uleb128 0x5
 11901 4566 03       		.byte	0x3
 11902 4567 00000000 		.4byte	angle
 11903 456b 33       		.uleb128 0x33
 11904 456c 8D220000 		.4byte	.LASF937
 11905 4570 01       		.byte	0x1
 11906 4571 15       		.byte	0x15
 11907 4572 33000000 		.4byte	0x33
 11908 4576 33       		.uleb128 0x33
 11909 4577 C3280000 		.4byte	.LASF938
 11910 457b 01       		.byte	0x1
 11911 457c 16       		.byte	0x16
 11912 457d 2C000000 		.4byte	0x2c
 11913 4581 32       		.uleb128 0x32
 11914 4582 14120000 		.4byte	.LASF939
 11915 4586 01       		.byte	0x1
 11916 4587 17       		.byte	0x17
 11917 4588 2C000000 		.4byte	0x2c
 11918 458c 05       		.uleb128 0x5
 11919 458d 03       		.byte	0x3
 11920 458e 00000000 		.4byte	nbr_passage
 11921 4592 33       		.uleb128 0x33
 11922 4593 1B1E0000 		.4byte	.LASF940
 11923 4597 01       		.byte	0x1
 11924 4598 1A       		.byte	0x1a
 11925 4599 CD000000 		.4byte	0xcd
 11926 459d 13       		.uleb128 0x13
ARM GAS  C:\Users\adrie\AppData\Local\Temp\ccgB8szF.s 			page 211


 11927 459e 2C000000 		.4byte	0x2c
 11928 45a2 B3450000 		.4byte	0x45b3
 11929 45a6 14       		.uleb128 0x14
 11930 45a7 45000000 		.4byte	0x45
 11931 45ab 03       		.byte	0x3
 11932 45ac 14       		.uleb128 0x14
 11933 45ad 45000000 		.4byte	0x45
 11934 45b1 02       		.byte	0x2
 11935 45b2 00       		.byte	0
 11936 45b3 32       		.uleb128 0x32
 11937 45b4 34040000 		.4byte	.LASF941
 11938 45b8 01       		.byte	0x1
 11939 45b9 1D       		.byte	0x1d
 11940 45ba 9D450000 		.4byte	0x459d
 11941 45be 05       		.uleb128 0x5
 11942 45bf 03       		.byte	0x3
 11943 45c0 00000000 		.4byte	moyenne
 11944 45c4 13       		.uleb128 0x13
 11945 45c5 25000000 		.4byte	0x25
 11946 45c9 D5450000 		.4byte	0x45d5
 11947 45cd 29       		.uleb128 0x29
 11948 45ce 45000000 		.4byte	0x45
 11949 45d2 FF07     		.2byte	0x7ff
 11950 45d4 00       		.byte	0
 11951 45d5 32       		.uleb128 0x32
 11952 45d6 E5030000 		.4byte	.LASF942
 11953 45da 01       		.byte	0x1
 11954 45db 20       		.byte	0x20
 11955 45dc C4450000 		.4byte	0x45c4
 11956 45e0 05       		.uleb128 0x5
 11957 45e1 03       		.byte	0x3
 11958 45e2 00000000 		.4byte	micLeft_cmplx_input
 11959 45e6 32       		.uleb128 0x32
 11960 45e7 F8240000 		.4byte	.LASF943
 11961 45eb 01       		.byte	0x1
 11962 45ec 21       		.byte	0x21
 11963 45ed C4450000 		.4byte	0x45c4
 11964 45f1 05       		.uleb128 0x5
 11965 45f2 03       		.byte	0x3
 11966 45f3 00000000 		.4byte	micRight_cmplx_input
 11967 45f7 32       		.uleb128 0x32
 11968 45f8 DF160000 		.4byte	.LASF944
 11969 45fc 01       		.byte	0x1
 11970 45fd 22       		.byte	0x22
 11971 45fe C4450000 		.4byte	0x45c4
 11972 4602 05       		.uleb128 0x5
 11973 4603 03       		.byte	0x3
 11974 4604 00000000 		.4byte	micFront_cmplx_input
 11975 4608 32       		.uleb128 0x32
 11976 4609 C50D0000 		.4byte	.LASF945
 11977 460d 01       		.byte	0x1
 11978 460e 23       		.byte	0x23
 11979 460f C4450000 		.4byte	0x45c4
 11980 4613 05       		.uleb128 0x5
 11981 4614 03       		.byte	0x3
 11982 4615 00000000 		.4byte	micBack_cmplx_input
 11983 4619 13       		.uleb128 0x13
ARM GAS  C:\Users\adrie\AppData\Local\Temp\ccgB8szF.s 			page 212


 11984 461a 25000000 		.4byte	0x25
 11985 461e 2A460000 		.4byte	0x462a
 11986 4622 29       		.uleb128 0x29
 11987 4623 45000000 		.4byte	0x45
 11988 4627 FF03     		.2byte	0x3ff
 11989 4629 00       		.byte	0
 11990 462a 32       		.uleb128 0x32
 11991 462b 8A0A0000 		.4byte	.LASF946
 11992 462f 01       		.byte	0x1
 11993 4630 25       		.byte	0x25
 11994 4631 19460000 		.4byte	0x4619
 11995 4635 05       		.uleb128 0x5
 11996 4636 03       		.byte	0x3
 11997 4637 00000000 		.4byte	micLeft_output
 11998 463b 32       		.uleb128 0x32
 11999 463c C6270000 		.4byte	.LASF947
 12000 4640 01       		.byte	0x1
 12001 4641 26       		.byte	0x26
 12002 4642 19460000 		.4byte	0x4619
 12003 4646 05       		.uleb128 0x5
 12004 4647 03       		.byte	0x3
 12005 4648 00000000 		.4byte	micRight_output
 12006 464c 32       		.uleb128 0x32
 12007 464d 6F050000 		.4byte	.LASF948
 12008 4651 01       		.byte	0x1
 12009 4652 27       		.byte	0x27
 12010 4653 19460000 		.4byte	0x4619
 12011 4657 05       		.uleb128 0x5
 12012 4658 03       		.byte	0x3
 12013 4659 00000000 		.4byte	micFront_output
 12014 465d 32       		.uleb128 0x32
 12015 465e 58050000 		.4byte	.LASF949
 12016 4662 01       		.byte	0x1
 12017 4663 28       		.byte	0x28
 12018 4664 19460000 		.4byte	0x4619
 12019 4668 05       		.uleb128 0x5
 12020 4669 03       		.byte	0x3
 12021 466a 00000000 		.4byte	micBack_output
 12022 466e 13       		.uleb128 0x13
 12023 466f 8C0D0000 		.4byte	0xd8c
 12024 4673 7E460000 		.4byte	0x467e
 12025 4677 14       		.uleb128 0x14
 12026 4678 45000000 		.4byte	0x45
 12027 467c 4E       		.byte	0x4e
 12028 467d 00       		.byte	0
 12029 467e 34       		.uleb128 0x34
 12030 467f 55180000 		.4byte	.LASF950
 12031 4683 01       		.byte	0x1
 12032 4684 7F02     		.2byte	0x27f
 12033 4686 6E460000 		.4byte	0x466e
 12034 468a 05       		.uleb128 0x5
 12035 468b 03       		.byte	0x3
 12036 468c 00000000 		.4byte	waPiRegulator
 12037 4690 35       		.uleb128 0x35
 12038 4691 ED290000 		.4byte	.LASF1037
 12039 4695 01       		.byte	0x1
 12040 4696 CB02     		.2byte	0x2cb
ARM GAS  C:\Users\adrie\AppData\Local\Temp\ccgB8szF.s 			page 213


 12041 4698 00000000 		.4byte	.LFB307
 12042 469c 38000000 		.4byte	.LFE307-.LFB307
 12043 46a0 01       		.uleb128 0x1
 12044 46a1 9C       		.byte	0x9c
 12045 46a2 E3460000 		.4byte	0x46e3
 12046 46a6 36       		.uleb128 0x36
 12047 46a7 1C000000 		.4byte	.LVL313
 12048 46ab 7B5A0000 		.4byte	0x5a7b
 12049 46af D9460000 		.4byte	0x46d9
 12050 46b3 37       		.uleb128 0x37
 12051 46b4 01       		.uleb128 0x1
 12052 46b5 50       		.byte	0x50
 12053 46b6 05       		.uleb128 0x5
 12054 46b7 03       		.byte	0x3
 12055 46b8 00000000 		.4byte	.LANCHOR9
 12056 46bc 37       		.uleb128 0x37
 12057 46bd 01       		.uleb128 0x1
 12058 46be 51       		.byte	0x51
 12059 46bf 03       		.uleb128 0x3
 12060 46c0 0A       		.byte	0xa
 12061 46c1 7802     		.2byte	0x278
 12062 46c3 37       		.uleb128 0x37
 12063 46c4 01       		.uleb128 0x1
 12064 46c5 52       		.byte	0x52
 12065 46c6 02       		.uleb128 0x2
 12066 46c7 08       		.byte	0x8
 12067 46c8 40       		.byte	0x40
 12068 46c9 37       		.uleb128 0x37
 12069 46ca 01       		.uleb128 0x1
 12070 46cb 53       		.byte	0x53
 12071 46cc 05       		.uleb128 0x5
 12072 46cd 03       		.byte	0x3
 12073 46ce 00000000 		.4byte	PiRegulator
 12074 46d2 37       		.uleb128 0x37
 12075 46d3 02       		.uleb128 0x2
 12076 46d4 7D       		.byte	0x7d
 12077 46d5 00       		.sleb128 0
 12078 46d6 01       		.uleb128 0x1
 12079 46d7 30       		.byte	0x30
 12080 46d8 00       		.byte	0
 12081 46d9 38       		.uleb128 0x38
 12082 46da 2C000000 		.4byte	.LVL314
 12083 46de 865A0000 		.4byte	0x5a86
 12084 46e2 00       		.byte	0
 12085 46e3 39       		.uleb128 0x39
 12086 46e4 A11A0000 		.4byte	.LASF1038
 12087 46e8 01       		.byte	0x1
 12088 46e9 8002     		.2byte	0x280
 12089 46eb 00000000 		.4byte	.LFB306
 12090 46ef 8C020000 		.4byte	.LFE306-.LFB306
 12091 46f3 01       		.uleb128 0x1
 12092 46f4 9C       		.byte	0x9c
 12093 46f5 474B0000 		.4byte	0x4b47
 12094 46f9 3A       		.uleb128 0x3a
 12095 46fa 61726700 		.ascii	"arg\000"
 12096 46fe 01       		.byte	0x1
 12097 46ff 8002     		.2byte	0x280
ARM GAS  C:\Users\adrie\AppData\Local\Temp\ccgB8szF.s 			page 214


 12098 4701 C8030000 		.4byte	0x3c8
 12099 4705 00000000 		.4byte	.LLST8
 12100 4709 3B       		.uleb128 0x3b
 12101 470a 04070000 		.4byte	.LASF951
 12102 470e 574B0000 		.4byte	0x4b57
 12103 4712 05       		.uleb128 0x5
 12104 4713 03       		.byte	0x3
 12105 4714 00000000 		.4byte	__FUNCTION__.14351
 12106 4718 3C       		.uleb128 0x3c
 12107 4719 150D0000 		.4byte	.LASF952
 12108 471d 01       		.byte	0x1
 12109 471e 8502     		.2byte	0x285
 12110 4720 A7010000 		.4byte	0x1a7
 12111 4724 3D       		.uleb128 0x3d
 12112 4725 BF210000 		.4byte	.LASF953
 12113 4729 01       		.byte	0x1
 12114 472a 8702     		.2byte	0x287
 12115 472c DD000000 		.4byte	0xdd
 12116 4730 21000000 		.4byte	.LLST9
 12117 4734 3D       		.uleb128 0x3d
 12118 4735 0A1E0000 		.4byte	.LASF954
 12119 4739 01       		.byte	0x1
 12120 473a 8802     		.2byte	0x288
 12121 473c DD000000 		.4byte	0xdd
 12122 4740 35000000 		.4byte	.LLST10
 12123 4744 3D       		.uleb128 0x3d
 12124 4745 CF1C0000 		.4byte	.LASF955
 12125 4749 01       		.byte	0x1
 12126 474a 8902     		.2byte	0x289
 12127 474c F3000000 		.4byte	0xf3
 12128 4750 6A000000 		.4byte	.LLST11
 12129 4754 3E       		.uleb128 0x3e
 12130 4755 CB260000 		.4byte	.LASF956
 12131 4759 01       		.byte	0x1
 12132 475a 8A02     		.2byte	0x28a
 12133 475c DD000000 		.4byte	0xdd
 12134 4760 00       		.byte	0
 12135 4761 3D       		.uleb128 0x3d
 12136 4762 242A0000 		.4byte	.LASF957
 12137 4766 01       		.byte	0x1
 12138 4767 8B02     		.2byte	0x28b
 12139 4769 F3000000 		.4byte	0xf3
 12140 476d 94000000 		.4byte	.LLST12
 12141 4771 3D       		.uleb128 0x3d
 12142 4772 84080000 		.4byte	.LASF958
 12143 4776 01       		.byte	0x1
 12144 4777 8C02     		.2byte	0x28c
 12145 4779 33000000 		.4byte	0x33
 12146 477d C9000000 		.4byte	.LLST13
 12147 4781 3F       		.uleb128 0x3f
 12148 4782 38000000 		.4byte	.Ldebug_ranges0+0x38
 12149 4786 304B0000 		.4byte	0x4b30
 12150 478a 3D       		.uleb128 0x3d
 12151 478b AF010000 		.4byte	.LASF936
 12152 478f 01       		.byte	0x1
 12153 4790 A802     		.2byte	0x2a8
 12154 4792 2C000000 		.4byte	0x2c
ARM GAS  C:\Users\adrie\AppData\Local\Temp\ccgB8szF.s 			page 215


 12155 4796 E5000000 		.4byte	.LLST14
 12156 479a 40       		.uleb128 0x40
 12157 479b F34D0000 		.4byte	0x4df3
 12158 479f 18000000 		.4byte	.LBB199
 12159 47a3 50000000 		.4byte	.Ldebug_ranges0+0x50
 12160 47a7 01       		.byte	0x1
 12161 47a8 9402     		.2byte	0x294
 12162 47aa DA470000 		.4byte	0x47da
 12163 47ae 41       		.uleb128 0x41
 12164 47af 044E0000 		.4byte	0x4e04
 12165 47b3 03010000 		.4byte	.LLST15
 12166 47b7 42       		.uleb128 0x42
 12167 47b8 50000000 		.4byte	.Ldebug_ranges0+0x50
 12168 47bc 43       		.uleb128 0x43
 12169 47bd 104E0000 		.4byte	0x4e10
 12170 47c1 17010000 		.4byte	.LLST16
 12171 47c5 44       		.uleb128 0x44
 12172 47c6 1C4E0000 		.4byte	0x4e1c
 12173 47ca 88000000 		.4byte	.Ldebug_ranges0+0x88
 12174 47ce 43       		.uleb128 0x43
 12175 47cf 1D4E0000 		.4byte	0x4e1d
 12176 47d3 2A010000 		.4byte	.LLST17
 12177 47d7 00       		.byte	0
 12178 47d8 00       		.byte	0
 12179 47d9 00       		.byte	0
 12180 47da 45       		.uleb128 0x45
 12181 47db B94E0000 		.4byte	0x4eb9
 12182 47df 66000000 		.4byte	.LBB210
 12183 47e3 16000000 		.4byte	.LBE210-.LBB210
 12184 47e7 01       		.byte	0x1
 12185 47e8 A302     		.2byte	0x2a3
 12186 47ea 38480000 		.4byte	0x4838
 12187 47ee 41       		.uleb128 0x41
 12188 47ef D64E0000 		.4byte	0x4ed6
 12189 47f3 3E010000 		.4byte	.LLST18
 12190 47f7 41       		.uleb128 0x41
 12191 47f8 CA4E0000 		.4byte	0x4eca
 12192 47fc 51010000 		.4byte	.LLST19
 12193 4800 46       		.uleb128 0x46
 12194 4801 66000000 		.4byte	.LBB211
 12195 4805 16000000 		.4byte	.LBE211-.LBB211
 12196 4809 43       		.uleb128 0x43
 12197 480a E24E0000 		.4byte	0x4ee2
 12198 480e 64010000 		.4byte	.LLST20
 12199 4812 47       		.uleb128 0x47
 12200 4813 EE4E0000 		.4byte	0x4eee
 12201 4817 06       		.uleb128 0x6
 12202 4818 52       		.byte	0x52
 12203 4819 93       		.byte	0x93
 12204 481a 04       		.uleb128 0x4
 12205 481b 53       		.byte	0x53
 12206 481c 93       		.byte	0x93
 12207 481d 04       		.uleb128 0x4
 12208 481e 48       		.uleb128 0x48
 12209 481f 6E000000 		.4byte	.LVL30
 12210 4823 8F5A0000 		.4byte	0x5a8f
 12211 4827 37       		.uleb128 0x37
ARM GAS  C:\Users\adrie\AppData\Local\Temp\ccgB8szF.s 			page 216


 12212 4828 08       		.uleb128 0x8
 12213 4829 90       		.byte	0x90
 12214 482a 40       		.uleb128 0x40
 12215 482b 93       		.byte	0x93
 12216 482c 04       		.uleb128 0x4
 12217 482d 90       		.byte	0x90
 12218 482e 41       		.uleb128 0x41
 12219 482f 93       		.byte	0x93
 12220 4830 04       		.uleb128 0x4
 12221 4831 03       		.uleb128 0x3
 12222 4832 F5       		.byte	0xf5
 12223 4833 08       		.uleb128 0x8
 12224 4834 33       		.uleb128 0x33
 12225 4835 00       		.byte	0
 12226 4836 00       		.byte	0
 12227 4837 00       		.byte	0
 12228 4838 40       		.uleb128 0x40
 12229 4839 5C4B0000 		.4byte	0x4b5c
 12230 483d 84000000 		.4byte	.LBB212
 12231 4841 B0000000 		.4byte	.Ldebug_ranges0+0xb0
 12232 4845 01       		.byte	0x1
 12233 4846 A302     		.2byte	0x2a3
 12234 4848 82480000 		.4byte	0x4882
 12235 484c 41       		.uleb128 0x41
 12236 484d 794B0000 		.4byte	0x4b79
 12237 4851 7D010000 		.4byte	.LLST21
 12238 4855 41       		.uleb128 0x41
 12239 4856 6D4B0000 		.4byte	0x4b6d
 12240 485a B5010000 		.4byte	.LLST22
 12241 485e 42       		.uleb128 0x42
 12242 485f B0000000 		.4byte	.Ldebug_ranges0+0xb0
 12243 4863 43       		.uleb128 0x43
 12244 4864 854B0000 		.4byte	0x4b85
 12245 4868 DE010000 		.4byte	.LLST23
 12246 486c 43       		.uleb128 0x43
 12247 486d 914B0000 		.4byte	0x4b91
 12248 4871 20020000 		.4byte	.LLST24
 12249 4875 47       		.uleb128 0x47
 12250 4876 9D4B0000 		.4byte	0x4b9d
 12251 487a 05       		.uleb128 0x5
 12252 487b 03       		.byte	0x3
 12253 487c 00000000 		.4byte	sum_error.14346
 12254 4880 00       		.byte	0
 12255 4881 00       		.byte	0
 12256 4882 49       		.uleb128 0x49
 12257 4883 CE4B0000 		.4byte	0x4bce
 12258 4887 DA000000 		.4byte	.LBB216
 12259 488b 04000000 		.4byte	.LBE216-.LBB216
 12260 488f 01       		.byte	0x1
 12261 4890 A802     		.2byte	0x2a8
 12262 4892 45       		.uleb128 0x45
 12263 4893 14560000 		.4byte	0x5614
 12264 4897 10010000 		.4byte	.LBB218
 12265 489b 3A000000 		.4byte	.LBE218-.LBB218
 12266 489f 01       		.byte	0x1
 12267 48a0 9102     		.2byte	0x291
 12268 48a2 8D490000 		.4byte	0x498d
ARM GAS  C:\Users\adrie\AppData\Local\Temp\ccgB8szF.s 			page 217


 12269 48a6 46       		.uleb128 0x46
 12270 48a7 10010000 		.4byte	.LBB219
 12271 48ab 3A000000 		.4byte	.LBE219-.LBB219
 12272 48af 4A       		.uleb128 0x4a
 12273 48b0 24560000 		.4byte	0x5624
 12274 48b4 4B       		.uleb128 0x4b
 12275 48b5 57560000 		.4byte	0x5657
 12276 48b9 10010000 		.4byte	.LBB220
 12277 48bd 0E000000 		.4byte	.LBE220-.LBB220
 12278 48c1 05       		.byte	0x5
 12279 48c2 FA       		.byte	0xfa
 12280 48c3 09490000 		.4byte	0x4909
 12281 48c7 45       		.uleb128 0x45
 12282 48c8 69560000 		.4byte	0x5669
 12283 48cc 10010000 		.4byte	.LBB222
 12284 48d0 06000000 		.4byte	.LBE222-.LBB222
 12285 48d4 04       		.byte	0x4
 12286 48d5 5C01     		.2byte	0x15c
 12287 48d7 F6480000 		.4byte	0x48f6
 12288 48db 4C       		.uleb128 0x4c
 12289 48dc 72560000 		.4byte	0x5672
 12290 48e0 10010000 		.4byte	.LBB223
 12291 48e4 06000000 		.4byte	.LBE223-.LBB223
 12292 48e8 11       		.byte	0x11
 12293 48e9 BF01     		.2byte	0x1bf
 12294 48eb 41       		.uleb128 0x41
 12295 48ec 7F560000 		.4byte	0x567f
 12296 48f0 94020000 		.4byte	.LLST25
 12297 48f4 00       		.byte	0
 12298 48f5 00       		.byte	0
 12299 48f6 38       		.uleb128 0x38
 12300 48f7 1A010000 		.4byte	.LVL45
 12301 48fb 9A5A0000 		.4byte	0x5a9a
 12302 48ff 38       		.uleb128 0x38
 12303 4900 1E010000 		.4byte	.LVL46
 12304 4904 A55A0000 		.4byte	0x5aa5
 12305 4908 00       		.byte	0
 12306 4909 4D       		.uleb128 0x4d
 12307 490a 30560000 		.4byte	0x5630
 12308 490e 1E010000 		.4byte	.LBB225
 12309 4912 04000000 		.4byte	.LBE225-.LBB225
 12310 4916 05       		.byte	0x5
 12311 4917 FB       		.byte	0xfb
 12312 4918 4E       		.uleb128 0x4e
 12313 4919 3C560000 		.4byte	0x563c
 12314 491d 22010000 		.4byte	.LBB227
 12315 4921 28000000 		.4byte	.LBE227-.LBB227
 12316 4925 05       		.byte	0x5
 12317 4926 FC       		.byte	0xfc
 12318 4927 46       		.uleb128 0x46
 12319 4928 22010000 		.4byte	.LBB228
 12320 492c 28000000 		.4byte	.LBE228-.LBB228
 12321 4930 4A       		.uleb128 0x4a
 12322 4931 49560000 		.4byte	0x5649
 12323 4935 45       		.uleb128 0x45
 12324 4936 60560000 		.4byte	0x5660
 12325 493a 44010000 		.4byte	.LBB229
ARM GAS  C:\Users\adrie\AppData\Local\Temp\ccgB8szF.s 			page 218


 12326 493e 06000000 		.4byte	.LBE229-.LBB229
 12327 4942 04       		.byte	0x4
 12328 4943 7301     		.2byte	0x173
 12329 4945 64490000 		.4byte	0x4964
 12330 4949 4C       		.uleb128 0x4c
 12331 494a 72560000 		.4byte	0x5672
 12332 494e 44010000 		.4byte	.LBB230
 12333 4952 06000000 		.4byte	.LBE230-.LBB230
 12334 4956 11       		.byte	0x11
 12335 4957 CD01     		.2byte	0x1cd
 12336 4959 41       		.uleb128 0x41
 12337 495a 7F560000 		.4byte	0x567f
 12338 495e A9020000 		.4byte	.LLST26
 12339 4962 00       		.byte	0
 12340 4963 00       		.byte	0
 12341 4964 38       		.uleb128 0x38
 12342 4965 26010000 		.4byte	.LVL47
 12343 4969 B05A0000 		.4byte	0x5ab0
 12344 496d 38       		.uleb128 0x38
 12345 496e 2A010000 		.4byte	.LVL48
 12346 4972 BB5A0000 		.4byte	0x5abb
 12347 4976 48       		.uleb128 0x48
 12348 4977 44010000 		.4byte	.LVL49
 12349 497b C65A0000 		.4byte	0x5ac6
 12350 497f 37       		.uleb128 0x37
 12351 4980 01       		.uleb128 0x1
 12352 4981 50       		.byte	0x50
 12353 4982 05       		.uleb128 0x5
 12354 4983 03       		.byte	0x3
 12355 4984 00000000 		.4byte	.LANCHOR1
 12356 4988 00       		.byte	0
 12357 4989 00       		.byte	0
 12358 498a 00       		.byte	0
 12359 498b 00       		.byte	0
 12360 498c 00       		.byte	0
 12361 498d 40       		.uleb128 0x40
 12362 498e F34D0000 		.4byte	0x4df3
 12363 4992 4A010000 		.4byte	.LBB232
 12364 4996 D0000000 		.4byte	.Ldebug_ranges0+0xd0
 12365 499a 01       		.byte	0x1
 12366 499b 9402     		.2byte	0x294
 12367 499d C9490000 		.4byte	0x49c9
 12368 49a1 4F       		.uleb128 0x4f
 12369 49a2 044E0000 		.4byte	0x4e04
 12370 49a6 42       		.uleb128 0x42
 12371 49a7 D0000000 		.4byte	.Ldebug_ranges0+0xd0
 12372 49ab 43       		.uleb128 0x43
 12373 49ac 104E0000 		.4byte	0x4e10
 12374 49b0 BD020000 		.4byte	.LLST27
 12375 49b4 44       		.uleb128 0x44
 12376 49b5 1C4E0000 		.4byte	0x4e1c
 12377 49b9 08010000 		.4byte	.Ldebug_ranges0+0x108
 12378 49bd 43       		.uleb128 0x43
 12379 49be 1D4E0000 		.4byte	0x4e1d
 12380 49c2 D4020000 		.4byte	.LLST28
 12381 49c6 00       		.byte	0
 12382 49c7 00       		.byte	0
ARM GAS  C:\Users\adrie\AppData\Local\Temp\ccgB8szF.s 			page 219


 12383 49c8 00       		.byte	0
 12384 49c9 40       		.uleb128 0x40
 12385 49ca F34D0000 		.4byte	0x4df3
 12386 49ce 5E010000 		.4byte	.LBB250
 12387 49d2 30010000 		.4byte	.Ldebug_ranges0+0x130
 12388 49d6 01       		.byte	0x1
 12389 49d7 9402     		.2byte	0x294
 12390 49d9 094A0000 		.4byte	0x4a09
 12391 49dd 41       		.uleb128 0x41
 12392 49de 044E0000 		.4byte	0x4e04
 12393 49e2 E8020000 		.4byte	.LLST29
 12394 49e6 42       		.uleb128 0x42
 12395 49e7 30010000 		.4byte	.Ldebug_ranges0+0x130
 12396 49eb 43       		.uleb128 0x43
 12397 49ec 104E0000 		.4byte	0x4e10
 12398 49f0 FC020000 		.4byte	.LLST30
 12399 49f4 44       		.uleb128 0x44
 12400 49f5 1C4E0000 		.4byte	0x4e1c
 12401 49f9 58010000 		.4byte	.Ldebug_ranges0+0x158
 12402 49fd 43       		.uleb128 0x43
 12403 49fe 1D4E0000 		.4byte	0x4e1d
 12404 4a02 13030000 		.4byte	.LLST31
 12405 4a06 00       		.byte	0
 12406 4a07 00       		.byte	0
 12407 4a08 00       		.byte	0
 12408 4a09 40       		.uleb128 0x40
 12409 4a0a F34D0000 		.4byte	0x4df3
 12410 4a0e 7A010000 		.4byte	.LBB263
 12411 4a12 78010000 		.4byte	.Ldebug_ranges0+0x178
 12412 4a16 01       		.byte	0x1
 12413 4a17 9402     		.2byte	0x294
 12414 4a19 494A0000 		.4byte	0x4a49
 12415 4a1d 41       		.uleb128 0x41
 12416 4a1e 044E0000 		.4byte	0x4e04
 12417 4a22 27030000 		.4byte	.LLST32
 12418 4a26 42       		.uleb128 0x42
 12419 4a27 78010000 		.4byte	.Ldebug_ranges0+0x178
 12420 4a2b 43       		.uleb128 0x43
 12421 4a2c 104E0000 		.4byte	0x4e10
 12422 4a30 3B030000 		.4byte	.LLST33
 12423 4a34 44       		.uleb128 0x44
 12424 4a35 1C4E0000 		.4byte	0x4e1c
 12425 4a39 A0010000 		.4byte	.Ldebug_ranges0+0x1a0
 12426 4a3d 43       		.uleb128 0x43
 12427 4a3e 1D4E0000 		.4byte	0x4e1d
 12428 4a42 27030000 		.4byte	.LLST32
 12429 4a46 00       		.byte	0
 12430 4a47 00       		.byte	0
 12431 4a48 00       		.byte	0
 12432 4a49 45       		.uleb128 0x45
 12433 4a4a B94E0000 		.4byte	0x4eb9
 12434 4a4e 20020000 		.4byte	.LBB275
 12435 4a52 0A000000 		.4byte	.LBE275-.LBB275
 12436 4a56 01       		.byte	0x1
 12437 4a57 9E02     		.2byte	0x29e
 12438 4a59 A04A0000 		.4byte	0x4aa0
 12439 4a5d 41       		.uleb128 0x41
ARM GAS  C:\Users\adrie\AppData\Local\Temp\ccgB8szF.s 			page 220


 12440 4a5e D64E0000 		.4byte	0x4ed6
 12441 4a62 52030000 		.4byte	.LLST35
 12442 4a66 41       		.uleb128 0x41
 12443 4a67 CA4E0000 		.4byte	0x4eca
 12444 4a6b 65030000 		.4byte	.LLST36
 12445 4a6f 46       		.uleb128 0x46
 12446 4a70 20020000 		.4byte	.LBB276
 12447 4a74 0A000000 		.4byte	.LBE276-.LBB276
 12448 4a78 43       		.uleb128 0x43
 12449 4a79 E24E0000 		.4byte	0x4ee2
 12450 4a7d 78030000 		.4byte	.LLST37
 12451 4a81 4A       		.uleb128 0x4a
 12452 4a82 EE4E0000 		.4byte	0x4eee
 12453 4a86 48       		.uleb128 0x48
 12454 4a87 28020000 		.4byte	.LVL69
 12455 4a8b 8F5A0000 		.4byte	0x5a8f
 12456 4a8f 37       		.uleb128 0x37
 12457 4a90 08       		.uleb128 0x8
 12458 4a91 90       		.byte	0x90
 12459 4a92 40       		.uleb128 0x40
 12460 4a93 93       		.byte	0x93
 12461 4a94 04       		.uleb128 0x4
 12462 4a95 90       		.byte	0x90
 12463 4a96 41       		.uleb128 0x41
 12464 4a97 93       		.byte	0x93
 12465 4a98 04       		.uleb128 0x4
 12466 4a99 03       		.uleb128 0x3
 12467 4a9a F5       		.byte	0xf5
 12468 4a9b 08       		.uleb128 0x8
 12469 4a9c 33       		.uleb128 0x33
 12470 4a9d 00       		.byte	0
 12471 4a9e 00       		.byte	0
 12472 4a9f 00       		.byte	0
 12473 4aa0 36       		.uleb128 0x36
 12474 4aa1 FC000000 		.4byte	.LVL41
 12475 4aa5 D25A0000 		.4byte	0x5ad2
 12476 4aa9 BE4A0000 		.4byte	0x4abe
 12477 4aad 37       		.uleb128 0x37
 12478 4aae 01       		.uleb128 0x1
 12479 4aaf 50       		.byte	0x50
 12480 4ab0 0C       		.uleb128 0xc
 12481 4ab1 78       		.byte	0x78
 12482 4ab2 00       		.sleb128 0
 12483 4ab3 40       		.byte	0x40
 12484 4ab4 24       		.byte	0x24
 12485 4ab5 40       		.byte	0x40
 12486 4ab6 26       		.byte	0x26
 12487 4ab7 09       		.byte	0x9
 12488 4ab8 FB       		.byte	0xfb
 12489 4ab9 1E       		.byte	0x1e
 12490 4aba 79       		.byte	0x79
 12491 4abb 00       		.sleb128 0
 12492 4abc 22       		.byte	0x22
 12493 4abd 00       		.byte	0
 12494 4abe 36       		.uleb128 0x36
 12495 4abf 06010000 		.4byte	.LVL42
 12496 4ac3 DD5A0000 		.4byte	0x5add
ARM GAS  C:\Users\adrie\AppData\Local\Temp\ccgB8szF.s 			page 221


 12497 4ac7 D74A0000 		.4byte	0x4ad7
 12498 4acb 37       		.uleb128 0x37
 12499 4acc 01       		.uleb128 0x1
 12500 4acd 50       		.byte	0x50
 12501 4ace 07       		.uleb128 0x7
 12502 4acf 78       		.byte	0x78
 12503 4ad0 00       		.sleb128 0
 12504 4ad1 35       		.byte	0x35
 12505 4ad2 1E       		.byte	0x1e
 12506 4ad3 79       		.byte	0x79
 12507 4ad4 00       		.sleb128 0
 12508 4ad5 22       		.byte	0x22
 12509 4ad6 00       		.byte	0
 12510 4ad7 36       		.uleb128 0x36
 12511 4ad8 10010000 		.4byte	.LVL43
 12512 4adc E85A0000 		.4byte	0x5ae8
 12513 4ae0 F14A0000 		.4byte	0x4af1
 12514 4ae4 37       		.uleb128 0x37
 12515 4ae5 01       		.uleb128 0x1
 12516 4ae6 50       		.byte	0x50
 12517 4ae7 02       		.uleb128 0x2
 12518 4ae8 74       		.byte	0x74
 12519 4ae9 00       		.sleb128 0
 12520 4aea 37       		.uleb128 0x37
 12521 4aeb 01       		.uleb128 0x1
 12522 4aec 51       		.byte	0x51
 12523 4aed 02       		.uleb128 0x2
 12524 4aee 74       		.byte	0x74
 12525 4aef 0A       		.sleb128 10
 12526 4af0 00       		.byte	0
 12527 4af1 36       		.uleb128 0x36
 12528 4af2 EA010000 		.4byte	.LVL62
 12529 4af6 DD5A0000 		.4byte	0x5add
 12530 4afa 044B0000 		.4byte	0x4b04
 12531 4afe 37       		.uleb128 0x37
 12532 4aff 01       		.uleb128 0x1
 12533 4b00 50       		.byte	0x50
 12534 4b01 01       		.uleb128 0x1
 12535 4b02 30       		.byte	0x30
 12536 4b03 00       		.byte	0
 12537 4b04 36       		.uleb128 0x36
 12538 4b05 F0010000 		.4byte	.LVL63
 12539 4b09 D25A0000 		.4byte	0x5ad2
 12540 4b0d 174B0000 		.4byte	0x4b17
 12541 4b11 37       		.uleb128 0x37
 12542 4b12 01       		.uleb128 0x1
 12543 4b13 50       		.byte	0x50
 12544 4b14 01       		.uleb128 0x1
 12545 4b15 30       		.byte	0x30
 12546 4b16 00       		.byte	0
 12547 4b17 48       		.uleb128 0x48
 12548 4b18 20020000 		.4byte	.LVL68
 12549 4b1c 8F5A0000 		.4byte	0x5a8f
 12550 4b20 37       		.uleb128 0x37
 12551 4b21 08       		.uleb128 0x8
 12552 4b22 90       		.byte	0x90
 12553 4b23 40       		.uleb128 0x40
ARM GAS  C:\Users\adrie\AppData\Local\Temp\ccgB8szF.s 			page 222


 12554 4b24 93       		.byte	0x93
 12555 4b25 04       		.uleb128 0x4
 12556 4b26 90       		.byte	0x90
 12557 4b27 41       		.uleb128 0x41
 12558 4b28 93       		.byte	0x93
 12559 4b29 04       		.uleb128 0x4
 12560 4b2a 03       		.uleb128 0x3
 12561 4b2b F5       		.byte	0xf5
 12562 4b2c 08       		.uleb128 0x8
 12563 4b2d 33       		.uleb128 0x33
 12564 4b2e 00       		.byte	0
 12565 4b2f 00       		.byte	0
 12566 4b30 50       		.uleb128 0x50
 12567 4b31 FC550000 		.4byte	0x55fc
 12568 4b35 08000000 		.4byte	.LBB193
 12569 4b39 18000000 		.4byte	.Ldebug_ranges0+0x18
 12570 4b3d 01       		.byte	0x1
 12571 4b3e 8202     		.2byte	0x282
 12572 4b40 4F       		.uleb128 0x4f
 12573 4b41 08560000 		.4byte	0x5608
 12574 4b45 00       		.byte	0
 12575 4b46 00       		.byte	0
 12576 4b47 13       		.uleb128 0x13
 12577 4b48 1F110000 		.4byte	0x111f
 12578 4b4c 574B0000 		.4byte	0x4b57
 12579 4b50 14       		.uleb128 0x14
 12580 4b51 45000000 		.4byte	0x45
 12581 4b55 0B       		.byte	0xb
 12582 4b56 00       		.byte	0
 12583 4b57 05       		.uleb128 0x5
 12584 4b58 474B0000 		.4byte	0x4b47
 12585 4b5c 51       		.uleb128 0x51
 12586 4b5d 29030000 		.4byte	.LASF970
 12587 4b61 01       		.byte	0x1
 12588 4b62 5C02     		.2byte	0x25c
 12589 4b64 DD000000 		.4byte	0xdd
 12590 4b68 01       		.byte	0x1
 12591 4b69 AA4B0000 		.4byte	0x4baa
 12592 4b6d 52       		.uleb128 0x52
 12593 4b6e 8D220000 		.4byte	.LASF937
 12594 4b72 01       		.byte	0x1
 12595 4b73 5C02     		.2byte	0x25c
 12596 4b75 25000000 		.4byte	0x25
 12597 4b79 52       		.uleb128 0x52
 12598 4b7a 170C0000 		.4byte	.LASF959
 12599 4b7e 01       		.byte	0x1
 12600 4b7f 5C02     		.2byte	0x25c
 12601 4b81 25000000 		.4byte	0x25
 12602 4b85 3C       		.uleb128 0x3c
 12603 4b86 CD240000 		.4byte	.LASF960
 12604 4b8a 01       		.byte	0x1
 12605 4b8b 5E02     		.2byte	0x25e
 12606 4b8d 25000000 		.4byte	0x25
 12607 4b91 3C       		.uleb128 0x3c
 12608 4b92 BF210000 		.4byte	.LASF953
 12609 4b96 01       		.byte	0x1
 12610 4b97 5F02     		.2byte	0x25f
ARM GAS  C:\Users\adrie\AppData\Local\Temp\ccgB8szF.s 			page 223


 12611 4b99 25000000 		.4byte	0x25
 12612 4b9d 3C       		.uleb128 0x3c
 12613 4b9e F51C0000 		.4byte	.LASF961
 12614 4ba2 01       		.byte	0x1
 12615 4ba3 6102     		.2byte	0x261
 12616 4ba5 25000000 		.4byte	0x25
 12617 4ba9 00       		.byte	0
 12618 4baa 53       		.uleb128 0x53
 12619 4bab 38260000 		.4byte	.LASF962
 12620 4baf 01       		.byte	0x1
 12621 4bb0 5602     		.2byte	0x256
 12622 4bb2 25000000 		.4byte	0x25
 12623 4bb6 00000000 		.4byte	.LFB304
 12624 4bba 28000000 		.4byte	.LFE304-.LFB304
 12625 4bbe 01       		.uleb128 0x1
 12626 4bbf 9C       		.byte	0x9c
 12627 4bc0 CE4B0000 		.4byte	0x4bce
 12628 4bc4 38       		.uleb128 0x38
 12629 4bc5 20000000 		.4byte	.LVL300
 12630 4bc9 865A0000 		.4byte	0x5a86
 12631 4bcd 00       		.byte	0
 12632 4bce 54       		.uleb128 0x54
 12633 4bcf 31020000 		.4byte	.LASF1039
 12634 4bd3 01       		.byte	0x1
 12635 4bd4 5202     		.2byte	0x252
 12636 4bd6 2C000000 		.4byte	0x2c
 12637 4bda 01       		.byte	0x1
 12638 4bdb 53       		.uleb128 0x53
 12639 4bdc BE220000 		.4byte	.LASF963
 12640 4be0 01       		.byte	0x1
 12641 4be1 4E02     		.2byte	0x24e
 12642 4be3 2C000000 		.4byte	0x2c
 12643 4be7 00000000 		.4byte	.LFB302
 12644 4beb 3C000000 		.4byte	.LFE302-.LFB302
 12645 4bef 01       		.uleb128 0x1
 12646 4bf0 9C       		.byte	0x9c
 12647 4bf1 3B4C0000 		.4byte	0x4c3b
 12648 4bf5 40       		.uleb128 0x40
 12649 4bf6 F34D0000 		.4byte	0x4df3
 12650 4bfa 02000000 		.4byte	.LBB448
 12651 4bfe 30040000 		.4byte	.Ldebug_ranges0+0x430
 12652 4c02 01       		.byte	0x1
 12653 4c03 4F02     		.2byte	0x24f
 12654 4c05 314C0000 		.4byte	0x4c31
 12655 4c09 41       		.uleb128 0x41
 12656 4c0a 044E0000 		.4byte	0x4e04
 12657 4c0e 91030000 		.4byte	.LLST105
 12658 4c12 42       		.uleb128 0x42
 12659 4c13 30040000 		.4byte	.Ldebug_ranges0+0x430
 12660 4c17 43       		.uleb128 0x43
 12661 4c18 D3570000 		.4byte	0x57d3
 12662 4c1c A5030000 		.4byte	.LLST106
 12663 4c20 44       		.uleb128 0x44
 12664 4c21 D8570000 		.4byte	0x57d8
 12665 4c25 60040000 		.4byte	.Ldebug_ranges0+0x460
 12666 4c29 4A       		.uleb128 0x4a
 12667 4c2a E1570000 		.4byte	0x57e1
ARM GAS  C:\Users\adrie\AppData\Local\Temp\ccgB8szF.s 			page 224


 12668 4c2e 00       		.byte	0
 12669 4c2f 00       		.byte	0
 12670 4c30 00       		.byte	0
 12671 4c31 38       		.uleb128 0x38
 12672 4c32 30000000 		.4byte	.LVL298
 12673 4c36 865A0000 		.4byte	0x5a86
 12674 4c3a 00       		.byte	0
 12675 4c3b 55       		.uleb128 0x55
 12676 4c3c 941E0000 		.4byte	.LASF972
 12677 4c40 01       		.byte	0x1
 12678 4c41 4402     		.2byte	0x244
 12679 4c43 00000000 		.4byte	.LFB301
 12680 4c47 20000000 		.4byte	.LFE301-.LFB301
 12681 4c4b 01       		.uleb128 0x1
 12682 4c4c 9C       		.byte	0x9c
 12683 4c4d 6B4C0000 		.4byte	0x4c6b
 12684 4c51 56       		.uleb128 0x56
 12685 4c52 F60C0000 		.4byte	.LASF964
 12686 4c56 01       		.byte	0x1
 12687 4c57 4402     		.2byte	0x244
 12688 4c59 2C000000 		.4byte	0x2c
 12689 4c5d B8030000 		.4byte	.LLST104
 12690 4c61 38       		.uleb128 0x38
 12691 4c62 1C000000 		.4byte	.LVL295
 12692 4c66 865A0000 		.4byte	0x5a86
 12693 4c6a 00       		.byte	0
 12694 4c6b 57       		.uleb128 0x57
 12695 4c6c 45050000 		.4byte	.LASF978
 12696 4c70 01       		.byte	0x1
 12697 4c71 DF01     		.2byte	0x1df
 12698 4c73 01       		.byte	0x1
 12699 4c74 A94C0000 		.4byte	0x4ca9
 12700 4c78 52       		.uleb128 0x52
 12701 4c79 EC0D0000 		.4byte	.LASF965
 12702 4c7d 01       		.byte	0x1
 12703 4c7e DF01     		.2byte	0x1df
 12704 4c80 2C000000 		.4byte	0x2c
 12705 4c84 52       		.uleb128 0x52
 12706 4c85 69000000 		.4byte	.LASF966
 12707 4c89 01       		.byte	0x1
 12708 4c8a DF01     		.2byte	0x1df
 12709 4c8c 2C000000 		.4byte	0x2c
 12710 4c90 52       		.uleb128 0x52
 12711 4c91 4E1D0000 		.4byte	.LASF967
 12712 4c95 01       		.byte	0x1
 12713 4c96 DF01     		.2byte	0x1df
 12714 4c98 2C000000 		.4byte	0x2c
 12715 4c9c 52       		.uleb128 0x52
 12716 4c9d 4B200000 		.4byte	.LASF968
 12717 4ca1 01       		.byte	0x1
 12718 4ca2 DF01     		.2byte	0x1df
 12719 4ca4 2C000000 		.4byte	0x2c
 12720 4ca8 00       		.byte	0
 12721 4ca9 53       		.uleb128 0x53
 12722 4caa BD1E0000 		.4byte	.LASF969
 12723 4cae 01       		.byte	0x1
 12724 4caf C001     		.2byte	0x1c0
ARM GAS  C:\Users\adrie\AppData\Local\Temp\ccgB8szF.s 			page 225


 12725 4cb1 87430000 		.4byte	0x4387
 12726 4cb5 00000000 		.4byte	.LFB299
 12727 4cb9 80000000 		.4byte	.LFE299-.LFB299
 12728 4cbd 01       		.uleb128 0x1
 12729 4cbe 9C       		.byte	0x9c
 12730 4cbf DD4C0000 		.4byte	0x4cdd
 12731 4cc3 56       		.uleb128 0x56
 12732 4cc4 F5250000 		.4byte	.LASF773
 12733 4cc8 01       		.byte	0x1
 12734 4cc9 C001     		.2byte	0x1c0
 12735 4ccb AA440000 		.4byte	0x44aa
 12736 4ccf D9030000 		.4byte	.LLST66
 12737 4cd3 38       		.uleb128 0x38
 12738 4cd4 5C000000 		.4byte	.LVL212
 12739 4cd8 865A0000 		.4byte	0x5a86
 12740 4cdc 00       		.byte	0
 12741 4cdd 51       		.uleb128 0x51
 12742 4cde 11190000 		.4byte	.LASF971
 12743 4ce2 01       		.byte	0x1
 12744 4ce3 AC01     		.2byte	0x1ac
 12745 4ce5 61440000 		.4byte	0x4461
 12746 4ce9 01       		.byte	0x1
 12747 4cea 074D0000 		.4byte	0x4d07
 12748 4cee 52       		.uleb128 0x52
 12749 4cef F5250000 		.4byte	.LASF773
 12750 4cf3 01       		.byte	0x1
 12751 4cf4 AC01     		.2byte	0x1ac
 12752 4cf6 AA440000 		.4byte	0x44aa
 12753 4cfa 58       		.uleb128 0x58
 12754 4cfb 59       		.uleb128 0x59
 12755 4cfc 6100     		.ascii	"a\000"
 12756 4cfe 01       		.byte	0x1
 12757 4cff BB01     		.2byte	0x1bb
 12758 4d01 61440000 		.4byte	0x4461
 12759 4d05 00       		.byte	0
 12760 4d06 00       		.byte	0
 12761 4d07 55       		.uleb128 0x55
 12762 4d08 250E0000 		.4byte	.LASF973
 12763 4d0c 01       		.byte	0x1
 12764 4d0d A801     		.2byte	0x1a8
 12765 4d0f 00000000 		.4byte	.LFB297
 12766 4d13 2C000000 		.4byte	.LFE297-.LFB297
 12767 4d17 01       		.uleb128 0x1
 12768 4d18 9C       		.byte	0x9c
 12769 4d19 5B4D0000 		.4byte	0x4d5b
 12770 4d1d 50       		.uleb128 0x50
 12771 4d1e E0550000 		.4byte	0x55e0
 12772 4d22 0A000000 		.4byte	.LBB286
 12773 4d26 E0010000 		.4byte	.Ldebug_ranges0+0x1e0
 12774 4d2a 01       		.byte	0x1
 12775 4d2b A901     		.2byte	0x1a9
 12776 4d2d 5A       		.uleb128 0x5a
 12777 4d2e F0550000 		.4byte	0x55f0
 12778 4d32 06       		.uleb128 0x6
 12779 4d33 03       		.byte	0x3
 12780 4d34 00000000 		.4byte	sendToComputer_sem
 12781 4d38 9F       		.byte	0x9f
ARM GAS  C:\Users\adrie\AppData\Local\Temp\ccgB8szF.s 			page 226


 12782 4d39 5B       		.uleb128 0x5b
 12783 4d3a 1E000000 		.4byte	.LVL171
 12784 4d3e F35A0000 		.4byte	0x5af3
 12785 4d42 504D0000 		.4byte	0x4d50
 12786 4d46 37       		.uleb128 0x37
 12787 4d47 01       		.uleb128 0x1
 12788 4d48 50       		.byte	0x50
 12789 4d49 05       		.uleb128 0x5
 12790 4d4a 03       		.byte	0x3
 12791 4d4b 00000000 		.4byte	.LANCHOR5
 12792 4d4f 00       		.byte	0
 12793 4d50 38       		.uleb128 0x38
 12794 4d51 22000000 		.4byte	.LVL172
 12795 4d55 865A0000 		.4byte	0x5a86
 12796 4d59 00       		.byte	0
 12797 4d5a 00       		.byte	0
 12798 4d5b 51       		.uleb128 0x51
 12799 4d5c 6F010000 		.4byte	.LASF974
 12800 4d60 01       		.byte	0x1
 12801 4d61 9501     		.2byte	0x195
 12802 4d63 61440000 		.4byte	0x4461
 12803 4d67 01       		.byte	0x1
 12804 4d68 A94D0000 		.4byte	0x4da9
 12805 4d6c 52       		.uleb128 0x52
 12806 4d6d 04220000 		.4byte	.LASF975
 12807 4d71 01       		.byte	0x1
 12808 4d72 9501     		.2byte	0x195
 12809 4d74 87430000 		.4byte	0x4387
 12810 4d78 3C       		.uleb128 0x3c
 12811 4d79 6F010000 		.4byte	.LASF974
 12812 4d7d 01       		.byte	0x1
 12813 4d7e 9601     		.2byte	0x196
 12814 4d80 25000000 		.4byte	0x25
 12815 4d84 3C       		.uleb128 0x3c
 12816 4d85 FF0B0000 		.4byte	.LASF976
 12817 4d89 01       		.byte	0x1
 12818 4d8a 9701     		.2byte	0x197
 12819 4d8c 2C000000 		.4byte	0x2c
 12820 4d90 3C       		.uleb128 0x3c
 12821 4d91 80140000 		.4byte	.LASF977
 12822 4d95 01       		.byte	0x1
 12823 4d96 9801     		.2byte	0x198
 12824 4d98 61440000 		.4byte	0x4461
 12825 4d9c 58       		.uleb128 0x58
 12826 4d9d 59       		.uleb128 0x59
 12827 4d9e 6900     		.ascii	"i\000"
 12828 4da0 01       		.byte	0x1
 12829 4da1 9C01     		.2byte	0x19c
 12830 4da3 2C000000 		.4byte	0x2c
 12831 4da7 00       		.byte	0
 12832 4da8 00       		.byte	0
 12833 4da9 57       		.uleb128 0x57
 12834 4daa E3240000 		.4byte	.LASF979
 12835 4dae 01       		.byte	0x1
 12836 4daf 8901     		.2byte	0x189
 12837 4db1 01       		.byte	0x1
 12838 4db2 F34D0000 		.4byte	0x4df3
ARM GAS  C:\Users\adrie\AppData\Local\Temp\ccgB8szF.s 			page 227


 12839 4db6 52       		.uleb128 0x52
 12840 4db7 EE2A0000 		.4byte	.LASF980
 12841 4dbb 01       		.byte	0x1
 12842 4dbc 8901     		.2byte	0x189
 12843 4dbe CD000000 		.4byte	0xcd
 12844 4dc2 52       		.uleb128 0x52
 12845 4dc3 EC0D0000 		.4byte	.LASF965
 12846 4dc7 01       		.byte	0x1
 12847 4dc8 8901     		.2byte	0x189
 12848 4dca 2C000000 		.4byte	0x2c
 12849 4dce 52       		.uleb128 0x52
 12850 4dcf 69000000 		.4byte	.LASF966
 12851 4dd3 01       		.byte	0x1
 12852 4dd4 8901     		.2byte	0x189
 12853 4dd6 2C000000 		.4byte	0x2c
 12854 4dda 52       		.uleb128 0x52
 12855 4ddb 4E1D0000 		.4byte	.LASF967
 12856 4ddf 01       		.byte	0x1
 12857 4de0 8901     		.2byte	0x189
 12858 4de2 2C000000 		.4byte	0x2c
 12859 4de6 52       		.uleb128 0x52
 12860 4de7 4B200000 		.4byte	.LASF968
 12861 4deb 01       		.byte	0x1
 12862 4dec 8901     		.2byte	0x189
 12863 4dee 2C000000 		.4byte	0x2c
 12864 4df2 00       		.byte	0
 12865 4df3 51       		.uleb128 0x51
 12866 4df4 011C0000 		.4byte	.LASF981
 12867 4df8 01       		.byte	0x1
 12868 4df9 7F01     		.2byte	0x17f
 12869 4dfb 2C000000 		.4byte	0x2c
 12870 4dff 01       		.byte	0x1
 12871 4e00 294E0000 		.4byte	0x4e29
 12872 4e04 52       		.uleb128 0x52
 12873 4e05 F9030000 		.4byte	.LASF982
 12874 4e09 01       		.byte	0x1
 12875 4e0a 7F01     		.2byte	0x17f
 12876 4e0c DB440000 		.4byte	0x44db
 12877 4e10 3C       		.uleb128 0x3c
 12878 4e11 94080000 		.4byte	.LASF983
 12879 4e15 01       		.byte	0x1
 12880 4e16 8001     		.2byte	0x180
 12881 4e18 2C000000 		.4byte	0x2c
 12882 4e1c 58       		.uleb128 0x58
 12883 4e1d 59       		.uleb128 0x59
 12884 4e1e 6900     		.ascii	"i\000"
 12885 4e20 01       		.byte	0x1
 12886 4e21 8101     		.2byte	0x181
 12887 4e23 CD000000 		.4byte	0xcd
 12888 4e27 00       		.byte	0
 12889 4e28 00       		.byte	0
 12890 4e29 55       		.uleb128 0x55
 12891 4e2a 10130000 		.4byte	.LASF984
 12892 4e2e 01       		.byte	0x1
 12893 4e2f 1001     		.2byte	0x110
 12894 4e31 00000000 		.4byte	.LFB293
 12895 4e35 A4010000 		.4byte	.LFE293-.LFB293
ARM GAS  C:\Users\adrie\AppData\Local\Temp\ccgB8szF.s 			page 228


 12896 4e39 01       		.uleb128 0x1
 12897 4e3a 9C       		.byte	0x9c
 12898 4e3b B94E0000 		.4byte	0x4eb9
 12899 4e3f 56       		.uleb128 0x56
 12900 4e40 EC0D0000 		.4byte	.LASF965
 12901 4e44 01       		.byte	0x1
 12902 4e45 1001     		.2byte	0x110
 12903 4e47 2C000000 		.4byte	0x2c
 12904 4e4b A9040000 		.4byte	.LLST46
 12905 4e4f 56       		.uleb128 0x56
 12906 4e50 69000000 		.4byte	.LASF966
 12907 4e54 01       		.byte	0x1
 12908 4e55 1001     		.2byte	0x110
 12909 4e57 2C000000 		.4byte	0x2c
 12910 4e5b CA040000 		.4byte	.LLST47
 12911 4e5f 56       		.uleb128 0x56
 12912 4e60 4E1D0000 		.4byte	.LASF967
 12913 4e64 01       		.byte	0x1
 12914 4e65 1001     		.2byte	0x110
 12915 4e67 2C000000 		.4byte	0x2c
 12916 4e6b EB040000 		.4byte	.LLST48
 12917 4e6f 56       		.uleb128 0x56
 12918 4e70 4B200000 		.4byte	.LASF968
 12919 4e74 01       		.byte	0x1
 12920 4e75 1001     		.2byte	0x110
 12921 4e77 2C000000 		.4byte	0x2c
 12922 4e7b 1D060000 		.4byte	.LLST49
 12923 4e7f 3D       		.uleb128 0x3d
 12924 4e80 15040000 		.4byte	.LASF985
 12925 4e84 01       		.byte	0x1
 12926 4e85 1201     		.2byte	0x112
 12927 4e87 CD000000 		.4byte	0xcd
 12928 4e8b 38070000 		.4byte	.LLST50
 12929 4e8f 3D       		.uleb128 0x3d
 12930 4e90 88210000 		.4byte	.LASF986
 12931 4e94 01       		.byte	0x1
 12932 4e95 1401     		.2byte	0x114
 12933 4e97 2C000000 		.4byte	0x2c
 12934 4e9b B7070000 		.4byte	.LLST51
 12935 4e9f 3D       		.uleb128 0x3d
 12936 4ea0 0D260000 		.4byte	.LASF987
 12937 4ea4 01       		.byte	0x1
 12938 4ea5 1501     		.2byte	0x115
 12939 4ea7 2C000000 		.4byte	0x2c
 12940 4eab AA090000 		.4byte	.LLST52
 12941 4eaf 38       		.uleb128 0x38
 12942 4eb0 96010000 		.4byte	.LVL145
 12943 4eb4 865A0000 		.4byte	0x5a86
 12944 4eb8 00       		.byte	0
 12945 4eb9 51       		.uleb128 0x51
 12946 4eba 860F0000 		.4byte	.LASF988
 12947 4ebe 01       		.byte	0x1
 12948 4ebf 0801     		.2byte	0x108
 12949 4ec1 33000000 		.4byte	0x33
 12950 4ec5 01       		.byte	0x1
 12951 4ec6 FB4E0000 		.4byte	0x4efb
 12952 4eca 52       		.uleb128 0x52
ARM GAS  C:\Users\adrie\AppData\Local\Temp\ccgB8szF.s 			page 229


 12953 4ecb 721B0000 		.4byte	.LASF989
 12954 4ecf 01       		.byte	0x1
 12955 4ed0 0801     		.2byte	0x108
 12956 4ed2 F3000000 		.4byte	0xf3
 12957 4ed6 52       		.uleb128 0x52
 12958 4ed7 242A0000 		.4byte	.LASF957
 12959 4edb 01       		.byte	0x1
 12960 4edc 0801     		.2byte	0x108
 12961 4ede F3000000 		.4byte	0xf3
 12962 4ee2 3C       		.uleb128 0x3c
 12963 4ee3 42130000 		.4byte	.LASF990
 12964 4ee7 01       		.byte	0x1
 12965 4ee8 0A01     		.2byte	0x10a
 12966 4eea 33000000 		.4byte	0x33
 12967 4eee 3C       		.uleb128 0x3c
 12968 4eef 84080000 		.4byte	.LASF958
 12969 4ef3 01       		.byte	0x1
 12970 4ef4 0B01     		.2byte	0x10b
 12971 4ef6 33000000 		.4byte	0x33
 12972 4efa 00       		.byte	0
 12973 4efb 5C       		.uleb128 0x5c
 12974 4efc 72000000 		.4byte	.LASF991
 12975 4f00 01       		.byte	0x1
 12976 4f01 86       		.byte	0x86
 12977 4f02 00000000 		.4byte	.LFB291
 12978 4f06 14030000 		.4byte	.LFE291-.LFB291
 12979 4f0a 01       		.uleb128 0x1
 12980 4f0b 9C       		.byte	0x9c
 12981 4f0c 00550000 		.4byte	0x5500
 12982 4f10 5D       		.uleb128 0x5d
 12983 4f11 04220000 		.4byte	.LASF975
 12984 4f15 01       		.byte	0x1
 12985 4f16 86       		.byte	0x86
 12986 4f17 36440000 		.4byte	0x4436
 12987 4f1b D70A0000 		.4byte	.LLST75
 12988 4f1f 5D       		.uleb128 0x5d
 12989 4f20 05020000 		.4byte	.LASF992
 12990 4f24 01       		.byte	0x1
 12991 4f25 86       		.byte	0x86
 12992 4f26 E8000000 		.4byte	0xe8
 12993 4f2a 110B0000 		.4byte	.LLST76
 12994 4f2e 32       		.uleb128 0x32
 12995 4f2f 0A080000 		.4byte	.LASF993
 12996 4f33 01       		.byte	0x1
 12997 4f34 90       		.byte	0x90
 12998 4f35 E8000000 		.4byte	0xe8
 12999 4f39 05       		.uleb128 0x5
 13000 4f3a 03       		.byte	0x3
 13001 4f3b 00000000 		.4byte	nb_samples.14255
 13002 4f3f 32       		.uleb128 0x32
 13003 4f40 EE2A0000 		.4byte	.LASF980
 13004 4f44 01       		.byte	0x1
 13005 4f45 91       		.byte	0x91
 13006 4f46 CD000000 		.4byte	0xcd
 13007 4f4a 05       		.uleb128 0x5
 13008 4f4b 03       		.byte	0x3
 13009 4f4c 00000000 		.4byte	mustSend.14256
ARM GAS  C:\Users\adrie\AppData\Local\Temp\ccgB8szF.s 			page 230


 13010 4f50 5E       		.uleb128 0x5e
 13011 4f51 10000000 		.4byte	.LBB341
 13012 4f55 AC000000 		.4byte	.LBE341-.LBB341
 13013 4f59 6B4F0000 		.4byte	0x4f6b
 13014 4f5d 5F       		.uleb128 0x5f
 13015 4f5e 6900     		.ascii	"i\000"
 13016 4f60 01       		.byte	0x1
 13017 4f61 94       		.byte	0x94
 13018 4f62 E8000000 		.4byte	0xe8
 13019 4f66 4B0B0000 		.4byte	.LLST77
 13020 4f6a 00       		.byte	0
 13021 4f6b 3F       		.uleb128 0x3f
 13022 4f6c 10020000 		.4byte	.Ldebug_ranges0+0x210
 13023 4f70 F6540000 		.4byte	0x54f6
 13024 4f74 60       		.uleb128 0x60
 13025 4f75 EC0D0000 		.4byte	.LASF965
 13026 4f79 01       		.byte	0x1
 13027 4f7a C6       		.byte	0xc6
 13028 4f7b 2C000000 		.4byte	0x2c
 13029 4f7f 810B0000 		.4byte	.LLST78
 13030 4f83 60       		.uleb128 0x60
 13031 4f84 69000000 		.4byte	.LASF966
 13032 4f88 01       		.byte	0x1
 13033 4f89 C7       		.byte	0xc7
 13034 4f8a 2C000000 		.4byte	0x2c
 13035 4f8e 550C0000 		.4byte	.LLST79
 13036 4f92 60       		.uleb128 0x60
 13037 4f93 4E1D0000 		.4byte	.LASF967
 13038 4f97 01       		.byte	0x1
 13039 4f98 C8       		.byte	0xc8
 13040 4f99 2C000000 		.4byte	0x2c
 13041 4f9d 0D0D0000 		.4byte	.LLST80
 13042 4fa1 60       		.uleb128 0x60
 13043 4fa2 4B200000 		.4byte	.LASF968
 13044 4fa6 01       		.byte	0x1
 13045 4fa7 C9       		.byte	0xc9
 13046 4fa8 2C000000 		.4byte	0x2c
 13047 4fac 500D0000 		.4byte	.LLST81
 13048 4fb0 60       		.uleb128 0x60
 13049 4fb1 281A0000 		.4byte	.LASF994
 13050 4fb5 01       		.byte	0x1
 13051 4fb6 CA       		.byte	0xca
 13052 4fb7 2C000000 		.4byte	0x2c
 13053 4fbb 240E0000 		.4byte	.LLST82
 13054 4fbf 60       		.uleb128 0x60
 13055 4fc0 4C290000 		.4byte	.LASF995
 13056 4fc4 01       		.byte	0x1
 13057 4fc5 CB       		.byte	0xcb
 13058 4fc6 2C000000 		.4byte	0x2c
 13059 4fca 460E0000 		.4byte	.LLST83
 13060 4fce 60       		.uleb128 0x60
 13061 4fcf E7010000 		.4byte	.LASF996
 13062 4fd3 01       		.byte	0x1
 13063 4fd4 CC       		.byte	0xcc
 13064 4fd5 2C000000 		.4byte	0x2c
 13065 4fd9 660E0000 		.4byte	.LLST84
 13066 4fdd 60       		.uleb128 0x60
ARM GAS  C:\Users\adrie\AppData\Local\Temp\ccgB8szF.s 			page 231


 13067 4fde 241E0000 		.4byte	.LASF997
 13068 4fe2 01       		.byte	0x1
 13069 4fe3 CD       		.byte	0xcd
 13070 4fe4 2C000000 		.4byte	0x2c
 13071 4fe8 860E0000 		.4byte	.LLST85
 13072 4fec 5E       		.uleb128 0x5e
 13073 4fed 06020000 		.4byte	.LBB367
 13074 4ff1 BE000000 		.4byte	.LBE367-.LBB367
 13075 4ff5 72520000 		.4byte	0x5272
 13076 4ff9 33       		.uleb128 0x33
 13077 4ffa 5B140000 		.4byte	.LASF998
 13078 4ffe 01       		.byte	0x1
 13079 4fff E0       		.byte	0xe0
 13080 5000 2C000000 		.4byte	0x2c
 13081 5004 33       		.uleb128 0x33
 13082 5005 4E100000 		.4byte	.LASF999
 13083 5009 01       		.byte	0x1
 13084 500a E1       		.byte	0xe1
 13085 500b 2C000000 		.4byte	0x2c
 13086 500f 33       		.uleb128 0x33
 13087 5010 20270000 		.4byte	.LASF1000
 13088 5014 01       		.byte	0x1
 13089 5015 E2       		.byte	0xe2
 13090 5016 2C000000 		.4byte	0x2c
 13091 501a 33       		.uleb128 0x33
 13092 501b CD010000 		.4byte	.LASF1001
 13093 501f 01       		.byte	0x1
 13094 5020 E3       		.byte	0xe3
 13095 5021 2C000000 		.4byte	0x2c
 13096 5025 61       		.uleb128 0x61
 13097 5026 A6550000 		.4byte	0x55a6
 13098 502a 06020000 		.4byte	.LBB368
 13099 502e 90020000 		.4byte	.Ldebug_ranges0+0x290
 13100 5032 01       		.byte	0x1
 13101 5033 DB       		.byte	0xdb
 13102 5034 49510000 		.4byte	0x5149
 13103 5038 41       		.uleb128 0x41
 13104 5039 B3550000 		.4byte	0x55b3
 13105 503d A60E0000 		.4byte	.LLST95
 13106 5041 45       		.uleb128 0x45
 13107 5042 57560000 		.4byte	0x5657
 13108 5046 06020000 		.4byte	.LBB370
 13109 504a 0E000000 		.4byte	.LBE370-.LBB370
 13110 504e 06       		.byte	0x6
 13111 504f 1C01     		.2byte	0x11c
 13112 5051 97500000 		.4byte	0x5097
 13113 5055 45       		.uleb128 0x45
 13114 5056 69560000 		.4byte	0x5669
 13115 505a 06020000 		.4byte	.LBB372
 13116 505e 06000000 		.4byte	.LBE372-.LBB372
 13117 5062 04       		.byte	0x4
 13118 5063 5C01     		.2byte	0x15c
 13119 5065 84500000 		.4byte	0x5084
 13120 5069 4C       		.uleb128 0x4c
 13121 506a 72560000 		.4byte	0x5672
 13122 506e 06020000 		.4byte	.LBB373
 13123 5072 06000000 		.4byte	.LBE373-.LBB373
ARM GAS  C:\Users\adrie\AppData\Local\Temp\ccgB8szF.s 			page 232


 13124 5076 11       		.byte	0x11
 13125 5077 BF01     		.2byte	0x1bf
 13126 5079 41       		.uleb128 0x41
 13127 507a 7F560000 		.4byte	0x567f
 13128 507e CE0E0000 		.4byte	.LLST96
 13129 5082 00       		.byte	0
 13130 5083 00       		.byte	0
 13131 5084 38       		.uleb128 0x38
 13132 5085 10020000 		.4byte	.LVL269
 13133 5089 9A5A0000 		.4byte	0x5a9a
 13134 508d 38       		.uleb128 0x38
 13135 508e 14020000 		.4byte	.LVL270
 13136 5092 A55A0000 		.4byte	0x5aa5
 13137 5096 00       		.byte	0
 13138 5097 40       		.uleb128 0x40
 13139 5098 C6550000 		.4byte	0x55c6
 13140 509c 14020000 		.4byte	.LBB375
 13141 50a0 A8020000 		.4byte	.Ldebug_ranges0+0x2a8
 13142 50a4 06       		.byte	0x6
 13143 50a5 1D01     		.2byte	0x11d
 13144 50a7 C7500000 		.4byte	0x50c7
 13145 50ab 41       		.uleb128 0x41
 13146 50ac D3550000 		.4byte	0x55d3
 13147 50b0 E30E0000 		.4byte	.LLST97
 13148 50b4 38       		.uleb128 0x38
 13149 50b5 18020000 		.4byte	.LVL271
 13150 50b9 FE5A0000 		.4byte	0x5afe
 13151 50bd 38       		.uleb128 0x38
 13152 50be C2020000 		.4byte	.LVL291
 13153 50c2 095B0000 		.4byte	0x5b09
 13154 50c6 00       		.byte	0
 13155 50c7 45       		.uleb128 0x45
 13156 50c8 3C560000 		.4byte	0x563c
 13157 50cc 24020000 		.4byte	.LBB378
 13158 50d0 28000000 		.4byte	.LBE378-.LBB378
 13159 50d4 06       		.byte	0x6
 13160 50d5 1F01     		.2byte	0x11f
 13161 50d7 3F510000 		.4byte	0x513f
 13162 50db 46       		.uleb128 0x46
 13163 50dc 24020000 		.4byte	.LBB379
 13164 50e0 28000000 		.4byte	.LBE379-.LBB379
 13165 50e4 4A       		.uleb128 0x4a
 13166 50e5 49560000 		.4byte	0x5649
 13167 50e9 45       		.uleb128 0x45
 13168 50ea 60560000 		.4byte	0x5660
 13169 50ee 44020000 		.4byte	.LBB380
 13170 50f2 08000000 		.4byte	.LBE380-.LBB380
 13171 50f6 04       		.byte	0x4
 13172 50f7 7301     		.2byte	0x173
 13173 50f9 18510000 		.4byte	0x5118
 13174 50fd 4C       		.uleb128 0x4c
 13175 50fe 72560000 		.4byte	0x5672
 13176 5102 44020000 		.4byte	.LBB381
 13177 5106 08000000 		.4byte	.LBE381-.LBB381
 13178 510a 11       		.byte	0x11
 13179 510b CD01     		.2byte	0x1cd
 13180 510d 41       		.uleb128 0x41
ARM GAS  C:\Users\adrie\AppData\Local\Temp\ccgB8szF.s 			page 233


 13181 510e 7F560000 		.4byte	0x567f
 13182 5112 0B0F0000 		.4byte	.LLST98
 13183 5116 00       		.byte	0
 13184 5117 00       		.byte	0
 13185 5118 38       		.uleb128 0x38
 13186 5119 28020000 		.4byte	.LVL274
 13187 511d B05A0000 		.4byte	0x5ab0
 13188 5121 38       		.uleb128 0x38
 13189 5122 2C020000 		.4byte	.LVL275
 13190 5126 BB5A0000 		.4byte	0x5abb
 13191 512a 48       		.uleb128 0x48
 13192 512b 44020000 		.4byte	.LVL276
 13193 512f C65A0000 		.4byte	0x5ac6
 13194 5133 37       		.uleb128 0x37
 13195 5134 01       		.uleb128 0x1
 13196 5135 50       		.byte	0x50
 13197 5136 05       		.uleb128 0x5
 13198 5137 03       		.byte	0x3
 13199 5138 00000000 		.4byte	.LANCHOR1
 13200 513c 00       		.byte	0
 13201 513d 00       		.byte	0
 13202 513e 00       		.byte	0
 13203 513f 38       		.uleb128 0x38
 13204 5140 24020000 		.4byte	.LVL273
 13205 5144 145B0000 		.4byte	0x5b14
 13206 5148 00       		.byte	0
 13207 5149 61       		.uleb128 0x61
 13208 514a F34D0000 		.4byte	0x4df3
 13209 514e 4E020000 		.4byte	.LBB385
 13210 5152 C0020000 		.4byte	.Ldebug_ranges0+0x2c0
 13211 5156 01       		.byte	0x1
 13212 5157 E0       		.byte	0xe0
 13213 5158 84510000 		.4byte	0x5184
 13214 515c 41       		.uleb128 0x41
 13215 515d 044E0000 		.4byte	0x4e04
 13216 5161 1F0F0000 		.4byte	.LLST99
 13217 5165 42       		.uleb128 0x42
 13218 5166 C0020000 		.4byte	.Ldebug_ranges0+0x2c0
 13219 516a 43       		.uleb128 0x43
 13220 516b D3570000 		.4byte	0x57d3
 13221 516f 330F0000 		.4byte	.LLST100
 13222 5173 44       		.uleb128 0x44
 13223 5174 D8570000 		.4byte	0x57d8
 13224 5178 F8020000 		.4byte	.Ldebug_ranges0+0x2f8
 13225 517c 4A       		.uleb128 0x4a
 13226 517d E1570000 		.4byte	0x57e1
 13227 5181 00       		.byte	0
 13228 5182 00       		.byte	0
 13229 5183 00       		.byte	0
 13230 5184 61       		.uleb128 0x61
 13231 5185 F34D0000 		.4byte	0x4df3
 13232 5189 5A020000 		.4byte	.LBB397
 13233 518d 20030000 		.4byte	.Ldebug_ranges0+0x320
 13234 5191 01       		.byte	0x1
 13235 5192 E1       		.byte	0xe1
 13236 5193 BB510000 		.4byte	0x51bb
 13237 5197 41       		.uleb128 0x41
ARM GAS  C:\Users\adrie\AppData\Local\Temp\ccgB8szF.s 			page 234


 13238 5198 044E0000 		.4byte	0x4e04
 13239 519c 650F0000 		.4byte	.LLST101
 13240 51a0 42       		.uleb128 0x42
 13241 51a1 20030000 		.4byte	.Ldebug_ranges0+0x320
 13242 51a5 4A       		.uleb128 0x4a
 13243 51a6 D3570000 		.4byte	0x57d3
 13244 51aa 44       		.uleb128 0x44
 13245 51ab D8570000 		.4byte	0x57d8
 13246 51af 58030000 		.4byte	.Ldebug_ranges0+0x358
 13247 51b3 4A       		.uleb128 0x4a
 13248 51b4 E1570000 		.4byte	0x57e1
 13249 51b8 00       		.byte	0
 13250 51b9 00       		.byte	0
 13251 51ba 00       		.byte	0
 13252 51bb 61       		.uleb128 0x61
 13253 51bc F34D0000 		.4byte	0x4df3
 13254 51c0 5E020000 		.4byte	.LBB408
 13255 51c4 80030000 		.4byte	.Ldebug_ranges0+0x380
 13256 51c8 01       		.byte	0x1
 13257 51c9 E2       		.byte	0xe2
 13258 51ca F2510000 		.4byte	0x51f2
 13259 51ce 41       		.uleb128 0x41
 13260 51cf 044E0000 		.4byte	0x4e04
 13261 51d3 790F0000 		.4byte	.LLST102
 13262 51d7 42       		.uleb128 0x42
 13263 51d8 80030000 		.4byte	.Ldebug_ranges0+0x380
 13264 51dc 4A       		.uleb128 0x4a
 13265 51dd D3570000 		.4byte	0x57d3
 13266 51e1 44       		.uleb128 0x44
 13267 51e2 D8570000 		.4byte	0x57d8
 13268 51e6 B8030000 		.4byte	.Ldebug_ranges0+0x3b8
 13269 51ea 4A       		.uleb128 0x4a
 13270 51eb E1570000 		.4byte	0x57e1
 13271 51ef 00       		.byte	0
 13272 51f0 00       		.byte	0
 13273 51f1 00       		.byte	0
 13274 51f2 61       		.uleb128 0x61
 13275 51f3 F34D0000 		.4byte	0x4df3
 13276 51f7 62020000 		.4byte	.LBB419
 13277 51fb E0030000 		.4byte	.Ldebug_ranges0+0x3e0
 13278 51ff 01       		.byte	0x1
 13279 5200 E3       		.byte	0xe3
 13280 5201 29520000 		.4byte	0x5229
 13281 5205 41       		.uleb128 0x41
 13282 5206 044E0000 		.4byte	0x4e04
 13283 520a 8D0F0000 		.4byte	.LLST103
 13284 520e 42       		.uleb128 0x42
 13285 520f E0030000 		.4byte	.Ldebug_ranges0+0x3e0
 13286 5213 4A       		.uleb128 0x4a
 13287 5214 D3570000 		.4byte	0x57d3
 13288 5218 44       		.uleb128 0x44
 13289 5219 D8570000 		.4byte	0x57d8
 13290 521d 10040000 		.4byte	.Ldebug_ranges0+0x410
 13291 5221 4A       		.uleb128 0x4a
 13292 5222 E1570000 		.4byte	0x57e1
 13293 5226 00       		.byte	0
 13294 5227 00       		.byte	0
ARM GAS  C:\Users\adrie\AppData\Local\Temp\ccgB8szF.s 			page 235


 13295 5228 00       		.byte	0
 13296 5229 36       		.uleb128 0x36
 13297 522a AC020000 		.4byte	.LVL288
 13298 522e 6B4C0000 		.4byte	0x4c6b
 13299 5232 4F520000 		.4byte	0x524f
 13300 5236 37       		.uleb128 0x37
 13301 5237 01       		.uleb128 0x1
 13302 5238 50       		.byte	0x50
 13303 5239 02       		.uleb128 0x2
 13304 523a 7B       		.byte	0x7b
 13305 523b 00       		.sleb128 0
 13306 523c 37       		.uleb128 0x37
 13307 523d 01       		.uleb128 0x1
 13308 523e 51       		.byte	0x51
 13309 523f 02       		.uleb128 0x2
 13310 5240 7A       		.byte	0x7a
 13311 5241 00       		.sleb128 0
 13312 5242 37       		.uleb128 0x37
 13313 5243 01       		.uleb128 0x1
 13314 5244 52       		.byte	0x52
 13315 5245 02       		.uleb128 0x2
 13316 5246 79       		.byte	0x79
 13317 5247 00       		.sleb128 0
 13318 5248 37       		.uleb128 0x37
 13319 5249 01       		.uleb128 0x1
 13320 524a 53       		.byte	0x53
 13321 524b 02       		.uleb128 0x2
 13322 524c 75       		.byte	0x75
 13323 524d 00       		.sleb128 0
 13324 524e 00       		.byte	0
 13325 524f 48       		.uleb128 0x48
 13326 5250 B8020000 		.4byte	.LVL289
 13327 5254 294E0000 		.4byte	0x4e29
 13328 5258 37       		.uleb128 0x37
 13329 5259 01       		.uleb128 0x1
 13330 525a 50       		.byte	0x50
 13331 525b 02       		.uleb128 0x2
 13332 525c 7B       		.byte	0x7b
 13333 525d 00       		.sleb128 0
 13334 525e 37       		.uleb128 0x37
 13335 525f 01       		.uleb128 0x1
 13336 5260 51       		.byte	0x51
 13337 5261 02       		.uleb128 0x2
 13338 5262 7A       		.byte	0x7a
 13339 5263 00       		.sleb128 0
 13340 5264 37       		.uleb128 0x37
 13341 5265 01       		.uleb128 0x1
 13342 5266 52       		.byte	0x52
 13343 5267 02       		.uleb128 0x2
 13344 5268 79       		.byte	0x79
 13345 5269 00       		.sleb128 0
 13346 526a 37       		.uleb128 0x37
 13347 526b 01       		.uleb128 0x1
 13348 526c 53       		.byte	0x53
 13349 526d 02       		.uleb128 0x2
 13350 526e 75       		.byte	0x75
 13351 526f 00       		.sleb128 0
ARM GAS  C:\Users\adrie\AppData\Local\Temp\ccgB8szF.s 			page 236


 13352 5270 00       		.byte	0
 13353 5271 00       		.byte	0
 13354 5272 61       		.uleb128 0x61
 13355 5273 DD4C0000 		.4byte	0x4cdd
 13356 5277 28010000 		.4byte	.LBB343
 13357 527b 28020000 		.4byte	.Ldebug_ranges0+0x228
 13358 527f 01       		.byte	0x1
 13359 5280 C8       		.byte	0xc8
 13360 5281 A5520000 		.4byte	0x52a5
 13361 5285 41       		.uleb128 0x41
 13362 5286 EE4C0000 		.4byte	0x4cee
 13363 528a A10F0000 		.4byte	.LLST86
 13364 528e 48       		.uleb128 0x48
 13365 528f 32010000 		.4byte	.LVL245
 13366 5293 8C560000 		.4byte	0x568c
 13367 5297 37       		.uleb128 0x37
 13368 5298 01       		.uleb128 0x1
 13369 5299 50       		.byte	0x50
 13370 529a 03       		.uleb128 0x3
 13371 529b 91       		.byte	0x91
 13372 529c A47F     		.sleb128 -92
 13373 529e 37       		.uleb128 0x37
 13374 529f 01       		.uleb128 0x1
 13375 52a0 51       		.byte	0x51
 13376 52a1 01       		.uleb128 0x1
 13377 52a2 36       		.byte	0x36
 13378 52a3 00       		.byte	0
 13379 52a4 00       		.byte	0
 13380 52a5 61       		.uleb128 0x61
 13381 52a6 DD4C0000 		.4byte	0x4cdd
 13382 52aa 32010000 		.4byte	.LBB347
 13383 52ae 40020000 		.4byte	.Ldebug_ranges0+0x240
 13384 52b2 01       		.byte	0x1
 13385 52b3 C9       		.byte	0xc9
 13386 52b4 D8520000 		.4byte	0x52d8
 13387 52b8 41       		.uleb128 0x41
 13388 52b9 EE4C0000 		.4byte	0x4cee
 13389 52bd B50F0000 		.4byte	.LLST87
 13390 52c1 48       		.uleb128 0x48
 13391 52c2 3E010000 		.4byte	.LVL247
 13392 52c6 8C560000 		.4byte	0x568c
 13393 52ca 37       		.uleb128 0x37
 13394 52cb 01       		.uleb128 0x1
 13395 52cc 50       		.byte	0x50
 13396 52cd 03       		.uleb128 0x3
 13397 52ce 91       		.byte	0x91
 13398 52cf AC7F     		.sleb128 -84
 13399 52d1 37       		.uleb128 0x37
 13400 52d2 01       		.uleb128 0x1
 13401 52d3 51       		.byte	0x51
 13402 52d4 01       		.uleb128 0x1
 13403 52d5 37       		.byte	0x37
 13404 52d6 00       		.byte	0
 13405 52d7 00       		.byte	0
 13406 52d8 4B       		.uleb128 0x4b
 13407 52d9 DD4C0000 		.4byte	0x4cdd
 13408 52dd 52010000 		.4byte	.LBB351
ARM GAS  C:\Users\adrie\AppData\Local\Temp\ccgB8szF.s 			page 237


 13409 52e1 08000000 		.4byte	.LBE351-.LBB351
 13410 52e5 01       		.byte	0x1
 13411 52e6 CC       		.byte	0xcc
 13412 52e7 0A530000 		.4byte	0x530a
 13413 52eb 41       		.uleb128 0x41
 13414 52ec EE4C0000 		.4byte	0x4cee
 13415 52f0 C90F0000 		.4byte	.LLST88
 13416 52f4 48       		.uleb128 0x48
 13417 52f5 5A010000 		.4byte	.LVL251
 13418 52f9 8C560000 		.4byte	0x568c
 13419 52fd 37       		.uleb128 0x37
 13420 52fe 01       		.uleb128 0x1
 13421 52ff 50       		.byte	0x50
 13422 5300 02       		.uleb128 0x2
 13423 5301 91       		.byte	0x91
 13424 5302 44       		.sleb128 -60
 13425 5303 37       		.uleb128 0x37
 13426 5304 01       		.uleb128 0x1
 13427 5305 51       		.byte	0x51
 13428 5306 01       		.uleb128 0x1
 13429 5307 36       		.byte	0x36
 13430 5308 00       		.byte	0
 13431 5309 00       		.byte	0
 13432 530a 4B       		.uleb128 0x4b
 13433 530b DD4C0000 		.4byte	0x4cdd
 13434 530f 5A010000 		.4byte	.LBB353
 13435 5313 08000000 		.4byte	.LBE353-.LBB353
 13436 5317 01       		.byte	0x1
 13437 5318 CD       		.byte	0xcd
 13438 5319 3C530000 		.4byte	0x533c
 13439 531d 41       		.uleb128 0x41
 13440 531e EE4C0000 		.4byte	0x4cee
 13441 5322 DD0F0000 		.4byte	.LLST89
 13442 5326 48       		.uleb128 0x48
 13443 5327 62010000 		.4byte	.LVL252
 13444 532b 8C560000 		.4byte	0x568c
 13445 532f 37       		.uleb128 0x37
 13446 5330 01       		.uleb128 0x1
 13447 5331 50       		.byte	0x50
 13448 5332 02       		.uleb128 0x2
 13449 5333 91       		.byte	0x91
 13450 5334 4C       		.sleb128 -52
 13451 5335 37       		.uleb128 0x37
 13452 5336 01       		.uleb128 0x1
 13453 5337 51       		.byte	0x51
 13454 5338 01       		.uleb128 0x1
 13455 5339 37       		.byte	0x37
 13456 533a 00       		.byte	0
 13457 533b 00       		.byte	0
 13458 533c 61       		.uleb128 0x61
 13459 533d A94D0000 		.4byte	0x4da9
 13460 5341 66010000 		.4byte	.LBB355
 13461 5345 58020000 		.4byte	.Ldebug_ranges0+0x258
 13462 5349 01       		.byte	0x1
 13463 534a D3       		.byte	0xd3
 13464 534b 7D530000 		.4byte	0x537d
 13465 534f 41       		.uleb128 0x41
ARM GAS  C:\Users\adrie\AppData\Local\Temp\ccgB8szF.s 			page 238


 13466 5350 E64D0000 		.4byte	0x4de6
 13467 5354 F10F0000 		.4byte	.LLST90
 13468 5358 41       		.uleb128 0x41
 13469 5359 DA4D0000 		.4byte	0x4dda
 13470 535d 4D100000 		.4byte	.LLST91
 13471 5361 41       		.uleb128 0x41
 13472 5362 CE4D0000 		.4byte	0x4dce
 13473 5366 60100000 		.4byte	.LLST92
 13474 536a 41       		.uleb128 0x41
 13475 536b C24D0000 		.4byte	0x4dc2
 13476 536f DC100000 		.4byte	.LLST93
 13477 5373 41       		.uleb128 0x41
 13478 5374 B64D0000 		.4byte	0x4db6
 13479 5378 38110000 		.4byte	.LLST94
 13480 537c 00       		.byte	0
 13481 537d 36       		.uleb128 0x36
 13482 537e C6000000 		.4byte	.LVL233
 13483 5382 205B0000 		.4byte	0x5b20
 13484 5386 9B530000 		.4byte	0x539b
 13485 538a 37       		.uleb128 0x37
 13486 538b 01       		.uleb128 0x1
 13487 538c 50       		.byte	0x50
 13488 538d 03       		.uleb128 0x3
 13489 538e 0A       		.byte	0xa
 13490 538f 0004     		.2byte	0x400
 13491 5391 37       		.uleb128 0x37
 13492 5392 01       		.uleb128 0x1
 13493 5393 51       		.byte	0x51
 13494 5394 05       		.uleb128 0x5
 13495 5395 03       		.byte	0x3
 13496 5396 00000000 		.4byte	micRight_cmplx_input
 13497 539a 00       		.byte	0
 13498 539b 36       		.uleb128 0x36
 13499 539c D0000000 		.4byte	.LVL234
 13500 53a0 205B0000 		.4byte	0x5b20
 13501 53a4 B9530000 		.4byte	0x53b9
 13502 53a8 37       		.uleb128 0x37
 13503 53a9 01       		.uleb128 0x1
 13504 53aa 50       		.byte	0x50
 13505 53ab 03       		.uleb128 0x3
 13506 53ac 0A       		.byte	0xa
 13507 53ad 0004     		.2byte	0x400
 13508 53af 37       		.uleb128 0x37
 13509 53b0 01       		.uleb128 0x1
 13510 53b1 51       		.byte	0x51
 13511 53b2 05       		.uleb128 0x5
 13512 53b3 03       		.byte	0x3
 13513 53b4 00000000 		.4byte	micLeft_cmplx_input
 13514 53b8 00       		.byte	0
 13515 53b9 36       		.uleb128 0x36
 13516 53ba DA000000 		.4byte	.LVL235
 13517 53be 205B0000 		.4byte	0x5b20
 13518 53c2 D7530000 		.4byte	0x53d7
 13519 53c6 37       		.uleb128 0x37
 13520 53c7 01       		.uleb128 0x1
 13521 53c8 50       		.byte	0x50
 13522 53c9 03       		.uleb128 0x3
ARM GAS  C:\Users\adrie\AppData\Local\Temp\ccgB8szF.s 			page 239


 13523 53ca 0A       		.byte	0xa
 13524 53cb 0004     		.2byte	0x400
 13525 53cd 37       		.uleb128 0x37
 13526 53ce 01       		.uleb128 0x1
 13527 53cf 51       		.byte	0x51
 13528 53d0 05       		.uleb128 0x5
 13529 53d1 03       		.byte	0x3
 13530 53d2 00000000 		.4byte	micFront_cmplx_input
 13531 53d6 00       		.byte	0
 13532 53d7 36       		.uleb128 0x36
 13533 53d8 E4000000 		.4byte	.LVL236
 13534 53dc 205B0000 		.4byte	0x5b20
 13535 53e0 F5530000 		.4byte	0x53f5
 13536 53e4 37       		.uleb128 0x37
 13537 53e5 01       		.uleb128 0x1
 13538 53e6 50       		.byte	0x50
 13539 53e7 03       		.uleb128 0x3
 13540 53e8 0A       		.byte	0xa
 13541 53e9 0004     		.2byte	0x400
 13542 53eb 37       		.uleb128 0x37
 13543 53ec 01       		.uleb128 0x1
 13544 53ed 51       		.byte	0x51
 13545 53ee 05       		.uleb128 0x5
 13546 53ef 03       		.byte	0x3
 13547 53f0 00000000 		.4byte	micBack_cmplx_input
 13548 53f4 00       		.byte	0
 13549 53f5 36       		.uleb128 0x36
 13550 53f6 F0000000 		.4byte	.LVL237
 13551 53fa 2B5B0000 		.4byte	0x5b2b
 13552 53fe 1C540000 		.4byte	0x541c
 13553 5402 37       		.uleb128 0x37
 13554 5403 01       		.uleb128 0x1
 13555 5404 50       		.byte	0x50
 13556 5405 05       		.uleb128 0x5
 13557 5406 03       		.byte	0x3
 13558 5407 00000000 		.4byte	micRight_cmplx_input
 13559 540b 37       		.uleb128 0x37
 13560 540c 01       		.uleb128 0x1
 13561 540d 51       		.byte	0x51
 13562 540e 05       		.uleb128 0x5
 13563 540f 03       		.byte	0x3
 13564 5410 00000000 		.4byte	micRight_output
 13565 5414 37       		.uleb128 0x37
 13566 5415 01       		.uleb128 0x1
 13567 5416 52       		.byte	0x52
 13568 5417 03       		.uleb128 0x3
 13569 5418 0A       		.byte	0xa
 13570 5419 0004     		.2byte	0x400
 13571 541b 00       		.byte	0
 13572 541c 36       		.uleb128 0x36
 13573 541d FC000000 		.4byte	.LVL238
 13574 5421 2B5B0000 		.4byte	0x5b2b
 13575 5425 43540000 		.4byte	0x5443
 13576 5429 37       		.uleb128 0x37
 13577 542a 01       		.uleb128 0x1
 13578 542b 50       		.byte	0x50
 13579 542c 05       		.uleb128 0x5
ARM GAS  C:\Users\adrie\AppData\Local\Temp\ccgB8szF.s 			page 240


 13580 542d 03       		.byte	0x3
 13581 542e 00000000 		.4byte	micLeft_cmplx_input
 13582 5432 37       		.uleb128 0x37
 13583 5433 01       		.uleb128 0x1
 13584 5434 51       		.byte	0x51
 13585 5435 05       		.uleb128 0x5
 13586 5436 03       		.byte	0x3
 13587 5437 00000000 		.4byte	micLeft_output
 13588 543b 37       		.uleb128 0x37
 13589 543c 01       		.uleb128 0x1
 13590 543d 52       		.byte	0x52
 13591 543e 03       		.uleb128 0x3
 13592 543f 0A       		.byte	0xa
 13593 5440 0004     		.2byte	0x400
 13594 5442 00       		.byte	0
 13595 5443 36       		.uleb128 0x36
 13596 5444 08010000 		.4byte	.LVL239
 13597 5448 2B5B0000 		.4byte	0x5b2b
 13598 544c 6A540000 		.4byte	0x546a
 13599 5450 37       		.uleb128 0x37
 13600 5451 01       		.uleb128 0x1
 13601 5452 50       		.byte	0x50
 13602 5453 05       		.uleb128 0x5
 13603 5454 03       		.byte	0x3
 13604 5455 00000000 		.4byte	micFront_cmplx_input
 13605 5459 37       		.uleb128 0x37
 13606 545a 01       		.uleb128 0x1
 13607 545b 51       		.byte	0x51
 13608 545c 05       		.uleb128 0x5
 13609 545d 03       		.byte	0x3
 13610 545e 00000000 		.4byte	micFront_output
 13611 5462 37       		.uleb128 0x37
 13612 5463 01       		.uleb128 0x1
 13613 5464 52       		.byte	0x52
 13614 5465 03       		.uleb128 0x3
 13615 5466 0A       		.byte	0xa
 13616 5467 0004     		.2byte	0x400
 13617 5469 00       		.byte	0
 13618 546a 36       		.uleb128 0x36
 13619 546b 14010000 		.4byte	.LVL240
 13620 546f 2B5B0000 		.4byte	0x5b2b
 13621 5473 91540000 		.4byte	0x5491
 13622 5477 37       		.uleb128 0x37
 13623 5478 01       		.uleb128 0x1
 13624 5479 50       		.byte	0x50
 13625 547a 05       		.uleb128 0x5
 13626 547b 03       		.byte	0x3
 13627 547c 00000000 		.4byte	micBack_cmplx_input
 13628 5480 37       		.uleb128 0x37
 13629 5481 01       		.uleb128 0x1
 13630 5482 51       		.byte	0x51
 13631 5483 05       		.uleb128 0x5
 13632 5484 03       		.byte	0x3
 13633 5485 00000000 		.4byte	micBack_output
 13634 5489 37       		.uleb128 0x37
 13635 548a 01       		.uleb128 0x1
 13636 548b 52       		.byte	0x52
ARM GAS  C:\Users\adrie\AppData\Local\Temp\ccgB8szF.s 			page 241


 13637 548c 03       		.uleb128 0x3
 13638 548d 0A       		.byte	0xa
 13639 548e 0004     		.2byte	0x400
 13640 5490 00       		.byte	0
 13641 5491 36       		.uleb128 0x36
 13642 5492 1C010000 		.4byte	.LVL241
 13643 5496 DD4C0000 		.4byte	0x4cdd
 13644 549a AB540000 		.4byte	0x54ab
 13645 549e 37       		.uleb128 0x37
 13646 549f 01       		.uleb128 0x1
 13647 54a0 50       		.byte	0x50
 13648 54a1 03       		.uleb128 0x3
 13649 54a2 91       		.byte	0x91
 13650 54a3 947F     		.sleb128 -108
 13651 54a5 37       		.uleb128 0x37
 13652 54a6 01       		.uleb128 0x1
 13653 54a7 51       		.byte	0x51
 13654 54a8 01       		.uleb128 0x1
 13655 54a9 35       		.byte	0x35
 13656 54aa 00       		.byte	0
 13657 54ab 36       		.uleb128 0x36
 13658 54ac 28010000 		.4byte	.LVL243
 13659 54b0 DD4C0000 		.4byte	0x4cdd
 13660 54b4 C5540000 		.4byte	0x54c5
 13661 54b8 37       		.uleb128 0x37
 13662 54b9 01       		.uleb128 0x1
 13663 54ba 50       		.byte	0x50
 13664 54bb 03       		.uleb128 0x3
 13665 54bc 91       		.byte	0x91
 13666 54bd 9C7F     		.sleb128 -100
 13667 54bf 37       		.uleb128 0x37
 13668 54c0 01       		.uleb128 0x1
 13669 54c1 51       		.byte	0x51
 13670 54c2 01       		.uleb128 0x1
 13671 54c3 34       		.byte	0x34
 13672 54c4 00       		.byte	0
 13673 54c5 36       		.uleb128 0x36
 13674 54c6 4A010000 		.4byte	.LVL249
 13675 54ca DD4C0000 		.4byte	0x4cdd
 13676 54ce DF540000 		.4byte	0x54df
 13677 54d2 37       		.uleb128 0x37
 13678 54d3 01       		.uleb128 0x1
 13679 54d4 50       		.byte	0x50
 13680 54d5 03       		.uleb128 0x3
 13681 54d6 91       		.byte	0x91
 13682 54d7 B47F     		.sleb128 -76
 13683 54d9 37       		.uleb128 0x37
 13684 54da 01       		.uleb128 0x1
 13685 54db 51       		.byte	0x51
 13686 54dc 01       		.uleb128 0x1
 13687 54dd 35       		.byte	0x35
 13688 54de 00       		.byte	0
 13689 54df 48       		.uleb128 0x48
 13690 54e0 52010000 		.4byte	.LVL250
 13691 54e4 DD4C0000 		.4byte	0x4cdd
 13692 54e8 37       		.uleb128 0x37
 13693 54e9 01       		.uleb128 0x1
ARM GAS  C:\Users\adrie\AppData\Local\Temp\ccgB8szF.s 			page 242


 13694 54ea 50       		.byte	0x50
 13695 54eb 03       		.uleb128 0x3
 13696 54ec 91       		.byte	0x91
 13697 54ed BC7F     		.sleb128 -68
 13698 54ef 37       		.uleb128 0x37
 13699 54f0 01       		.uleb128 0x1
 13700 54f1 51       		.byte	0x51
 13701 54f2 01       		.uleb128 0x1
 13702 54f3 34       		.byte	0x34
 13703 54f4 00       		.byte	0
 13704 54f5 00       		.byte	0
 13705 54f6 38       		.uleb128 0x38
 13706 54f7 C8020000 		.4byte	.LVL293
 13707 54fb 865A0000 		.4byte	0x5a86
 13708 54ff 00       		.byte	0
 13709 5500 5C       		.uleb128 0x5c
 13710 5501 4C1C0000 		.4byte	.LASF1002
 13711 5505 01       		.byte	0x1
 13712 5506 55       		.byte	0x55
 13713 5507 00000000 		.4byte	.LFB290
 13714 550b C0000000 		.4byte	.LFE290-.LFB290
 13715 550f 01       		.uleb128 0x1
 13716 5510 9C       		.byte	0x9c
 13717 5511 A6550000 		.4byte	0x55a6
 13718 5515 5D       		.uleb128 0x5d
 13719 5516 04220000 		.4byte	.LASF975
 13720 551a 01       		.byte	0x1
 13721 551b 55       		.byte	0x55
 13722 551c 87430000 		.4byte	0x4387
 13723 5520 4B110000 		.4byte	.LLST38
 13724 5524 60       		.uleb128 0x60
 13725 5525 6F010000 		.4byte	.LASF974
 13726 5529 01       		.byte	0x1
 13727 552a 56       		.byte	0x56
 13728 552b 25000000 		.4byte	0x25
 13729 552f 79110000 		.4byte	.LLST39
 13730 5533 60       		.uleb128 0x60
 13731 5534 FF0B0000 		.4byte	.LASF976
 13732 5538 01       		.byte	0x1
 13733 5539 57       		.byte	0x57
 13734 553a DD000000 		.4byte	0xdd
 13735 553e D9110000 		.4byte	.LLST40
 13736 5542 5E       		.uleb128 0x5e
 13737 5543 16000000 		.4byte	.LBB280
 13738 5547 22000000 		.4byte	.LBE280-.LBB280
 13739 554b 5D550000 		.4byte	0x555d
 13740 554f 5F       		.uleb128 0x5f
 13741 5550 6900     		.ascii	"i\000"
 13742 5552 01       		.byte	0x1
 13743 5553 5A       		.byte	0x5a
 13744 5554 E8000000 		.4byte	0xe8
 13745 5558 EE110000 		.4byte	.LLST41
 13746 555c 00       		.byte	0
 13747 555d 36       		.uleb128 0x36
 13748 555e 5E000000 		.4byte	.LVL79
 13749 5562 DD5A0000 		.4byte	0x5add
 13750 5566 70550000 		.4byte	0x5570
ARM GAS  C:\Users\adrie\AppData\Local\Temp\ccgB8szF.s 			page 243


 13751 556a 37       		.uleb128 0x37
 13752 556b 01       		.uleb128 0x1
 13753 556c 50       		.byte	0x50
 13754 556d 01       		.uleb128 0x1
 13755 556e 30       		.byte	0x30
 13756 556f 00       		.byte	0
 13757 5570 38       		.uleb128 0x38
 13758 5571 6E000000 		.4byte	.LVL80
 13759 5575 865A0000 		.4byte	0x5a86
 13760 5579 38       		.uleb128 0x38
 13761 557a 74000000 		.4byte	.LVL81
 13762 557e DD5A0000 		.4byte	0x5add
 13763 5582 62       		.uleb128 0x62
 13764 5583 8C000000 		.4byte	.LVL82
 13765 5587 D25A0000 		.4byte	0x5ad2
 13766 558b 38       		.uleb128 0x38
 13767 558c 98000000 		.4byte	.LVL83
 13768 5590 DD5A0000 		.4byte	0x5add
 13769 5594 63       		.uleb128 0x63
 13770 5595 AC000000 		.4byte	.LVL84
 13771 5599 D25A0000 		.4byte	0x5ad2
 13772 559d 37       		.uleb128 0x37
 13773 559e 01       		.uleb128 0x1
 13774 559f 50       		.byte	0x50
 13775 55a0 03       		.uleb128 0x3
 13776 55a1 0B       		.byte	0xb
 13777 55a2 A8FD     		.2byte	0xfda8
 13778 55a4 00       		.byte	0
 13779 55a5 00       		.byte	0
 13780 55a6 64       		.uleb128 0x64
 13781 55a7 75180000 		.4byte	.LASF1003
 13782 55ab 06       		.byte	0x6
 13783 55ac 1A01     		.2byte	0x11a
 13784 55ae 03       		.byte	0x3
 13785 55af C0550000 		.4byte	0x55c0
 13786 55b3 65       		.uleb128 0x65
 13787 55b4 62737000 		.ascii	"bsp\000"
 13788 55b8 06       		.byte	0x6
 13789 55b9 1A01     		.2byte	0x11a
 13790 55bb C0550000 		.4byte	0x55c0
 13791 55bf 00       		.byte	0
 13792 55c0 0B       		.uleb128 0xb
 13793 55c1 04       		.byte	0x4
 13794 55c2 77120000 		.4byte	0x1277
 13795 55c6 64       		.uleb128 0x64
 13796 55c7 D9150000 		.4byte	.LASF1004
 13797 55cb 06       		.byte	0x6
 13798 55cc 0A01     		.2byte	0x10a
 13799 55ce 03       		.byte	0x3
 13800 55cf E0550000 		.4byte	0x55e0
 13801 55d3 65       		.uleb128 0x65
 13802 55d4 62737000 		.ascii	"bsp\000"
 13803 55d8 06       		.byte	0x6
 13804 55d9 0A01     		.2byte	0x10a
 13805 55db C0550000 		.4byte	0x55c0
 13806 55df 00       		.byte	0
 13807 55e0 66       		.uleb128 0x66
ARM GAS  C:\Users\adrie\AppData\Local\Temp\ccgB8szF.s 			page 244


 13808 55e1 DB040000 		.4byte	.LASF1006
 13809 55e5 06       		.byte	0x6
 13810 55e6 8D       		.byte	0x8d
 13811 55e7 70010000 		.4byte	0x170
 13812 55eb 03       		.byte	0x3
 13813 55ec FC550000 		.4byte	0x55fc
 13814 55f0 67       		.uleb128 0x67
 13815 55f1 62737000 		.ascii	"bsp\000"
 13816 55f5 06       		.byte	0x6
 13817 55f6 8D       		.byte	0x8d
 13818 55f7 C0550000 		.4byte	0x55c0
 13819 55fb 00       		.byte	0
 13820 55fc 68       		.uleb128 0x68
 13821 55fd 32240000 		.4byte	.LASF1005
 13822 5601 02       		.byte	0x2
 13823 5602 84       		.byte	0x84
 13824 5603 03       		.byte	0x3
 13825 5604 14560000 		.4byte	0x5614
 13826 5608 69       		.uleb128 0x69
 13827 5609 F5250000 		.4byte	.LASF773
 13828 560d 02       		.byte	0x2
 13829 560e 84       		.byte	0x84
 13830 560f 0D110000 		.4byte	0x110d
 13831 5613 00       		.byte	0
 13832 5614 66       		.uleb128 0x66
 13833 5615 41270000 		.4byte	.LASF1007
 13834 5619 05       		.byte	0x5
 13835 561a F7       		.byte	0xf7
 13836 561b A7010000 		.4byte	0x1a7
 13837 561f 03       		.byte	0x3
 13838 5620 30560000 		.4byte	0x5630
 13839 5624 33       		.uleb128 0x33
 13840 5625 EF270000 		.4byte	.LASF1008
 13841 5629 05       		.byte	0x5
 13842 562a F8       		.byte	0xf8
 13843 562b A7010000 		.4byte	0x1a7
 13844 562f 00       		.byte	0
 13845 5630 6A       		.uleb128 0x6a
 13846 5631 3C210000 		.4byte	.LASF1040
 13847 5635 05       		.byte	0x5
 13848 5636 E4       		.byte	0xe4
 13849 5637 A7010000 		.4byte	0x1a7
 13850 563b 03       		.byte	0x3
 13851 563c 64       		.uleb128 0x64
 13852 563d 4C240000 		.4byte	.LASF1009
 13853 5641 04       		.byte	0x4
 13854 5642 6601     		.2byte	0x166
 13855 5644 03       		.byte	0x3
 13856 5645 57560000 		.4byte	0x5657
 13857 5649 6B       		.uleb128 0x6b
 13858 564a 23180000 		.4byte	.LASF1010
 13859 564e 574B0000 		.4byte	0x4b57
 13860 5652 4C240000 		.4byte	.LASF1009
 13861 5656 00       		.byte	0
 13862 5657 6C       		.uleb128 0x6c
 13863 5658 741A0000 		.4byte	.LASF1011
 13864 565c 04       		.byte	0x4
ARM GAS  C:\Users\adrie\AppData\Local\Temp\ccgB8szF.s 			page 245


 13865 565d 5A01     		.2byte	0x15a
 13866 565f 03       		.byte	0x3
 13867 5660 6C       		.uleb128 0x6c
 13868 5661 FF190000 		.4byte	.LASF1012
 13869 5665 11       		.byte	0x11
 13870 5666 CA01     		.2byte	0x1ca
 13871 5668 03       		.byte	0x3
 13872 5669 6C       		.uleb128 0x6c
 13873 566a 211C0000 		.4byte	.LASF1013
 13874 566e 11       		.byte	0x11
 13875 566f BC01     		.2byte	0x1bc
 13876 5671 03       		.byte	0x3
 13877 5672 64       		.uleb128 0x64
 13878 5673 1B280000 		.4byte	.LASF1014
 13879 5677 03       		.byte	0x3
 13880 5678 2002     		.2byte	0x220
 13881 567a 03       		.byte	0x3
 13882 567b 8C560000 		.4byte	0x568c
 13883 567f 52       		.uleb128 0x52
 13884 5680 1A0D0000 		.4byte	.LASF898
 13885 5684 03       		.byte	0x3
 13886 5685 2002     		.2byte	0x220
 13887 5687 03010000 		.4byte	0x103
 13888 568b 00       		.byte	0
 13889 568c 6D       		.uleb128 0x6d
 13890 568d DD4C0000 		.4byte	0x4cdd
 13891 5691 00000000 		.4byte	.LFB308
 13892 5695 BC000000 		.4byte	.LFE308-.LFB308
 13893 5699 01       		.uleb128 0x1
 13894 569a 9C       		.byte	0x9c
 13895 569b 6D570000 		.4byte	0x576d
 13896 569f 41       		.uleb128 0x41
 13897 56a0 EE4C0000 		.4byte	0x4cee
 13898 56a4 1A120000 		.4byte	.LLST0
 13899 56a8 6E       		.uleb128 0x6e
 13900 56a9 FA4C0000 		.4byte	0x4cfa
 13901 56ad 12000000 		.4byte	.LBB147
 13902 56b1 06000000 		.4byte	.LBE147-.LBB147
 13903 56b5 C3560000 		.4byte	0x56c3
 13904 56b9 43       		.uleb128 0x43
 13905 56ba FB4C0000 		.4byte	0x4cfb
 13906 56be 6D120000 		.4byte	.LLST1
 13907 56c2 00       		.byte	0
 13908 56c3 40       		.uleb128 0x40
 13909 56c4 5B4D0000 		.4byte	0x4d5b
 13910 56c8 26000000 		.4byte	.LBB148
 13911 56cc 00000000 		.4byte	.Ldebug_ranges0+0
 13912 56d0 01       		.byte	0x1
 13913 56d1 B801     		.2byte	0x1b8
 13914 56d3 11570000 		.4byte	0x5711
 13915 56d7 4F       		.uleb128 0x4f
 13916 56d8 6C4D0000 		.4byte	0x4d6c
 13917 56dc 42       		.uleb128 0x42
 13918 56dd 00000000 		.4byte	.Ldebug_ranges0+0
 13919 56e1 43       		.uleb128 0x43
 13920 56e2 784D0000 		.4byte	0x4d78
 13921 56e6 87120000 		.4byte	.LLST2
ARM GAS  C:\Users\adrie\AppData\Local\Temp\ccgB8szF.s 			page 246


 13922 56ea 43       		.uleb128 0x43
 13923 56eb 844D0000 		.4byte	0x4d84
 13924 56ef 9B120000 		.4byte	.LLST3
 13925 56f3 4A       		.uleb128 0x4a
 13926 56f4 904D0000 		.4byte	0x4d90
 13927 56f8 6F       		.uleb128 0x6f
 13928 56f9 9C4D0000 		.4byte	0x4d9c
 13929 56fd 2E000000 		.4byte	.LBB150
 13930 5701 2C000000 		.4byte	.LBE150-.LBB150
 13931 5705 43       		.uleb128 0x43
 13932 5706 9D4D0000 		.4byte	0x4d9d
 13933 570a B9120000 		.4byte	.LLST4
 13934 570e 00       		.byte	0
 13935 570f 00       		.byte	0
 13936 5710 00       		.byte	0
 13937 5711 45       		.uleb128 0x45
 13938 5712 5B4D0000 		.4byte	0x4d5b
 13939 5716 68000000 		.4byte	.LBB152
 13940 571a 34000000 		.4byte	.LBE152-.LBB152
 13941 571e 01       		.byte	0x1
 13942 571f B501     		.2byte	0x1b5
 13943 5721 63570000 		.4byte	0x5763
 13944 5725 4F       		.uleb128 0x4f
 13945 5726 6C4D0000 		.4byte	0x4d6c
 13946 572a 46       		.uleb128 0x46
 13947 572b 68000000 		.4byte	.LBB153
 13948 572f 34000000 		.4byte	.LBE153-.LBB153
 13949 5733 43       		.uleb128 0x43
 13950 5734 784D0000 		.4byte	0x4d78
 13951 5738 CC120000 		.4byte	.LLST5
 13952 573c 43       		.uleb128 0x43
 13953 573d 844D0000 		.4byte	0x4d84
 13954 5741 E0120000 		.4byte	.LLST6
 13955 5745 4A       		.uleb128 0x4a
 13956 5746 904D0000 		.4byte	0x4d90
 13957 574a 6F       		.uleb128 0x6f
 13958 574b 9C4D0000 		.4byte	0x4d9c
 13959 574f 70000000 		.4byte	.LBB154
 13960 5753 2C000000 		.4byte	.LBE154-.LBB154
 13961 5757 43       		.uleb128 0x43
 13962 5758 9D4D0000 		.4byte	0x4d9d
 13963 575c FE120000 		.4byte	.LLST7
 13964 5760 00       		.byte	0
 13965 5761 00       		.byte	0
 13966 5762 00       		.byte	0
 13967 5763 38       		.uleb128 0x38
 13968 5764 AC000000 		.4byte	.LVL22
 13969 5768 865A0000 		.4byte	0x5a86
 13970 576c 00       		.byte	0
 13971 576d 70       		.uleb128 0x70
 13972 576e B94E0000 		.4byte	0x4eb9
 13973 5772 00000000 		.4byte	.LFB292
 13974 5776 78000000 		.4byte	.LFE292-.LFB292
 13975 577a 01       		.uleb128 0x1
 13976 577b 9C       		.byte	0x9c
 13977 577c B7570000 		.4byte	0x57b7
 13978 5780 41       		.uleb128 0x41
ARM GAS  C:\Users\adrie\AppData\Local\Temp\ccgB8szF.s 			page 247


 13979 5781 CA4E0000 		.4byte	0x4eca
 13980 5785 11130000 		.4byte	.LLST42
 13981 5789 41       		.uleb128 0x41
 13982 578a D64E0000 		.4byte	0x4ed6
 13983 578e 2F130000 		.4byte	.LLST43
 13984 5792 43       		.uleb128 0x43
 13985 5793 E24E0000 		.4byte	0x4ee2
 13986 5797 50130000 		.4byte	.LLST44
 13987 579b 43       		.uleb128 0x43
 13988 579c EE4E0000 		.4byte	0x4eee
 13989 57a0 7A130000 		.4byte	.LLST45
 13990 57a4 38       		.uleb128 0x38
 13991 57a5 42000000 		.4byte	.LVL93
 13992 57a9 8F5A0000 		.4byte	0x5a8f
 13993 57ad 38       		.uleb128 0x38
 13994 57ae 64000000 		.4byte	.LVL97
 13995 57b2 865A0000 		.4byte	0x5a86
 13996 57b6 00       		.byte	0
 13997 57b7 6D       		.uleb128 0x6d
 13998 57b8 F34D0000 		.4byte	0x4df3
 13999 57bc 00000000 		.4byte	.LFB294
 14000 57c0 44000000 		.4byte	.LFE294-.LFB294
 14001 57c4 01       		.uleb128 0x1
 14002 57c5 9C       		.byte	0x9c
 14003 57c6 F5570000 		.4byte	0x57f5
 14004 57ca 41       		.uleb128 0x41
 14005 57cb 044E0000 		.4byte	0x4e04
 14006 57cf 92130000 		.4byte	.LLST53
 14007 57d3 4A       		.uleb128 0x4a
 14008 57d4 104E0000 		.4byte	0x4e10
 14009 57d8 3F       		.uleb128 0x3f
 14010 57d9 B8010000 		.4byte	.Ldebug_ranges0+0x1b8
 14011 57dd EB570000 		.4byte	0x57eb
 14012 57e1 43       		.uleb128 0x43
 14013 57e2 1D4E0000 		.4byte	0x4e1d
 14014 57e6 B3130000 		.4byte	.LLST54
 14015 57ea 00       		.byte	0
 14016 57eb 38       		.uleb128 0x38
 14017 57ec 38000000 		.4byte	.LVL150
 14018 57f0 865A0000 		.4byte	0x5a86
 14019 57f4 00       		.byte	0
 14020 57f5 6D       		.uleb128 0x6d
 14021 57f6 A94D0000 		.4byte	0x4da9
 14022 57fa 00000000 		.4byte	.LFB295
 14023 57fe 44000000 		.4byte	.LFE295-.LFB295
 14024 5802 01       		.uleb128 0x1
 14025 5803 9C       		.byte	0x9c
 14026 5804 3F580000 		.4byte	0x583f
 14027 5808 41       		.uleb128 0x41
 14028 5809 B64D0000 		.4byte	0x4db6
 14029 580d D3130000 		.4byte	.LLST55
 14030 5811 41       		.uleb128 0x41
 14031 5812 C24D0000 		.4byte	0x4dc2
 14032 5816 F4130000 		.4byte	.LLST56
 14033 581a 41       		.uleb128 0x41
 14034 581b CE4D0000 		.4byte	0x4dce
 14035 581f 15140000 		.4byte	.LLST57
ARM GAS  C:\Users\adrie\AppData\Local\Temp\ccgB8szF.s 			page 248


 14036 5823 41       		.uleb128 0x41
 14037 5824 DA4D0000 		.4byte	0x4dda
 14038 5828 47140000 		.4byte	.LLST58
 14039 582c 41       		.uleb128 0x41
 14040 582d E64D0000 		.4byte	0x4de6
 14041 5831 68140000 		.4byte	.LLST59
 14042 5835 38       		.uleb128 0x38
 14043 5836 3C000000 		.4byte	.LVL157
 14044 583a 865A0000 		.4byte	0x5a86
 14045 583e 00       		.byte	0
 14046 583f 6D       		.uleb128 0x6d
 14047 5840 5B4D0000 		.4byte	0x4d5b
 14048 5844 00000000 		.4byte	.LFB296
 14049 5848 64000000 		.4byte	.LFE296-.LFB296
 14050 584c 01       		.uleb128 0x1
 14051 584d 9C       		.byte	0x9c
 14052 584e 97580000 		.4byte	0x5897
 14053 5852 41       		.uleb128 0x41
 14054 5853 6C4D0000 		.4byte	0x4d6c
 14055 5857 88140000 		.4byte	.LLST60
 14056 585b 43       		.uleb128 0x43
 14057 585c 784D0000 		.4byte	0x4d78
 14058 5860 B6140000 		.4byte	.LLST61
 14059 5864 43       		.uleb128 0x43
 14060 5865 844D0000 		.4byte	0x4d84
 14061 5869 DA140000 		.4byte	.LLST62
 14062 586d 43       		.uleb128 0x43
 14063 586e 904D0000 		.4byte	0x4d90
 14064 5872 14150000 		.4byte	.LLST63
 14065 5876 5E       		.uleb128 0x5e
 14066 5877 14000000 		.4byte	.LBB285
 14067 587b 2C000000 		.4byte	.LBE285-.LBB285
 14068 587f 8D580000 		.4byte	0x588d
 14069 5883 43       		.uleb128 0x43
 14070 5884 9D4D0000 		.4byte	0x4d9d
 14071 5888 45150000 		.4byte	.LLST64
 14072 588c 00       		.byte	0
 14073 588d 38       		.uleb128 0x38
 14074 588e 5A000000 		.4byte	.LVL169
 14075 5892 865A0000 		.4byte	0x5a86
 14076 5896 00       		.byte	0
 14077 5897 6D       		.uleb128 0x6d
 14078 5898 DD4C0000 		.4byte	0x4cdd
 14079 589c 00000000 		.4byte	.LFB298
 14080 58a0 C0000000 		.4byte	.LFE298-.LFB298
 14081 58a4 01       		.uleb128 0x1
 14082 58a5 9C       		.byte	0x9c
 14083 58a6 59590000 		.4byte	0x5959
 14084 58aa 41       		.uleb128 0x41
 14085 58ab EE4C0000 		.4byte	0x4cee
 14086 58af 64150000 		.4byte	.LLST65
 14087 58b3 40       		.uleb128 0x40
 14088 58b4 5B4D0000 		.4byte	0x4d5b
 14089 58b8 28000000 		.4byte	.LBB290
 14090 58bc F8010000 		.4byte	.Ldebug_ranges0+0x1f8
 14091 58c0 01       		.byte	0x1
 14092 58c1 B201     		.2byte	0x1b2
ARM GAS  C:\Users\adrie\AppData\Local\Temp\ccgB8szF.s 			page 249


 14093 58c3 F5580000 		.4byte	0x58f5
 14094 58c7 4F       		.uleb128 0x4f
 14095 58c8 6C4D0000 		.4byte	0x4d6c
 14096 58cc 42       		.uleb128 0x42
 14097 58cd F8010000 		.4byte	.Ldebug_ranges0+0x1f8
 14098 58d1 4A       		.uleb128 0x4a
 14099 58d2 5B580000 		.4byte	0x585b
 14100 58d6 4A       		.uleb128 0x4a
 14101 58d7 64580000 		.4byte	0x5864
 14102 58db 4A       		.uleb128 0x4a
 14103 58dc 6D580000 		.4byte	0x586d
 14104 58e0 6F       		.uleb128 0x6f
 14105 58e1 76580000 		.4byte	0x5876
 14106 58e5 30000000 		.4byte	.LBB292
 14107 58e9 2C000000 		.4byte	.LBE292-.LBB292
 14108 58ed 4A       		.uleb128 0x4a
 14109 58ee 83580000 		.4byte	0x5883
 14110 58f2 00       		.byte	0
 14111 58f3 00       		.byte	0
 14112 58f4 00       		.byte	0
 14113 58f5 45       		.uleb128 0x45
 14114 58f6 5B4D0000 		.4byte	0x4d5b
 14115 58fa 6A000000 		.4byte	.LBB294
 14116 58fe 34000000 		.4byte	.LBE294-.LBB294
 14117 5902 01       		.byte	0x1
 14118 5903 AF01     		.2byte	0x1af
 14119 5905 3B590000 		.4byte	0x593b
 14120 5909 4F       		.uleb128 0x4f
 14121 590a 6C4D0000 		.4byte	0x4d6c
 14122 590e 46       		.uleb128 0x46
 14123 590f 6A000000 		.4byte	.LBB295
 14124 5913 34000000 		.4byte	.LBE295-.LBB295
 14125 5917 4A       		.uleb128 0x4a
 14126 5918 5B580000 		.4byte	0x585b
 14127 591c 4A       		.uleb128 0x4a
 14128 591d 64580000 		.4byte	0x5864
 14129 5921 4A       		.uleb128 0x4a
 14130 5922 6D580000 		.4byte	0x586d
 14131 5926 6F       		.uleb128 0x6f
 14132 5927 76580000 		.4byte	0x5876
 14133 592b 72000000 		.4byte	.LBB296
 14134 592f 2C000000 		.4byte	.LBE296-.LBB296
 14135 5933 4A       		.uleb128 0x4a
 14136 5934 83580000 		.4byte	0x5883
 14137 5938 00       		.byte	0
 14138 5939 00       		.byte	0
 14139 593a 00       		.byte	0
 14140 593b 36       		.uleb128 0x36
 14141 593c 18000000 		.4byte	.LVL174
 14142 5940 8C560000 		.4byte	0x568c
 14143 5944 4F590000 		.4byte	0x594f
 14144 5948 37       		.uleb128 0x37
 14145 5949 01       		.uleb128 0x1
 14146 594a 50       		.byte	0x50
 14147 594b 02       		.uleb128 0x2
 14148 594c 74       		.byte	0x74
 14149 594d 00       		.sleb128 0
ARM GAS  C:\Users\adrie\AppData\Local\Temp\ccgB8szF.s 			page 250


 14150 594e 00       		.byte	0
 14151 594f 38       		.uleb128 0x38
 14152 5950 AE000000 		.4byte	.LVL195
 14153 5954 865A0000 		.4byte	0x5a86
 14154 5958 00       		.byte	0
 14155 5959 6D       		.uleb128 0x6d
 14156 595a 6B4C0000 		.4byte	0x4c6b
 14157 595e 00000000 		.4byte	.LFB300
 14158 5962 88000000 		.4byte	.LFE300-.LFB300
 14159 5966 01       		.uleb128 0x1
 14160 5967 9C       		.byte	0x9c
 14161 5968 125A0000 		.4byte	0x5a12
 14162 596c 41       		.uleb128 0x41
 14163 596d 784C0000 		.4byte	0x4c78
 14164 5971 B7150000 		.4byte	.LLST67
 14165 5975 41       		.uleb128 0x41
 14166 5976 844C0000 		.4byte	0x4c84
 14167 597a 20160000 		.4byte	.LLST68
 14168 597e 41       		.uleb128 0x41
 14169 597f 904C0000 		.4byte	0x4c90
 14170 5983 89160000 		.4byte	.LLST69
 14171 5987 41       		.uleb128 0x41
 14172 5988 9C4C0000 		.4byte	0x4c9c
 14173 598c F2160000 		.4byte	.LLST70
 14174 5990 6E       		.uleb128 0x6e
 14175 5991 6B4C0000 		.4byte	0x4c6b
 14176 5995 5C000000 		.4byte	.LBB300
 14177 5999 0E000000 		.4byte	.LBE300-.LBB300
 14178 599d C6590000 		.4byte	0x59c6
 14179 59a1 41       		.uleb128 0x41
 14180 59a2 784C0000 		.4byte	0x4c78
 14181 59a6 5B170000 		.4byte	.LLST71
 14182 59aa 41       		.uleb128 0x41
 14183 59ab 844C0000 		.4byte	0x4c84
 14184 59af 6E170000 		.4byte	.LLST72
 14185 59b3 41       		.uleb128 0x41
 14186 59b4 904C0000 		.4byte	0x4c90
 14187 59b8 81170000 		.4byte	.LLST73
 14188 59bc 41       		.uleb128 0x41
 14189 59bd 9C4C0000 		.4byte	0x4c9c
 14190 59c1 94170000 		.4byte	.LLST74
 14191 59c5 00       		.byte	0
 14192 59c6 38       		.uleb128 0x38
 14193 59c7 18000000 		.4byte	.LVL215
 14194 59cb 375B0000 		.4byte	0x5b37
 14195 59cf 5B       		.uleb128 0x5b
 14196 59d0 3A000000 		.4byte	.LVL217
 14197 59d4 425B0000 		.4byte	0x5b42
 14198 59d8 E7590000 		.4byte	0x59e7
 14199 59dc 37       		.uleb128 0x37
 14200 59dd 01       		.uleb128 0x1
 14201 59de 50       		.byte	0x50
 14202 59df 01       		.uleb128 0x1
 14203 59e0 30       		.byte	0x30
 14204 59e1 37       		.uleb128 0x37
 14205 59e2 01       		.uleb128 0x1
 14206 59e3 51       		.byte	0x51
ARM GAS  C:\Users\adrie\AppData\Local\Temp\ccgB8szF.s 			page 251


 14207 59e4 01       		.uleb128 0x1
 14208 59e5 31       		.byte	0x31
 14209 59e6 00       		.byte	0
 14210 59e7 62       		.uleb128 0x62
 14211 59e8 5C000000 		.4byte	.LVL219
 14212 59ec 425B0000 		.4byte	0x5b42
 14213 59f0 5B       		.uleb128 0x5b
 14214 59f1 80000000 		.4byte	.LVL222
 14215 59f5 425B0000 		.4byte	0x5b42
 14216 59f9 085A0000 		.4byte	0x5a08
 14217 59fd 37       		.uleb128 0x37
 14218 59fe 01       		.uleb128 0x1
 14219 59ff 50       		.byte	0x50
 14220 5a00 01       		.uleb128 0x1
 14221 5a01 33       		.byte	0x33
 14222 5a02 37       		.uleb128 0x37
 14223 5a03 01       		.uleb128 0x1
 14224 5a04 51       		.byte	0x51
 14225 5a05 01       		.uleb128 0x1
 14226 5a06 31       		.byte	0x31
 14227 5a07 00       		.byte	0
 14228 5a08 38       		.uleb128 0x38
 14229 5a09 84000000 		.4byte	.LVL223
 14230 5a0d 865A0000 		.4byte	0x5a86
 14231 5a11 00       		.byte	0
 14232 5a12 6D       		.uleb128 0x6d
 14233 5a13 CE4B0000 		.4byte	0x4bce
 14234 5a17 00000000 		.4byte	.LFB303
 14235 5a1b 28000000 		.4byte	.LFE303-.LFB303
 14236 5a1f 01       		.uleb128 0x1
 14237 5a20 9C       		.byte	0x9c
 14238 5a21 2F5A0000 		.4byte	0x5a2f
 14239 5a25 38       		.uleb128 0x38
 14240 5a26 20000000 		.4byte	.LVL299
 14241 5a2a 865A0000 		.4byte	0x5a86
 14242 5a2e 00       		.byte	0
 14243 5a2f 6D       		.uleb128 0x6d
 14244 5a30 5C4B0000 		.4byte	0x4b5c
 14245 5a34 00000000 		.4byte	.LFB305
 14246 5a38 A0000000 		.4byte	.LFE305-.LFB305
 14247 5a3c 01       		.uleb128 0x1
 14248 5a3d 9C       		.byte	0x9c
 14249 5a3e 7B5A0000 		.4byte	0x5a7b
 14250 5a42 41       		.uleb128 0x41
 14251 5a43 6D4B0000 		.4byte	0x4b6d
 14252 5a47 A7170000 		.4byte	.LLST107
 14253 5a4b 41       		.uleb128 0x41
 14254 5a4c 794B0000 		.4byte	0x4b79
 14255 5a50 CB170000 		.4byte	.LLST108
 14256 5a54 43       		.uleb128 0x43
 14257 5a55 854B0000 		.4byte	0x4b85
 14258 5a59 27180000 		.4byte	.LLST109
 14259 5a5d 43       		.uleb128 0x43
 14260 5a5e 914B0000 		.4byte	0x4b91
 14261 5a62 6D180000 		.4byte	.LLST110
 14262 5a66 47       		.uleb128 0x47
 14263 5a67 9D4B0000 		.4byte	0x4b9d
ARM GAS  C:\Users\adrie\AppData\Local\Temp\ccgB8szF.s 			page 252


 14264 5a6b 05       		.uleb128 0x5
 14265 5a6c 03       		.byte	0x3
 14266 5a6d 00000000 		.4byte	sum_error.14346
 14267 5a71 38       		.uleb128 0x38
 14268 5a72 86000000 		.4byte	.LVL312
 14269 5a76 865A0000 		.4byte	0x5a86
 14270 5a7a 00       		.byte	0
 14271 5a7b 71       		.uleb128 0x71
 14272 5a7c 540A0000 		.4byte	.LASF1015
 14273 5a80 540A0000 		.4byte	.LASF1015
 14274 5a84 44       		.byte	0x44
 14275 5a85 89       		.byte	0x89
 14276 5a86 72       		.uleb128 0x72
 14277 5a87 A5060000 		.4byte	.LASF1041
 14278 5a8b A5060000 		.4byte	.LASF1041
 14279 5a8f 71       		.uleb128 0x71
 14280 5a90 742A0000 		.4byte	.LASF1016
 14281 5a94 742A0000 		.4byte	.LASF1016
 14282 5a98 42       		.byte	0x42
 14283 5a99 70       		.byte	0x70
 14284 5a9a 71       		.uleb128 0x71
 14285 5a9b 0F290000 		.4byte	.LASF1017
 14286 5a9f 0F290000 		.4byte	.LASF1017
 14287 5aa3 14       		.byte	0x14
 14288 5aa4 4F       		.byte	0x4f
 14289 5aa5 71       		.uleb128 0x71
 14290 5aa6 7A040000 		.4byte	.LASF1018
 14291 5aaa 7A040000 		.4byte	.LASF1018
 14292 5aae 12       		.byte	0x12
 14293 5aaf D8       		.byte	0xd8
 14294 5ab0 71       		.uleb128 0x71
 14295 5ab1 70160000 		.4byte	.LASF1019
 14296 5ab5 70160000 		.4byte	.LASF1019
 14297 5ab9 12       		.byte	0x12
 14298 5aba D9       		.byte	0xd9
 14299 5abb 71       		.uleb128 0x71
 14300 5abc D41D0000 		.4byte	.LASF1020
 14301 5ac0 D41D0000 		.4byte	.LASF1020
 14302 5ac4 14       		.byte	0x14
 14303 5ac5 50       		.byte	0x50
 14304 5ac6 73       		.uleb128 0x73
 14305 5ac7 4D070000 		.4byte	.LASF1021
 14306 5acb 4D070000 		.4byte	.LASF1021
 14307 5acf 04       		.byte	0x4
 14308 5ad0 1601     		.2byte	0x116
 14309 5ad2 71       		.uleb128 0x71
 14310 5ad3 C61A0000 		.4byte	.LASF1022
 14311 5ad7 C61A0000 		.4byte	.LASF1022
 14312 5adb 45       		.byte	0x45
 14313 5adc 15       		.byte	0x15
 14314 5add 71       		.uleb128 0x71
 14315 5ade 331A0000 		.4byte	.LASF1023
 14316 5ae2 331A0000 		.4byte	.LASF1023
 14317 5ae6 45       		.byte	0x45
 14318 5ae7 0E       		.byte	0xe
 14319 5ae8 71       		.uleb128 0x71
 14320 5ae9 ED280000 		.4byte	.LASF1024
ARM GAS  C:\Users\adrie\AppData\Local\Temp\ccgB8szF.s 			page 253


 14321 5aed ED280000 		.4byte	.LASF1024
 14322 5af1 44       		.byte	0x44
 14323 5af2 98       		.byte	0x98
 14324 5af3 71       		.uleb128 0x71
 14325 5af4 E42A0000 		.4byte	.LASF1025
 14326 5af8 E42A0000 		.4byte	.LASF1025
 14327 5afc 15       		.byte	0x15
 14328 5afd 5E       		.byte	0x5e
 14329 5afe 71       		.uleb128 0x71
 14330 5aff DE1E0000 		.4byte	.LASF1026
 14331 5b03 DE1E0000 		.4byte	.LASF1026
 14332 5b07 12       		.byte	0x12
 14333 5b08 DE       		.byte	0xde
 14334 5b09 71       		.uleb128 0x71
 14335 5b0a 76150000 		.4byte	.LASF1027
 14336 5b0e 76150000 		.4byte	.LASF1027
 14337 5b12 15       		.byte	0x15
 14338 5b13 63       		.byte	0x63
 14339 5b14 73       		.uleb128 0x73
 14340 5b15 721C0000 		.4byte	.LASF1028
 14341 5b19 721C0000 		.4byte	.LASF1028
 14342 5b1d 0C       		.byte	0xc
 14343 5b1e 1702     		.2byte	0x217
 14344 5b20 71       		.uleb128 0x71
 14345 5b21 89290000 		.4byte	.LASF1029
 14346 5b25 89290000 		.4byte	.LASF1029
 14347 5b29 46       		.byte	0x46
 14348 5b2a 0D       		.byte	0xd
 14349 5b2b 73       		.uleb128 0x73
 14350 5b2c 3C100000 		.4byte	.LASF1030
 14351 5b30 3C100000 		.4byte	.LASF1030
 14352 5b34 47       		.byte	0x47
 14353 5b35 3619     		.2byte	0x1936
 14354 5b37 71       		.uleb128 0x71
 14355 5b38 67270000 		.4byte	.LASF1031
 14356 5b3c 67270000 		.4byte	.LASF1031
 14357 5b40 43       		.byte	0x43
 14358 5b41 37       		.byte	0x37
 14359 5b42 71       		.uleb128 0x71
 14360 5b43 1D130000 		.4byte	.LASF1032
 14361 5b47 1D130000 		.4byte	.LASF1032
 14362 5b4b 43       		.byte	0x43
 14363 5b4c 30       		.byte	0x30
 14364 5b4d 00       		.byte	0
 14365              		.section	.debug_abbrev,"",%progbits
 14366              	.Ldebug_abbrev0:
 14367 0000 01       		.uleb128 0x1
 14368 0001 11       		.uleb128 0x11
 14369 0002 01       		.byte	0x1
 14370 0003 25       		.uleb128 0x25
 14371 0004 0E       		.uleb128 0xe
 14372 0005 13       		.uleb128 0x13
 14373 0006 0B       		.uleb128 0xb
 14374 0007 03       		.uleb128 0x3
 14375 0008 0E       		.uleb128 0xe
 14376 0009 1B       		.uleb128 0x1b
 14377 000a 0E       		.uleb128 0xe
ARM GAS  C:\Users\adrie\AppData\Local\Temp\ccgB8szF.s 			page 254


 14378 000b 55       		.uleb128 0x55
 14379 000c 17       		.uleb128 0x17
 14380 000d 11       		.uleb128 0x11
 14381 000e 01       		.uleb128 0x1
 14382 000f 10       		.uleb128 0x10
 14383 0010 17       		.uleb128 0x17
 14384 0011 00       		.byte	0
 14385 0012 00       		.byte	0
 14386 0013 02       		.uleb128 0x2
 14387 0014 24       		.uleb128 0x24
 14388 0015 00       		.byte	0
 14389 0016 0B       		.uleb128 0xb
 14390 0017 0B       		.uleb128 0xb
 14391 0018 3E       		.uleb128 0x3e
 14392 0019 0B       		.uleb128 0xb
 14393 001a 03       		.uleb128 0x3
 14394 001b 0E       		.uleb128 0xe
 14395 001c 00       		.byte	0
 14396 001d 00       		.byte	0
 14397 001e 03       		.uleb128 0x3
 14398 001f 24       		.uleb128 0x24
 14399 0020 00       		.byte	0
 14400 0021 0B       		.uleb128 0xb
 14401 0022 0B       		.uleb128 0xb
 14402 0023 3E       		.uleb128 0x3e
 14403 0024 0B       		.uleb128 0xb
 14404 0025 03       		.uleb128 0x3
 14405 0026 08       		.uleb128 0x8
 14406 0027 00       		.byte	0
 14407 0028 00       		.byte	0
 14408 0029 04       		.uleb128 0x4
 14409 002a 16       		.uleb128 0x16
 14410 002b 00       		.byte	0
 14411 002c 03       		.uleb128 0x3
 14412 002d 0E       		.uleb128 0xe
 14413 002e 3A       		.uleb128 0x3a
 14414 002f 0B       		.uleb128 0xb
 14415 0030 3B       		.uleb128 0x3b
 14416 0031 0B       		.uleb128 0xb
 14417 0032 49       		.uleb128 0x49
 14418 0033 13       		.uleb128 0x13
 14419 0034 00       		.byte	0
 14420 0035 00       		.byte	0
 14421 0036 05       		.uleb128 0x5
 14422 0037 26       		.uleb128 0x26
 14423 0038 00       		.byte	0
 14424 0039 49       		.uleb128 0x49
 14425 003a 13       		.uleb128 0x13
 14426 003b 00       		.byte	0
 14427 003c 00       		.byte	0
 14428 003d 06       		.uleb128 0x6
 14429 003e 35       		.uleb128 0x35
 14430 003f 00       		.byte	0
 14431 0040 49       		.uleb128 0x49
 14432 0041 13       		.uleb128 0x13
 14433 0042 00       		.byte	0
 14434 0043 00       		.byte	0
ARM GAS  C:\Users\adrie\AppData\Local\Temp\ccgB8szF.s 			page 255


 14435 0044 07       		.uleb128 0x7
 14436 0045 13       		.uleb128 0x13
 14437 0046 01       		.byte	0x1
 14438 0047 03       		.uleb128 0x3
 14439 0048 0E       		.uleb128 0xe
 14440 0049 0B       		.uleb128 0xb
 14441 004a 0B       		.uleb128 0xb
 14442 004b 3A       		.uleb128 0x3a
 14443 004c 0B       		.uleb128 0xb
 14444 004d 3B       		.uleb128 0x3b
 14445 004e 0B       		.uleb128 0xb
 14446 004f 01       		.uleb128 0x1
 14447 0050 13       		.uleb128 0x13
 14448 0051 00       		.byte	0
 14449 0052 00       		.byte	0
 14450 0053 08       		.uleb128 0x8
 14451 0054 0D       		.uleb128 0xd
 14452 0055 00       		.byte	0
 14453 0056 03       		.uleb128 0x3
 14454 0057 0E       		.uleb128 0xe
 14455 0058 3A       		.uleb128 0x3a
 14456 0059 0B       		.uleb128 0xb
 14457 005a 3B       		.uleb128 0x3b
 14458 005b 0B       		.uleb128 0xb
 14459 005c 49       		.uleb128 0x49
 14460 005d 13       		.uleb128 0x13
 14461 005e 38       		.uleb128 0x38
 14462 005f 0B       		.uleb128 0xb
 14463 0060 00       		.byte	0
 14464 0061 00       		.byte	0
 14465 0062 09       		.uleb128 0x9
 14466 0063 0D       		.uleb128 0xd
 14467 0064 00       		.byte	0
 14468 0065 03       		.uleb128 0x3
 14469 0066 08       		.uleb128 0x8
 14470 0067 3A       		.uleb128 0x3a
 14471 0068 0B       		.uleb128 0xb
 14472 0069 3B       		.uleb128 0x3b
 14473 006a 05       		.uleb128 0x5
 14474 006b 49       		.uleb128 0x49
 14475 006c 13       		.uleb128 0x13
 14476 006d 38       		.uleb128 0x38
 14477 006e 0B       		.uleb128 0xb
 14478 006f 00       		.byte	0
 14479 0070 00       		.byte	0
 14480 0071 0A       		.uleb128 0xa
 14481 0072 0D       		.uleb128 0xd
 14482 0073 00       		.byte	0
 14483 0074 03       		.uleb128 0x3
 14484 0075 0E       		.uleb128 0xe
 14485 0076 3A       		.uleb128 0x3a
 14486 0077 0B       		.uleb128 0xb
 14487 0078 3B       		.uleb128 0x3b
 14488 0079 05       		.uleb128 0x5
 14489 007a 49       		.uleb128 0x49
 14490 007b 13       		.uleb128 0x13
 14491 007c 38       		.uleb128 0x38
ARM GAS  C:\Users\adrie\AppData\Local\Temp\ccgB8szF.s 			page 256


 14492 007d 0B       		.uleb128 0xb
 14493 007e 00       		.byte	0
 14494 007f 00       		.byte	0
 14495 0080 0B       		.uleb128 0xb
 14496 0081 0F       		.uleb128 0xf
 14497 0082 00       		.byte	0
 14498 0083 0B       		.uleb128 0xb
 14499 0084 0B       		.uleb128 0xb
 14500 0085 49       		.uleb128 0x49
 14501 0086 13       		.uleb128 0x13
 14502 0087 00       		.byte	0
 14503 0088 00       		.byte	0
 14504 0089 0C       		.uleb128 0xc
 14505 008a 13       		.uleb128 0x13
 14506 008b 01       		.byte	0x1
 14507 008c 03       		.uleb128 0x3
 14508 008d 0E       		.uleb128 0xe
 14509 008e 0B       		.uleb128 0xb
 14510 008f 0B       		.uleb128 0xb
 14511 0090 3A       		.uleb128 0x3a
 14512 0091 0B       		.uleb128 0xb
 14513 0092 3B       		.uleb128 0x3b
 14514 0093 05       		.uleb128 0x5
 14515 0094 01       		.uleb128 0x1
 14516 0095 13       		.uleb128 0x13
 14517 0096 00       		.byte	0
 14518 0097 00       		.byte	0
 14519 0098 0D       		.uleb128 0xd
 14520 0099 15       		.uleb128 0x15
 14521 009a 01       		.byte	0x1
 14522 009b 27       		.uleb128 0x27
 14523 009c 19       		.uleb128 0x19
 14524 009d 01       		.uleb128 0x1
 14525 009e 13       		.uleb128 0x13
 14526 009f 00       		.byte	0
 14527 00a0 00       		.byte	0
 14528 00a1 0E       		.uleb128 0xe
 14529 00a2 05       		.uleb128 0x5
 14530 00a3 00       		.byte	0
 14531 00a4 49       		.uleb128 0x49
 14532 00a5 13       		.uleb128 0x13
 14533 00a6 00       		.byte	0
 14534 00a7 00       		.byte	0
 14535 00a8 0F       		.uleb128 0xf
 14536 00a9 0F       		.uleb128 0xf
 14537 00aa 00       		.byte	0
 14538 00ab 0B       		.uleb128 0xb
 14539 00ac 0B       		.uleb128 0xb
 14540 00ad 00       		.byte	0
 14541 00ae 00       		.byte	0
 14542 00af 10       		.uleb128 0x10
 14543 00b0 13       		.uleb128 0x13
 14544 00b1 01       		.byte	0x1
 14545 00b2 03       		.uleb128 0x3
 14546 00b3 0E       		.uleb128 0xe
 14547 00b4 0B       		.uleb128 0xb
 14548 00b5 05       		.uleb128 0x5
ARM GAS  C:\Users\adrie\AppData\Local\Temp\ccgB8szF.s 			page 257


 14549 00b6 3A       		.uleb128 0x3a
 14550 00b7 0B       		.uleb128 0xb
 14551 00b8 3B       		.uleb128 0x3b
 14552 00b9 05       		.uleb128 0x5
 14553 00ba 01       		.uleb128 0x1
 14554 00bb 13       		.uleb128 0x13
 14555 00bc 00       		.byte	0
 14556 00bd 00       		.byte	0
 14557 00be 11       		.uleb128 0x11
 14558 00bf 0D       		.uleb128 0xd
 14559 00c0 00       		.byte	0
 14560 00c1 03       		.uleb128 0x3
 14561 00c2 0E       		.uleb128 0xe
 14562 00c3 3A       		.uleb128 0x3a
 14563 00c4 0B       		.uleb128 0xb
 14564 00c5 3B       		.uleb128 0x3b
 14565 00c6 05       		.uleb128 0x5
 14566 00c7 49       		.uleb128 0x49
 14567 00c8 13       		.uleb128 0x13
 14568 00c9 38       		.uleb128 0x38
 14569 00ca 05       		.uleb128 0x5
 14570 00cb 00       		.byte	0
 14571 00cc 00       		.byte	0
 14572 00cd 12       		.uleb128 0x12
 14573 00ce 0D       		.uleb128 0xd
 14574 00cf 00       		.byte	0
 14575 00d0 03       		.uleb128 0x3
 14576 00d1 08       		.uleb128 0x8
 14577 00d2 3A       		.uleb128 0x3a
 14578 00d3 0B       		.uleb128 0xb
 14579 00d4 3B       		.uleb128 0x3b
 14580 00d5 05       		.uleb128 0x5
 14581 00d6 49       		.uleb128 0x49
 14582 00d7 13       		.uleb128 0x13
 14583 00d8 38       		.uleb128 0x38
 14584 00d9 05       		.uleb128 0x5
 14585 00da 00       		.byte	0
 14586 00db 00       		.byte	0
 14587 00dc 13       		.uleb128 0x13
 14588 00dd 01       		.uleb128 0x1
 14589 00de 01       		.byte	0x1
 14590 00df 49       		.uleb128 0x49
 14591 00e0 13       		.uleb128 0x13
 14592 00e1 01       		.uleb128 0x1
 14593 00e2 13       		.uleb128 0x13
 14594 00e3 00       		.byte	0
 14595 00e4 00       		.byte	0
 14596 00e5 14       		.uleb128 0x14
 14597 00e6 21       		.uleb128 0x21
 14598 00e7 00       		.byte	0
 14599 00e8 49       		.uleb128 0x49
 14600 00e9 13       		.uleb128 0x13
 14601 00ea 2F       		.uleb128 0x2f
 14602 00eb 0B       		.uleb128 0xb
 14603 00ec 00       		.byte	0
 14604 00ed 00       		.byte	0
 14605 00ee 15       		.uleb128 0x15
ARM GAS  C:\Users\adrie\AppData\Local\Temp\ccgB8szF.s 			page 258


 14606 00ef 34       		.uleb128 0x34
 14607 00f0 00       		.byte	0
 14608 00f1 03       		.uleb128 0x3
 14609 00f2 0E       		.uleb128 0xe
 14610 00f3 3A       		.uleb128 0x3a
 14611 00f4 0B       		.uleb128 0xb
 14612 00f5 3B       		.uleb128 0x3b
 14613 00f6 05       		.uleb128 0x5
 14614 00f7 49       		.uleb128 0x49
 14615 00f8 13       		.uleb128 0x13
 14616 00f9 3F       		.uleb128 0x3f
 14617 00fa 19       		.uleb128 0x19
 14618 00fb 3C       		.uleb128 0x3c
 14619 00fc 19       		.uleb128 0x19
 14620 00fd 00       		.byte	0
 14621 00fe 00       		.byte	0
 14622 00ff 16       		.uleb128 0x16
 14623 0100 34       		.uleb128 0x34
 14624 0101 00       		.byte	0
 14625 0102 03       		.uleb128 0x3
 14626 0103 0E       		.uleb128 0xe
 14627 0104 3A       		.uleb128 0x3a
 14628 0105 0B       		.uleb128 0xb
 14629 0106 3B       		.uleb128 0x3b
 14630 0107 0B       		.uleb128 0xb
 14631 0108 49       		.uleb128 0x49
 14632 0109 13       		.uleb128 0x13
 14633 010a 3F       		.uleb128 0x3f
 14634 010b 19       		.uleb128 0x19
 14635 010c 3C       		.uleb128 0x3c
 14636 010d 19       		.uleb128 0x19
 14637 010e 00       		.byte	0
 14638 010f 00       		.byte	0
 14639 0110 17       		.uleb128 0x17
 14640 0111 13       		.uleb128 0x13
 14641 0112 01       		.byte	0x1
 14642 0113 0B       		.uleb128 0xb
 14643 0114 0B       		.uleb128 0xb
 14644 0115 3A       		.uleb128 0x3a
 14645 0116 0B       		.uleb128 0xb
 14646 0117 3B       		.uleb128 0x3b
 14647 0118 0B       		.uleb128 0xb
 14648 0119 01       		.uleb128 0x1
 14649 011a 13       		.uleb128 0x13
 14650 011b 00       		.byte	0
 14651 011c 00       		.byte	0
 14652 011d 18       		.uleb128 0x18
 14653 011e 0D       		.uleb128 0xd
 14654 011f 00       		.byte	0
 14655 0120 03       		.uleb128 0x3
 14656 0121 08       		.uleb128 0x8
 14657 0122 3A       		.uleb128 0x3a
 14658 0123 0B       		.uleb128 0xb
 14659 0124 3B       		.uleb128 0x3b
 14660 0125 0B       		.uleb128 0xb
 14661 0126 49       		.uleb128 0x49
 14662 0127 13       		.uleb128 0x13
ARM GAS  C:\Users\adrie\AppData\Local\Temp\ccgB8szF.s 			page 259


 14663 0128 38       		.uleb128 0x38
 14664 0129 0B       		.uleb128 0xb
 14665 012a 00       		.byte	0
 14666 012b 00       		.byte	0
 14667 012c 19       		.uleb128 0x19
 14668 012d 13       		.uleb128 0x13
 14669 012e 01       		.byte	0x1
 14670 012f 0B       		.uleb128 0xb
 14671 0130 0B       		.uleb128 0xb
 14672 0131 3A       		.uleb128 0x3a
 14673 0132 0B       		.uleb128 0xb
 14674 0133 3B       		.uleb128 0x3b
 14675 0134 05       		.uleb128 0x5
 14676 0135 01       		.uleb128 0x1
 14677 0136 13       		.uleb128 0x13
 14678 0137 00       		.byte	0
 14679 0138 00       		.byte	0
 14680 0139 1A       		.uleb128 0x1a
 14681 013a 16       		.uleb128 0x16
 14682 013b 00       		.byte	0
 14683 013c 03       		.uleb128 0x3
 14684 013d 0E       		.uleb128 0xe
 14685 013e 3A       		.uleb128 0x3a
 14686 013f 0B       		.uleb128 0xb
 14687 0140 3B       		.uleb128 0x3b
 14688 0141 05       		.uleb128 0x5
 14689 0142 49       		.uleb128 0x49
 14690 0143 13       		.uleb128 0x13
 14691 0144 00       		.byte	0
 14692 0145 00       		.byte	0
 14693 0146 1B       		.uleb128 0x1b
 14694 0147 13       		.uleb128 0x13
 14695 0148 01       		.byte	0x1
 14696 0149 0B       		.uleb128 0xb
 14697 014a 05       		.uleb128 0x5
 14698 014b 3A       		.uleb128 0x3a
 14699 014c 0B       		.uleb128 0xb
 14700 014d 3B       		.uleb128 0x3b
 14701 014e 05       		.uleb128 0x5
 14702 014f 01       		.uleb128 0x1
 14703 0150 13       		.uleb128 0x13
 14704 0151 00       		.byte	0
 14705 0152 00       		.byte	0
 14706 0153 1C       		.uleb128 0x1c
 14707 0154 13       		.uleb128 0x13
 14708 0155 01       		.byte	0x1
 14709 0156 0B       		.uleb128 0xb
 14710 0157 05       		.uleb128 0x5
 14711 0158 3A       		.uleb128 0x3a
 14712 0159 0B       		.uleb128 0xb
 14713 015a 3B       		.uleb128 0x3b
 14714 015b 0B       		.uleb128 0xb
 14715 015c 01       		.uleb128 0x1
 14716 015d 13       		.uleb128 0x13
 14717 015e 00       		.byte	0
 14718 015f 00       		.byte	0
 14719 0160 1D       		.uleb128 0x1d
ARM GAS  C:\Users\adrie\AppData\Local\Temp\ccgB8szF.s 			page 260


 14720 0161 17       		.uleb128 0x17
 14721 0162 01       		.byte	0x1
 14722 0163 0B       		.uleb128 0xb
 14723 0164 0B       		.uleb128 0xb
 14724 0165 3A       		.uleb128 0x3a
 14725 0166 0B       		.uleb128 0xb
 14726 0167 3B       		.uleb128 0x3b
 14727 0168 0B       		.uleb128 0xb
 14728 0169 01       		.uleb128 0x1
 14729 016a 13       		.uleb128 0x13
 14730 016b 00       		.byte	0
 14731 016c 00       		.byte	0
 14732 016d 1E       		.uleb128 0x1e
 14733 016e 0D       		.uleb128 0xd
 14734 016f 00       		.byte	0
 14735 0170 03       		.uleb128 0x3
 14736 0171 0E       		.uleb128 0xe
 14737 0172 3A       		.uleb128 0x3a
 14738 0173 0B       		.uleb128 0xb
 14739 0174 3B       		.uleb128 0x3b
 14740 0175 05       		.uleb128 0x5
 14741 0176 49       		.uleb128 0x49
 14742 0177 13       		.uleb128 0x13
 14743 0178 00       		.byte	0
 14744 0179 00       		.byte	0
 14745 017a 1F       		.uleb128 0x1f
 14746 017b 34       		.uleb128 0x34
 14747 017c 00       		.byte	0
 14748 017d 03       		.uleb128 0x3
 14749 017e 08       		.uleb128 0x8
 14750 017f 3A       		.uleb128 0x3a
 14751 0180 0B       		.uleb128 0xb
 14752 0181 3B       		.uleb128 0x3b
 14753 0182 05       		.uleb128 0x5
 14754 0183 49       		.uleb128 0x49
 14755 0184 13       		.uleb128 0x13
 14756 0185 3F       		.uleb128 0x3f
 14757 0186 19       		.uleb128 0x19
 14758 0187 3C       		.uleb128 0x3c
 14759 0188 19       		.uleb128 0x19
 14760 0189 00       		.byte	0
 14761 018a 00       		.byte	0
 14762 018b 20       		.uleb128 0x20
 14763 018c 15       		.uleb128 0x15
 14764 018d 01       		.byte	0x1
 14765 018e 27       		.uleb128 0x27
 14766 018f 19       		.uleb128 0x19
 14767 0190 49       		.uleb128 0x49
 14768 0191 13       		.uleb128 0x13
 14769 0192 01       		.uleb128 0x1
 14770 0193 13       		.uleb128 0x13
 14771 0194 00       		.byte	0
 14772 0195 00       		.byte	0
 14773 0196 21       		.uleb128 0x21
 14774 0197 04       		.uleb128 0x4
 14775 0198 01       		.byte	0x1
 14776 0199 3E       		.uleb128 0x3e
ARM GAS  C:\Users\adrie\AppData\Local\Temp\ccgB8szF.s 			page 261


 14777 019a 0B       		.uleb128 0xb
 14778 019b 0B       		.uleb128 0xb
 14779 019c 0B       		.uleb128 0xb
 14780 019d 49       		.uleb128 0x49
 14781 019e 13       		.uleb128 0x13
 14782 019f 3A       		.uleb128 0x3a
 14783 01a0 0B       		.uleb128 0xb
 14784 01a1 3B       		.uleb128 0x3b
 14785 01a2 0B       		.uleb128 0xb
 14786 01a3 01       		.uleb128 0x1
 14787 01a4 13       		.uleb128 0x13
 14788 01a5 00       		.byte	0
 14789 01a6 00       		.byte	0
 14790 01a7 22       		.uleb128 0x22
 14791 01a8 28       		.uleb128 0x28
 14792 01a9 00       		.byte	0
 14793 01aa 03       		.uleb128 0x3
 14794 01ab 0E       		.uleb128 0xe
 14795 01ac 1C       		.uleb128 0x1c
 14796 01ad 0B       		.uleb128 0xb
 14797 01ae 00       		.byte	0
 14798 01af 00       		.byte	0
 14799 01b0 23       		.uleb128 0x23
 14800 01b1 0D       		.uleb128 0xd
 14801 01b2 00       		.byte	0
 14802 01b3 03       		.uleb128 0x3
 14803 01b4 08       		.uleb128 0x8
 14804 01b5 3A       		.uleb128 0x3a
 14805 01b6 0B       		.uleb128 0xb
 14806 01b7 3B       		.uleb128 0x3b
 14807 01b8 0B       		.uleb128 0xb
 14808 01b9 49       		.uleb128 0x49
 14809 01ba 13       		.uleb128 0x13
 14810 01bb 00       		.byte	0
 14811 01bc 00       		.byte	0
 14812 01bd 24       		.uleb128 0x24
 14813 01be 04       		.uleb128 0x4
 14814 01bf 01       		.byte	0x1
 14815 01c0 3E       		.uleb128 0x3e
 14816 01c1 0B       		.uleb128 0xb
 14817 01c2 0B       		.uleb128 0xb
 14818 01c3 0B       		.uleb128 0xb
 14819 01c4 49       		.uleb128 0x49
 14820 01c5 13       		.uleb128 0x13
 14821 01c6 3A       		.uleb128 0x3a
 14822 01c7 0B       		.uleb128 0xb
 14823 01c8 3B       		.uleb128 0x3b
 14824 01c9 05       		.uleb128 0x5
 14825 01ca 01       		.uleb128 0x1
 14826 01cb 13       		.uleb128 0x13
 14827 01cc 00       		.byte	0
 14828 01cd 00       		.byte	0
 14829 01ce 25       		.uleb128 0x25
 14830 01cf 26       		.uleb128 0x26
 14831 01d0 00       		.byte	0
 14832 01d1 00       		.byte	0
 14833 01d2 00       		.byte	0
ARM GAS  C:\Users\adrie\AppData\Local\Temp\ccgB8szF.s 			page 262


 14834 01d3 26       		.uleb128 0x26
 14835 01d4 13       		.uleb128 0x13
 14836 01d5 01       		.byte	0x1
 14837 01d6 0B       		.uleb128 0xb
 14838 01d7 06       		.uleb128 0x6
 14839 01d8 3A       		.uleb128 0x3a
 14840 01d9 0B       		.uleb128 0xb
 14841 01da 3B       		.uleb128 0x3b
 14842 01db 0B       		.uleb128 0xb
 14843 01dc 01       		.uleb128 0x1
 14844 01dd 13       		.uleb128 0x13
 14845 01de 00       		.byte	0
 14846 01df 00       		.byte	0
 14847 01e0 27       		.uleb128 0x27
 14848 01e1 0D       		.uleb128 0xd
 14849 01e2 00       		.byte	0
 14850 01e3 03       		.uleb128 0x3
 14851 01e4 0E       		.uleb128 0xe
 14852 01e5 3A       		.uleb128 0x3a
 14853 01e6 0B       		.uleb128 0xb
 14854 01e7 3B       		.uleb128 0x3b
 14855 01e8 0B       		.uleb128 0xb
 14856 01e9 49       		.uleb128 0x49
 14857 01ea 13       		.uleb128 0x13
 14858 01eb 38       		.uleb128 0x38
 14859 01ec 05       		.uleb128 0x5
 14860 01ed 00       		.byte	0
 14861 01ee 00       		.byte	0
 14862 01ef 28       		.uleb128 0x28
 14863 01f0 0D       		.uleb128 0xd
 14864 01f1 00       		.byte	0
 14865 01f2 03       		.uleb128 0x3
 14866 01f3 08       		.uleb128 0x8
 14867 01f4 3A       		.uleb128 0x3a
 14868 01f5 0B       		.uleb128 0xb
 14869 01f6 3B       		.uleb128 0x3b
 14870 01f7 0B       		.uleb128 0xb
 14871 01f8 49       		.uleb128 0x49
 14872 01f9 13       		.uleb128 0x13
 14873 01fa 38       		.uleb128 0x38
 14874 01fb 05       		.uleb128 0x5
 14875 01fc 00       		.byte	0
 14876 01fd 00       		.byte	0
 14877 01fe 29       		.uleb128 0x29
 14878 01ff 21       		.uleb128 0x21
 14879 0200 00       		.byte	0
 14880 0201 49       		.uleb128 0x49
 14881 0202 13       		.uleb128 0x13
 14882 0203 2F       		.uleb128 0x2f
 14883 0204 05       		.uleb128 0x5
 14884 0205 00       		.byte	0
 14885 0206 00       		.byte	0
 14886 0207 2A       		.uleb128 0x2a
 14887 0208 0D       		.uleb128 0xd
 14888 0209 00       		.byte	0
 14889 020a 03       		.uleb128 0x3
 14890 020b 0E       		.uleb128 0xe
ARM GAS  C:\Users\adrie\AppData\Local\Temp\ccgB8szF.s 			page 263


 14891 020c 3A       		.uleb128 0x3a
 14892 020d 0B       		.uleb128 0xb
 14893 020e 3B       		.uleb128 0x3b
 14894 020f 0B       		.uleb128 0xb
 14895 0210 49       		.uleb128 0x49
 14896 0211 13       		.uleb128 0x13
 14897 0212 00       		.byte	0
 14898 0213 00       		.byte	0
 14899 0214 2B       		.uleb128 0x2b
 14900 0215 17       		.uleb128 0x17
 14901 0216 01       		.byte	0x1
 14902 0217 0B       		.uleb128 0xb
 14903 0218 0B       		.uleb128 0xb
 14904 0219 3A       		.uleb128 0x3a
 14905 021a 0B       		.uleb128 0xb
 14906 021b 3B       		.uleb128 0x3b
 14907 021c 05       		.uleb128 0x5
 14908 021d 01       		.uleb128 0x1
 14909 021e 13       		.uleb128 0x13
 14910 021f 00       		.byte	0
 14911 0220 00       		.byte	0
 14912 0221 2C       		.uleb128 0x2c
 14913 0222 13       		.uleb128 0x13
 14914 0223 01       		.byte	0x1
 14915 0224 03       		.uleb128 0x3
 14916 0225 0E       		.uleb128 0xe
 14917 0226 0B       		.uleb128 0xb
 14918 0227 05       		.uleb128 0x5
 14919 0228 3A       		.uleb128 0x3a
 14920 0229 0B       		.uleb128 0xb
 14921 022a 3B       		.uleb128 0x3b
 14922 022b 0B       		.uleb128 0xb
 14923 022c 01       		.uleb128 0x1
 14924 022d 13       		.uleb128 0x13
 14925 022e 00       		.byte	0
 14926 022f 00       		.byte	0
 14927 0230 2D       		.uleb128 0x2d
 14928 0231 13       		.uleb128 0x13
 14929 0232 00       		.byte	0
 14930 0233 03       		.uleb128 0x3
 14931 0234 0E       		.uleb128 0xe
 14932 0235 3C       		.uleb128 0x3c
 14933 0236 19       		.uleb128 0x19
 14934 0237 00       		.byte	0
 14935 0238 00       		.byte	0
 14936 0239 2E       		.uleb128 0x2e
 14937 023a 15       		.uleb128 0x15
 14938 023b 00       		.byte	0
 14939 023c 27       		.uleb128 0x27
 14940 023d 19       		.uleb128 0x19
 14941 023e 00       		.byte	0
 14942 023f 00       		.byte	0
 14943 0240 2F       		.uleb128 0x2f
 14944 0241 34       		.uleb128 0x34
 14945 0242 00       		.byte	0
 14946 0243 03       		.uleb128 0x3
 14947 0244 08       		.uleb128 0x8
ARM GAS  C:\Users\adrie\AppData\Local\Temp\ccgB8szF.s 			page 264


 14948 0245 3A       		.uleb128 0x3a
 14949 0246 0B       		.uleb128 0xb
 14950 0247 3B       		.uleb128 0x3b
 14951 0248 0B       		.uleb128 0xb
 14952 0249 49       		.uleb128 0x49
 14953 024a 13       		.uleb128 0x13
 14954 024b 3F       		.uleb128 0x3f
 14955 024c 19       		.uleb128 0x19
 14956 024d 3C       		.uleb128 0x3c
 14957 024e 19       		.uleb128 0x19
 14958 024f 00       		.byte	0
 14959 0250 00       		.byte	0
 14960 0251 30       		.uleb128 0x30
 14961 0252 04       		.uleb128 0x4
 14962 0253 01       		.byte	0x1
 14963 0254 03       		.uleb128 0x3
 14964 0255 0E       		.uleb128 0xe
 14965 0256 3E       		.uleb128 0x3e
 14966 0257 0B       		.uleb128 0xb
 14967 0258 0B       		.uleb128 0xb
 14968 0259 0B       		.uleb128 0xb
 14969 025a 49       		.uleb128 0x49
 14970 025b 13       		.uleb128 0x13
 14971 025c 3A       		.uleb128 0x3a
 14972 025d 0B       		.uleb128 0xb
 14973 025e 3B       		.uleb128 0x3b
 14974 025f 05       		.uleb128 0x5
 14975 0260 01       		.uleb128 0x1
 14976 0261 13       		.uleb128 0x13
 14977 0262 00       		.byte	0
 14978 0263 00       		.byte	0
 14979 0264 31       		.uleb128 0x31
 14980 0265 28       		.uleb128 0x28
 14981 0266 00       		.byte	0
 14982 0267 03       		.uleb128 0x3
 14983 0268 0E       		.uleb128 0xe
 14984 0269 1C       		.uleb128 0x1c
 14985 026a 0D       		.uleb128 0xd
 14986 026b 00       		.byte	0
 14987 026c 00       		.byte	0
 14988 026d 32       		.uleb128 0x32
 14989 026e 34       		.uleb128 0x34
 14990 026f 00       		.byte	0
 14991 0270 03       		.uleb128 0x3
 14992 0271 0E       		.uleb128 0xe
 14993 0272 3A       		.uleb128 0x3a
 14994 0273 0B       		.uleb128 0xb
 14995 0274 3B       		.uleb128 0x3b
 14996 0275 0B       		.uleb128 0xb
 14997 0276 49       		.uleb128 0x49
 14998 0277 13       		.uleb128 0x13
 14999 0278 02       		.uleb128 0x2
 15000 0279 18       		.uleb128 0x18
 15001 027a 00       		.byte	0
 15002 027b 00       		.byte	0
 15003 027c 33       		.uleb128 0x33
 15004 027d 34       		.uleb128 0x34
ARM GAS  C:\Users\adrie\AppData\Local\Temp\ccgB8szF.s 			page 265


 15005 027e 00       		.byte	0
 15006 027f 03       		.uleb128 0x3
 15007 0280 0E       		.uleb128 0xe
 15008 0281 3A       		.uleb128 0x3a
 15009 0282 0B       		.uleb128 0xb
 15010 0283 3B       		.uleb128 0x3b
 15011 0284 0B       		.uleb128 0xb
 15012 0285 49       		.uleb128 0x49
 15013 0286 13       		.uleb128 0x13
 15014 0287 00       		.byte	0
 15015 0288 00       		.byte	0
 15016 0289 34       		.uleb128 0x34
 15017 028a 34       		.uleb128 0x34
 15018 028b 00       		.byte	0
 15019 028c 03       		.uleb128 0x3
 15020 028d 0E       		.uleb128 0xe
 15021 028e 3A       		.uleb128 0x3a
 15022 028f 0B       		.uleb128 0xb
 15023 0290 3B       		.uleb128 0x3b
 15024 0291 05       		.uleb128 0x5
 15025 0292 49       		.uleb128 0x49
 15026 0293 13       		.uleb128 0x13
 15027 0294 02       		.uleb128 0x2
 15028 0295 18       		.uleb128 0x18
 15029 0296 00       		.byte	0
 15030 0297 00       		.byte	0
 15031 0298 35       		.uleb128 0x35
 15032 0299 2E       		.uleb128 0x2e
 15033 029a 01       		.byte	0x1
 15034 029b 3F       		.uleb128 0x3f
 15035 029c 19       		.uleb128 0x19
 15036 029d 03       		.uleb128 0x3
 15037 029e 0E       		.uleb128 0xe
 15038 029f 3A       		.uleb128 0x3a
 15039 02a0 0B       		.uleb128 0xb
 15040 02a1 3B       		.uleb128 0x3b
 15041 02a2 05       		.uleb128 0x5
 15042 02a3 11       		.uleb128 0x11
 15043 02a4 01       		.uleb128 0x1
 15044 02a5 12       		.uleb128 0x12
 15045 02a6 06       		.uleb128 0x6
 15046 02a7 40       		.uleb128 0x40
 15047 02a8 18       		.uleb128 0x18
 15048 02a9 9742     		.uleb128 0x2117
 15049 02ab 19       		.uleb128 0x19
 15050 02ac 01       		.uleb128 0x1
 15051 02ad 13       		.uleb128 0x13
 15052 02ae 00       		.byte	0
 15053 02af 00       		.byte	0
 15054 02b0 36       		.uleb128 0x36
 15055 02b1 898201   		.uleb128 0x4109
 15056 02b4 01       		.byte	0x1
 15057 02b5 11       		.uleb128 0x11
 15058 02b6 01       		.uleb128 0x1
 15059 02b7 31       		.uleb128 0x31
 15060 02b8 13       		.uleb128 0x13
 15061 02b9 01       		.uleb128 0x1
ARM GAS  C:\Users\adrie\AppData\Local\Temp\ccgB8szF.s 			page 266


 15062 02ba 13       		.uleb128 0x13
 15063 02bb 00       		.byte	0
 15064 02bc 00       		.byte	0
 15065 02bd 37       		.uleb128 0x37
 15066 02be 8A8201   		.uleb128 0x410a
 15067 02c1 00       		.byte	0
 15068 02c2 02       		.uleb128 0x2
 15069 02c3 18       		.uleb128 0x18
 15070 02c4 9142     		.uleb128 0x2111
 15071 02c6 18       		.uleb128 0x18
 15072 02c7 00       		.byte	0
 15073 02c8 00       		.byte	0
 15074 02c9 38       		.uleb128 0x38
 15075 02ca 898201   		.uleb128 0x4109
 15076 02cd 00       		.byte	0
 15077 02ce 11       		.uleb128 0x11
 15078 02cf 01       		.uleb128 0x1
 15079 02d0 31       		.uleb128 0x31
 15080 02d1 13       		.uleb128 0x13
 15081 02d2 00       		.byte	0
 15082 02d3 00       		.byte	0
 15083 02d4 39       		.uleb128 0x39
 15084 02d5 2E       		.uleb128 0x2e
 15085 02d6 01       		.byte	0x1
 15086 02d7 03       		.uleb128 0x3
 15087 02d8 0E       		.uleb128 0xe
 15088 02d9 3A       		.uleb128 0x3a
 15089 02da 0B       		.uleb128 0xb
 15090 02db 3B       		.uleb128 0x3b
 15091 02dc 05       		.uleb128 0x5
 15092 02dd 27       		.uleb128 0x27
 15093 02de 19       		.uleb128 0x19
 15094 02df 11       		.uleb128 0x11
 15095 02e0 01       		.uleb128 0x1
 15096 02e1 12       		.uleb128 0x12
 15097 02e2 06       		.uleb128 0x6
 15098 02e3 40       		.uleb128 0x40
 15099 02e4 18       		.uleb128 0x18
 15100 02e5 9642     		.uleb128 0x2116
 15101 02e7 19       		.uleb128 0x19
 15102 02e8 01       		.uleb128 0x1
 15103 02e9 13       		.uleb128 0x13
 15104 02ea 00       		.byte	0
 15105 02eb 00       		.byte	0
 15106 02ec 3A       		.uleb128 0x3a
 15107 02ed 05       		.uleb128 0x5
 15108 02ee 00       		.byte	0
 15109 02ef 03       		.uleb128 0x3
 15110 02f0 08       		.uleb128 0x8
 15111 02f1 3A       		.uleb128 0x3a
 15112 02f2 0B       		.uleb128 0xb
 15113 02f3 3B       		.uleb128 0x3b
 15114 02f4 05       		.uleb128 0x5
 15115 02f5 49       		.uleb128 0x49
 15116 02f6 13       		.uleb128 0x13
 15117 02f7 02       		.uleb128 0x2
 15118 02f8 17       		.uleb128 0x17
ARM GAS  C:\Users\adrie\AppData\Local\Temp\ccgB8szF.s 			page 267


 15119 02f9 00       		.byte	0
 15120 02fa 00       		.byte	0
 15121 02fb 3B       		.uleb128 0x3b
 15122 02fc 34       		.uleb128 0x34
 15123 02fd 00       		.byte	0
 15124 02fe 03       		.uleb128 0x3
 15125 02ff 0E       		.uleb128 0xe
 15126 0300 49       		.uleb128 0x49
 15127 0301 13       		.uleb128 0x13
 15128 0302 34       		.uleb128 0x34
 15129 0303 19       		.uleb128 0x19
 15130 0304 02       		.uleb128 0x2
 15131 0305 18       		.uleb128 0x18
 15132 0306 00       		.byte	0
 15133 0307 00       		.byte	0
 15134 0308 3C       		.uleb128 0x3c
 15135 0309 34       		.uleb128 0x34
 15136 030a 00       		.byte	0
 15137 030b 03       		.uleb128 0x3
 15138 030c 0E       		.uleb128 0xe
 15139 030d 3A       		.uleb128 0x3a
 15140 030e 0B       		.uleb128 0xb
 15141 030f 3B       		.uleb128 0x3b
 15142 0310 05       		.uleb128 0x5
 15143 0311 49       		.uleb128 0x49
 15144 0312 13       		.uleb128 0x13
 15145 0313 00       		.byte	0
 15146 0314 00       		.byte	0
 15147 0315 3D       		.uleb128 0x3d
 15148 0316 34       		.uleb128 0x34
 15149 0317 00       		.byte	0
 15150 0318 03       		.uleb128 0x3
 15151 0319 0E       		.uleb128 0xe
 15152 031a 3A       		.uleb128 0x3a
 15153 031b 0B       		.uleb128 0xb
 15154 031c 3B       		.uleb128 0x3b
 15155 031d 05       		.uleb128 0x5
 15156 031e 49       		.uleb128 0x49
 15157 031f 13       		.uleb128 0x13
 15158 0320 02       		.uleb128 0x2
 15159 0321 17       		.uleb128 0x17
 15160 0322 00       		.byte	0
 15161 0323 00       		.byte	0
 15162 0324 3E       		.uleb128 0x3e
 15163 0325 34       		.uleb128 0x34
 15164 0326 00       		.byte	0
 15165 0327 03       		.uleb128 0x3
 15166 0328 0E       		.uleb128 0xe
 15167 0329 3A       		.uleb128 0x3a
 15168 032a 0B       		.uleb128 0xb
 15169 032b 3B       		.uleb128 0x3b
 15170 032c 05       		.uleb128 0x5
 15171 032d 49       		.uleb128 0x49
 15172 032e 13       		.uleb128 0x13
 15173 032f 1C       		.uleb128 0x1c
 15174 0330 0B       		.uleb128 0xb
 15175 0331 00       		.byte	0
ARM GAS  C:\Users\adrie\AppData\Local\Temp\ccgB8szF.s 			page 268


 15176 0332 00       		.byte	0
 15177 0333 3F       		.uleb128 0x3f
 15178 0334 0B       		.uleb128 0xb
 15179 0335 01       		.byte	0x1
 15180 0336 55       		.uleb128 0x55
 15181 0337 17       		.uleb128 0x17
 15182 0338 01       		.uleb128 0x1
 15183 0339 13       		.uleb128 0x13
 15184 033a 00       		.byte	0
 15185 033b 00       		.byte	0
 15186 033c 40       		.uleb128 0x40
 15187 033d 1D       		.uleb128 0x1d
 15188 033e 01       		.byte	0x1
 15189 033f 31       		.uleb128 0x31
 15190 0340 13       		.uleb128 0x13
 15191 0341 52       		.uleb128 0x52
 15192 0342 01       		.uleb128 0x1
 15193 0343 55       		.uleb128 0x55
 15194 0344 17       		.uleb128 0x17
 15195 0345 58       		.uleb128 0x58
 15196 0346 0B       		.uleb128 0xb
 15197 0347 59       		.uleb128 0x59
 15198 0348 05       		.uleb128 0x5
 15199 0349 01       		.uleb128 0x1
 15200 034a 13       		.uleb128 0x13
 15201 034b 00       		.byte	0
 15202 034c 00       		.byte	0
 15203 034d 41       		.uleb128 0x41
 15204 034e 05       		.uleb128 0x5
 15205 034f 00       		.byte	0
 15206 0350 31       		.uleb128 0x31
 15207 0351 13       		.uleb128 0x13
 15208 0352 02       		.uleb128 0x2
 15209 0353 17       		.uleb128 0x17
 15210 0354 00       		.byte	0
 15211 0355 00       		.byte	0
 15212 0356 42       		.uleb128 0x42
 15213 0357 0B       		.uleb128 0xb
 15214 0358 01       		.byte	0x1
 15215 0359 55       		.uleb128 0x55
 15216 035a 17       		.uleb128 0x17
 15217 035b 00       		.byte	0
 15218 035c 00       		.byte	0
 15219 035d 43       		.uleb128 0x43
 15220 035e 34       		.uleb128 0x34
 15221 035f 00       		.byte	0
 15222 0360 31       		.uleb128 0x31
 15223 0361 13       		.uleb128 0x13
 15224 0362 02       		.uleb128 0x2
 15225 0363 17       		.uleb128 0x17
 15226 0364 00       		.byte	0
 15227 0365 00       		.byte	0
 15228 0366 44       		.uleb128 0x44
 15229 0367 0B       		.uleb128 0xb
 15230 0368 01       		.byte	0x1
 15231 0369 31       		.uleb128 0x31
 15232 036a 13       		.uleb128 0x13
ARM GAS  C:\Users\adrie\AppData\Local\Temp\ccgB8szF.s 			page 269


 15233 036b 55       		.uleb128 0x55
 15234 036c 17       		.uleb128 0x17
 15235 036d 00       		.byte	0
 15236 036e 00       		.byte	0
 15237 036f 45       		.uleb128 0x45
 15238 0370 1D       		.uleb128 0x1d
 15239 0371 01       		.byte	0x1
 15240 0372 31       		.uleb128 0x31
 15241 0373 13       		.uleb128 0x13
 15242 0374 11       		.uleb128 0x11
 15243 0375 01       		.uleb128 0x1
 15244 0376 12       		.uleb128 0x12
 15245 0377 06       		.uleb128 0x6
 15246 0378 58       		.uleb128 0x58
 15247 0379 0B       		.uleb128 0xb
 15248 037a 59       		.uleb128 0x59
 15249 037b 05       		.uleb128 0x5
 15250 037c 01       		.uleb128 0x1
 15251 037d 13       		.uleb128 0x13
 15252 037e 00       		.byte	0
 15253 037f 00       		.byte	0
 15254 0380 46       		.uleb128 0x46
 15255 0381 0B       		.uleb128 0xb
 15256 0382 01       		.byte	0x1
 15257 0383 11       		.uleb128 0x11
 15258 0384 01       		.uleb128 0x1
 15259 0385 12       		.uleb128 0x12
 15260 0386 06       		.uleb128 0x6
 15261 0387 00       		.byte	0
 15262 0388 00       		.byte	0
 15263 0389 47       		.uleb128 0x47
 15264 038a 34       		.uleb128 0x34
 15265 038b 00       		.byte	0
 15266 038c 31       		.uleb128 0x31
 15267 038d 13       		.uleb128 0x13
 15268 038e 02       		.uleb128 0x2
 15269 038f 18       		.uleb128 0x18
 15270 0390 00       		.byte	0
 15271 0391 00       		.byte	0
 15272 0392 48       		.uleb128 0x48
 15273 0393 898201   		.uleb128 0x4109
 15274 0396 01       		.byte	0x1
 15275 0397 11       		.uleb128 0x11
 15276 0398 01       		.uleb128 0x1
 15277 0399 31       		.uleb128 0x31
 15278 039a 13       		.uleb128 0x13
 15279 039b 00       		.byte	0
 15280 039c 00       		.byte	0
 15281 039d 49       		.uleb128 0x49
 15282 039e 1D       		.uleb128 0x1d
 15283 039f 00       		.byte	0
 15284 03a0 31       		.uleb128 0x31
 15285 03a1 13       		.uleb128 0x13
 15286 03a2 11       		.uleb128 0x11
 15287 03a3 01       		.uleb128 0x1
 15288 03a4 12       		.uleb128 0x12
 15289 03a5 06       		.uleb128 0x6
ARM GAS  C:\Users\adrie\AppData\Local\Temp\ccgB8szF.s 			page 270


 15290 03a6 58       		.uleb128 0x58
 15291 03a7 0B       		.uleb128 0xb
 15292 03a8 59       		.uleb128 0x59
 15293 03a9 05       		.uleb128 0x5
 15294 03aa 00       		.byte	0
 15295 03ab 00       		.byte	0
 15296 03ac 4A       		.uleb128 0x4a
 15297 03ad 34       		.uleb128 0x34
 15298 03ae 00       		.byte	0
 15299 03af 31       		.uleb128 0x31
 15300 03b0 13       		.uleb128 0x13
 15301 03b1 00       		.byte	0
 15302 03b2 00       		.byte	0
 15303 03b3 4B       		.uleb128 0x4b
 15304 03b4 1D       		.uleb128 0x1d
 15305 03b5 01       		.byte	0x1
 15306 03b6 31       		.uleb128 0x31
 15307 03b7 13       		.uleb128 0x13
 15308 03b8 11       		.uleb128 0x11
 15309 03b9 01       		.uleb128 0x1
 15310 03ba 12       		.uleb128 0x12
 15311 03bb 06       		.uleb128 0x6
 15312 03bc 58       		.uleb128 0x58
 15313 03bd 0B       		.uleb128 0xb
 15314 03be 59       		.uleb128 0x59
 15315 03bf 0B       		.uleb128 0xb
 15316 03c0 01       		.uleb128 0x1
 15317 03c1 13       		.uleb128 0x13
 15318 03c2 00       		.byte	0
 15319 03c3 00       		.byte	0
 15320 03c4 4C       		.uleb128 0x4c
 15321 03c5 1D       		.uleb128 0x1d
 15322 03c6 01       		.byte	0x1
 15323 03c7 31       		.uleb128 0x31
 15324 03c8 13       		.uleb128 0x13
 15325 03c9 11       		.uleb128 0x11
 15326 03ca 01       		.uleb128 0x1
 15327 03cb 12       		.uleb128 0x12
 15328 03cc 06       		.uleb128 0x6
 15329 03cd 58       		.uleb128 0x58
 15330 03ce 0B       		.uleb128 0xb
 15331 03cf 59       		.uleb128 0x59
 15332 03d0 05       		.uleb128 0x5
 15333 03d1 00       		.byte	0
 15334 03d2 00       		.byte	0
 15335 03d3 4D       		.uleb128 0x4d
 15336 03d4 1D       		.uleb128 0x1d
 15337 03d5 00       		.byte	0
 15338 03d6 31       		.uleb128 0x31
 15339 03d7 13       		.uleb128 0x13
 15340 03d8 11       		.uleb128 0x11
 15341 03d9 01       		.uleb128 0x1
 15342 03da 12       		.uleb128 0x12
 15343 03db 06       		.uleb128 0x6
 15344 03dc 58       		.uleb128 0x58
 15345 03dd 0B       		.uleb128 0xb
 15346 03de 59       		.uleb128 0x59
ARM GAS  C:\Users\adrie\AppData\Local\Temp\ccgB8szF.s 			page 271


 15347 03df 0B       		.uleb128 0xb
 15348 03e0 00       		.byte	0
 15349 03e1 00       		.byte	0
 15350 03e2 4E       		.uleb128 0x4e
 15351 03e3 1D       		.uleb128 0x1d
 15352 03e4 01       		.byte	0x1
 15353 03e5 31       		.uleb128 0x31
 15354 03e6 13       		.uleb128 0x13
 15355 03e7 11       		.uleb128 0x11
 15356 03e8 01       		.uleb128 0x1
 15357 03e9 12       		.uleb128 0x12
 15358 03ea 06       		.uleb128 0x6
 15359 03eb 58       		.uleb128 0x58
 15360 03ec 0B       		.uleb128 0xb
 15361 03ed 59       		.uleb128 0x59
 15362 03ee 0B       		.uleb128 0xb
 15363 03ef 00       		.byte	0
 15364 03f0 00       		.byte	0
 15365 03f1 4F       		.uleb128 0x4f
 15366 03f2 05       		.uleb128 0x5
 15367 03f3 00       		.byte	0
 15368 03f4 31       		.uleb128 0x31
 15369 03f5 13       		.uleb128 0x13
 15370 03f6 00       		.byte	0
 15371 03f7 00       		.byte	0
 15372 03f8 50       		.uleb128 0x50
 15373 03f9 1D       		.uleb128 0x1d
 15374 03fa 01       		.byte	0x1
 15375 03fb 31       		.uleb128 0x31
 15376 03fc 13       		.uleb128 0x13
 15377 03fd 52       		.uleb128 0x52
 15378 03fe 01       		.uleb128 0x1
 15379 03ff 55       		.uleb128 0x55
 15380 0400 17       		.uleb128 0x17
 15381 0401 58       		.uleb128 0x58
 15382 0402 0B       		.uleb128 0xb
 15383 0403 59       		.uleb128 0x59
 15384 0404 05       		.uleb128 0x5
 15385 0405 00       		.byte	0
 15386 0406 00       		.byte	0
 15387 0407 51       		.uleb128 0x51
 15388 0408 2E       		.uleb128 0x2e
 15389 0409 01       		.byte	0x1
 15390 040a 3F       		.uleb128 0x3f
 15391 040b 19       		.uleb128 0x19
 15392 040c 03       		.uleb128 0x3
 15393 040d 0E       		.uleb128 0xe
 15394 040e 3A       		.uleb128 0x3a
 15395 040f 0B       		.uleb128 0xb
 15396 0410 3B       		.uleb128 0x3b
 15397 0411 05       		.uleb128 0x5
 15398 0412 27       		.uleb128 0x27
 15399 0413 19       		.uleb128 0x19
 15400 0414 49       		.uleb128 0x49
 15401 0415 13       		.uleb128 0x13
 15402 0416 20       		.uleb128 0x20
 15403 0417 0B       		.uleb128 0xb
ARM GAS  C:\Users\adrie\AppData\Local\Temp\ccgB8szF.s 			page 272


 15404 0418 01       		.uleb128 0x1
 15405 0419 13       		.uleb128 0x13
 15406 041a 00       		.byte	0
 15407 041b 00       		.byte	0
 15408 041c 52       		.uleb128 0x52
 15409 041d 05       		.uleb128 0x5
 15410 041e 00       		.byte	0
 15411 041f 03       		.uleb128 0x3
 15412 0420 0E       		.uleb128 0xe
 15413 0421 3A       		.uleb128 0x3a
 15414 0422 0B       		.uleb128 0xb
 15415 0423 3B       		.uleb128 0x3b
 15416 0424 05       		.uleb128 0x5
 15417 0425 49       		.uleb128 0x49
 15418 0426 13       		.uleb128 0x13
 15419 0427 00       		.byte	0
 15420 0428 00       		.byte	0
 15421 0429 53       		.uleb128 0x53
 15422 042a 2E       		.uleb128 0x2e
 15423 042b 01       		.byte	0x1
 15424 042c 3F       		.uleb128 0x3f
 15425 042d 19       		.uleb128 0x19
 15426 042e 03       		.uleb128 0x3
 15427 042f 0E       		.uleb128 0xe
 15428 0430 3A       		.uleb128 0x3a
 15429 0431 0B       		.uleb128 0xb
 15430 0432 3B       		.uleb128 0x3b
 15431 0433 05       		.uleb128 0x5
 15432 0434 27       		.uleb128 0x27
 15433 0435 19       		.uleb128 0x19
 15434 0436 49       		.uleb128 0x49
 15435 0437 13       		.uleb128 0x13
 15436 0438 11       		.uleb128 0x11
 15437 0439 01       		.uleb128 0x1
 15438 043a 12       		.uleb128 0x12
 15439 043b 06       		.uleb128 0x6
 15440 043c 40       		.uleb128 0x40
 15441 043d 18       		.uleb128 0x18
 15442 043e 9742     		.uleb128 0x2117
 15443 0440 19       		.uleb128 0x19
 15444 0441 01       		.uleb128 0x1
 15445 0442 13       		.uleb128 0x13
 15446 0443 00       		.byte	0
 15447 0444 00       		.byte	0
 15448 0445 54       		.uleb128 0x54
 15449 0446 2E       		.uleb128 0x2e
 15450 0447 00       		.byte	0
 15451 0448 3F       		.uleb128 0x3f
 15452 0449 19       		.uleb128 0x19
 15453 044a 03       		.uleb128 0x3
 15454 044b 0E       		.uleb128 0xe
 15455 044c 3A       		.uleb128 0x3a
 15456 044d 0B       		.uleb128 0xb
 15457 044e 3B       		.uleb128 0x3b
 15458 044f 05       		.uleb128 0x5
 15459 0450 27       		.uleb128 0x27
 15460 0451 19       		.uleb128 0x19
ARM GAS  C:\Users\adrie\AppData\Local\Temp\ccgB8szF.s 			page 273


 15461 0452 49       		.uleb128 0x49
 15462 0453 13       		.uleb128 0x13
 15463 0454 20       		.uleb128 0x20
 15464 0455 0B       		.uleb128 0xb
 15465 0456 00       		.byte	0
 15466 0457 00       		.byte	0
 15467 0458 55       		.uleb128 0x55
 15468 0459 2E       		.uleb128 0x2e
 15469 045a 01       		.byte	0x1
 15470 045b 3F       		.uleb128 0x3f
 15471 045c 19       		.uleb128 0x19
 15472 045d 03       		.uleb128 0x3
 15473 045e 0E       		.uleb128 0xe
 15474 045f 3A       		.uleb128 0x3a
 15475 0460 0B       		.uleb128 0xb
 15476 0461 3B       		.uleb128 0x3b
 15477 0462 05       		.uleb128 0x5
 15478 0463 27       		.uleb128 0x27
 15479 0464 19       		.uleb128 0x19
 15480 0465 11       		.uleb128 0x11
 15481 0466 01       		.uleb128 0x1
 15482 0467 12       		.uleb128 0x12
 15483 0468 06       		.uleb128 0x6
 15484 0469 40       		.uleb128 0x40
 15485 046a 18       		.uleb128 0x18
 15486 046b 9742     		.uleb128 0x2117
 15487 046d 19       		.uleb128 0x19
 15488 046e 01       		.uleb128 0x1
 15489 046f 13       		.uleb128 0x13
 15490 0470 00       		.byte	0
 15491 0471 00       		.byte	0
 15492 0472 56       		.uleb128 0x56
 15493 0473 05       		.uleb128 0x5
 15494 0474 00       		.byte	0
 15495 0475 03       		.uleb128 0x3
 15496 0476 0E       		.uleb128 0xe
 15497 0477 3A       		.uleb128 0x3a
 15498 0478 0B       		.uleb128 0xb
 15499 0479 3B       		.uleb128 0x3b
 15500 047a 05       		.uleb128 0x5
 15501 047b 49       		.uleb128 0x49
 15502 047c 13       		.uleb128 0x13
 15503 047d 02       		.uleb128 0x2
 15504 047e 17       		.uleb128 0x17
 15505 047f 00       		.byte	0
 15506 0480 00       		.byte	0
 15507 0481 57       		.uleb128 0x57
 15508 0482 2E       		.uleb128 0x2e
 15509 0483 01       		.byte	0x1
 15510 0484 3F       		.uleb128 0x3f
 15511 0485 19       		.uleb128 0x19
 15512 0486 03       		.uleb128 0x3
 15513 0487 0E       		.uleb128 0xe
 15514 0488 3A       		.uleb128 0x3a
 15515 0489 0B       		.uleb128 0xb
 15516 048a 3B       		.uleb128 0x3b
 15517 048b 05       		.uleb128 0x5
ARM GAS  C:\Users\adrie\AppData\Local\Temp\ccgB8szF.s 			page 274


 15518 048c 27       		.uleb128 0x27
 15519 048d 19       		.uleb128 0x19
 15520 048e 20       		.uleb128 0x20
 15521 048f 0B       		.uleb128 0xb
 15522 0490 01       		.uleb128 0x1
 15523 0491 13       		.uleb128 0x13
 15524 0492 00       		.byte	0
 15525 0493 00       		.byte	0
 15526 0494 58       		.uleb128 0x58
 15527 0495 0B       		.uleb128 0xb
 15528 0496 01       		.byte	0x1
 15529 0497 00       		.byte	0
 15530 0498 00       		.byte	0
 15531 0499 59       		.uleb128 0x59
 15532 049a 34       		.uleb128 0x34
 15533 049b 00       		.byte	0
 15534 049c 03       		.uleb128 0x3
 15535 049d 08       		.uleb128 0x8
 15536 049e 3A       		.uleb128 0x3a
 15537 049f 0B       		.uleb128 0xb
 15538 04a0 3B       		.uleb128 0x3b
 15539 04a1 05       		.uleb128 0x5
 15540 04a2 49       		.uleb128 0x49
 15541 04a3 13       		.uleb128 0x13
 15542 04a4 00       		.byte	0
 15543 04a5 00       		.byte	0
 15544 04a6 5A       		.uleb128 0x5a
 15545 04a7 05       		.uleb128 0x5
 15546 04a8 00       		.byte	0
 15547 04a9 31       		.uleb128 0x31
 15548 04aa 13       		.uleb128 0x13
 15549 04ab 02       		.uleb128 0x2
 15550 04ac 18       		.uleb128 0x18
 15551 04ad 00       		.byte	0
 15552 04ae 00       		.byte	0
 15553 04af 5B       		.uleb128 0x5b
 15554 04b0 898201   		.uleb128 0x4109
 15555 04b3 01       		.byte	0x1
 15556 04b4 11       		.uleb128 0x11
 15557 04b5 01       		.uleb128 0x1
 15558 04b6 9542     		.uleb128 0x2115
 15559 04b8 19       		.uleb128 0x19
 15560 04b9 31       		.uleb128 0x31
 15561 04ba 13       		.uleb128 0x13
 15562 04bb 01       		.uleb128 0x1
 15563 04bc 13       		.uleb128 0x13
 15564 04bd 00       		.byte	0
 15565 04be 00       		.byte	0
 15566 04bf 5C       		.uleb128 0x5c
 15567 04c0 2E       		.uleb128 0x2e
 15568 04c1 01       		.byte	0x1
 15569 04c2 3F       		.uleb128 0x3f
 15570 04c3 19       		.uleb128 0x19
 15571 04c4 03       		.uleb128 0x3
 15572 04c5 0E       		.uleb128 0xe
 15573 04c6 3A       		.uleb128 0x3a
 15574 04c7 0B       		.uleb128 0xb
ARM GAS  C:\Users\adrie\AppData\Local\Temp\ccgB8szF.s 			page 275


 15575 04c8 3B       		.uleb128 0x3b
 15576 04c9 0B       		.uleb128 0xb
 15577 04ca 27       		.uleb128 0x27
 15578 04cb 19       		.uleb128 0x19
 15579 04cc 11       		.uleb128 0x11
 15580 04cd 01       		.uleb128 0x1
 15581 04ce 12       		.uleb128 0x12
 15582 04cf 06       		.uleb128 0x6
 15583 04d0 40       		.uleb128 0x40
 15584 04d1 18       		.uleb128 0x18
 15585 04d2 9742     		.uleb128 0x2117
 15586 04d4 19       		.uleb128 0x19
 15587 04d5 01       		.uleb128 0x1
 15588 04d6 13       		.uleb128 0x13
 15589 04d7 00       		.byte	0
 15590 04d8 00       		.byte	0
 15591 04d9 5D       		.uleb128 0x5d
 15592 04da 05       		.uleb128 0x5
 15593 04db 00       		.byte	0
 15594 04dc 03       		.uleb128 0x3
 15595 04dd 0E       		.uleb128 0xe
 15596 04de 3A       		.uleb128 0x3a
 15597 04df 0B       		.uleb128 0xb
 15598 04e0 3B       		.uleb128 0x3b
 15599 04e1 0B       		.uleb128 0xb
 15600 04e2 49       		.uleb128 0x49
 15601 04e3 13       		.uleb128 0x13
 15602 04e4 02       		.uleb128 0x2
 15603 04e5 17       		.uleb128 0x17
 15604 04e6 00       		.byte	0
 15605 04e7 00       		.byte	0
 15606 04e8 5E       		.uleb128 0x5e
 15607 04e9 0B       		.uleb128 0xb
 15608 04ea 01       		.byte	0x1
 15609 04eb 11       		.uleb128 0x11
 15610 04ec 01       		.uleb128 0x1
 15611 04ed 12       		.uleb128 0x12
 15612 04ee 06       		.uleb128 0x6
 15613 04ef 01       		.uleb128 0x1
 15614 04f0 13       		.uleb128 0x13
 15615 04f1 00       		.byte	0
 15616 04f2 00       		.byte	0
 15617 04f3 5F       		.uleb128 0x5f
 15618 04f4 34       		.uleb128 0x34
 15619 04f5 00       		.byte	0
 15620 04f6 03       		.uleb128 0x3
 15621 04f7 08       		.uleb128 0x8
 15622 04f8 3A       		.uleb128 0x3a
 15623 04f9 0B       		.uleb128 0xb
 15624 04fa 3B       		.uleb128 0x3b
 15625 04fb 0B       		.uleb128 0xb
 15626 04fc 49       		.uleb128 0x49
 15627 04fd 13       		.uleb128 0x13
 15628 04fe 02       		.uleb128 0x2
 15629 04ff 17       		.uleb128 0x17
 15630 0500 00       		.byte	0
 15631 0501 00       		.byte	0
ARM GAS  C:\Users\adrie\AppData\Local\Temp\ccgB8szF.s 			page 276


 15632 0502 60       		.uleb128 0x60
 15633 0503 34       		.uleb128 0x34
 15634 0504 00       		.byte	0
 15635 0505 03       		.uleb128 0x3
 15636 0506 0E       		.uleb128 0xe
 15637 0507 3A       		.uleb128 0x3a
 15638 0508 0B       		.uleb128 0xb
 15639 0509 3B       		.uleb128 0x3b
 15640 050a 0B       		.uleb128 0xb
 15641 050b 49       		.uleb128 0x49
 15642 050c 13       		.uleb128 0x13
 15643 050d 02       		.uleb128 0x2
 15644 050e 17       		.uleb128 0x17
 15645 050f 00       		.byte	0
 15646 0510 00       		.byte	0
 15647 0511 61       		.uleb128 0x61
 15648 0512 1D       		.uleb128 0x1d
 15649 0513 01       		.byte	0x1
 15650 0514 31       		.uleb128 0x31
 15651 0515 13       		.uleb128 0x13
 15652 0516 52       		.uleb128 0x52
 15653 0517 01       		.uleb128 0x1
 15654 0518 55       		.uleb128 0x55
 15655 0519 17       		.uleb128 0x17
 15656 051a 58       		.uleb128 0x58
 15657 051b 0B       		.uleb128 0xb
 15658 051c 59       		.uleb128 0x59
 15659 051d 0B       		.uleb128 0xb
 15660 051e 01       		.uleb128 0x1
 15661 051f 13       		.uleb128 0x13
 15662 0520 00       		.byte	0
 15663 0521 00       		.byte	0
 15664 0522 62       		.uleb128 0x62
 15665 0523 898201   		.uleb128 0x4109
 15666 0526 00       		.byte	0
 15667 0527 11       		.uleb128 0x11
 15668 0528 01       		.uleb128 0x1
 15669 0529 9542     		.uleb128 0x2115
 15670 052b 19       		.uleb128 0x19
 15671 052c 31       		.uleb128 0x31
 15672 052d 13       		.uleb128 0x13
 15673 052e 00       		.byte	0
 15674 052f 00       		.byte	0
 15675 0530 63       		.uleb128 0x63
 15676 0531 898201   		.uleb128 0x4109
 15677 0534 01       		.byte	0x1
 15678 0535 11       		.uleb128 0x11
 15679 0536 01       		.uleb128 0x1
 15680 0537 9542     		.uleb128 0x2115
 15681 0539 19       		.uleb128 0x19
 15682 053a 31       		.uleb128 0x31
 15683 053b 13       		.uleb128 0x13
 15684 053c 00       		.byte	0
 15685 053d 00       		.byte	0
 15686 053e 64       		.uleb128 0x64
 15687 053f 2E       		.uleb128 0x2e
 15688 0540 01       		.byte	0x1
ARM GAS  C:\Users\adrie\AppData\Local\Temp\ccgB8szF.s 			page 277


 15689 0541 03       		.uleb128 0x3
 15690 0542 0E       		.uleb128 0xe
 15691 0543 3A       		.uleb128 0x3a
 15692 0544 0B       		.uleb128 0xb
 15693 0545 3B       		.uleb128 0x3b
 15694 0546 05       		.uleb128 0x5
 15695 0547 27       		.uleb128 0x27
 15696 0548 19       		.uleb128 0x19
 15697 0549 20       		.uleb128 0x20
 15698 054a 0B       		.uleb128 0xb
 15699 054b 01       		.uleb128 0x1
 15700 054c 13       		.uleb128 0x13
 15701 054d 00       		.byte	0
 15702 054e 00       		.byte	0
 15703 054f 65       		.uleb128 0x65
 15704 0550 05       		.uleb128 0x5
 15705 0551 00       		.byte	0
 15706 0552 03       		.uleb128 0x3
 15707 0553 08       		.uleb128 0x8
 15708 0554 3A       		.uleb128 0x3a
 15709 0555 0B       		.uleb128 0xb
 15710 0556 3B       		.uleb128 0x3b
 15711 0557 05       		.uleb128 0x5
 15712 0558 49       		.uleb128 0x49
 15713 0559 13       		.uleb128 0x13
 15714 055a 00       		.byte	0
 15715 055b 00       		.byte	0
 15716 055c 66       		.uleb128 0x66
 15717 055d 2E       		.uleb128 0x2e
 15718 055e 01       		.byte	0x1
 15719 055f 03       		.uleb128 0x3
 15720 0560 0E       		.uleb128 0xe
 15721 0561 3A       		.uleb128 0x3a
 15722 0562 0B       		.uleb128 0xb
 15723 0563 3B       		.uleb128 0x3b
 15724 0564 0B       		.uleb128 0xb
 15725 0565 27       		.uleb128 0x27
 15726 0566 19       		.uleb128 0x19
 15727 0567 49       		.uleb128 0x49
 15728 0568 13       		.uleb128 0x13
 15729 0569 20       		.uleb128 0x20
 15730 056a 0B       		.uleb128 0xb
 15731 056b 01       		.uleb128 0x1
 15732 056c 13       		.uleb128 0x13
 15733 056d 00       		.byte	0
 15734 056e 00       		.byte	0
 15735 056f 67       		.uleb128 0x67
 15736 0570 05       		.uleb128 0x5
 15737 0571 00       		.byte	0
 15738 0572 03       		.uleb128 0x3
 15739 0573 08       		.uleb128 0x8
 15740 0574 3A       		.uleb128 0x3a
 15741 0575 0B       		.uleb128 0xb
 15742 0576 3B       		.uleb128 0x3b
 15743 0577 0B       		.uleb128 0xb
 15744 0578 49       		.uleb128 0x49
 15745 0579 13       		.uleb128 0x13
ARM GAS  C:\Users\adrie\AppData\Local\Temp\ccgB8szF.s 			page 278


 15746 057a 00       		.byte	0
 15747 057b 00       		.byte	0
 15748 057c 68       		.uleb128 0x68
 15749 057d 2E       		.uleb128 0x2e
 15750 057e 01       		.byte	0x1
 15751 057f 03       		.uleb128 0x3
 15752 0580 0E       		.uleb128 0xe
 15753 0581 3A       		.uleb128 0x3a
 15754 0582 0B       		.uleb128 0xb
 15755 0583 3B       		.uleb128 0x3b
 15756 0584 0B       		.uleb128 0xb
 15757 0585 27       		.uleb128 0x27
 15758 0586 19       		.uleb128 0x19
 15759 0587 20       		.uleb128 0x20
 15760 0588 0B       		.uleb128 0xb
 15761 0589 01       		.uleb128 0x1
 15762 058a 13       		.uleb128 0x13
 15763 058b 00       		.byte	0
 15764 058c 00       		.byte	0
 15765 058d 69       		.uleb128 0x69
 15766 058e 05       		.uleb128 0x5
 15767 058f 00       		.byte	0
 15768 0590 03       		.uleb128 0x3
 15769 0591 0E       		.uleb128 0xe
 15770 0592 3A       		.uleb128 0x3a
 15771 0593 0B       		.uleb128 0xb
 15772 0594 3B       		.uleb128 0x3b
 15773 0595 0B       		.uleb128 0xb
 15774 0596 49       		.uleb128 0x49
 15775 0597 13       		.uleb128 0x13
 15776 0598 00       		.byte	0
 15777 0599 00       		.byte	0
 15778 059a 6A       		.uleb128 0x6a
 15779 059b 2E       		.uleb128 0x2e
 15780 059c 00       		.byte	0
 15781 059d 03       		.uleb128 0x3
 15782 059e 0E       		.uleb128 0xe
 15783 059f 3A       		.uleb128 0x3a
 15784 05a0 0B       		.uleb128 0xb
 15785 05a1 3B       		.uleb128 0x3b
 15786 05a2 0B       		.uleb128 0xb
 15787 05a3 27       		.uleb128 0x27
 15788 05a4 19       		.uleb128 0x19
 15789 05a5 49       		.uleb128 0x49
 15790 05a6 13       		.uleb128 0x13
 15791 05a7 20       		.uleb128 0x20
 15792 05a8 0B       		.uleb128 0xb
 15793 05a9 00       		.byte	0
 15794 05aa 00       		.byte	0
 15795 05ab 6B       		.uleb128 0x6b
 15796 05ac 34       		.uleb128 0x34
 15797 05ad 00       		.byte	0
 15798 05ae 03       		.uleb128 0x3
 15799 05af 0E       		.uleb128 0xe
 15800 05b0 49       		.uleb128 0x49
 15801 05b1 13       		.uleb128 0x13
 15802 05b2 34       		.uleb128 0x34
ARM GAS  C:\Users\adrie\AppData\Local\Temp\ccgB8szF.s 			page 279


 15803 05b3 19       		.uleb128 0x19
 15804 05b4 1C       		.uleb128 0x1c
 15805 05b5 0E       		.uleb128 0xe
 15806 05b6 00       		.byte	0
 15807 05b7 00       		.byte	0
 15808 05b8 6C       		.uleb128 0x6c
 15809 05b9 2E       		.uleb128 0x2e
 15810 05ba 00       		.byte	0
 15811 05bb 03       		.uleb128 0x3
 15812 05bc 0E       		.uleb128 0xe
 15813 05bd 3A       		.uleb128 0x3a
 15814 05be 0B       		.uleb128 0xb
 15815 05bf 3B       		.uleb128 0x3b
 15816 05c0 05       		.uleb128 0x5
 15817 05c1 27       		.uleb128 0x27
 15818 05c2 19       		.uleb128 0x19
 15819 05c3 20       		.uleb128 0x20
 15820 05c4 0B       		.uleb128 0xb
 15821 05c5 00       		.byte	0
 15822 05c6 00       		.byte	0
 15823 05c7 6D       		.uleb128 0x6d
 15824 05c8 2E       		.uleb128 0x2e
 15825 05c9 01       		.byte	0x1
 15826 05ca 31       		.uleb128 0x31
 15827 05cb 13       		.uleb128 0x13
 15828 05cc 11       		.uleb128 0x11
 15829 05cd 01       		.uleb128 0x1
 15830 05ce 12       		.uleb128 0x12
 15831 05cf 06       		.uleb128 0x6
 15832 05d0 40       		.uleb128 0x40
 15833 05d1 18       		.uleb128 0x18
 15834 05d2 9742     		.uleb128 0x2117
 15835 05d4 19       		.uleb128 0x19
 15836 05d5 01       		.uleb128 0x1
 15837 05d6 13       		.uleb128 0x13
 15838 05d7 00       		.byte	0
 15839 05d8 00       		.byte	0
 15840 05d9 6E       		.uleb128 0x6e
 15841 05da 0B       		.uleb128 0xb
 15842 05db 01       		.byte	0x1
 15843 05dc 31       		.uleb128 0x31
 15844 05dd 13       		.uleb128 0x13
 15845 05de 11       		.uleb128 0x11
 15846 05df 01       		.uleb128 0x1
 15847 05e0 12       		.uleb128 0x12
 15848 05e1 06       		.uleb128 0x6
 15849 05e2 01       		.uleb128 0x1
 15850 05e3 13       		.uleb128 0x13
 15851 05e4 00       		.byte	0
 15852 05e5 00       		.byte	0
 15853 05e6 6F       		.uleb128 0x6f
 15854 05e7 0B       		.uleb128 0xb
 15855 05e8 01       		.byte	0x1
 15856 05e9 31       		.uleb128 0x31
 15857 05ea 13       		.uleb128 0x13
 15858 05eb 11       		.uleb128 0x11
 15859 05ec 01       		.uleb128 0x1
ARM GAS  C:\Users\adrie\AppData\Local\Temp\ccgB8szF.s 			page 280


 15860 05ed 12       		.uleb128 0x12
 15861 05ee 06       		.uleb128 0x6
 15862 05ef 00       		.byte	0
 15863 05f0 00       		.byte	0
 15864 05f1 70       		.uleb128 0x70
 15865 05f2 2E       		.uleb128 0x2e
 15866 05f3 01       		.byte	0x1
 15867 05f4 31       		.uleb128 0x31
 15868 05f5 13       		.uleb128 0x13
 15869 05f6 11       		.uleb128 0x11
 15870 05f7 01       		.uleb128 0x1
 15871 05f8 12       		.uleb128 0x12
 15872 05f9 06       		.uleb128 0x6
 15873 05fa 40       		.uleb128 0x40
 15874 05fb 18       		.uleb128 0x18
 15875 05fc 9642     		.uleb128 0x2116
 15876 05fe 19       		.uleb128 0x19
 15877 05ff 01       		.uleb128 0x1
 15878 0600 13       		.uleb128 0x13
 15879 0601 00       		.byte	0
 15880 0602 00       		.byte	0
 15881 0603 71       		.uleb128 0x71
 15882 0604 2E       		.uleb128 0x2e
 15883 0605 00       		.byte	0
 15884 0606 3F       		.uleb128 0x3f
 15885 0607 19       		.uleb128 0x19
 15886 0608 3C       		.uleb128 0x3c
 15887 0609 19       		.uleb128 0x19
 15888 060a 6E       		.uleb128 0x6e
 15889 060b 0E       		.uleb128 0xe
 15890 060c 03       		.uleb128 0x3
 15891 060d 0E       		.uleb128 0xe
 15892 060e 3A       		.uleb128 0x3a
 15893 060f 0B       		.uleb128 0xb
 15894 0610 3B       		.uleb128 0x3b
 15895 0611 0B       		.uleb128 0xb
 15896 0612 00       		.byte	0
 15897 0613 00       		.byte	0
 15898 0614 72       		.uleb128 0x72
 15899 0615 2E       		.uleb128 0x2e
 15900 0616 00       		.byte	0
 15901 0617 3F       		.uleb128 0x3f
 15902 0618 19       		.uleb128 0x19
 15903 0619 3C       		.uleb128 0x3c
 15904 061a 19       		.uleb128 0x19
 15905 061b 6E       		.uleb128 0x6e
 15906 061c 0E       		.uleb128 0xe
 15907 061d 03       		.uleb128 0x3
 15908 061e 0E       		.uleb128 0xe
 15909 061f 00       		.byte	0
 15910 0620 00       		.byte	0
 15911 0621 73       		.uleb128 0x73
 15912 0622 2E       		.uleb128 0x2e
 15913 0623 00       		.byte	0
 15914 0624 3F       		.uleb128 0x3f
 15915 0625 19       		.uleb128 0x19
 15916 0626 3C       		.uleb128 0x3c
ARM GAS  C:\Users\adrie\AppData\Local\Temp\ccgB8szF.s 			page 281


 15917 0627 19       		.uleb128 0x19
 15918 0628 6E       		.uleb128 0x6e
 15919 0629 0E       		.uleb128 0xe
 15920 062a 03       		.uleb128 0x3
 15921 062b 0E       		.uleb128 0xe
 15922 062c 3A       		.uleb128 0x3a
 15923 062d 0B       		.uleb128 0xb
 15924 062e 3B       		.uleb128 0x3b
 15925 062f 05       		.uleb128 0x5
 15926 0630 00       		.byte	0
 15927 0631 00       		.byte	0
 15928 0632 00       		.byte	0
 15929              		.section	.debug_loc,"",%progbits
 15930              	.Ldebug_loc0:
 15931              	.LLST8:
 15932 0000 00000000 		.4byte	.LVL23
 15933 0004 2C000000 		.4byte	.LVL25
 15934 0008 0100     		.2byte	0x1
 15935 000a 50       		.byte	0x50
 15936 000b 2C000000 		.4byte	.LVL25
 15937 000f 8C020000 		.4byte	.LFE306
 15938 0013 0400     		.2byte	0x4
 15939 0015 F3       		.byte	0xf3
 15940 0016 01       		.uleb128 0x1
 15941 0017 50       		.byte	0x50
 15942 0018 9F       		.byte	0x9f
 15943 0019 00000000 		.4byte	0
 15944 001d 00000000 		.4byte	0
 15945              	.LLST9:
 15946 0021 2A000000 		.4byte	.LVL24
 15947 0025 2C000000 		.4byte	.LVL25
 15948 0029 0200     		.2byte	0x2
 15949 002b 30       		.byte	0x30
 15950 002c 9F       		.byte	0x9f
 15951 002d 00000000 		.4byte	0
 15952 0031 00000000 		.4byte	0
 15953              	.LLST10:
 15954 0035 2A000000 		.4byte	.LVL24
 15955 0039 2C000000 		.4byte	.LVL25
 15956 003d 0200     		.2byte	0x2
 15957 003f 30       		.byte	0x30
 15958 0040 9F       		.byte	0x9f
 15959 0041 E6000000 		.4byte	.LVL40
 15960 0045 FB000000 		.4byte	.LVL41-1
 15961 0049 0100     		.2byte	0x1
 15962 004b 53       		.byte	0x53
 15963 004c FB000000 		.4byte	.LVL41-1
 15964 0050 06010000 		.4byte	.LVL42
 15965 0054 0100     		.2byte	0x1
 15966 0056 58       		.byte	0x58
 15967 0057 E4010000 		.4byte	.LVL61
 15968 005b E9010000 		.4byte	.LVL62-1
 15969 005f 0100     		.2byte	0x1
 15970 0061 53       		.byte	0x53
 15971 0062 00000000 		.4byte	0
 15972 0066 00000000 		.4byte	0
 15973              	.LLST11:
ARM GAS  C:\Users\adrie\AppData\Local\Temp\ccgB8szF.s 			page 282


 15974 006a 2A000000 		.4byte	.LVL24
 15975 006e 2C000000 		.4byte	.LVL25
 15976 0072 0200     		.2byte	0x2
 15977 0074 30       		.byte	0x30
 15978 0075 9F       		.byte	0x9f
 15979 0076 2C000000 		.4byte	.LVL25
 15980 007a 10010000 		.4byte	.LVL43
 15981 007e 0100     		.2byte	0x1
 15982 0080 5B       		.byte	0x5b
 15983 0081 A6010000 		.4byte	.LVL55
 15984 0085 8C020000 		.4byte	.LFE306
 15985 0089 0100     		.2byte	0x1
 15986 008b 5B       		.byte	0x5b
 15987 008c 00000000 		.4byte	0
 15988 0090 00000000 		.4byte	0
 15989              	.LLST12:
 15990 0094 2A000000 		.4byte	.LVL24
 15991 0098 2C000000 		.4byte	.LVL25
 15992 009c 0200     		.2byte	0x2
 15993 009e 30       		.byte	0x30
 15994 009f 9F       		.byte	0x9f
 15995 00a0 2C000000 		.4byte	.LVL25
 15996 00a4 66000000 		.4byte	.LVL29
 15997 00a8 0100     		.2byte	0x1
 15998 00aa 56       		.byte	0x56
 15999 00ab 10010000 		.4byte	.LVL43
 16000 00af DE010000 		.4byte	.LVL60
 16001 00b3 0100     		.2byte	0x1
 16002 00b5 56       		.byte	0x56
 16003 00b6 F8010000 		.4byte	.LVL65
 16004 00ba 2A020000 		.4byte	.LVL70
 16005 00be 0100     		.2byte	0x1
 16006 00c0 56       		.byte	0x56
 16007 00c1 00000000 		.4byte	0
 16008 00c5 00000000 		.4byte	0
 16009              	.LLST13:
 16010 00c9 2A000000 		.4byte	.LVL24
 16011 00cd 2C000000 		.4byte	.LVL25
 16012 00d1 0A00     		.2byte	0xa
 16013 00d3 9E       		.byte	0x9e
 16014 00d4 08       		.uleb128 0x8
 16015 00d5 00000000 		.4byte	0
 16016 00d9 00000000 		.4byte	0
 16017 00dd 00000000 		.4byte	0
 16018 00e1 00000000 		.4byte	0
 16019              	.LLST14:
 16020 00e5 E6000000 		.4byte	.LVL40
 16021 00e9 FB000000 		.4byte	.LVL41-1
 16022 00ed 0100     		.2byte	0x1
 16023 00ef 53       		.byte	0x53
 16024 00f0 E4010000 		.4byte	.LVL61
 16025 00f4 E9010000 		.4byte	.LVL62-1
 16026 00f8 0100     		.2byte	0x1
 16027 00fa 53       		.byte	0x53
 16028 00fb 00000000 		.4byte	0
 16029 00ff 00000000 		.4byte	0
 16030              	.LLST15:
ARM GAS  C:\Users\adrie\AppData\Local\Temp\ccgB8szF.s 			page 283


 16031 0103 54010000 		.4byte	.LVL51
 16032 0107 56010000 		.4byte	.LVL52
 16033 010b 0200     		.2byte	0x2
 16034 010d 30       		.byte	0x30
 16035 010e 9F       		.byte	0x9f
 16036 010f 00000000 		.4byte	0
 16037 0113 00000000 		.4byte	0
 16038              	.LLST16:
 16039 0117 54010000 		.4byte	.LVL51
 16040 011b 56010000 		.4byte	.LVL52
 16041 011f 0100     		.2byte	0x1
 16042 0121 53       		.byte	0x53
 16043 0122 00000000 		.4byte	0
 16044 0126 00000000 		.4byte	0
 16045              	.LLST17:
 16046 012a 54010000 		.4byte	.LVL51
 16047 012e 56010000 		.4byte	.LVL52
 16048 0132 0200     		.2byte	0x2
 16049 0134 31       		.byte	0x31
 16050 0135 9F       		.byte	0x9f
 16051 0136 00000000 		.4byte	0
 16052 013a 00000000 		.4byte	0
 16053              	.LLST18:
 16054 013e 66000000 		.4byte	.LVL29
 16055 0142 72000000 		.4byte	.LVL31
 16056 0146 0100     		.2byte	0x1
 16057 0148 56       		.byte	0x56
 16058 0149 00000000 		.4byte	0
 16059 014d 00000000 		.4byte	0
 16060              	.LLST19:
 16061 0151 66000000 		.4byte	.LVL29
 16062 0155 72000000 		.4byte	.LVL31
 16063 0159 0100     		.2byte	0x1
 16064 015b 5B       		.byte	0x5b
 16065 015c 00000000 		.4byte	0
 16066 0160 00000000 		.4byte	0
 16067              	.LLST20:
 16068 0164 66000000 		.4byte	.LVL29
 16069 0168 72000000 		.4byte	.LVL31
 16070 016c 0700     		.2byte	0x7
 16071 016e 7B       		.byte	0x7b
 16072 016f 00       		.sleb128 0
 16073 0170 F7       		.byte	0xf7
 16074 0171 2C       		.uleb128 0x2c
 16075 0172 F7       		.byte	0xf7
 16076 0173 33       		.uleb128 0x33
 16077 0174 9F       		.byte	0x9f
 16078 0175 00000000 		.4byte	0
 16079 0179 00000000 		.4byte	0
 16080              	.LLST21:
 16081 017d 84000000 		.4byte	.LVL34
 16082 0181 DA000000 		.4byte	.LVL39
 16083 0185 0600     		.2byte	0x6
 16084 0187 9E       		.byte	0x9e
 16085 0188 04       		.uleb128 0x4
 16086 0189 295C8F3D 		.4byte	0x3d8f5c29
 16087 018d F2010000 		.4byte	.LVL64
ARM GAS  C:\Users\adrie\AppData\Local\Temp\ccgB8szF.s 			page 284


 16088 0191 F8010000 		.4byte	.LVL65
 16089 0195 0600     		.2byte	0x6
 16090 0197 9E       		.byte	0x9e
 16091 0198 04       		.uleb128 0x4
 16092 0199 295C8F3D 		.4byte	0x3d8f5c29
 16093 019d 2A020000 		.4byte	.LVL70
 16094 01a1 8C020000 		.4byte	.LFE306
 16095 01a5 0600     		.2byte	0x6
 16096 01a7 9E       		.byte	0x9e
 16097 01a8 04       		.uleb128 0x4
 16098 01a9 295C8F3D 		.4byte	0x3d8f5c29
 16099 01ad 00000000 		.4byte	0
 16100 01b1 00000000 		.4byte	0
 16101              	.LLST22:
 16102 01b5 84000000 		.4byte	.LVL34
 16103 01b9 DA000000 		.4byte	.LVL39
 16104 01bd 0100     		.2byte	0x1
 16105 01bf 50       		.byte	0x50
 16106 01c0 F2010000 		.4byte	.LVL64
 16107 01c4 F8010000 		.4byte	.LVL65
 16108 01c8 0100     		.2byte	0x1
 16109 01ca 50       		.byte	0x50
 16110 01cb 2A020000 		.4byte	.LVL70
 16111 01cf 8C020000 		.4byte	.LFE306
 16112 01d3 0100     		.2byte	0x1
 16113 01d5 50       		.byte	0x50
 16114 01d6 00000000 		.4byte	0
 16115 01da 00000000 		.4byte	0
 16116              	.LLST23:
 16117 01de 84000000 		.4byte	.LVL34
 16118 01e2 94000000 		.4byte	.LVL35
 16119 01e6 0600     		.2byte	0x6
 16120 01e8 9E       		.byte	0x9e
 16121 01e9 04       		.uleb128 0x4
 16122 01ea 00000000 		.4byte	0
 16123 01ee 94000000 		.4byte	.LVL35
 16124 01f2 CE000000 		.4byte	.LVL37
 16125 01f6 0200     		.2byte	0x2
 16126 01f8 90       		.byte	0x90
 16127 01f9 4F       		.uleb128 0x4f
 16128 01fa CE000000 		.4byte	.LVL37
 16129 01fe DA000000 		.4byte	.LVL39
 16130 0202 0800     		.2byte	0x8
 16131 0204 F5       		.byte	0xf5
 16132 0205 00       		.uleb128 0
 16133 0206 25       		.uleb128 0x25
 16134 0207 F5       		.byte	0xf5
 16135 0208 50       		.uleb128 0x50
 16136 0209 25       		.uleb128 0x25
 16137 020a 1C       		.byte	0x1c
 16138 020b 9F       		.byte	0x9f
 16139 020c 2A020000 		.4byte	.LVL70
 16140 0210 8C020000 		.4byte	.LFE306
 16141 0214 0200     		.2byte	0x2
 16142 0216 90       		.byte	0x90
 16143 0217 4F       		.uleb128 0x4f
 16144 0218 00000000 		.4byte	0
ARM GAS  C:\Users\adrie\AppData\Local\Temp\ccgB8szF.s 			page 285


 16145 021c 00000000 		.4byte	0
 16146              	.LLST24:
 16147 0220 84000000 		.4byte	.LVL34
 16148 0224 C6000000 		.4byte	.LVL36
 16149 0228 0600     		.2byte	0x6
 16150 022a 9E       		.byte	0x9e
 16151 022b 04       		.uleb128 0x4
 16152 022c 00000000 		.4byte	0
 16153 0230 C6000000 		.4byte	.LVL36
 16154 0234 CE000000 		.4byte	.LVL37
 16155 0238 0C00     		.2byte	0xc
 16156 023a F5       		.byte	0xf5
 16157 023b 4F       		.uleb128 0x4f
 16158 023c 25       		.uleb128 0x25
 16159 023d F4       		.byte	0xf4
 16160 023e 25       		.uleb128 0x25
 16161 023f 04       		.byte	0x4
 16162 0240 0000FA45 		.4byte	0x45fa0000
 16163 0244 1E       		.byte	0x1e
 16164 0245 9F       		.byte	0x9f
 16165 0246 CE000000 		.4byte	.LVL37
 16166 024a D2000000 		.4byte	.LVL38
 16167 024e 0200     		.2byte	0x2
 16168 0250 90       		.byte	0x90
 16169 0251 4F       		.uleb128 0x4f
 16170 0252 D2000000 		.4byte	.LVL38
 16171 0256 DA000000 		.4byte	.LVL39
 16172 025a 1000     		.2byte	0x10
 16173 025c F5       		.byte	0xf5
 16174 025d 00       		.uleb128 0
 16175 025e 25       		.uleb128 0x25
 16176 025f F5       		.byte	0xf5
 16177 0260 50       		.uleb128 0x50
 16178 0261 25       		.uleb128 0x25
 16179 0262 1C       		.byte	0x1c
 16180 0263 F4       		.byte	0xf4
 16181 0264 25       		.uleb128 0x25
 16182 0265 04       		.byte	0x4
 16183 0266 0000FA45 		.4byte	0x45fa0000
 16184 026a 1E       		.byte	0x1e
 16185 026b 9F       		.byte	0x9f
 16186 026c F2010000 		.4byte	.LVL64
 16187 0270 F8010000 		.4byte	.LVL65
 16188 0274 0600     		.2byte	0x6
 16189 0276 9E       		.byte	0x9e
 16190 0277 04       		.uleb128 0x4
 16191 0278 00000000 		.4byte	0
 16192 027c 2A020000 		.4byte	.LVL70
 16193 0280 8C020000 		.4byte	.LFE306
 16194 0284 0600     		.2byte	0x6
 16195 0286 9E       		.byte	0x9e
 16196 0287 04       		.uleb128 0x4
 16197 0288 00000000 		.4byte	0
 16198 028c 00000000 		.4byte	0
 16199 0290 00000000 		.4byte	0
 16200              	.LLST25:
 16201 0294 10010000 		.4byte	.LVL43
ARM GAS  C:\Users\adrie\AppData\Local\Temp\ccgB8szF.s 			page 286


 16202 0298 16010000 		.4byte	.LVL44
 16203 029c 0300     		.2byte	0x3
 16204 029e 08       		.byte	0x8
 16205 029f 20       		.byte	0x20
 16206 02a0 9F       		.byte	0x9f
 16207 02a1 00000000 		.4byte	0
 16208 02a5 00000000 		.4byte	0
 16209              	.LLST26:
 16210 02a9 44010000 		.4byte	.LVL49
 16211 02ad 4A010000 		.4byte	.LVL50
 16212 02b1 0200     		.2byte	0x2
 16213 02b3 30       		.byte	0x30
 16214 02b4 9F       		.byte	0x9f
 16215 02b5 00000000 		.4byte	0
 16216 02b9 00000000 		.4byte	0
 16217              	.LLST27:
 16218 02bd 4A010000 		.4byte	.LVL50
 16219 02c1 54010000 		.4byte	.LVL51
 16220 02c5 0500     		.2byte	0x5
 16221 02c7 03       		.byte	0x3
 16222 02c8 18000000 		.4byte	moyenne+24
 16223 02cc 00000000 		.4byte	0
 16224 02d0 00000000 		.4byte	0
 16225              	.LLST28:
 16226 02d4 4A010000 		.4byte	.LVL50
 16227 02d8 54010000 		.4byte	.LVL51
 16228 02dc 0200     		.2byte	0x2
 16229 02de 31       		.byte	0x31
 16230 02df 9F       		.byte	0x9f
 16231 02e0 00000000 		.4byte	0
 16232 02e4 00000000 		.4byte	0
 16233              	.LLST29:
 16234 02e8 56010000 		.4byte	.LVL52
 16235 02ec 66010000 		.4byte	.LVL53
 16236 02f0 0200     		.2byte	0x2
 16237 02f2 33       		.byte	0x33
 16238 02f3 9F       		.byte	0x9f
 16239 02f4 00000000 		.4byte	0
 16240 02f8 00000000 		.4byte	0
 16241              	.LLST30:
 16242 02fc 56010000 		.4byte	.LVL52
 16243 0300 66010000 		.4byte	.LVL53
 16244 0304 0500     		.2byte	0x5
 16245 0306 03       		.byte	0x3
 16246 0307 24000000 		.4byte	moyenne+36
 16247 030b 00000000 		.4byte	0
 16248 030f 00000000 		.4byte	0
 16249              	.LLST31:
 16250 0313 56010000 		.4byte	.LVL52
 16251 0317 66010000 		.4byte	.LVL53
 16252 031b 0200     		.2byte	0x2
 16253 031d 31       		.byte	0x31
 16254 031e 9F       		.byte	0x9f
 16255 031f 00000000 		.4byte	0
 16256 0323 00000000 		.4byte	0
 16257              	.LLST32:
 16258 0327 66010000 		.4byte	.LVL53
ARM GAS  C:\Users\adrie\AppData\Local\Temp\ccgB8szF.s 			page 287


 16259 032b 80010000 		.4byte	.LVL54
 16260 032f 0200     		.2byte	0x2
 16261 0331 31       		.byte	0x31
 16262 0332 9F       		.byte	0x9f
 16263 0333 00000000 		.4byte	0
 16264 0337 00000000 		.4byte	0
 16265              	.LLST33:
 16266 033b 66010000 		.4byte	.LVL53
 16267 033f 80010000 		.4byte	.LVL54
 16268 0343 0500     		.2byte	0x5
 16269 0345 03       		.byte	0x3
 16270 0346 0C000000 		.4byte	moyenne+12
 16271 034a 00000000 		.4byte	0
 16272 034e 00000000 		.4byte	0
 16273              	.LLST35:
 16274 0352 20020000 		.4byte	.LVL68
 16275 0356 2A020000 		.4byte	.LVL70
 16276 035a 0100     		.2byte	0x1
 16277 035c 56       		.byte	0x56
 16278 035d 00000000 		.4byte	0
 16279 0361 00000000 		.4byte	0
 16280              	.LLST36:
 16281 0365 20020000 		.4byte	.LVL68
 16282 0369 2A020000 		.4byte	.LVL70
 16283 036d 0100     		.2byte	0x1
 16284 036f 5B       		.byte	0x5b
 16285 0370 00000000 		.4byte	0
 16286 0374 00000000 		.4byte	0
 16287              	.LLST37:
 16288 0378 20020000 		.4byte	.LVL68
 16289 037c 2A020000 		.4byte	.LVL70
 16290 0380 0700     		.2byte	0x7
 16291 0382 7B       		.byte	0x7b
 16292 0383 00       		.sleb128 0
 16293 0384 F7       		.byte	0xf7
 16294 0385 2C       		.uleb128 0x2c
 16295 0386 F7       		.byte	0xf7
 16296 0387 33       		.uleb128 0x33
 16297 0388 9F       		.byte	0x9f
 16298 0389 00000000 		.4byte	0
 16299 038d 00000000 		.4byte	0
 16300              	.LLST105:
 16301 0391 12000000 		.4byte	.LVL296
 16302 0395 14000000 		.4byte	.LVL297
 16303 0399 0200     		.2byte	0x2
 16304 039b 32       		.byte	0x32
 16305 039c 9F       		.byte	0x9f
 16306 039d 00000000 		.4byte	0
 16307 03a1 00000000 		.4byte	0
 16308              	.LLST106:
 16309 03a5 12000000 		.4byte	.LVL296
 16310 03a9 14000000 		.4byte	.LVL297
 16311 03ad 0100     		.2byte	0x1
 16312 03af 53       		.byte	0x53
 16313 03b0 00000000 		.4byte	0
 16314 03b4 00000000 		.4byte	0
 16315              	.LLST104:
ARM GAS  C:\Users\adrie\AppData\Local\Temp\ccgB8szF.s 			page 288


 16316 03b8 00000000 		.4byte	.LVL294
 16317 03bc 1B000000 		.4byte	.LVL295-1
 16318 03c0 0100     		.2byte	0x1
 16319 03c2 50       		.byte	0x50
 16320 03c3 1B000000 		.4byte	.LVL295-1
 16321 03c7 20000000 		.4byte	.LFE301
 16322 03cb 0400     		.2byte	0x4
 16323 03cd F3       		.byte	0xf3
 16324 03ce 01       		.uleb128 0x1
 16325 03cf 50       		.byte	0x50
 16326 03d0 9F       		.byte	0x9f
 16327 03d1 00000000 		.4byte	0
 16328 03d5 00000000 		.4byte	0
 16329              	.LLST66:
 16330 03d9 00000000 		.4byte	.LVL196
 16331 03dd 2C000000 		.4byte	.LVL197
 16332 03e1 0100     		.2byte	0x1
 16333 03e3 50       		.byte	0x50
 16334 03e4 2C000000 		.4byte	.LVL197
 16335 03e8 30000000 		.4byte	.LVL198
 16336 03ec 0400     		.2byte	0x4
 16337 03ee F3       		.byte	0xf3
 16338 03ef 01       		.uleb128 0x1
 16339 03f0 50       		.byte	0x50
 16340 03f1 9F       		.byte	0x9f
 16341 03f2 30000000 		.4byte	.LVL198
 16342 03f6 32000000 		.4byte	.LVL199
 16343 03fa 0100     		.2byte	0x1
 16344 03fc 50       		.byte	0x50
 16345 03fd 32000000 		.4byte	.LVL199
 16346 0401 40000000 		.4byte	.LVL200
 16347 0405 0400     		.2byte	0x4
 16348 0407 F3       		.byte	0xf3
 16349 0408 01       		.uleb128 0x1
 16350 0409 50       		.byte	0x50
 16351 040a 9F       		.byte	0x9f
 16352 040b 40000000 		.4byte	.LVL200
 16353 040f 42000000 		.4byte	.LVL201
 16354 0413 0100     		.2byte	0x1
 16355 0415 50       		.byte	0x50
 16356 0416 42000000 		.4byte	.LVL201
 16357 041a 44000000 		.4byte	.LVL202
 16358 041e 0400     		.2byte	0x4
 16359 0420 F3       		.byte	0xf3
 16360 0421 01       		.uleb128 0x1
 16361 0422 50       		.byte	0x50
 16362 0423 9F       		.byte	0x9f
 16363 0424 44000000 		.4byte	.LVL202
 16364 0428 46000000 		.4byte	.LVL203
 16365 042c 0100     		.2byte	0x1
 16366 042e 50       		.byte	0x50
 16367 042f 46000000 		.4byte	.LVL203
 16368 0433 48000000 		.4byte	.LVL204
 16369 0437 0400     		.2byte	0x4
 16370 0439 F3       		.byte	0xf3
 16371 043a 01       		.uleb128 0x1
 16372 043b 50       		.byte	0x50
ARM GAS  C:\Users\adrie\AppData\Local\Temp\ccgB8szF.s 			page 289


 16373 043c 9F       		.byte	0x9f
 16374 043d 48000000 		.4byte	.LVL204
 16375 0441 4A000000 		.4byte	.LVL205
 16376 0445 0100     		.2byte	0x1
 16377 0447 50       		.byte	0x50
 16378 0448 4A000000 		.4byte	.LVL205
 16379 044c 4C000000 		.4byte	.LVL206
 16380 0450 0400     		.2byte	0x4
 16381 0452 F3       		.byte	0xf3
 16382 0453 01       		.uleb128 0x1
 16383 0454 50       		.byte	0x50
 16384 0455 9F       		.byte	0x9f
 16385 0456 4C000000 		.4byte	.LVL206
 16386 045a 4E000000 		.4byte	.LVL207
 16387 045e 0100     		.2byte	0x1
 16388 0460 50       		.byte	0x50
 16389 0461 4E000000 		.4byte	.LVL207
 16390 0465 50000000 		.4byte	.LVL208
 16391 0469 0400     		.2byte	0x4
 16392 046b F3       		.byte	0xf3
 16393 046c 01       		.uleb128 0x1
 16394 046d 50       		.byte	0x50
 16395 046e 9F       		.byte	0x9f
 16396 046f 50000000 		.4byte	.LVL208
 16397 0473 52000000 		.4byte	.LVL209
 16398 0477 0100     		.2byte	0x1
 16399 0479 50       		.byte	0x50
 16400 047a 52000000 		.4byte	.LVL209
 16401 047e 54000000 		.4byte	.LVL210
 16402 0482 0400     		.2byte	0x4
 16403 0484 F3       		.byte	0xf3
 16404 0485 01       		.uleb128 0x1
 16405 0486 50       		.byte	0x50
 16406 0487 9F       		.byte	0x9f
 16407 0488 54000000 		.4byte	.LVL210
 16408 048c 56000000 		.4byte	.LVL211
 16409 0490 0100     		.2byte	0x1
 16410 0492 50       		.byte	0x50
 16411 0493 56000000 		.4byte	.LVL211
 16412 0497 80000000 		.4byte	.LFE299
 16413 049b 0400     		.2byte	0x4
 16414 049d F3       		.byte	0xf3
 16415 049e 01       		.uleb128 0x1
 16416 049f 50       		.byte	0x50
 16417 04a0 9F       		.byte	0x9f
 16418 04a1 00000000 		.4byte	0
 16419 04a5 00000000 		.4byte	0
 16420              	.LLST46:
 16421 04a9 00000000 		.4byte	.LVL98
 16422 04ad 95010000 		.4byte	.LVL145-1
 16423 04b1 0100     		.2byte	0x1
 16424 04b3 50       		.byte	0x50
 16425 04b4 95010000 		.4byte	.LVL145-1
 16426 04b8 A4010000 		.4byte	.LFE293
 16427 04bc 0400     		.2byte	0x4
 16428 04be F3       		.byte	0xf3
 16429 04bf 01       		.uleb128 0x1
ARM GAS  C:\Users\adrie\AppData\Local\Temp\ccgB8szF.s 			page 290


 16430 04c0 50       		.byte	0x50
 16431 04c1 9F       		.byte	0x9f
 16432 04c2 00000000 		.4byte	0
 16433 04c6 00000000 		.4byte	0
 16434              	.LLST47:
 16435 04ca 00000000 		.4byte	.LVL98
 16436 04ce 95010000 		.4byte	.LVL145-1
 16437 04d2 0100     		.2byte	0x1
 16438 04d4 51       		.byte	0x51
 16439 04d5 95010000 		.4byte	.LVL145-1
 16440 04d9 A4010000 		.4byte	.LFE293
 16441 04dd 0400     		.2byte	0x4
 16442 04df F3       		.byte	0xf3
 16443 04e0 01       		.uleb128 0x1
 16444 04e1 51       		.byte	0x51
 16445 04e2 9F       		.byte	0x9f
 16446 04e3 00000000 		.4byte	0
 16447 04e7 00000000 		.4byte	0
 16448              	.LLST48:
 16449 04eb 00000000 		.4byte	.LVL98
 16450 04ef 46000000 		.4byte	.LVL103
 16451 04f3 0100     		.2byte	0x1
 16452 04f5 52       		.byte	0x52
 16453 04f6 46000000 		.4byte	.LVL103
 16454 04fa 4A000000 		.4byte	.LVL104
 16455 04fe 0400     		.2byte	0x4
 16456 0500 F3       		.byte	0xf3
 16457 0501 01       		.uleb128 0x1
 16458 0502 52       		.byte	0x52
 16459 0503 9F       		.byte	0x9f
 16460 0504 4A000000 		.4byte	.LVL104
 16461 0508 74000000 		.4byte	.LVL109
 16462 050c 0100     		.2byte	0x1
 16463 050e 52       		.byte	0x52
 16464 050f 74000000 		.4byte	.LVL109
 16465 0513 86000000 		.4byte	.LVL111
 16466 0517 0400     		.2byte	0x4
 16467 0519 F3       		.byte	0xf3
 16468 051a 01       		.uleb128 0x1
 16469 051b 52       		.byte	0x52
 16470 051c 9F       		.byte	0x9f
 16471 051d 86000000 		.4byte	.LVL111
 16472 0521 CE000000 		.4byte	.LVL114
 16473 0525 0100     		.2byte	0x1
 16474 0527 52       		.byte	0x52
 16475 0528 CE000000 		.4byte	.LVL114
 16476 052c D6000000 		.4byte	.LVL115
 16477 0530 0400     		.2byte	0x4
 16478 0532 F3       		.byte	0xf3
 16479 0533 01       		.uleb128 0x1
 16480 0534 52       		.byte	0x52
 16481 0535 9F       		.byte	0x9f
 16482 0536 D6000000 		.4byte	.LVL115
 16483 053a 24010000 		.4byte	.LVL121
 16484 053e 0100     		.2byte	0x1
 16485 0540 52       		.byte	0x52
 16486 0541 24010000 		.4byte	.LVL121
ARM GAS  C:\Users\adrie\AppData\Local\Temp\ccgB8szF.s 			page 291


 16487 0545 2A010000 		.4byte	.LVL122
 16488 0549 0400     		.2byte	0x4
 16489 054b F3       		.byte	0xf3
 16490 054c 01       		.uleb128 0x1
 16491 054d 52       		.byte	0x52
 16492 054e 9F       		.byte	0x9f
 16493 054f 2A010000 		.4byte	.LVL122
 16494 0553 30010000 		.4byte	.LVL124
 16495 0557 0100     		.2byte	0x1
 16496 0559 52       		.byte	0x52
 16497 055a 30010000 		.4byte	.LVL124
 16498 055e 34010000 		.4byte	.LVL125
 16499 0562 0400     		.2byte	0x4
 16500 0564 F3       		.byte	0xf3
 16501 0565 01       		.uleb128 0x1
 16502 0566 52       		.byte	0x52
 16503 0567 9F       		.byte	0x9f
 16504 0568 34010000 		.4byte	.LVL125
 16505 056c 3C010000 		.4byte	.LVL127
 16506 0570 0100     		.2byte	0x1
 16507 0572 52       		.byte	0x52
 16508 0573 3C010000 		.4byte	.LVL127
 16509 0577 40010000 		.4byte	.LVL128
 16510 057b 0400     		.2byte	0x4
 16511 057d F3       		.byte	0xf3
 16512 057e 01       		.uleb128 0x1
 16513 057f 52       		.byte	0x52
 16514 0580 9F       		.byte	0x9f
 16515 0581 40010000 		.4byte	.LVL128
 16516 0585 42010000 		.4byte	.LVL129
 16517 0589 0100     		.2byte	0x1
 16518 058b 52       		.byte	0x52
 16519 058c 42010000 		.4byte	.LVL129
 16520 0590 46010000 		.4byte	.LVL130
 16521 0594 0400     		.2byte	0x4
 16522 0596 F3       		.byte	0xf3
 16523 0597 01       		.uleb128 0x1
 16524 0598 52       		.byte	0x52
 16525 0599 9F       		.byte	0x9f
 16526 059a 46010000 		.4byte	.LVL130
 16527 059e 4C010000 		.4byte	.LVL132
 16528 05a2 0100     		.2byte	0x1
 16529 05a4 52       		.byte	0x52
 16530 05a5 4C010000 		.4byte	.LVL132
 16531 05a9 50010000 		.4byte	.LVL133
 16532 05ad 0400     		.2byte	0x4
 16533 05af F3       		.byte	0xf3
 16534 05b0 01       		.uleb128 0x1
 16535 05b1 52       		.byte	0x52
 16536 05b2 9F       		.byte	0x9f
 16537 05b3 50010000 		.4byte	.LVL133
 16538 05b7 54010000 		.4byte	.LVL135
 16539 05bb 0100     		.2byte	0x1
 16540 05bd 52       		.byte	0x52
 16541 05be 54010000 		.4byte	.LVL135
 16542 05c2 58010000 		.4byte	.LVL136
 16543 05c6 0200     		.2byte	0x2
ARM GAS  C:\Users\adrie\AppData\Local\Temp\ccgB8szF.s 			page 292


 16544 05c8 90       		.byte	0x90
 16545 05c9 4F       		.uleb128 0x4f
 16546 05ca 58010000 		.4byte	.LVL136
 16547 05ce 5C010000 		.4byte	.LVL138
 16548 05d2 0100     		.2byte	0x1
 16549 05d4 52       		.byte	0x52
 16550 05d5 5C010000 		.4byte	.LVL138
 16551 05d9 60010000 		.4byte	.LVL139
 16552 05dd 0400     		.2byte	0x4
 16553 05df F3       		.byte	0xf3
 16554 05e0 01       		.uleb128 0x1
 16555 05e1 52       		.byte	0x52
 16556 05e2 9F       		.byte	0x9f
 16557 05e3 60010000 		.4byte	.LVL139
 16558 05e7 6E010000 		.4byte	.LVL141
 16559 05eb 0100     		.2byte	0x1
 16560 05ed 52       		.byte	0x52
 16561 05ee 6E010000 		.4byte	.LVL141
 16562 05f2 72010000 		.4byte	.LVL142
 16563 05f6 0400     		.2byte	0x4
 16564 05f8 F3       		.byte	0xf3
 16565 05f9 01       		.uleb128 0x1
 16566 05fa 52       		.byte	0x52
 16567 05fb 9F       		.byte	0x9f
 16568 05fc 72010000 		.4byte	.LVL142
 16569 0600 92010000 		.4byte	.LVL144
 16570 0604 0100     		.2byte	0x1
 16571 0606 52       		.byte	0x52
 16572 0607 92010000 		.4byte	.LVL144
 16573 060b A4010000 		.4byte	.LFE293
 16574 060f 0400     		.2byte	0x4
 16575 0611 F3       		.byte	0xf3
 16576 0612 01       		.uleb128 0x1
 16577 0613 52       		.byte	0x52
 16578 0614 9F       		.byte	0x9f
 16579 0615 00000000 		.4byte	0
 16580 0619 00000000 		.4byte	0
 16581              	.LLST49:
 16582 061d 00000000 		.4byte	.LVL98
 16583 0621 44000000 		.4byte	.LVL102
 16584 0625 0100     		.2byte	0x1
 16585 0627 53       		.byte	0x53
 16586 0628 44000000 		.4byte	.LVL102
 16587 062c 4A000000 		.4byte	.LVL104
 16588 0630 0400     		.2byte	0x4
 16589 0632 F3       		.byte	0xf3
 16590 0633 01       		.uleb128 0x1
 16591 0634 53       		.byte	0x53
 16592 0635 9F       		.byte	0x9f
 16593 0636 4A000000 		.4byte	.LVL104
 16594 063a 6C000000 		.4byte	.LVL108
 16595 063e 0100     		.2byte	0x1
 16596 0640 53       		.byte	0x53
 16597 0641 6C000000 		.4byte	.LVL108
 16598 0645 86000000 		.4byte	.LVL111
 16599 0649 0400     		.2byte	0x4
 16600 064b F3       		.byte	0xf3
ARM GAS  C:\Users\adrie\AppData\Local\Temp\ccgB8szF.s 			page 293


 16601 064c 01       		.uleb128 0x1
 16602 064d 53       		.byte	0x53
 16603 064e 9F       		.byte	0x9f
 16604 064f 86000000 		.4byte	.LVL111
 16605 0653 C6000000 		.4byte	.LVL113
 16606 0657 0100     		.2byte	0x1
 16607 0659 53       		.byte	0x53
 16608 065a C6000000 		.4byte	.LVL113
 16609 065e D6000000 		.4byte	.LVL115
 16610 0662 0400     		.2byte	0x4
 16611 0664 F3       		.byte	0xf3
 16612 0665 01       		.uleb128 0x1
 16613 0666 53       		.byte	0x53
 16614 0667 9F       		.byte	0x9f
 16615 0668 D6000000 		.4byte	.LVL115
 16616 066c 1A010000 		.4byte	.LVL120
 16617 0670 0100     		.2byte	0x1
 16618 0672 53       		.byte	0x53
 16619 0673 1A010000 		.4byte	.LVL120
 16620 0677 2A010000 		.4byte	.LVL122
 16621 067b 0400     		.2byte	0x4
 16622 067d F3       		.byte	0xf3
 16623 067e 01       		.uleb128 0x1
 16624 067f 53       		.byte	0x53
 16625 0680 9F       		.byte	0x9f
 16626 0681 2A010000 		.4byte	.LVL122
 16627 0685 2C010000 		.4byte	.LVL123
 16628 0689 0100     		.2byte	0x1
 16629 068b 53       		.byte	0x53
 16630 068c 2C010000 		.4byte	.LVL123
 16631 0690 34010000 		.4byte	.LVL125
 16632 0694 0400     		.2byte	0x4
 16633 0696 F3       		.byte	0xf3
 16634 0697 01       		.uleb128 0x1
 16635 0698 53       		.byte	0x53
 16636 0699 9F       		.byte	0x9f
 16637 069a 34010000 		.4byte	.LVL125
 16638 069e 3A010000 		.4byte	.LVL126
 16639 06a2 0100     		.2byte	0x1
 16640 06a4 53       		.byte	0x53
 16641 06a5 3A010000 		.4byte	.LVL126
 16642 06a9 46010000 		.4byte	.LVL130
 16643 06ad 0400     		.2byte	0x4
 16644 06af F3       		.byte	0xf3
 16645 06b0 01       		.uleb128 0x1
 16646 06b1 53       		.byte	0x53
 16647 06b2 9F       		.byte	0x9f
 16648 06b3 46010000 		.4byte	.LVL130
 16649 06b7 48010000 		.4byte	.LVL131
 16650 06bb 0100     		.2byte	0x1
 16651 06bd 53       		.byte	0x53
 16652 06be 48010000 		.4byte	.LVL131
 16653 06c2 50010000 		.4byte	.LVL133
 16654 06c6 0400     		.2byte	0x4
 16655 06c8 F3       		.byte	0xf3
 16656 06c9 01       		.uleb128 0x1
 16657 06ca 53       		.byte	0x53
ARM GAS  C:\Users\adrie\AppData\Local\Temp\ccgB8szF.s 			page 294


 16658 06cb 9F       		.byte	0x9f
 16659 06cc 50010000 		.4byte	.LVL133
 16660 06d0 52010000 		.4byte	.LVL134
 16661 06d4 0100     		.2byte	0x1
 16662 06d6 53       		.byte	0x53
 16663 06d7 52010000 		.4byte	.LVL134
 16664 06db 58010000 		.4byte	.LVL136
 16665 06df 0400     		.2byte	0x4
 16666 06e1 F3       		.byte	0xf3
 16667 06e2 01       		.uleb128 0x1
 16668 06e3 53       		.byte	0x53
 16669 06e4 9F       		.byte	0x9f
 16670 06e5 58010000 		.4byte	.LVL136
 16671 06e9 5A010000 		.4byte	.LVL137
 16672 06ed 0100     		.2byte	0x1
 16673 06ef 53       		.byte	0x53
 16674 06f0 5A010000 		.4byte	.LVL137
 16675 06f4 60010000 		.4byte	.LVL139
 16676 06f8 0400     		.2byte	0x4
 16677 06fa F3       		.byte	0xf3
 16678 06fb 01       		.uleb128 0x1
 16679 06fc 53       		.byte	0x53
 16680 06fd 9F       		.byte	0x9f
 16681 06fe 60010000 		.4byte	.LVL139
 16682 0702 6C010000 		.4byte	.LVL140
 16683 0706 0100     		.2byte	0x1
 16684 0708 53       		.byte	0x53
 16685 0709 6C010000 		.4byte	.LVL140
 16686 070d 72010000 		.4byte	.LVL142
 16687 0711 0400     		.2byte	0x4
 16688 0713 F3       		.byte	0xf3
 16689 0714 01       		.uleb128 0x1
 16690 0715 53       		.byte	0x53
 16691 0716 9F       		.byte	0x9f
 16692 0717 72010000 		.4byte	.LVL142
 16693 071b 92010000 		.4byte	.LVL144
 16694 071f 0100     		.2byte	0x1
 16695 0721 53       		.byte	0x53
 16696 0722 92010000 		.4byte	.LVL144
 16697 0726 A4010000 		.4byte	.LFE293
 16698 072a 0400     		.2byte	0x4
 16699 072c F3       		.byte	0xf3
 16700 072d 01       		.uleb128 0x1
 16701 072e 53       		.byte	0x53
 16702 072f 9F       		.byte	0x9f
 16703 0730 00000000 		.4byte	0
 16704 0734 00000000 		.4byte	0
 16705              	.LLST50:
 16706 0738 0A000000 		.4byte	.LVL99
 16707 073c 14000000 		.4byte	.LVL100
 16708 0740 0300     		.2byte	0x3
 16709 0742 09       		.byte	0x9
 16710 0743 FF       		.byte	0xff
 16711 0744 9F       		.byte	0x9f
 16712 0745 14000000 		.4byte	.LVL100
 16713 0749 34000000 		.4byte	.LVL101
 16714 074d 0100     		.2byte	0x1
ARM GAS  C:\Users\adrie\AppData\Local\Temp\ccgB8szF.s 			page 295


 16715 074f 55       		.byte	0x55
 16716 0750 4A000000 		.4byte	.LVL104
 16717 0754 4E000000 		.4byte	.LVL105
 16718 0758 0100     		.2byte	0x1
 16719 075a 55       		.byte	0x55
 16720 075b 86000000 		.4byte	.LVL111
 16721 075f AA000000 		.4byte	.LVL112
 16722 0763 0100     		.2byte	0x1
 16723 0765 55       		.byte	0x55
 16724 0766 D6000000 		.4byte	.LVL115
 16725 076a 02010000 		.4byte	.LVL118
 16726 076e 0300     		.2byte	0x3
 16727 0770 09       		.byte	0x9
 16728 0771 FF       		.byte	0xff
 16729 0772 9F       		.byte	0x9f
 16730 0773 02010000 		.4byte	.LVL118
 16731 0777 16010000 		.4byte	.LVL119
 16732 077b 0100     		.2byte	0x1
 16733 077d 55       		.byte	0x55
 16734 077e 34010000 		.4byte	.LVL125
 16735 0782 40010000 		.4byte	.LVL128
 16736 0786 0300     		.2byte	0x3
 16737 0788 09       		.byte	0x9
 16738 0789 FF       		.byte	0xff
 16739 078a 9F       		.byte	0x9f
 16740 078b 50010000 		.4byte	.LVL133
 16741 078f 58010000 		.4byte	.LVL136
 16742 0793 0100     		.2byte	0x1
 16743 0795 55       		.byte	0x55
 16744 0796 60010000 		.4byte	.LVL139
 16745 079a 72010000 		.4byte	.LVL142
 16746 079e 0300     		.2byte	0x3
 16747 07a0 09       		.byte	0x9
 16748 07a1 FF       		.byte	0xff
 16749 07a2 9F       		.byte	0x9f
 16750 07a3 72010000 		.4byte	.LVL142
 16751 07a7 92010000 		.4byte	.LVL144
 16752 07ab 0200     		.2byte	0x2
 16753 07ad 30       		.byte	0x30
 16754 07ae 9F       		.byte	0x9f
 16755 07af 00000000 		.4byte	0
 16756 07b3 00000000 		.4byte	0
 16757              	.LLST51:
 16758 07b7 34000000 		.4byte	.LVL101
 16759 07bb 4A000000 		.4byte	.LVL104
 16760 07bf 0100     		.2byte	0x1
 16761 07c1 55       		.byte	0x55
 16762 07c2 4E000000 		.4byte	.LVL105
 16763 07c6 60000000 		.4byte	.LVL106
 16764 07ca 1300     		.2byte	0x13
 16765 07cc 70       		.byte	0x70
 16766 07cd 00       		.sleb128 0
 16767 07ce F7       		.byte	0xf7
 16768 07cf 2C       		.uleb128 0x2c
 16769 07d0 F7       		.byte	0xf7
 16770 07d1 25       		.uleb128 0x25
 16771 07d2 F4       		.byte	0xf4
ARM GAS  C:\Users\adrie\AppData\Local\Temp\ccgB8szF.s 			page 296


 16772 07d3 25       		.uleb128 0x25
 16773 07d4 04       		.byte	0x4
 16774 07d5 AE47613F 		.4byte	0x3f6147ae
 16775 07d9 1E       		.byte	0x1e
 16776 07da F7       		.byte	0xf7
 16777 07db 2C       		.uleb128 0x2c
 16778 07dc F7       		.byte	0xf7
 16779 07dd 00       		.uleb128 0
 16780 07de 9F       		.byte	0x9f
 16781 07df 60000000 		.4byte	.LVL106
 16782 07e3 64000000 		.4byte	.LVL107
 16783 07e7 1000     		.2byte	0x10
 16784 07e9 F5       		.byte	0xf5
 16785 07ea 4F       		.uleb128 0x4f
 16786 07eb 25       		.uleb128 0x25
 16787 07ec F4       		.byte	0xf4
 16788 07ed 25       		.uleb128 0x25
 16789 07ee 04       		.byte	0x4
 16790 07ef AE47613F 		.4byte	0x3f6147ae
 16791 07f3 1E       		.byte	0x1e
 16792 07f4 F7       		.byte	0xf7
 16793 07f5 2C       		.uleb128 0x2c
 16794 07f6 F7       		.byte	0xf7
 16795 07f7 00       		.uleb128 0
 16796 07f8 9F       		.byte	0x9f
 16797 07f9 64000000 		.4byte	.LVL107
 16798 07fd 78000000 		.4byte	.LVL110
 16799 0801 1300     		.2byte	0x13
 16800 0803 70       		.byte	0x70
 16801 0804 00       		.sleb128 0
 16802 0805 F7       		.byte	0xf7
 16803 0806 2C       		.uleb128 0x2c
 16804 0807 F7       		.byte	0xf7
 16805 0808 25       		.uleb128 0x25
 16806 0809 F4       		.byte	0xf4
 16807 080a 25       		.uleb128 0x25
 16808 080b 04       		.byte	0x4
 16809 080c AE47613F 		.4byte	0x3f6147ae
 16810 0810 1E       		.byte	0x1e
 16811 0811 F7       		.byte	0xf7
 16812 0812 2C       		.uleb128 0x2c
 16813 0813 F7       		.byte	0xf7
 16814 0814 00       		.uleb128 0
 16815 0815 9F       		.byte	0x9f
 16816 0816 86000000 		.4byte	.LVL111
 16817 081a AA000000 		.4byte	.LVL112
 16818 081e 1300     		.2byte	0x13
 16819 0820 72       		.byte	0x72
 16820 0821 00       		.sleb128 0
 16821 0822 F7       		.byte	0xf7
 16822 0823 2C       		.uleb128 0x2c
 16823 0824 F7       		.byte	0xf7
 16824 0825 25       		.uleb128 0x25
 16825 0826 F4       		.byte	0xf4
 16826 0827 25       		.uleb128 0x25
 16827 0828 04       		.byte	0x4
 16828 0829 AE47613F 		.4byte	0x3f6147ae
ARM GAS  C:\Users\adrie\AppData\Local\Temp\ccgB8szF.s 			page 297


 16829 082d 1E       		.byte	0x1e
 16830 082e F7       		.byte	0xf7
 16831 082f 2C       		.uleb128 0x2c
 16832 0830 F7       		.byte	0xf7
 16833 0831 00       		.uleb128 0
 16834 0832 9F       		.byte	0x9f
 16835 0833 AA000000 		.4byte	.LVL112
 16836 0837 C6000000 		.4byte	.LVL113
 16837 083b 1300     		.2byte	0x13
 16838 083d 73       		.byte	0x73
 16839 083e 00       		.sleb128 0
 16840 083f F7       		.byte	0xf7
 16841 0840 2C       		.uleb128 0x2c
 16842 0841 F7       		.byte	0xf7
 16843 0842 25       		.uleb128 0x25
 16844 0843 F4       		.byte	0xf4
 16845 0844 25       		.uleb128 0x25
 16846 0845 04       		.byte	0x4
 16847 0846 AE47613F 		.4byte	0x3f6147ae
 16848 084a 1E       		.byte	0x1e
 16849 084b F7       		.byte	0xf7
 16850 084c 2C       		.uleb128 0x2c
 16851 084d F7       		.byte	0xf7
 16852 084e 00       		.uleb128 0
 16853 084f 9F       		.byte	0x9f
 16854 0850 C6000000 		.4byte	.LVL113
 16855 0854 D6000000 		.4byte	.LVL115
 16856 0858 1400     		.2byte	0x14
 16857 085a F3       		.byte	0xf3
 16858 085b 01       		.uleb128 0x1
 16859 085c 53       		.byte	0x53
 16860 085d F7       		.byte	0xf7
 16861 085e 2C       		.uleb128 0x2c
 16862 085f F7       		.byte	0xf7
 16863 0860 25       		.uleb128 0x25
 16864 0861 F4       		.byte	0xf4
 16865 0862 25       		.uleb128 0x25
 16866 0863 04       		.byte	0x4
 16867 0864 AE47613F 		.4byte	0x3f6147ae
 16868 0868 1E       		.byte	0x1e
 16869 0869 F7       		.byte	0xf7
 16870 086a 2C       		.uleb128 0x2c
 16871 086b F7       		.byte	0xf7
 16872 086c 00       		.uleb128 0
 16873 086d 9F       		.byte	0x9f
 16874 086e F2000000 		.4byte	.LVL116
 16875 0872 00010000 		.4byte	.LVL117
 16876 0876 0100     		.2byte	0x1
 16877 0878 55       		.byte	0x55
 16878 0879 00010000 		.4byte	.LVL117
 16879 087d 02010000 		.4byte	.LVL118
 16880 0881 0200     		.2byte	0x2
 16881 0883 90       		.byte	0x90
 16882 0884 4F       		.uleb128 0x4f
 16883 0885 02010000 		.4byte	.LVL118
 16884 0889 16010000 		.4byte	.LVL119
 16885 088d 1300     		.2byte	0x13
ARM GAS  C:\Users\adrie\AppData\Local\Temp\ccgB8szF.s 			page 298


 16886 088f 72       		.byte	0x72
 16887 0890 00       		.sleb128 0
 16888 0891 F7       		.byte	0xf7
 16889 0892 2C       		.uleb128 0x2c
 16890 0893 F7       		.byte	0xf7
 16891 0894 25       		.uleb128 0x25
 16892 0895 F4       		.byte	0xf4
 16893 0896 25       		.uleb128 0x25
 16894 0897 04       		.byte	0x4
 16895 0898 AE47613F 		.4byte	0x3f6147ae
 16896 089c 1E       		.byte	0x1e
 16897 089d F7       		.byte	0xf7
 16898 089e 2C       		.uleb128 0x2c
 16899 089f F7       		.byte	0xf7
 16900 08a0 00       		.uleb128 0
 16901 08a1 9F       		.byte	0x9f
 16902 08a2 16010000 		.4byte	.LVL119
 16903 08a6 2A010000 		.4byte	.LVL122
 16904 08aa 1300     		.2byte	0x13
 16905 08ac 71       		.byte	0x71
 16906 08ad 00       		.sleb128 0
 16907 08ae F7       		.byte	0xf7
 16908 08af 2C       		.uleb128 0x2c
 16909 08b0 F7       		.byte	0xf7
 16910 08b1 25       		.uleb128 0x25
 16911 08b2 F4       		.byte	0xf4
 16912 08b3 25       		.uleb128 0x25
 16913 08b4 04       		.byte	0x4
 16914 08b5 AE47613F 		.4byte	0x3f6147ae
 16915 08b9 1E       		.byte	0x1e
 16916 08ba F7       		.byte	0xf7
 16917 08bb 2C       		.uleb128 0x2c
 16918 08bc F7       		.byte	0xf7
 16919 08bd 00       		.uleb128 0
 16920 08be 9F       		.byte	0x9f
 16921 08bf 2A010000 		.4byte	.LVL122
 16922 08c3 40010000 		.4byte	.LVL128
 16923 08c7 0100     		.2byte	0x1
 16924 08c9 55       		.byte	0x55
 16925 08ca 40010000 		.4byte	.LVL128
 16926 08ce 46010000 		.4byte	.LVL130
 16927 08d2 1300     		.2byte	0x13
 16928 08d4 71       		.byte	0x71
 16929 08d5 00       		.sleb128 0
 16930 08d6 F7       		.byte	0xf7
 16931 08d7 2C       		.uleb128 0x2c
 16932 08d8 F7       		.byte	0xf7
 16933 08d9 25       		.uleb128 0x25
 16934 08da F4       		.byte	0xf4
 16935 08db 25       		.uleb128 0x25
 16936 08dc 04       		.byte	0x4
 16937 08dd AE47613F 		.4byte	0x3f6147ae
 16938 08e1 1E       		.byte	0x1e
 16939 08e2 F7       		.byte	0xf7
 16940 08e3 2C       		.uleb128 0x2c
 16941 08e4 F7       		.byte	0xf7
 16942 08e5 00       		.uleb128 0
ARM GAS  C:\Users\adrie\AppData\Local\Temp\ccgB8szF.s 			page 299


 16943 08e6 9F       		.byte	0x9f
 16944 08e7 46010000 		.4byte	.LVL130
 16945 08eb 48010000 		.4byte	.LVL131
 16946 08ef 1300     		.2byte	0x13
 16947 08f1 73       		.byte	0x73
 16948 08f2 00       		.sleb128 0
 16949 08f3 F7       		.byte	0xf7
 16950 08f4 2C       		.uleb128 0x2c
 16951 08f5 F7       		.byte	0xf7
 16952 08f6 25       		.uleb128 0x25
 16953 08f7 F4       		.byte	0xf4
 16954 08f8 25       		.uleb128 0x25
 16955 08f9 04       		.byte	0x4
 16956 08fa AE47613F 		.4byte	0x3f6147ae
 16957 08fe 1E       		.byte	0x1e
 16958 08ff F7       		.byte	0xf7
 16959 0900 2C       		.uleb128 0x2c
 16960 0901 F7       		.byte	0xf7
 16961 0902 00       		.uleb128 0
 16962 0903 9F       		.byte	0x9f
 16963 0904 48010000 		.4byte	.LVL131
 16964 0908 50010000 		.4byte	.LVL133
 16965 090c 1400     		.2byte	0x14
 16966 090e F3       		.byte	0xf3
 16967 090f 01       		.uleb128 0x1
 16968 0910 53       		.byte	0x53
 16969 0911 F7       		.byte	0xf7
 16970 0912 2C       		.uleb128 0x2c
 16971 0913 F7       		.byte	0xf7
 16972 0914 25       		.uleb128 0x25
 16973 0915 F4       		.byte	0xf4
 16974 0916 25       		.uleb128 0x25
 16975 0917 04       		.byte	0x4
 16976 0918 AE47613F 		.4byte	0x3f6147ae
 16977 091c 1E       		.byte	0x1e
 16978 091d F7       		.byte	0xf7
 16979 091e 2C       		.uleb128 0x2c
 16980 091f F7       		.byte	0xf7
 16981 0920 00       		.uleb128 0
 16982 0921 9F       		.byte	0x9f
 16983 0922 50010000 		.4byte	.LVL133
 16984 0926 54010000 		.4byte	.LVL135
 16985 092a 1300     		.2byte	0x13
 16986 092c 72       		.byte	0x72
 16987 092d 00       		.sleb128 0
 16988 092e F7       		.byte	0xf7
 16989 092f 2C       		.uleb128 0x2c
 16990 0930 F7       		.byte	0xf7
 16991 0931 25       		.uleb128 0x25
 16992 0932 F4       		.byte	0xf4
 16993 0933 25       		.uleb128 0x25
 16994 0934 04       		.byte	0x4
 16995 0935 AE47613F 		.4byte	0x3f6147ae
 16996 0939 1E       		.byte	0x1e
 16997 093a F7       		.byte	0xf7
 16998 093b 2C       		.uleb128 0x2c
 16999 093c F7       		.byte	0xf7
ARM GAS  C:\Users\adrie\AppData\Local\Temp\ccgB8szF.s 			page 300


 17000 093d 00       		.uleb128 0
 17001 093e 9F       		.byte	0x9f
 17002 093f 54010000 		.4byte	.LVL135
 17003 0943 58010000 		.4byte	.LVL136
 17004 0947 1400     		.2byte	0x14
 17005 0949 92       		.byte	0x92
 17006 094a 4F       		.uleb128 0x4f
 17007 094b 00       		.sleb128 0
 17008 094c F7       		.byte	0xf7
 17009 094d 2C       		.uleb128 0x2c
 17010 094e F7       		.byte	0xf7
 17011 094f 25       		.uleb128 0x25
 17012 0950 F4       		.byte	0xf4
 17013 0951 25       		.uleb128 0x25
 17014 0952 04       		.byte	0x4
 17015 0953 AE47613F 		.4byte	0x3f6147ae
 17016 0957 1E       		.byte	0x1e
 17017 0958 F7       		.byte	0xf7
 17018 0959 2C       		.uleb128 0x2c
 17019 095a F7       		.byte	0xf7
 17020 095b 00       		.uleb128 0
 17021 095c 9F       		.byte	0x9f
 17022 095d 58010000 		.4byte	.LVL136
 17023 0961 60010000 		.4byte	.LVL139
 17024 0965 1300     		.2byte	0x13
 17025 0967 70       		.byte	0x70
 17026 0968 00       		.sleb128 0
 17027 0969 F7       		.byte	0xf7
 17028 096a 2C       		.uleb128 0x2c
 17029 096b F7       		.byte	0xf7
 17030 096c 25       		.uleb128 0x25
 17031 096d F4       		.byte	0xf4
 17032 096e 25       		.uleb128 0x25
 17033 096f 04       		.byte	0x4
 17034 0970 AE47613F 		.4byte	0x3f6147ae
 17035 0974 1E       		.byte	0x1e
 17036 0975 F7       		.byte	0xf7
 17037 0976 2C       		.uleb128 0x2c
 17038 0977 F7       		.byte	0xf7
 17039 0978 00       		.uleb128 0
 17040 0979 9F       		.byte	0x9f
 17041 097a 60010000 		.4byte	.LVL139
 17042 097e 78010000 		.4byte	.LVL143
 17043 0982 0100     		.2byte	0x1
 17044 0984 55       		.byte	0x55
 17045 0985 78010000 		.4byte	.LVL143
 17046 0989 92010000 		.4byte	.LVL144
 17047 098d 1300     		.2byte	0x13
 17048 098f 72       		.byte	0x72
 17049 0990 00       		.sleb128 0
 17050 0991 F7       		.byte	0xf7
 17051 0992 2C       		.uleb128 0x2c
 17052 0993 F7       		.byte	0xf7
 17053 0994 25       		.uleb128 0x25
 17054 0995 F4       		.byte	0xf4
 17055 0996 25       		.uleb128 0x25
 17056 0997 04       		.byte	0x4
ARM GAS  C:\Users\adrie\AppData\Local\Temp\ccgB8szF.s 			page 301


 17057 0998 AE47613F 		.4byte	0x3f6147ae
 17058 099c 1E       		.byte	0x1e
 17059 099d F7       		.byte	0xf7
 17060 099e 2C       		.uleb128 0x2c
 17061 099f F7       		.byte	0xf7
 17062 09a0 00       		.uleb128 0
 17063 09a1 9F       		.byte	0x9f
 17064 09a2 00000000 		.4byte	0
 17065 09a6 00000000 		.4byte	0
 17066              	.LLST52:
 17067 09aa 4E000000 		.4byte	.LVL105
 17068 09ae 78000000 		.4byte	.LVL110
 17069 09b2 1300     		.2byte	0x13
 17070 09b4 71       		.byte	0x71
 17071 09b5 00       		.sleb128 0
 17072 09b6 F7       		.byte	0xf7
 17073 09b7 2C       		.uleb128 0x2c
 17074 09b8 F7       		.byte	0xf7
 17075 09b9 25       		.uleb128 0x25
 17076 09ba F4       		.byte	0xf4
 17077 09bb 25       		.uleb128 0x25
 17078 09bc 04       		.byte	0x4
 17079 09bd AE47613F 		.4byte	0x3f6147ae
 17080 09c1 1E       		.byte	0x1e
 17081 09c2 F7       		.byte	0xf7
 17082 09c3 2C       		.uleb128 0x2c
 17083 09c4 F7       		.byte	0xf7
 17084 09c5 00       		.uleb128 0
 17085 09c6 9F       		.byte	0x9f
 17086 09c7 AA000000 		.4byte	.LVL112
 17087 09cb CE000000 		.4byte	.LVL114
 17088 09cf 1300     		.2byte	0x13
 17089 09d1 72       		.byte	0x72
 17090 09d2 00       		.sleb128 0
 17091 09d3 F7       		.byte	0xf7
 17092 09d4 2C       		.uleb128 0x2c
 17093 09d5 F7       		.byte	0xf7
 17094 09d6 25       		.uleb128 0x25
 17095 09d7 F4       		.byte	0xf4
 17096 09d8 25       		.uleb128 0x25
 17097 09d9 04       		.byte	0x4
 17098 09da AE47613F 		.4byte	0x3f6147ae
 17099 09de 1E       		.byte	0x1e
 17100 09df F7       		.byte	0xf7
 17101 09e0 2C       		.uleb128 0x2c
 17102 09e1 F7       		.byte	0xf7
 17103 09e2 00       		.uleb128 0
 17104 09e3 9F       		.byte	0x9f
 17105 09e4 CE000000 		.4byte	.LVL114
 17106 09e8 D6000000 		.4byte	.LVL115
 17107 09ec 1400     		.2byte	0x14
 17108 09ee F3       		.byte	0xf3
 17109 09ef 01       		.uleb128 0x1
 17110 09f0 52       		.byte	0x52
 17111 09f1 F7       		.byte	0xf7
 17112 09f2 2C       		.uleb128 0x2c
 17113 09f3 F7       		.byte	0xf7
ARM GAS  C:\Users\adrie\AppData\Local\Temp\ccgB8szF.s 			page 302


 17114 09f4 25       		.uleb128 0x25
 17115 09f5 F4       		.byte	0xf4
 17116 09f6 25       		.uleb128 0x25
 17117 09f7 04       		.byte	0x4
 17118 09f8 AE47613F 		.4byte	0x3f6147ae
 17119 09fc 1E       		.byte	0x1e
 17120 09fd F7       		.byte	0xf7
 17121 09fe 2C       		.uleb128 0x2c
 17122 09ff F7       		.byte	0xf7
 17123 0a00 00       		.uleb128 0
 17124 0a01 9F       		.byte	0x9f
 17125 0a02 16010000 		.4byte	.LVL119
 17126 0a06 2A010000 		.4byte	.LVL122
 17127 0a0a 1300     		.2byte	0x13
 17128 0a0c 70       		.byte	0x70
 17129 0a0d 00       		.sleb128 0
 17130 0a0e F7       		.byte	0xf7
 17131 0a0f 2C       		.uleb128 0x2c
 17132 0a10 F7       		.byte	0xf7
 17133 0a11 25       		.uleb128 0x25
 17134 0a12 F4       		.byte	0xf4
 17135 0a13 25       		.uleb128 0x25
 17136 0a14 04       		.byte	0x4
 17137 0a15 AE47613F 		.4byte	0x3f6147ae
 17138 0a19 1E       		.byte	0x1e
 17139 0a1a F7       		.byte	0xf7
 17140 0a1b 2C       		.uleb128 0x2c
 17141 0a1c F7       		.byte	0xf7
 17142 0a1d 00       		.uleb128 0
 17143 0a1e 9F       		.byte	0x9f
 17144 0a1f 40010000 		.4byte	.LVL128
 17145 0a23 46010000 		.4byte	.LVL130
 17146 0a27 1300     		.2byte	0x13
 17147 0a29 70       		.byte	0x70
 17148 0a2a 00       		.sleb128 0
 17149 0a2b F7       		.byte	0xf7
 17150 0a2c 2C       		.uleb128 0x2c
 17151 0a2d F7       		.byte	0xf7
 17152 0a2e 25       		.uleb128 0x25
 17153 0a2f F4       		.byte	0xf4
 17154 0a30 25       		.uleb128 0x25
 17155 0a31 04       		.byte	0x4
 17156 0a32 AE47613F 		.4byte	0x3f6147ae
 17157 0a36 1E       		.byte	0x1e
 17158 0a37 F7       		.byte	0xf7
 17159 0a38 2C       		.uleb128 0x2c
 17160 0a39 F7       		.byte	0xf7
 17161 0a3a 00       		.uleb128 0
 17162 0a3b 9F       		.byte	0x9f
 17163 0a3c 46010000 		.4byte	.LVL130
 17164 0a40 4C010000 		.4byte	.LVL132
 17165 0a44 1300     		.2byte	0x13
 17166 0a46 72       		.byte	0x72
 17167 0a47 00       		.sleb128 0
 17168 0a48 F7       		.byte	0xf7
 17169 0a49 2C       		.uleb128 0x2c
 17170 0a4a F7       		.byte	0xf7
ARM GAS  C:\Users\adrie\AppData\Local\Temp\ccgB8szF.s 			page 303


 17171 0a4b 25       		.uleb128 0x25
 17172 0a4c F4       		.byte	0xf4
 17173 0a4d 25       		.uleb128 0x25
 17174 0a4e 04       		.byte	0x4
 17175 0a4f AE47613F 		.4byte	0x3f6147ae
 17176 0a53 1E       		.byte	0x1e
 17177 0a54 F7       		.byte	0xf7
 17178 0a55 2C       		.uleb128 0x2c
 17179 0a56 F7       		.byte	0xf7
 17180 0a57 00       		.uleb128 0
 17181 0a58 9F       		.byte	0x9f
 17182 0a59 4C010000 		.4byte	.LVL132
 17183 0a5d 50010000 		.4byte	.LVL133
 17184 0a61 1400     		.2byte	0x14
 17185 0a63 F3       		.byte	0xf3
 17186 0a64 01       		.uleb128 0x1
 17187 0a65 52       		.byte	0x52
 17188 0a66 F7       		.byte	0xf7
 17189 0a67 2C       		.uleb128 0x2c
 17190 0a68 F7       		.byte	0xf7
 17191 0a69 25       		.uleb128 0x25
 17192 0a6a F4       		.byte	0xf4
 17193 0a6b 25       		.uleb128 0x25
 17194 0a6c 04       		.byte	0x4
 17195 0a6d AE47613F 		.4byte	0x3f6147ae
 17196 0a71 1E       		.byte	0x1e
 17197 0a72 F7       		.byte	0xf7
 17198 0a73 2C       		.uleb128 0x2c
 17199 0a74 F7       		.byte	0xf7
 17200 0a75 00       		.uleb128 0
 17201 0a76 9F       		.byte	0x9f
 17202 0a77 50010000 		.4byte	.LVL133
 17203 0a7b 52010000 		.4byte	.LVL134
 17204 0a7f 1300     		.2byte	0x13
 17205 0a81 73       		.byte	0x73
 17206 0a82 00       		.sleb128 0
 17207 0a83 F7       		.byte	0xf7
 17208 0a84 2C       		.uleb128 0x2c
 17209 0a85 F7       		.byte	0xf7
 17210 0a86 25       		.uleb128 0x25
 17211 0a87 F4       		.byte	0xf4
 17212 0a88 25       		.uleb128 0x25
 17213 0a89 04       		.byte	0x4
 17214 0a8a AE47613F 		.4byte	0x3f6147ae
 17215 0a8e 1E       		.byte	0x1e
 17216 0a8f F7       		.byte	0xf7
 17217 0a90 2C       		.uleb128 0x2c
 17218 0a91 F7       		.byte	0xf7
 17219 0a92 00       		.uleb128 0
 17220 0a93 9F       		.byte	0x9f
 17221 0a94 52010000 		.4byte	.LVL134
 17222 0a98 58010000 		.4byte	.LVL136
 17223 0a9c 1400     		.2byte	0x14
 17224 0a9e F3       		.byte	0xf3
 17225 0a9f 01       		.uleb128 0x1
 17226 0aa0 53       		.byte	0x53
 17227 0aa1 F7       		.byte	0xf7
ARM GAS  C:\Users\adrie\AppData\Local\Temp\ccgB8szF.s 			page 304


 17228 0aa2 2C       		.uleb128 0x2c
 17229 0aa3 F7       		.byte	0xf7
 17230 0aa4 25       		.uleb128 0x25
 17231 0aa5 F4       		.byte	0xf4
 17232 0aa6 25       		.uleb128 0x25
 17233 0aa7 04       		.byte	0x4
 17234 0aa8 AE47613F 		.4byte	0x3f6147ae
 17235 0aac 1E       		.byte	0x1e
 17236 0aad F7       		.byte	0xf7
 17237 0aae 2C       		.uleb128 0x2c
 17238 0aaf F7       		.byte	0xf7
 17239 0ab0 00       		.uleb128 0
 17240 0ab1 9F       		.byte	0x9f
 17241 0ab2 58010000 		.4byte	.LVL136
 17242 0ab6 60010000 		.4byte	.LVL139
 17243 0aba 1300     		.2byte	0x13
 17244 0abc 71       		.byte	0x71
 17245 0abd 00       		.sleb128 0
 17246 0abe F7       		.byte	0xf7
 17247 0abf 2C       		.uleb128 0x2c
 17248 0ac0 F7       		.byte	0xf7
 17249 0ac1 25       		.uleb128 0x25
 17250 0ac2 F4       		.byte	0xf4
 17251 0ac3 25       		.uleb128 0x25
 17252 0ac4 04       		.byte	0x4
 17253 0ac5 AE47613F 		.4byte	0x3f6147ae
 17254 0ac9 1E       		.byte	0x1e
 17255 0aca F7       		.byte	0xf7
 17256 0acb 2C       		.uleb128 0x2c
 17257 0acc F7       		.byte	0xf7
 17258 0acd 00       		.uleb128 0
 17259 0ace 9F       		.byte	0x9f
 17260 0acf 00000000 		.4byte	0
 17261 0ad3 00000000 		.4byte	0
 17262              	.LLST75:
 17263 0ad7 00000000 		.4byte	.LVL224
 17264 0adb C2000000 		.4byte	.LVL232
 17265 0adf 0100     		.2byte	0x1
 17266 0ae1 50       		.byte	0x50
 17267 0ae2 C2000000 		.4byte	.LVL232
 17268 0ae6 F4010000 		.4byte	.LVL264
 17269 0aea 0400     		.2byte	0x4
 17270 0aec F3       		.byte	0xf3
 17271 0aed 01       		.uleb128 0x1
 17272 0aee 50       		.byte	0x50
 17273 0aef 9F       		.byte	0x9f
 17274 0af0 F4010000 		.4byte	.LVL264
 17275 0af4 FC010000 		.4byte	.LVL265
 17276 0af8 0100     		.2byte	0x1
 17277 0afa 50       		.byte	0x50
 17278 0afb FC010000 		.4byte	.LVL265
 17279 0aff 14030000 		.4byte	.LFE291
 17280 0b03 0400     		.2byte	0x4
 17281 0b05 F3       		.byte	0xf3
 17282 0b06 01       		.uleb128 0x1
 17283 0b07 50       		.byte	0x50
 17284 0b08 9F       		.byte	0x9f
ARM GAS  C:\Users\adrie\AppData\Local\Temp\ccgB8szF.s 			page 305


 17285 0b09 00000000 		.4byte	0
 17286 0b0d 00000000 		.4byte	0
 17287              	.LLST76:
 17288 0b11 00000000 		.4byte	.LVL224
 17289 0b15 BE000000 		.4byte	.LVL231
 17290 0b19 0100     		.2byte	0x1
 17291 0b1b 51       		.byte	0x51
 17292 0b1c BE000000 		.4byte	.LVL231
 17293 0b20 F4010000 		.4byte	.LVL264
 17294 0b24 0400     		.2byte	0x4
 17295 0b26 F3       		.byte	0xf3
 17296 0b27 01       		.uleb128 0x1
 17297 0b28 51       		.byte	0x51
 17298 0b29 9F       		.byte	0x9f
 17299 0b2a F4010000 		.4byte	.LVL264
 17300 0b2e FC010000 		.4byte	.LVL265
 17301 0b32 0100     		.2byte	0x1
 17302 0b34 51       		.byte	0x51
 17303 0b35 FC010000 		.4byte	.LVL265
 17304 0b39 14030000 		.4byte	.LFE291
 17305 0b3d 0400     		.2byte	0x4
 17306 0b3f F3       		.byte	0xf3
 17307 0b40 01       		.uleb128 0x1
 17308 0b41 51       		.byte	0x51
 17309 0b42 9F       		.byte	0x9f
 17310 0b43 00000000 		.4byte	0
 17311 0b47 00000000 		.4byte	0
 17312              	.LLST77:
 17313 0b4b 10000000 		.4byte	.LVL225
 17314 0b4f 2E000000 		.4byte	.LVL226
 17315 0b53 0200     		.2byte	0x2
 17316 0b55 30       		.byte	0x30
 17317 0b56 9F       		.byte	0x9f
 17318 0b57 2E000000 		.4byte	.LVL226
 17319 0b5b 30000000 		.4byte	.LVL227
 17320 0b5f 0100     		.2byte	0x1
 17321 0b61 57       		.byte	0x57
 17322 0b62 32000000 		.4byte	.LVL228
 17323 0b66 BC000000 		.4byte	.LVL230
 17324 0b6a 0100     		.2byte	0x1
 17325 0b6c 57       		.byte	0x57
 17326 0b6d F4010000 		.4byte	.LVL264
 17327 0b71 FC010000 		.4byte	.LVL265
 17328 0b75 0200     		.2byte	0x2
 17329 0b77 30       		.byte	0x30
 17330 0b78 9F       		.byte	0x9f
 17331 0b79 00000000 		.4byte	0
 17332 0b7d 00000000 		.4byte	0
 17333              	.LLST78:
 17334 0b81 24010000 		.4byte	.LVL242
 17335 0b85 88010000 		.4byte	.LVL257
 17336 0b89 1300     		.2byte	0x13
 17337 0b8b 7A       		.byte	0x7a
 17338 0b8c 00       		.sleb128 0
 17339 0b8d F7       		.byte	0xf7
 17340 0b8e 2C       		.uleb128 0x2c
 17341 0b8f F7       		.byte	0xf7
ARM GAS  C:\Users\adrie\AppData\Local\Temp\ccgB8szF.s 			page 306


 17342 0b90 25       		.uleb128 0x25
 17343 0b91 F4       		.byte	0xf4
 17344 0b92 25       		.uleb128 0x25
 17345 0b93 04       		.byte	0x4
 17346 0b94 A4707D3F 		.4byte	0x3f7d70a4
 17347 0b98 1E       		.byte	0x1e
 17348 0b99 F7       		.byte	0xf7
 17349 0b9a 2C       		.uleb128 0x2c
 17350 0b9b F7       		.byte	0xf7
 17351 0b9c 00       		.uleb128 0
 17352 0b9d 9F       		.byte	0x9f
 17353 0b9e 88010000 		.4byte	.LVL257
 17354 0ba2 90010000 		.4byte	.LVL258
 17355 0ba6 1000     		.2byte	0x10
 17356 0ba8 F5       		.byte	0xf5
 17357 0ba9 4E       		.uleb128 0x4e
 17358 0baa 25       		.uleb128 0x25
 17359 0bab F4       		.byte	0xf4
 17360 0bac 25       		.uleb128 0x25
 17361 0bad 04       		.byte	0x4
 17362 0bae A4707D3F 		.4byte	0x3f7d70a4
 17363 0bb2 1E       		.byte	0x1e
 17364 0bb3 F7       		.byte	0xf7
 17365 0bb4 2C       		.uleb128 0x2c
 17366 0bb5 F7       		.byte	0xf7
 17367 0bb6 00       		.uleb128 0
 17368 0bb7 9F       		.byte	0x9f
 17369 0bb8 90010000 		.4byte	.LVL258
 17370 0bbc DC010000 		.4byte	.LVL262
 17371 0bc0 1300     		.2byte	0x13
 17372 0bc2 7A       		.byte	0x7a
 17373 0bc3 00       		.sleb128 0
 17374 0bc4 F7       		.byte	0xf7
 17375 0bc5 2C       		.uleb128 0x2c
 17376 0bc6 F7       		.byte	0xf7
 17377 0bc7 25       		.uleb128 0x25
 17378 0bc8 F4       		.byte	0xf4
 17379 0bc9 25       		.uleb128 0x25
 17380 0bca 04       		.byte	0x4
 17381 0bcb A4707D3F 		.4byte	0x3f7d70a4
 17382 0bcf 1E       		.byte	0x1e
 17383 0bd0 F7       		.byte	0xf7
 17384 0bd1 2C       		.uleb128 0x2c
 17385 0bd2 F7       		.byte	0xf7
 17386 0bd3 00       		.uleb128 0
 17387 0bd4 9F       		.byte	0x9f
 17388 0bd5 DC010000 		.4byte	.LVL262
 17389 0bd9 E4010000 		.4byte	.LVL263
 17390 0bdd 1500     		.2byte	0x15
 17391 0bdf 91       		.byte	0x91
 17392 0be0 947F     		.sleb128 -108
 17393 0be2 06       		.byte	0x6
 17394 0be3 F7       		.byte	0xf7
 17395 0be4 2C       		.uleb128 0x2c
 17396 0be5 F7       		.byte	0xf7
 17397 0be6 25       		.uleb128 0x25
 17398 0be7 F4       		.byte	0xf4
ARM GAS  C:\Users\adrie\AppData\Local\Temp\ccgB8szF.s 			page 307


 17399 0be8 25       		.uleb128 0x25
 17400 0be9 04       		.byte	0x4
 17401 0bea A4707D3F 		.4byte	0x3f7d70a4
 17402 0bee 1E       		.byte	0x1e
 17403 0bef F7       		.byte	0xf7
 17404 0bf0 2C       		.uleb128 0x2c
 17405 0bf1 F7       		.byte	0xf7
 17406 0bf2 00       		.uleb128 0
 17407 0bf3 9F       		.byte	0x9f
 17408 0bf4 FC010000 		.4byte	.LVL265
 17409 0bf8 5E020000 		.4byte	.LVL279
 17410 0bfc 1300     		.2byte	0x13
 17411 0bfe 7A       		.byte	0x7a
 17412 0bff 00       		.sleb128 0
 17413 0c00 F7       		.byte	0xf7
 17414 0c01 2C       		.uleb128 0x2c
 17415 0c02 F7       		.byte	0xf7
 17416 0c03 25       		.uleb128 0x25
 17417 0c04 F4       		.byte	0xf4
 17418 0c05 25       		.uleb128 0x25
 17419 0c06 04       		.byte	0x4
 17420 0c07 A4707D3F 		.4byte	0x3f7d70a4
 17421 0c0b 1E       		.byte	0x1e
 17422 0c0c F7       		.byte	0xf7
 17423 0c0d 2C       		.uleb128 0x2c
 17424 0c0e F7       		.byte	0xf7
 17425 0c0f 00       		.uleb128 0
 17426 0c10 9F       		.byte	0x9f
 17427 0c11 5E020000 		.4byte	.LVL279
 17428 0c15 BE020000 		.4byte	.LVL290
 17429 0c19 1500     		.2byte	0x15
 17430 0c1b 91       		.byte	0x91
 17431 0c1c 947F     		.sleb128 -108
 17432 0c1e 06       		.byte	0x6
 17433 0c1f F7       		.byte	0xf7
 17434 0c20 2C       		.uleb128 0x2c
 17435 0c21 F7       		.byte	0xf7
 17436 0c22 25       		.uleb128 0x25
 17437 0c23 F4       		.byte	0xf4
 17438 0c24 25       		.uleb128 0x25
 17439 0c25 04       		.byte	0x4
 17440 0c26 A4707D3F 		.4byte	0x3f7d70a4
 17441 0c2a 1E       		.byte	0x1e
 17442 0c2b F7       		.byte	0xf7
 17443 0c2c 2C       		.uleb128 0x2c
 17444 0c2d F7       		.byte	0xf7
 17445 0c2e 00       		.uleb128 0
 17446 0c2f 9F       		.byte	0x9f
 17447 0c30 BE020000 		.4byte	.LVL290
 17448 0c34 C4020000 		.4byte	.LVL292
 17449 0c38 1300     		.2byte	0x13
 17450 0c3a 7A       		.byte	0x7a
 17451 0c3b 00       		.sleb128 0
 17452 0c3c F7       		.byte	0xf7
 17453 0c3d 2C       		.uleb128 0x2c
 17454 0c3e F7       		.byte	0xf7
 17455 0c3f 25       		.uleb128 0x25
ARM GAS  C:\Users\adrie\AppData\Local\Temp\ccgB8szF.s 			page 308


 17456 0c40 F4       		.byte	0xf4
 17457 0c41 25       		.uleb128 0x25
 17458 0c42 04       		.byte	0x4
 17459 0c43 A4707D3F 		.4byte	0x3f7d70a4
 17460 0c47 1E       		.byte	0x1e
 17461 0c48 F7       		.byte	0xf7
 17462 0c49 2C       		.uleb128 0x2c
 17463 0c4a F7       		.byte	0xf7
 17464 0c4b 00       		.uleb128 0
 17465 0c4c 9F       		.byte	0x9f
 17466 0c4d 00000000 		.4byte	0
 17467 0c51 00000000 		.4byte	0
 17468              	.LLST79:
 17469 0c55 2E010000 		.4byte	.LVL244
 17470 0c59 76010000 		.4byte	.LVL254
 17471 0c5d 1300     		.2byte	0x13
 17472 0c5f 75       		.byte	0x75
 17473 0c60 00       		.sleb128 0
 17474 0c61 F7       		.byte	0xf7
 17475 0c62 2C       		.uleb128 0x2c
 17476 0c63 F7       		.byte	0xf7
 17477 0c64 25       		.uleb128 0x25
 17478 0c65 F4       		.byte	0xf4
 17479 0c66 25       		.uleb128 0x25
 17480 0c67 04       		.byte	0x4
 17481 0c68 A4707D3F 		.4byte	0x3f7d70a4
 17482 0c6c 1E       		.byte	0x1e
 17483 0c6d F7       		.byte	0xf7
 17484 0c6e 2C       		.uleb128 0x2c
 17485 0c6f F7       		.byte	0xf7
 17486 0c70 00       		.uleb128 0
 17487 0c71 9F       		.byte	0x9f
 17488 0c72 76010000 		.4byte	.LVL254
 17489 0c76 7C010000 		.4byte	.LVL255
 17490 0c7a 1400     		.2byte	0x14
 17491 0c7c 92       		.byte	0x92
 17492 0c7d 4F       		.uleb128 0x4f
 17493 0c7e 00       		.sleb128 0
 17494 0c7f F7       		.byte	0xf7
 17495 0c80 2C       		.uleb128 0x2c
 17496 0c81 F7       		.byte	0xf7
 17497 0c82 25       		.uleb128 0x25
 17498 0c83 F4       		.byte	0xf4
 17499 0c84 25       		.uleb128 0x25
 17500 0c85 04       		.byte	0x4
 17501 0c86 A4707D3F 		.4byte	0x3f7d70a4
 17502 0c8a 1E       		.byte	0x1e
 17503 0c8b F7       		.byte	0xf7
 17504 0c8c 2C       		.uleb128 0x2c
 17505 0c8d F7       		.byte	0xf7
 17506 0c8e 00       		.uleb128 0
 17507 0c8f 9F       		.byte	0x9f
 17508 0c90 7C010000 		.4byte	.LVL255
 17509 0c94 84010000 		.4byte	.LVL256
 17510 0c98 1000     		.2byte	0x10
 17511 0c9a F5       		.byte	0xf5
 17512 0c9b 4D       		.uleb128 0x4d
ARM GAS  C:\Users\adrie\AppData\Local\Temp\ccgB8szF.s 			page 309


 17513 0c9c 25       		.uleb128 0x25
 17514 0c9d F4       		.byte	0xf4
 17515 0c9e 25       		.uleb128 0x25
 17516 0c9f 04       		.byte	0x4
 17517 0ca0 A4707D3F 		.4byte	0x3f7d70a4
 17518 0ca4 1E       		.byte	0x1e
 17519 0ca5 F7       		.byte	0xf7
 17520 0ca6 2C       		.uleb128 0x2c
 17521 0ca7 F7       		.byte	0xf7
 17522 0ca8 00       		.uleb128 0
 17523 0ca9 9F       		.byte	0x9f
 17524 0caa 84010000 		.4byte	.LVL256
 17525 0cae E4010000 		.4byte	.LVL263
 17526 0cb2 1500     		.2byte	0x15
 17527 0cb4 91       		.byte	0x91
 17528 0cb5 9C7F     		.sleb128 -100
 17529 0cb7 06       		.byte	0x6
 17530 0cb8 F7       		.byte	0xf7
 17531 0cb9 2C       		.uleb128 0x2c
 17532 0cba F7       		.byte	0xf7
 17533 0cbb 25       		.uleb128 0x25
 17534 0cbc F4       		.byte	0xf4
 17535 0cbd 25       		.uleb128 0x25
 17536 0cbe 04       		.byte	0x4
 17537 0cbf A4707D3F 		.4byte	0x3f7d70a4
 17538 0cc3 1E       		.byte	0x1e
 17539 0cc4 F7       		.byte	0xf7
 17540 0cc5 2C       		.uleb128 0x2c
 17541 0cc6 F7       		.byte	0xf7
 17542 0cc7 00       		.uleb128 0
 17543 0cc8 9F       		.byte	0x9f
 17544 0cc9 FC010000 		.4byte	.LVL265
 17545 0ccd 00020000 		.4byte	.LVL266
 17546 0cd1 1300     		.2byte	0x13
 17547 0cd3 75       		.byte	0x75
 17548 0cd4 00       		.sleb128 0
 17549 0cd5 F7       		.byte	0xf7
 17550 0cd6 2C       		.uleb128 0x2c
 17551 0cd7 F7       		.byte	0xf7
 17552 0cd8 25       		.uleb128 0x25
 17553 0cd9 F4       		.byte	0xf4
 17554 0cda 25       		.uleb128 0x25
 17555 0cdb 04       		.byte	0x4
 17556 0cdc A4707D3F 		.4byte	0x3f7d70a4
 17557 0ce0 1E       		.byte	0x1e
 17558 0ce1 F7       		.byte	0xf7
 17559 0ce2 2C       		.uleb128 0x2c
 17560 0ce3 F7       		.byte	0xf7
 17561 0ce4 00       		.uleb128 0
 17562 0ce5 9F       		.byte	0x9f
 17563 0ce6 00020000 		.4byte	.LVL266
 17564 0cea C4020000 		.4byte	.LVL292
 17565 0cee 1500     		.2byte	0x15
 17566 0cf0 91       		.byte	0x91
 17567 0cf1 9C7F     		.sleb128 -100
 17568 0cf3 06       		.byte	0x6
 17569 0cf4 F7       		.byte	0xf7
ARM GAS  C:\Users\adrie\AppData\Local\Temp\ccgB8szF.s 			page 310


 17570 0cf5 2C       		.uleb128 0x2c
 17571 0cf6 F7       		.byte	0xf7
 17572 0cf7 25       		.uleb128 0x25
 17573 0cf8 F4       		.byte	0xf4
 17574 0cf9 25       		.uleb128 0x25
 17575 0cfa 04       		.byte	0x4
 17576 0cfb A4707D3F 		.4byte	0x3f7d70a4
 17577 0cff 1E       		.byte	0x1e
 17578 0d00 F7       		.byte	0xf7
 17579 0d01 2C       		.uleb128 0x2c
 17580 0d02 F7       		.byte	0xf7
 17581 0d03 00       		.uleb128 0
 17582 0d04 9F       		.byte	0x9f
 17583 0d05 00000000 		.4byte	0
 17584 0d09 00000000 		.4byte	0
 17585              	.LLST80:
 17586 0d0d 3A010000 		.4byte	.LVL246
 17587 0d11 DC010000 		.4byte	.LVL262
 17588 0d15 0100     		.2byte	0x1
 17589 0d17 59       		.byte	0x59
 17590 0d18 DC010000 		.4byte	.LVL262
 17591 0d1c E4010000 		.4byte	.LVL263
 17592 0d20 0300     		.2byte	0x3
 17593 0d22 91       		.byte	0x91
 17594 0d23 A47F     		.sleb128 -92
 17595 0d25 FC010000 		.4byte	.LVL265
 17596 0d29 62020000 		.4byte	.LVL280
 17597 0d2d 0100     		.2byte	0x1
 17598 0d2f 59       		.byte	0x59
 17599 0d30 62020000 		.4byte	.LVL280
 17600 0d34 BE020000 		.4byte	.LVL290
 17601 0d38 0300     		.2byte	0x3
 17602 0d3a 91       		.byte	0x91
 17603 0d3b A47F     		.sleb128 -92
 17604 0d3d BE020000 		.4byte	.LVL290
 17605 0d41 C4020000 		.4byte	.LVL292
 17606 0d45 0100     		.2byte	0x1
 17607 0d47 59       		.byte	0x59
 17608 0d48 00000000 		.4byte	0
 17609 0d4c 00000000 		.4byte	0
 17610              	.LLST81:
 17611 0d50 46010000 		.4byte	.LVL248
 17612 0d54 94010000 		.4byte	.LVL259
 17613 0d58 1300     		.2byte	0x13
 17614 0d5a 78       		.byte	0x78
 17615 0d5b 00       		.sleb128 0
 17616 0d5c F7       		.byte	0xf7
 17617 0d5d 2C       		.uleb128 0x2c
 17618 0d5e F7       		.byte	0xf7
 17619 0d5f 25       		.uleb128 0x25
 17620 0d60 F4       		.byte	0xf4
 17621 0d61 25       		.uleb128 0x25
 17622 0d62 04       		.byte	0x4
 17623 0d63 A4707D3F 		.4byte	0x3f7d70a4
 17624 0d67 1E       		.byte	0x1e
 17625 0d68 F7       		.byte	0xf7
 17626 0d69 2C       		.uleb128 0x2c
ARM GAS  C:\Users\adrie\AppData\Local\Temp\ccgB8szF.s 			page 311


 17627 0d6a F7       		.byte	0xf7
 17628 0d6b 00       		.uleb128 0
 17629 0d6c 9F       		.byte	0x9f
 17630 0d6d 94010000 		.4byte	.LVL259
 17631 0d71 A4010000 		.4byte	.LVL260
 17632 0d75 1000     		.2byte	0x10
 17633 0d77 F5       		.byte	0xf5
 17634 0d78 4F       		.uleb128 0x4f
 17635 0d79 25       		.uleb128 0x25
 17636 0d7a F4       		.byte	0xf4
 17637 0d7b 25       		.uleb128 0x25
 17638 0d7c 04       		.byte	0x4
 17639 0d7d A4707D3F 		.4byte	0x3f7d70a4
 17640 0d81 1E       		.byte	0x1e
 17641 0d82 F7       		.byte	0xf7
 17642 0d83 2C       		.uleb128 0x2c
 17643 0d84 F7       		.byte	0xf7
 17644 0d85 00       		.uleb128 0
 17645 0d86 9F       		.byte	0x9f
 17646 0d87 A4010000 		.4byte	.LVL260
 17647 0d8b DC010000 		.4byte	.LVL262
 17648 0d8f 1300     		.2byte	0x13
 17649 0d91 78       		.byte	0x78
 17650 0d92 00       		.sleb128 0
 17651 0d93 F7       		.byte	0xf7
 17652 0d94 2C       		.uleb128 0x2c
 17653 0d95 F7       		.byte	0xf7
 17654 0d96 25       		.uleb128 0x25
 17655 0d97 F4       		.byte	0xf4
 17656 0d98 25       		.uleb128 0x25
 17657 0d99 04       		.byte	0x4
 17658 0d9a A4707D3F 		.4byte	0x3f7d70a4
 17659 0d9e 1E       		.byte	0x1e
 17660 0d9f F7       		.byte	0xf7
 17661 0da0 2C       		.uleb128 0x2c
 17662 0da1 F7       		.byte	0xf7
 17663 0da2 00       		.uleb128 0
 17664 0da3 9F       		.byte	0x9f
 17665 0da4 DC010000 		.4byte	.LVL262
 17666 0da8 E4010000 		.4byte	.LVL263
 17667 0dac 1500     		.2byte	0x15
 17668 0dae 91       		.byte	0x91
 17669 0daf AC7F     		.sleb128 -84
 17670 0db1 06       		.byte	0x6
 17671 0db2 F7       		.byte	0xf7
 17672 0db3 2C       		.uleb128 0x2c
 17673 0db4 F7       		.byte	0xf7
 17674 0db5 25       		.uleb128 0x25
 17675 0db6 F4       		.byte	0xf4
 17676 0db7 25       		.uleb128 0x25
 17677 0db8 04       		.byte	0x4
 17678 0db9 A4707D3F 		.4byte	0x3f7d70a4
 17679 0dbd 1E       		.byte	0x1e
 17680 0dbe F7       		.byte	0xf7
 17681 0dbf 2C       		.uleb128 0x2c
 17682 0dc0 F7       		.byte	0xf7
 17683 0dc1 00       		.uleb128 0
ARM GAS  C:\Users\adrie\AppData\Local\Temp\ccgB8szF.s 			page 312


 17684 0dc2 9F       		.byte	0x9f
 17685 0dc3 FC010000 		.4byte	.LVL265
 17686 0dc7 66020000 		.4byte	.LVL281
 17687 0dcb 1300     		.2byte	0x13
 17688 0dcd 78       		.byte	0x78
 17689 0dce 00       		.sleb128 0
 17690 0dcf F7       		.byte	0xf7
 17691 0dd0 2C       		.uleb128 0x2c
 17692 0dd1 F7       		.byte	0xf7
 17693 0dd2 25       		.uleb128 0x25
 17694 0dd3 F4       		.byte	0xf4
 17695 0dd4 25       		.uleb128 0x25
 17696 0dd5 04       		.byte	0x4
 17697 0dd6 A4707D3F 		.4byte	0x3f7d70a4
 17698 0dda 1E       		.byte	0x1e
 17699 0ddb F7       		.byte	0xf7
 17700 0ddc 2C       		.uleb128 0x2c
 17701 0ddd F7       		.byte	0xf7
 17702 0dde 00       		.uleb128 0
 17703 0ddf 9F       		.byte	0x9f
 17704 0de0 66020000 		.4byte	.LVL281
 17705 0de4 BE020000 		.4byte	.LVL290
 17706 0de8 1500     		.2byte	0x15
 17707 0dea 91       		.byte	0x91
 17708 0deb AC7F     		.sleb128 -84
 17709 0ded 06       		.byte	0x6
 17710 0dee F7       		.byte	0xf7
 17711 0def 2C       		.uleb128 0x2c
 17712 0df0 F7       		.byte	0xf7
 17713 0df1 25       		.uleb128 0x25
 17714 0df2 F4       		.byte	0xf4
 17715 0df3 25       		.uleb128 0x25
 17716 0df4 04       		.byte	0x4
 17717 0df5 A4707D3F 		.4byte	0x3f7d70a4
 17718 0df9 1E       		.byte	0x1e
 17719 0dfa F7       		.byte	0xf7
 17720 0dfb 2C       		.uleb128 0x2c
 17721 0dfc F7       		.byte	0xf7
 17722 0dfd 00       		.uleb128 0
 17723 0dfe 9F       		.byte	0x9f
 17724 0dff BE020000 		.4byte	.LVL290
 17725 0e03 C4020000 		.4byte	.LVL292
 17726 0e07 1300     		.2byte	0x13
 17727 0e09 78       		.byte	0x78
 17728 0e0a 00       		.sleb128 0
 17729 0e0b F7       		.byte	0xf7
 17730 0e0c 2C       		.uleb128 0x2c
 17731 0e0d F7       		.byte	0xf7
 17732 0e0e 25       		.uleb128 0x25
 17733 0e0f F4       		.byte	0xf4
 17734 0e10 25       		.uleb128 0x25
 17735 0e11 04       		.byte	0x4
 17736 0e12 A4707D3F 		.4byte	0x3f7d70a4
 17737 0e16 1E       		.byte	0x1e
 17738 0e17 F7       		.byte	0xf7
 17739 0e18 2C       		.uleb128 0x2c
 17740 0e19 F7       		.byte	0xf7
ARM GAS  C:\Users\adrie\AppData\Local\Temp\ccgB8szF.s 			page 313


 17741 0e1a 00       		.uleb128 0
 17742 0e1b 9F       		.byte	0x9f
 17743 0e1c 00000000 		.4byte	0
 17744 0e20 00000000 		.4byte	0
 17745              	.LLST82:
 17746 0e24 4A010000 		.4byte	.LVL249
 17747 0e28 E4010000 		.4byte	.LVL263
 17748 0e2c 0300     		.2byte	0x3
 17749 0e2e 91       		.byte	0x91
 17750 0e2f B87F     		.sleb128 -72
 17751 0e31 FC010000 		.4byte	.LVL265
 17752 0e35 C4020000 		.4byte	.LVL292
 17753 0e39 0300     		.2byte	0x3
 17754 0e3b 91       		.byte	0x91
 17755 0e3c B87F     		.sleb128 -72
 17756 0e3e 00000000 		.4byte	0
 17757 0e42 00000000 		.4byte	0
 17758              	.LLST83:
 17759 0e46 52010000 		.4byte	.LVL250
 17760 0e4a E4010000 		.4byte	.LVL263
 17761 0e4e 0200     		.2byte	0x2
 17762 0e50 91       		.byte	0x91
 17763 0e51 40       		.sleb128 -64
 17764 0e52 FC010000 		.4byte	.LVL265
 17765 0e56 C4020000 		.4byte	.LVL292
 17766 0e5a 0200     		.2byte	0x2
 17767 0e5c 91       		.byte	0x91
 17768 0e5d 40       		.sleb128 -64
 17769 0e5e 00000000 		.4byte	0
 17770 0e62 00000000 		.4byte	0
 17771              	.LLST84:
 17772 0e66 5A010000 		.4byte	.LVL251
 17773 0e6a E4010000 		.4byte	.LVL263
 17774 0e6e 0200     		.2byte	0x2
 17775 0e70 91       		.byte	0x91
 17776 0e71 48       		.sleb128 -56
 17777 0e72 FC010000 		.4byte	.LVL265
 17778 0e76 C4020000 		.4byte	.LVL292
 17779 0e7a 0200     		.2byte	0x2
 17780 0e7c 91       		.byte	0x91
 17781 0e7d 48       		.sleb128 -56
 17782 0e7e 00000000 		.4byte	0
 17783 0e82 00000000 		.4byte	0
 17784              	.LLST85:
 17785 0e86 62010000 		.4byte	.LVL252
 17786 0e8a E4010000 		.4byte	.LVL263
 17787 0e8e 0200     		.2byte	0x2
 17788 0e90 91       		.byte	0x91
 17789 0e91 50       		.sleb128 -48
 17790 0e92 FC010000 		.4byte	.LVL265
 17791 0e96 C4020000 		.4byte	.LVL292
 17792 0e9a 0200     		.2byte	0x2
 17793 0e9c 91       		.byte	0x91
 17794 0e9d 50       		.sleb128 -48
 17795 0e9e 00000000 		.4byte	0
 17796 0ea2 00000000 		.4byte	0
 17797              	.LLST95:
ARM GAS  C:\Users\adrie\AppData\Local\Temp\ccgB8szF.s 			page 314


 17798 0ea6 06020000 		.4byte	.LVL267
 17799 0eaa 4C020000 		.4byte	.LVL277
 17800 0eae 0600     		.2byte	0x6
 17801 0eb0 03       		.byte	0x3
 17802 0eb1 00000000 		.4byte	sendToComputer_sem
 17803 0eb5 9F       		.byte	0x9f
 17804 0eb6 BE020000 		.4byte	.LVL290
 17805 0eba C4020000 		.4byte	.LVL292
 17806 0ebe 0600     		.2byte	0x6
 17807 0ec0 03       		.byte	0x3
 17808 0ec1 00000000 		.4byte	sendToComputer_sem
 17809 0ec5 9F       		.byte	0x9f
 17810 0ec6 00000000 		.4byte	0
 17811 0eca 00000000 		.4byte	0
 17812              	.LLST96:
 17813 0ece 06020000 		.4byte	.LVL267
 17814 0ed2 0C020000 		.4byte	.LVL268
 17815 0ed6 0300     		.2byte	0x3
 17816 0ed8 08       		.byte	0x8
 17817 0ed9 20       		.byte	0x20
 17818 0eda 9F       		.byte	0x9f
 17819 0edb 00000000 		.4byte	0
 17820 0edf 00000000 		.4byte	0
 17821              	.LLST97:
 17822 0ee3 14020000 		.4byte	.LVL270
 17823 0ee7 20020000 		.4byte	.LVL272
 17824 0eeb 0600     		.2byte	0x6
 17825 0eed 03       		.byte	0x3
 17826 0eee 00000000 		.4byte	sendToComputer_sem
 17827 0ef2 9F       		.byte	0x9f
 17828 0ef3 BE020000 		.4byte	.LVL290
 17829 0ef7 C4020000 		.4byte	.LVL292
 17830 0efb 0600     		.2byte	0x6
 17831 0efd 03       		.byte	0x3
 17832 0efe 00000000 		.4byte	sendToComputer_sem
 17833 0f02 9F       		.byte	0x9f
 17834 0f03 00000000 		.4byte	0
 17835 0f07 00000000 		.4byte	0
 17836              	.LLST98:
 17837 0f0b 44020000 		.4byte	.LVL276
 17838 0f0f 4C020000 		.4byte	.LVL277
 17839 0f13 0200     		.2byte	0x2
 17840 0f15 30       		.byte	0x30
 17841 0f16 9F       		.byte	0x9f
 17842 0f17 00000000 		.4byte	0
 17843 0f1b 00000000 		.4byte	0
 17844              	.LLST99:
 17845 0f1f 56020000 		.4byte	.LVL278
 17846 0f23 94020000 		.4byte	.LVL284
 17847 0f27 0200     		.2byte	0x2
 17848 0f29 31       		.byte	0x31
 17849 0f2a 9F       		.byte	0x9f
 17850 0f2b 00000000 		.4byte	0
 17851 0f2f 00000000 		.4byte	0
 17852              	.LLST100:
 17853 0f33 56020000 		.4byte	.LVL278
 17854 0f37 70020000 		.4byte	.LVL282
ARM GAS  C:\Users\adrie\AppData\Local\Temp\ccgB8szF.s 			page 315


 17855 0f3b 0500     		.2byte	0x5
 17856 0f3d 03       		.byte	0x3
 17857 0f3e 0C000000 		.4byte	moyenne+12
 17858 0f42 70020000 		.4byte	.LVL282
 17859 0f46 80020000 		.4byte	.LVL283
 17860 0f4a 0600     		.2byte	0x6
 17861 0f4c 7E       		.byte	0x7e
 17862 0f4d 00       		.sleb128 0
 17863 0f4e 7B       		.byte	0x7b
 17864 0f4f 00       		.sleb128 0
 17865 0f50 22       		.byte	0x22
 17866 0f51 9F       		.byte	0x9f
 17867 0f52 80020000 		.4byte	.LVL283
 17868 0f56 94020000 		.4byte	.LVL284
 17869 0f5a 0100     		.2byte	0x1
 17870 0f5c 5B       		.byte	0x5b
 17871 0f5d 00000000 		.4byte	0
 17872 0f61 00000000 		.4byte	0
 17873              	.LLST101:
 17874 0f65 94020000 		.4byte	.LVL284
 17875 0f69 98020000 		.4byte	.LVL285
 17876 0f6d 0200     		.2byte	0x2
 17877 0f6f 30       		.byte	0x30
 17878 0f70 9F       		.byte	0x9f
 17879 0f71 00000000 		.4byte	0
 17880 0f75 00000000 		.4byte	0
 17881              	.LLST102:
 17882 0f79 98020000 		.4byte	.LVL285
 17883 0f7d 9C020000 		.4byte	.LVL286
 17884 0f81 0200     		.2byte	0x2
 17885 0f83 32       		.byte	0x32
 17886 0f84 9F       		.byte	0x9f
 17887 0f85 00000000 		.4byte	0
 17888 0f89 00000000 		.4byte	0
 17889              	.LLST103:
 17890 0f8d 9C020000 		.4byte	.LVL286
 17891 0f91 A0020000 		.4byte	.LVL287
 17892 0f95 0200     		.2byte	0x2
 17893 0f97 33       		.byte	0x33
 17894 0f98 9F       		.byte	0x9f
 17895 0f99 00000000 		.4byte	0
 17896 0f9d 00000000 		.4byte	0
 17897              	.LLST86:
 17898 0fa1 2E010000 		.4byte	.LVL244
 17899 0fa5 32010000 		.4byte	.LVL245
 17900 0fa9 0200     		.2byte	0x2
 17901 0fab 36       		.byte	0x36
 17902 0fac 9F       		.byte	0x9f
 17903 0fad 00000000 		.4byte	0
 17904 0fb1 00000000 		.4byte	0
 17905              	.LLST87:
 17906 0fb5 3A010000 		.4byte	.LVL246
 17907 0fb9 3E010000 		.4byte	.LVL247
 17908 0fbd 0200     		.2byte	0x2
 17909 0fbf 37       		.byte	0x37
 17910 0fc0 9F       		.byte	0x9f
 17911 0fc1 00000000 		.4byte	0
ARM GAS  C:\Users\adrie\AppData\Local\Temp\ccgB8szF.s 			page 316


 17912 0fc5 00000000 		.4byte	0
 17913              	.LLST88:
 17914 0fc9 52010000 		.4byte	.LVL250
 17915 0fcd 5A010000 		.4byte	.LVL251
 17916 0fd1 0200     		.2byte	0x2
 17917 0fd3 36       		.byte	0x36
 17918 0fd4 9F       		.byte	0x9f
 17919 0fd5 00000000 		.4byte	0
 17920 0fd9 00000000 		.4byte	0
 17921              	.LLST89:
 17922 0fdd 5A010000 		.4byte	.LVL251
 17923 0fe1 62010000 		.4byte	.LVL252
 17924 0fe5 0200     		.2byte	0x2
 17925 0fe7 37       		.byte	0x37
 17926 0fe8 9F       		.byte	0x9f
 17927 0fe9 00000000 		.4byte	0
 17928 0fed 00000000 		.4byte	0
 17929              	.LLST90:
 17930 0ff1 66010000 		.4byte	.LVL253
 17931 0ff5 94010000 		.4byte	.LVL259
 17932 0ff9 1300     		.2byte	0x13
 17933 0ffb 78       		.byte	0x78
 17934 0ffc 00       		.sleb128 0
 17935 0ffd F7       		.byte	0xf7
 17936 0ffe 2C       		.uleb128 0x2c
 17937 0fff F7       		.byte	0xf7
 17938 1000 25       		.uleb128 0x25
 17939 1001 F4       		.byte	0xf4
 17940 1002 25       		.uleb128 0x25
 17941 1003 04       		.byte	0x4
 17942 1004 A4707D3F 		.4byte	0x3f7d70a4
 17943 1008 1E       		.byte	0x1e
 17944 1009 F7       		.byte	0xf7
 17945 100a 2C       		.uleb128 0x2c
 17946 100b F7       		.byte	0xf7
 17947 100c 00       		.uleb128 0
 17948 100d 9F       		.byte	0x9f
 17949 100e 94010000 		.4byte	.LVL259
 17950 1012 A4010000 		.4byte	.LVL260
 17951 1016 1000     		.2byte	0x10
 17952 1018 F5       		.byte	0xf5
 17953 1019 4F       		.uleb128 0x4f
 17954 101a 25       		.uleb128 0x25
 17955 101b F4       		.byte	0xf4
 17956 101c 25       		.uleb128 0x25
 17957 101d 04       		.byte	0x4
 17958 101e A4707D3F 		.4byte	0x3f7d70a4
 17959 1022 1E       		.byte	0x1e
 17960 1023 F7       		.byte	0xf7
 17961 1024 2C       		.uleb128 0x2c
 17962 1025 F7       		.byte	0xf7
 17963 1026 00       		.uleb128 0
 17964 1027 9F       		.byte	0x9f
 17965 1028 A4010000 		.4byte	.LVL260
 17966 102c DA010000 		.4byte	.LVL261
 17967 1030 1300     		.2byte	0x13
 17968 1032 78       		.byte	0x78
ARM GAS  C:\Users\adrie\AppData\Local\Temp\ccgB8szF.s 			page 317


 17969 1033 00       		.sleb128 0
 17970 1034 F7       		.byte	0xf7
 17971 1035 2C       		.uleb128 0x2c
 17972 1036 F7       		.byte	0xf7
 17973 1037 25       		.uleb128 0x25
 17974 1038 F4       		.byte	0xf4
 17975 1039 25       		.uleb128 0x25
 17976 103a 04       		.byte	0x4
 17977 103b A4707D3F 		.4byte	0x3f7d70a4
 17978 103f 1E       		.byte	0x1e
 17979 1040 F7       		.byte	0xf7
 17980 1041 2C       		.uleb128 0x2c
 17981 1042 F7       		.byte	0xf7
 17982 1043 00       		.uleb128 0
 17983 1044 9F       		.byte	0x9f
 17984 1045 00000000 		.4byte	0
 17985 1049 00000000 		.4byte	0
 17986              	.LLST91:
 17987 104d 66010000 		.4byte	.LVL253
 17988 1051 DA010000 		.4byte	.LVL261
 17989 1055 0100     		.2byte	0x1
 17990 1057 59       		.byte	0x59
 17991 1058 00000000 		.4byte	0
 17992 105c 00000000 		.4byte	0
 17993              	.LLST92:
 17994 1060 66010000 		.4byte	.LVL253
 17995 1064 76010000 		.4byte	.LVL254
 17996 1068 1300     		.2byte	0x13
 17997 106a 75       		.byte	0x75
 17998 106b 00       		.sleb128 0
 17999 106c F7       		.byte	0xf7
 18000 106d 2C       		.uleb128 0x2c
 18001 106e F7       		.byte	0xf7
 18002 106f 25       		.uleb128 0x25
 18003 1070 F4       		.byte	0xf4
 18004 1071 25       		.uleb128 0x25
 18005 1072 04       		.byte	0x4
 18006 1073 A4707D3F 		.4byte	0x3f7d70a4
 18007 1077 1E       		.byte	0x1e
 18008 1078 F7       		.byte	0xf7
 18009 1079 2C       		.uleb128 0x2c
 18010 107a F7       		.byte	0xf7
 18011 107b 00       		.uleb128 0
 18012 107c 9F       		.byte	0x9f
 18013 107d 76010000 		.4byte	.LVL254
 18014 1081 7C010000 		.4byte	.LVL255
 18015 1085 1400     		.2byte	0x14
 18016 1087 92       		.byte	0x92
 18017 1088 4F       		.uleb128 0x4f
 18018 1089 00       		.sleb128 0
 18019 108a F7       		.byte	0xf7
 18020 108b 2C       		.uleb128 0x2c
 18021 108c F7       		.byte	0xf7
 18022 108d 25       		.uleb128 0x25
 18023 108e F4       		.byte	0xf4
 18024 108f 25       		.uleb128 0x25
 18025 1090 04       		.byte	0x4
ARM GAS  C:\Users\adrie\AppData\Local\Temp\ccgB8szF.s 			page 318


 18026 1091 A4707D3F 		.4byte	0x3f7d70a4
 18027 1095 1E       		.byte	0x1e
 18028 1096 F7       		.byte	0xf7
 18029 1097 2C       		.uleb128 0x2c
 18030 1098 F7       		.byte	0xf7
 18031 1099 00       		.uleb128 0
 18032 109a 9F       		.byte	0x9f
 18033 109b 7C010000 		.4byte	.LVL255
 18034 109f 84010000 		.4byte	.LVL256
 18035 10a3 1000     		.2byte	0x10
 18036 10a5 F5       		.byte	0xf5
 18037 10a6 4D       		.uleb128 0x4d
 18038 10a7 25       		.uleb128 0x25
 18039 10a8 F4       		.byte	0xf4
 18040 10a9 25       		.uleb128 0x25
 18041 10aa 04       		.byte	0x4
 18042 10ab A4707D3F 		.4byte	0x3f7d70a4
 18043 10af 1E       		.byte	0x1e
 18044 10b0 F7       		.byte	0xf7
 18045 10b1 2C       		.uleb128 0x2c
 18046 10b2 F7       		.byte	0xf7
 18047 10b3 00       		.uleb128 0
 18048 10b4 9F       		.byte	0x9f
 18049 10b5 84010000 		.4byte	.LVL256
 18050 10b9 DA010000 		.4byte	.LVL261
 18051 10bd 1500     		.2byte	0x15
 18052 10bf 91       		.byte	0x91
 18053 10c0 9C7F     		.sleb128 -100
 18054 10c2 06       		.byte	0x6
 18055 10c3 F7       		.byte	0xf7
 18056 10c4 2C       		.uleb128 0x2c
 18057 10c5 F7       		.byte	0xf7
 18058 10c6 25       		.uleb128 0x25
 18059 10c7 F4       		.byte	0xf4
 18060 10c8 25       		.uleb128 0x25
 18061 10c9 04       		.byte	0x4
 18062 10ca A4707D3F 		.4byte	0x3f7d70a4
 18063 10ce 1E       		.byte	0x1e
 18064 10cf F7       		.byte	0xf7
 18065 10d0 2C       		.uleb128 0x2c
 18066 10d1 F7       		.byte	0xf7
 18067 10d2 00       		.uleb128 0
 18068 10d3 9F       		.byte	0x9f
 18069 10d4 00000000 		.4byte	0
 18070 10d8 00000000 		.4byte	0
 18071              	.LLST93:
 18072 10dc 66010000 		.4byte	.LVL253
 18073 10e0 88010000 		.4byte	.LVL257
 18074 10e4 1300     		.2byte	0x13
 18075 10e6 7A       		.byte	0x7a
 18076 10e7 00       		.sleb128 0
 18077 10e8 F7       		.byte	0xf7
 18078 10e9 2C       		.uleb128 0x2c
 18079 10ea F7       		.byte	0xf7
 18080 10eb 25       		.uleb128 0x25
 18081 10ec F4       		.byte	0xf4
 18082 10ed 25       		.uleb128 0x25
ARM GAS  C:\Users\adrie\AppData\Local\Temp\ccgB8szF.s 			page 319


 18083 10ee 04       		.byte	0x4
 18084 10ef A4707D3F 		.4byte	0x3f7d70a4
 18085 10f3 1E       		.byte	0x1e
 18086 10f4 F7       		.byte	0xf7
 18087 10f5 2C       		.uleb128 0x2c
 18088 10f6 F7       		.byte	0xf7
 18089 10f7 00       		.uleb128 0
 18090 10f8 9F       		.byte	0x9f
 18091 10f9 88010000 		.4byte	.LVL257
 18092 10fd 90010000 		.4byte	.LVL258
 18093 1101 1000     		.2byte	0x10
 18094 1103 F5       		.byte	0xf5
 18095 1104 4E       		.uleb128 0x4e
 18096 1105 25       		.uleb128 0x25
 18097 1106 F4       		.byte	0xf4
 18098 1107 25       		.uleb128 0x25
 18099 1108 04       		.byte	0x4
 18100 1109 A4707D3F 		.4byte	0x3f7d70a4
 18101 110d 1E       		.byte	0x1e
 18102 110e F7       		.byte	0xf7
 18103 110f 2C       		.uleb128 0x2c
 18104 1110 F7       		.byte	0xf7
 18105 1111 00       		.uleb128 0
 18106 1112 9F       		.byte	0x9f
 18107 1113 90010000 		.4byte	.LVL258
 18108 1117 DA010000 		.4byte	.LVL261
 18109 111b 1300     		.2byte	0x13
 18110 111d 7A       		.byte	0x7a
 18111 111e 00       		.sleb128 0
 18112 111f F7       		.byte	0xf7
 18113 1120 2C       		.uleb128 0x2c
 18114 1121 F7       		.byte	0xf7
 18115 1122 25       		.uleb128 0x25
 18116 1123 F4       		.byte	0xf4
 18117 1124 25       		.uleb128 0x25
 18118 1125 04       		.byte	0x4
 18119 1126 A4707D3F 		.4byte	0x3f7d70a4
 18120 112a 1E       		.byte	0x1e
 18121 112b F7       		.byte	0xf7
 18122 112c 2C       		.uleb128 0x2c
 18123 112d F7       		.byte	0xf7
 18124 112e 00       		.uleb128 0
 18125 112f 9F       		.byte	0x9f
 18126 1130 00000000 		.4byte	0
 18127 1134 00000000 		.4byte	0
 18128              	.LLST94:
 18129 1138 66010000 		.4byte	.LVL253
 18130 113c DA010000 		.4byte	.LVL261
 18131 1140 0100     		.2byte	0x1
 18132 1142 53       		.byte	0x53
 18133 1143 00000000 		.4byte	0
 18134 1147 00000000 		.4byte	0
 18135              	.LLST38:
 18136 114b 00000000 		.4byte	.LVL71
 18137 114f 0E000000 		.4byte	.LVL72
 18138 1153 0100     		.2byte	0x1
 18139 1155 50       		.byte	0x50
ARM GAS  C:\Users\adrie\AppData\Local\Temp\ccgB8szF.s 			page 320


 18140 1156 0E000000 		.4byte	.LVL72
 18141 115a 1A000000 		.4byte	.LVL74
 18142 115e 0300     		.2byte	0x3
 18143 1160 70       		.byte	0x70
 18144 1161 58       		.sleb128 -40
 18145 1162 9F       		.byte	0x9f
 18146 1163 1A000000 		.4byte	.LVL74
 18147 1167 C0000000 		.4byte	.LFE290
 18148 116b 0400     		.2byte	0x4
 18149 116d F3       		.byte	0xf3
 18150 116e 01       		.uleb128 0x1
 18151 116f 50       		.byte	0x50
 18152 1170 9F       		.byte	0x9f
 18153 1171 00000000 		.4byte	0
 18154 1175 00000000 		.4byte	0
 18155              	.LLST39:
 18156 1179 10000000 		.4byte	.LVL73
 18157 117d 1A000000 		.4byte	.LVL74
 18158 1181 0600     		.2byte	0x6
 18159 1183 9E       		.byte	0x9e
 18160 1184 04       		.uleb128 0x4
 18161 1185 00401C46 		.4byte	0x461c4000
 18162 1189 1A000000 		.4byte	.LVL74
 18163 118d 26000000 		.4byte	.LVL75
 18164 1191 0200     		.2byte	0x2
 18165 1193 90       		.byte	0x90
 18166 1194 4E       		.uleb128 0x4e
 18167 1195 26000000 		.4byte	.LVL75
 18168 1199 34000000 		.4byte	.LVL78
 18169 119d 0200     		.2byte	0x2
 18170 119f 90       		.byte	0x90
 18171 11a0 4F       		.uleb128 0x4f
 18172 11a1 34000000 		.4byte	.LVL78
 18173 11a5 5D000000 		.4byte	.LVL79-1
 18174 11a9 0200     		.2byte	0x2
 18175 11ab 90       		.byte	0x90
 18176 11ac 4E       		.uleb128 0x4e
 18177 11ad 6E000000 		.4byte	.LVL80
 18178 11b1 73000000 		.4byte	.LVL81-1
 18179 11b5 0200     		.2byte	0x2
 18180 11b7 90       		.byte	0x90
 18181 11b8 4E       		.uleb128 0x4e
 18182 11b9 8C000000 		.4byte	.LVL82
 18183 11bd 97000000 		.4byte	.LVL83-1
 18184 11c1 0200     		.2byte	0x2
 18185 11c3 90       		.byte	0x90
 18186 11c4 4E       		.uleb128 0x4e
 18187 11c5 AC000000 		.4byte	.LVL84
 18188 11c9 C0000000 		.4byte	.LFE290
 18189 11cd 0200     		.2byte	0x2
 18190 11cf 90       		.byte	0x90
 18191 11d0 4E       		.uleb128 0x4e
 18192 11d1 00000000 		.4byte	0
 18193 11d5 00000000 		.4byte	0
 18194              	.LLST40:
 18195 11d9 10000000 		.4byte	.LVL73
 18196 11dd 1A000000 		.4byte	.LVL74
ARM GAS  C:\Users\adrie\AppData\Local\Temp\ccgB8szF.s 			page 321


 18197 11e1 0300     		.2byte	0x3
 18198 11e3 09       		.byte	0x9
 18199 11e4 FF       		.byte	0xff
 18200 11e5 9F       		.byte	0x9f
 18201 11e6 00000000 		.4byte	0
 18202 11ea 00000000 		.4byte	0
 18203              	.LLST41:
 18204 11ee 10000000 		.4byte	.LVL73
 18205 11f2 1A000000 		.4byte	.LVL74
 18206 11f6 0200     		.2byte	0x2
 18207 11f8 3A       		.byte	0x3a
 18208 11f9 9F       		.byte	0x9f
 18209 11fa 1A000000 		.4byte	.LVL74
 18210 11fe 2A000000 		.4byte	.LVL76
 18211 1202 0100     		.2byte	0x1
 18212 1204 53       		.byte	0x53
 18213 1205 2A000000 		.4byte	.LVL76
 18214 1209 2E000000 		.4byte	.LVL77
 18215 120d 0300     		.2byte	0x3
 18216 120f 73       		.byte	0x73
 18217 1210 01       		.sleb128 1
 18218 1211 9F       		.byte	0x9f
 18219 1212 00000000 		.4byte	0
 18220 1216 00000000 		.4byte	0
 18221              	.LLST0:
 18222 121a 00000000 		.4byte	.LVL0
 18223 121e 18000000 		.4byte	.LVL2
 18224 1222 0100     		.2byte	0x1
 18225 1224 51       		.byte	0x51
 18226 1225 18000000 		.4byte	.LVL2
 18227 1229 24000000 		.4byte	.LVL3
 18228 122d 0400     		.2byte	0x4
 18229 122f F3       		.byte	0xf3
 18230 1230 01       		.uleb128 0x1
 18231 1231 51       		.byte	0x51
 18232 1232 9F       		.byte	0x9f
 18233 1233 24000000 		.4byte	.LVL3
 18234 1237 2E000000 		.4byte	.LVL4
 18235 123b 0100     		.2byte	0x1
 18236 123d 51       		.byte	0x51
 18237 123e 2E000000 		.4byte	.LVL4
 18238 1242 66000000 		.4byte	.LVL12
 18239 1246 0400     		.2byte	0x4
 18240 1248 F3       		.byte	0xf3
 18241 1249 01       		.uleb128 0x1
 18242 124a 51       		.byte	0x51
 18243 124b 9F       		.byte	0x9f
 18244 124c 66000000 		.4byte	.LVL12
 18245 1250 70000000 		.4byte	.LVL13
 18246 1254 0100     		.2byte	0x1
 18247 1256 51       		.byte	0x51
 18248 1257 70000000 		.4byte	.LVL13
 18249 125b BC000000 		.4byte	.LFE308
 18250 125f 0400     		.2byte	0x4
 18251 1261 F3       		.byte	0xf3
 18252 1262 01       		.uleb128 0x1
 18253 1263 51       		.byte	0x51
ARM GAS  C:\Users\adrie\AppData\Local\Temp\ccgB8szF.s 			page 322


 18254 1264 9F       		.byte	0x9f
 18255 1265 00000000 		.4byte	0
 18256 1269 00000000 		.4byte	0
 18257              	.LLST1:
 18258 126d 12000000 		.4byte	.LVL1
 18259 1271 18000000 		.4byte	.LVL2
 18260 1275 0800     		.2byte	0x8
 18261 1277 30       		.byte	0x30
 18262 1278 9F       		.byte	0x9f
 18263 1279 93       		.byte	0x93
 18264 127a 04       		.uleb128 0x4
 18265 127b 30       		.byte	0x30
 18266 127c 9F       		.byte	0x9f
 18267 127d 93       		.byte	0x93
 18268 127e 04       		.uleb128 0x4
 18269 127f 00000000 		.4byte	0
 18270 1283 00000000 		.4byte	0
 18271              	.LLST2:
 18272 1287 34000000 		.4byte	.LVL5
 18273 128b 5E000000 		.4byte	.LVL10
 18274 128f 0200     		.2byte	0x2
 18275 1291 90       		.byte	0x90
 18276 1292 4E       		.uleb128 0x4e
 18277 1293 00000000 		.4byte	0
 18278 1297 00000000 		.4byte	0
 18279              	.LLST3:
 18280 129b 34000000 		.4byte	.LVL5
 18281 129f 4E000000 		.4byte	.LVL6
 18282 12a3 0100     		.2byte	0x1
 18283 12a5 51       		.byte	0x51
 18284 12a6 54000000 		.4byte	.LVL7
 18285 12aa 66000000 		.4byte	.LVL12
 18286 12ae 0100     		.2byte	0x1
 18287 12b0 51       		.byte	0x51
 18288 12b1 00000000 		.4byte	0
 18289 12b5 00000000 		.4byte	0
 18290              	.LLST4:
 18291 12b9 34000000 		.4byte	.LVL5
 18292 12bd 66000000 		.4byte	.LVL12
 18293 12c1 0100     		.2byte	0x1
 18294 12c3 53       		.byte	0x53
 18295 12c4 00000000 		.4byte	0
 18296 12c8 00000000 		.4byte	0
 18297              	.LLST5:
 18298 12cc 76000000 		.4byte	.LVL14
 18299 12d0 A0000000 		.4byte	.LVL19
 18300 12d4 0200     		.2byte	0x2
 18301 12d6 90       		.byte	0x90
 18302 12d7 4E       		.uleb128 0x4e
 18303 12d8 00000000 		.4byte	0
 18304 12dc 00000000 		.4byte	0
 18305              	.LLST6:
 18306 12e0 76000000 		.4byte	.LVL14
 18307 12e4 90000000 		.4byte	.LVL15
 18308 12e8 0100     		.2byte	0x1
 18309 12ea 51       		.byte	0x51
 18310 12eb 96000000 		.4byte	.LVL16
ARM GAS  C:\Users\adrie\AppData\Local\Temp\ccgB8szF.s 			page 323


 18311 12ef A8000000 		.4byte	.LVL21
 18312 12f3 0100     		.2byte	0x1
 18313 12f5 51       		.byte	0x51
 18314 12f6 00000000 		.4byte	0
 18315 12fa 00000000 		.4byte	0
 18316              	.LLST7:
 18317 12fe 76000000 		.4byte	.LVL14
 18318 1302 A8000000 		.4byte	.LVL21
 18319 1306 0100     		.2byte	0x1
 18320 1308 53       		.byte	0x53
 18321 1309 00000000 		.4byte	0
 18322 130d 00000000 		.4byte	0
 18323              	.LLST42:
 18324 1311 00000000 		.4byte	.LVL85
 18325 1315 0E000000 		.4byte	.LVL87
 18326 1319 0100     		.2byte	0x1
 18327 131b 50       		.byte	0x50
 18328 131c 0E000000 		.4byte	.LVL87
 18329 1320 78000000 		.4byte	.LFE292
 18330 1324 0100     		.2byte	0x1
 18331 1326 55       		.byte	0x55
 18332 1327 00000000 		.4byte	0
 18333 132b 00000000 		.4byte	0
 18334              	.LLST43:
 18335 132f 00000000 		.4byte	.LVL85
 18336 1333 11000000 		.4byte	.LVL88-1
 18337 1337 0100     		.2byte	0x1
 18338 1339 51       		.byte	0x51
 18339 133a 11000000 		.4byte	.LVL88-1
 18340 133e 78000000 		.4byte	.LFE292
 18341 1342 0400     		.2byte	0x4
 18342 1344 F3       		.byte	0xf3
 18343 1345 01       		.uleb128 0x1
 18344 1346 51       		.byte	0x51
 18345 1347 9F       		.byte	0x9f
 18346 1348 00000000 		.4byte	0
 18347 134c 00000000 		.4byte	0
 18348              	.LLST44:
 18349 1350 0C000000 		.4byte	.LVL86
 18350 1354 0E000000 		.4byte	.LVL87
 18351 1358 0700     		.2byte	0x7
 18352 135a 70       		.byte	0x70
 18353 135b 00       		.sleb128 0
 18354 135c F7       		.byte	0xf7
 18355 135d 2C       		.uleb128 0x2c
 18356 135e F7       		.byte	0xf7
 18357 135f 33       		.uleb128 0x33
 18358 1360 9F       		.byte	0x9f
 18359 1361 0E000000 		.4byte	.LVL87
 18360 1365 78000000 		.4byte	.LFE292
 18361 1369 0700     		.2byte	0x7
 18362 136b 75       		.byte	0x75
 18363 136c 00       		.sleb128 0
 18364 136d F7       		.byte	0xf7
 18365 136e 2C       		.uleb128 0x2c
 18366 136f F7       		.byte	0xf7
 18367 1370 33       		.uleb128 0x33
ARM GAS  C:\Users\adrie\AppData\Local\Temp\ccgB8szF.s 			page 324


 18368 1371 9F       		.byte	0x9f
 18369 1372 00000000 		.4byte	0
 18370 1376 00000000 		.4byte	0
 18371              	.LLST45:
 18372 137a 46000000 		.4byte	.LVL94
 18373 137e 4F000000 		.4byte	.LVL95-1
 18374 1382 0600     		.2byte	0x6
 18375 1384 52       		.byte	0x52
 18376 1385 93       		.byte	0x93
 18377 1386 04       		.uleb128 0x4
 18378 1387 53       		.byte	0x53
 18379 1388 93       		.byte	0x93
 18380 1389 04       		.uleb128 0x4
 18381 138a 00000000 		.4byte	0
 18382 138e 00000000 		.4byte	0
 18383              	.LLST53:
 18384 1392 00000000 		.4byte	.LVL146
 18385 1396 10000000 		.4byte	.LVL147
 18386 139a 0100     		.2byte	0x1
 18387 139c 50       		.byte	0x50
 18388 139d 10000000 		.4byte	.LVL147
 18389 13a1 44000000 		.4byte	.LFE294
 18390 13a5 0400     		.2byte	0x4
 18391 13a7 F3       		.byte	0xf3
 18392 13a8 01       		.uleb128 0x1
 18393 13a9 50       		.byte	0x50
 18394 13aa 9F       		.byte	0x9f
 18395 13ab 00000000 		.4byte	0
 18396 13af 00000000 		.4byte	0
 18397              	.LLST54:
 18398 13b3 14000000 		.4byte	.LVL148
 18399 13b7 22000000 		.4byte	.LVL149
 18400 13bb 0200     		.2byte	0x2
 18401 13bd 31       		.byte	0x31
 18402 13be 9F       		.byte	0x9f
 18403 13bf 22000000 		.4byte	.LVL149
 18404 13c3 44000000 		.4byte	.LFE294
 18405 13c7 0200     		.2byte	0x2
 18406 13c9 33       		.byte	0x33
 18407 13ca 9F       		.byte	0x9f
 18408 13cb 00000000 		.4byte	0
 18409 13cf 00000000 		.4byte	0
 18410              	.LLST55:
 18411 13d3 00000000 		.4byte	.LVL151
 18412 13d7 20000000 		.4byte	.LVL153
 18413 13db 0100     		.2byte	0x1
 18414 13dd 50       		.byte	0x50
 18415 13de 20000000 		.4byte	.LVL153
 18416 13e2 44000000 		.4byte	.LFE295
 18417 13e6 0400     		.2byte	0x4
 18418 13e8 F3       		.byte	0xf3
 18419 13e9 01       		.uleb128 0x1
 18420 13ea 50       		.byte	0x50
 18421 13eb 9F       		.byte	0x9f
 18422 13ec 00000000 		.4byte	0
 18423 13f0 00000000 		.4byte	0
 18424              	.LLST56:
ARM GAS  C:\Users\adrie\AppData\Local\Temp\ccgB8szF.s 			page 325


 18425 13f4 00000000 		.4byte	.LVL151
 18426 13f8 3B000000 		.4byte	.LVL157-1
 18427 13fc 0100     		.2byte	0x1
 18428 13fe 51       		.byte	0x51
 18429 13ff 3B000000 		.4byte	.LVL157-1
 18430 1403 44000000 		.4byte	.LFE295
 18431 1407 0400     		.2byte	0x4
 18432 1409 F3       		.byte	0xf3
 18433 140a 01       		.uleb128 0x1
 18434 140b 51       		.byte	0x51
 18435 140c 9F       		.byte	0x9f
 18436 140d 00000000 		.4byte	0
 18437 1411 00000000 		.4byte	0
 18438              	.LLST57:
 18439 1415 00000000 		.4byte	.LVL151
 18440 1419 1E000000 		.4byte	.LVL152
 18441 141d 0100     		.2byte	0x1
 18442 141f 52       		.byte	0x52
 18443 1420 1E000000 		.4byte	.LVL152
 18444 1424 2C000000 		.4byte	.LVL154
 18445 1428 0700     		.2byte	0x7
 18446 142a 7C       		.byte	0x7c
 18447 142b 00       		.sleb128 0
 18448 142c 32       		.byte	0x32
 18449 142d 24       		.byte	0x24
 18450 142e 75       		.byte	0x75
 18451 142f 00       		.sleb128 0
 18452 1430 22       		.byte	0x22
 18453 1431 2C000000 		.4byte	.LVL154
 18454 1435 44000000 		.4byte	.LFE295
 18455 1439 0400     		.2byte	0x4
 18456 143b F3       		.byte	0xf3
 18457 143c 01       		.uleb128 0x1
 18458 143d 52       		.byte	0x52
 18459 143e 9F       		.byte	0x9f
 18460 143f 00000000 		.4byte	0
 18461 1443 00000000 		.4byte	0
 18462              	.LLST58:
 18463 1447 00000000 		.4byte	.LVL151
 18464 144b 30000000 		.4byte	.LVL155
 18465 144f 0100     		.2byte	0x1
 18466 1451 53       		.byte	0x53
 18467 1452 30000000 		.4byte	.LVL155
 18468 1456 44000000 		.4byte	.LFE295
 18469 145a 0400     		.2byte	0x4
 18470 145c F3       		.byte	0xf3
 18471 145d 01       		.uleb128 0x1
 18472 145e 53       		.byte	0x53
 18473 145f 9F       		.byte	0x9f
 18474 1460 00000000 		.4byte	0
 18475 1464 00000000 		.4byte	0
 18476              	.LLST59:
 18477 1468 00000000 		.4byte	.LVL151
 18478 146c 38000000 		.4byte	.LVL156
 18479 1470 0200     		.2byte	0x2
 18480 1472 91       		.byte	0x91
 18481 1473 00       		.sleb128 0
ARM GAS  C:\Users\adrie\AppData\Local\Temp\ccgB8szF.s 			page 326


 18482 1474 38000000 		.4byte	.LVL156
 18483 1478 44000000 		.4byte	.LFE295
 18484 147c 0200     		.2byte	0x2
 18485 147e 91       		.byte	0x91
 18486 147f 00       		.sleb128 0
 18487 1480 00000000 		.4byte	0
 18488 1484 00000000 		.4byte	0
 18489              	.LLST60:
 18490 1488 00000000 		.4byte	.LVL158
 18491 148c 0E000000 		.4byte	.LVL159
 18492 1490 0100     		.2byte	0x1
 18493 1492 51       		.byte	0x51
 18494 1493 0E000000 		.4byte	.LVL159
 18495 1497 1A000000 		.4byte	.LVL161
 18496 149b 0300     		.2byte	0x3
 18497 149d 71       		.byte	0x71
 18498 149e 58       		.sleb128 -40
 18499 149f 9F       		.byte	0x9f
 18500 14a0 1A000000 		.4byte	.LVL161
 18501 14a4 64000000 		.4byte	.LFE296
 18502 14a8 0400     		.2byte	0x4
 18503 14aa F3       		.byte	0xf3
 18504 14ab 01       		.uleb128 0x1
 18505 14ac 51       		.byte	0x51
 18506 14ad 9F       		.byte	0x9f
 18507 14ae 00000000 		.4byte	0
 18508 14b2 00000000 		.4byte	0
 18509              	.LLST61:
 18510 14b6 10000000 		.4byte	.LVL160
 18511 14ba 1A000000 		.4byte	.LVL161
 18512 14be 0600     		.2byte	0x6
 18513 14c0 9E       		.byte	0x9e
 18514 14c1 04       		.uleb128 0x4
 18515 14c2 0000C842 		.4byte	0x42c80000
 18516 14c6 1A000000 		.4byte	.LVL161
 18517 14ca 4A000000 		.4byte	.LVL168
 18518 14ce 0200     		.2byte	0x2
 18519 14d0 90       		.byte	0x90
 18520 14d1 4E       		.uleb128 0x4e
 18521 14d2 00000000 		.4byte	0
 18522 14d6 00000000 		.4byte	0
 18523              	.LLST62:
 18524 14da 10000000 		.4byte	.LVL160
 18525 14de 1A000000 		.4byte	.LVL161
 18526 14e2 0300     		.2byte	0x3
 18527 14e4 09       		.byte	0x9
 18528 14e5 FF       		.byte	0xff
 18529 14e6 9F       		.byte	0x9f
 18530 14e7 1A000000 		.4byte	.LVL161
 18531 14eb 34000000 		.4byte	.LVL162
 18532 14ef 0100     		.2byte	0x1
 18533 14f1 52       		.byte	0x52
 18534 14f2 3A000000 		.4byte	.LVL163
 18535 14f6 59000000 		.4byte	.LVL169-1
 18536 14fa 0100     		.2byte	0x1
 18537 14fc 52       		.byte	0x52
 18538 14fd 59000000 		.4byte	.LVL169-1
ARM GAS  C:\Users\adrie\AppData\Local\Temp\ccgB8szF.s 			page 327


 18539 1501 64000000 		.4byte	.LFE296
 18540 1505 0500     		.2byte	0x5
 18541 1507 F3       		.byte	0xf3
 18542 1508 01       		.uleb128 0x1
 18543 1509 50       		.byte	0x50
 18544 150a 23       		.byte	0x23
 18545 150b 04       		.uleb128 0x4
 18546 150c 00000000 		.4byte	0
 18547 1510 00000000 		.4byte	0
 18548              	.LLST63:
 18549 1514 10000000 		.4byte	.LVL160
 18550 1518 40000000 		.4byte	.LVL165
 18551 151c 0800     		.2byte	0x8
 18552 151e 30       		.byte	0x30
 18553 151f 9F       		.byte	0x9f
 18554 1520 93       		.byte	0x93
 18555 1521 04       		.uleb128 0x4
 18556 1522 30       		.byte	0x30
 18557 1523 9F       		.byte	0x9f
 18558 1524 93       		.byte	0x93
 18559 1525 04       		.uleb128 0x4
 18560 1526 40000000 		.4byte	.LVL165
 18561 152a 46000000 		.4byte	.LVL167
 18562 152e 0D00     		.2byte	0xd
 18563 1530 F5       		.byte	0xf5
 18564 1531 4E       		.uleb128 0x4e
 18565 1532 25       		.uleb128 0x25
 18566 1533 F7       		.byte	0xf7
 18567 1534 2C       		.uleb128 0x2c
 18568 1535 F7       		.byte	0xf7
 18569 1536 00       		.uleb128 0
 18570 1537 9F       		.byte	0x9f
 18571 1538 93       		.byte	0x93
 18572 1539 04       		.uleb128 0x4
 18573 153a 52       		.byte	0x52
 18574 153b 93       		.byte	0x93
 18575 153c 04       		.uleb128 0x4
 18576 153d 00000000 		.4byte	0
 18577 1541 00000000 		.4byte	0
 18578              	.LLST64:
 18579 1545 10000000 		.4byte	.LVL160
 18580 1549 1A000000 		.4byte	.LVL161
 18581 154d 0200     		.2byte	0x2
 18582 154f 3A       		.byte	0x3a
 18583 1550 9F       		.byte	0x9f
 18584 1551 1A000000 		.4byte	.LVL161
 18585 1555 44000000 		.4byte	.LVL166
 18586 1559 0100     		.2byte	0x1
 18587 155b 53       		.byte	0x53
 18588 155c 00000000 		.4byte	0
 18589 1560 00000000 		.4byte	0
 18590              	.LLST65:
 18591 1564 00000000 		.4byte	.LVL173
 18592 1568 17000000 		.4byte	.LVL174-1
 18593 156c 0100     		.2byte	0x1
 18594 156e 51       		.byte	0x51
 18595 156f 17000000 		.4byte	.LVL174-1
ARM GAS  C:\Users\adrie\AppData\Local\Temp\ccgB8szF.s 			page 328


 18596 1573 26000000 		.4byte	.LVL176
 18597 1577 0400     		.2byte	0x4
 18598 1579 F3       		.byte	0xf3
 18599 157a 01       		.uleb128 0x1
 18600 157b 51       		.byte	0x51
 18601 157c 9F       		.byte	0x9f
 18602 157d 26000000 		.4byte	.LVL176
 18603 1581 30000000 		.4byte	.LVL177
 18604 1585 0100     		.2byte	0x1
 18605 1587 51       		.byte	0x51
 18606 1588 30000000 		.4byte	.LVL177
 18607 158c 68000000 		.4byte	.LVL185
 18608 1590 0400     		.2byte	0x4
 18609 1592 F3       		.byte	0xf3
 18610 1593 01       		.uleb128 0x1
 18611 1594 51       		.byte	0x51
 18612 1595 9F       		.byte	0x9f
 18613 1596 68000000 		.4byte	.LVL185
 18614 159a 72000000 		.4byte	.LVL186
 18615 159e 0100     		.2byte	0x1
 18616 15a0 51       		.byte	0x51
 18617 15a1 72000000 		.4byte	.LVL186
 18618 15a5 C0000000 		.4byte	.LFE298
 18619 15a9 0400     		.2byte	0x4
 18620 15ab F3       		.byte	0xf3
 18621 15ac 01       		.uleb128 0x1
 18622 15ad 51       		.byte	0x51
 18623 15ae 9F       		.byte	0x9f
 18624 15af 00000000 		.4byte	0
 18625 15b3 00000000 		.4byte	0
 18626              	.LLST67:
 18627 15b7 00000000 		.4byte	.LVL213
 18628 15bb 17000000 		.4byte	.LVL215-1
 18629 15bf 0100     		.2byte	0x1
 18630 15c1 50       		.byte	0x50
 18631 15c2 17000000 		.4byte	.LVL215-1
 18632 15c6 36000000 		.4byte	.LVL216
 18633 15ca 0100     		.2byte	0x1
 18634 15cc 56       		.byte	0x56
 18635 15cd 36000000 		.4byte	.LVL216
 18636 15d1 3A000000 		.4byte	.LVL217
 18637 15d5 0400     		.2byte	0x4
 18638 15d7 F3       		.byte	0xf3
 18639 15d8 01       		.uleb128 0x1
 18640 15d9 50       		.byte	0x50
 18641 15da 9F       		.byte	0x9f
 18642 15db 3A000000 		.4byte	.LVL217
 18643 15df 58000000 		.4byte	.LVL218
 18644 15e3 0100     		.2byte	0x1
 18645 15e5 56       		.byte	0x56
 18646 15e6 58000000 		.4byte	.LVL218
 18647 15ea 5C000000 		.4byte	.LVL219
 18648 15ee 0400     		.2byte	0x4
 18649 15f0 F3       		.byte	0xf3
 18650 15f1 01       		.uleb128 0x1
 18651 15f2 50       		.byte	0x50
 18652 15f3 9F       		.byte	0x9f
ARM GAS  C:\Users\adrie\AppData\Local\Temp\ccgB8szF.s 			page 329


 18653 15f4 5C000000 		.4byte	.LVL219
 18654 15f8 7C000000 		.4byte	.LVL221
 18655 15fc 0100     		.2byte	0x1
 18656 15fe 56       		.byte	0x56
 18657 15ff 7C000000 		.4byte	.LVL221
 18658 1603 80000000 		.4byte	.LVL222
 18659 1607 0400     		.2byte	0x4
 18660 1609 F3       		.byte	0xf3
 18661 160a 01       		.uleb128 0x1
 18662 160b 50       		.byte	0x50
 18663 160c 9F       		.byte	0x9f
 18664 160d 80000000 		.4byte	.LVL222
 18665 1611 88000000 		.4byte	.LFE300
 18666 1615 0100     		.2byte	0x1
 18667 1617 56       		.byte	0x56
 18668 1618 00000000 		.4byte	0
 18669 161c 00000000 		.4byte	0
 18670              	.LLST68:
 18671 1620 00000000 		.4byte	.LVL213
 18672 1624 0E000000 		.4byte	.LVL214
 18673 1628 0100     		.2byte	0x1
 18674 162a 51       		.byte	0x51
 18675 162b 0E000000 		.4byte	.LVL214
 18676 162f 36000000 		.4byte	.LVL216
 18677 1633 0100     		.2byte	0x1
 18678 1635 54       		.byte	0x54
 18679 1636 36000000 		.4byte	.LVL216
 18680 163a 3A000000 		.4byte	.LVL217
 18681 163e 0400     		.2byte	0x4
 18682 1640 F3       		.byte	0xf3
 18683 1641 01       		.uleb128 0x1
 18684 1642 51       		.byte	0x51
 18685 1643 9F       		.byte	0x9f
 18686 1644 3A000000 		.4byte	.LVL217
 18687 1648 58000000 		.4byte	.LVL218
 18688 164c 0100     		.2byte	0x1
 18689 164e 54       		.byte	0x54
 18690 164f 58000000 		.4byte	.LVL218
 18691 1653 5C000000 		.4byte	.LVL219
 18692 1657 0400     		.2byte	0x4
 18693 1659 F3       		.byte	0xf3
 18694 165a 01       		.uleb128 0x1
 18695 165b 51       		.byte	0x51
 18696 165c 9F       		.byte	0x9f
 18697 165d 5C000000 		.4byte	.LVL219
 18698 1661 7C000000 		.4byte	.LVL221
 18699 1665 0100     		.2byte	0x1
 18700 1667 54       		.byte	0x54
 18701 1668 7C000000 		.4byte	.LVL221
 18702 166c 80000000 		.4byte	.LVL222
 18703 1670 0400     		.2byte	0x4
 18704 1672 F3       		.byte	0xf3
 18705 1673 01       		.uleb128 0x1
 18706 1674 51       		.byte	0x51
 18707 1675 9F       		.byte	0x9f
 18708 1676 80000000 		.4byte	.LVL222
 18709 167a 88000000 		.4byte	.LFE300
ARM GAS  C:\Users\adrie\AppData\Local\Temp\ccgB8szF.s 			page 330


 18710 167e 0100     		.2byte	0x1
 18711 1680 54       		.byte	0x54
 18712 1681 00000000 		.4byte	0
 18713 1685 00000000 		.4byte	0
 18714              	.LLST69:
 18715 1689 00000000 		.4byte	.LVL213
 18716 168d 17000000 		.4byte	.LVL215-1
 18717 1691 0100     		.2byte	0x1
 18718 1693 52       		.byte	0x52
 18719 1694 17000000 		.4byte	.LVL215-1
 18720 1698 36000000 		.4byte	.LVL216
 18721 169c 0100     		.2byte	0x1
 18722 169e 57       		.byte	0x57
 18723 169f 36000000 		.4byte	.LVL216
 18724 16a3 3A000000 		.4byte	.LVL217
 18725 16a7 0400     		.2byte	0x4
 18726 16a9 F3       		.byte	0xf3
 18727 16aa 01       		.uleb128 0x1
 18728 16ab 52       		.byte	0x52
 18729 16ac 9F       		.byte	0x9f
 18730 16ad 3A000000 		.4byte	.LVL217
 18731 16b1 58000000 		.4byte	.LVL218
 18732 16b5 0100     		.2byte	0x1
 18733 16b7 57       		.byte	0x57
 18734 16b8 58000000 		.4byte	.LVL218
 18735 16bc 5C000000 		.4byte	.LVL219
 18736 16c0 0400     		.2byte	0x4
 18737 16c2 F3       		.byte	0xf3
 18738 16c3 01       		.uleb128 0x1
 18739 16c4 52       		.byte	0x52
 18740 16c5 9F       		.byte	0x9f
 18741 16c6 5C000000 		.4byte	.LVL219
 18742 16ca 7C000000 		.4byte	.LVL221
 18743 16ce 0100     		.2byte	0x1
 18744 16d0 57       		.byte	0x57
 18745 16d1 7C000000 		.4byte	.LVL221
 18746 16d5 80000000 		.4byte	.LVL222
 18747 16d9 0400     		.2byte	0x4
 18748 16db F3       		.byte	0xf3
 18749 16dc 01       		.uleb128 0x1
 18750 16dd 52       		.byte	0x52
 18751 16de 9F       		.byte	0x9f
 18752 16df 80000000 		.4byte	.LVL222
 18753 16e3 88000000 		.4byte	.LFE300
 18754 16e7 0100     		.2byte	0x1
 18755 16e9 57       		.byte	0x57
 18756 16ea 00000000 		.4byte	0
 18757 16ee 00000000 		.4byte	0
 18758              	.LLST70:
 18759 16f2 00000000 		.4byte	.LVL213
 18760 16f6 17000000 		.4byte	.LVL215-1
 18761 16fa 0100     		.2byte	0x1
 18762 16fc 53       		.byte	0x53
 18763 16fd 17000000 		.4byte	.LVL215-1
 18764 1701 36000000 		.4byte	.LVL216
 18765 1705 0100     		.2byte	0x1
 18766 1707 58       		.byte	0x58
ARM GAS  C:\Users\adrie\AppData\Local\Temp\ccgB8szF.s 			page 331


 18767 1708 36000000 		.4byte	.LVL216
 18768 170c 3A000000 		.4byte	.LVL217
 18769 1710 0400     		.2byte	0x4
 18770 1712 F3       		.byte	0xf3
 18771 1713 01       		.uleb128 0x1
 18772 1714 53       		.byte	0x53
 18773 1715 9F       		.byte	0x9f
 18774 1716 3A000000 		.4byte	.LVL217
 18775 171a 58000000 		.4byte	.LVL218
 18776 171e 0100     		.2byte	0x1
 18777 1720 58       		.byte	0x58
 18778 1721 58000000 		.4byte	.LVL218
 18779 1725 5C000000 		.4byte	.LVL219
 18780 1729 0400     		.2byte	0x4
 18781 172b F3       		.byte	0xf3
 18782 172c 01       		.uleb128 0x1
 18783 172d 53       		.byte	0x53
 18784 172e 9F       		.byte	0x9f
 18785 172f 5C000000 		.4byte	.LVL219
 18786 1733 7C000000 		.4byte	.LVL221
 18787 1737 0100     		.2byte	0x1
 18788 1739 58       		.byte	0x58
 18789 173a 7C000000 		.4byte	.LVL221
 18790 173e 80000000 		.4byte	.LVL222
 18791 1742 0400     		.2byte	0x4
 18792 1744 F3       		.byte	0xf3
 18793 1745 01       		.uleb128 0x1
 18794 1746 53       		.byte	0x53
 18795 1747 9F       		.byte	0x9f
 18796 1748 80000000 		.4byte	.LVL222
 18797 174c 88000000 		.4byte	.LFE300
 18798 1750 0100     		.2byte	0x1
 18799 1752 58       		.byte	0x58
 18800 1753 00000000 		.4byte	0
 18801 1757 00000000 		.4byte	0
 18802              	.LLST71:
 18803 175b 5C000000 		.4byte	.LVL219
 18804 175f 6A000000 		.4byte	.LVL220
 18805 1763 0100     		.2byte	0x1
 18806 1765 56       		.byte	0x56
 18807 1766 00000000 		.4byte	0
 18808 176a 00000000 		.4byte	0
 18809              	.LLST72:
 18810 176e 5C000000 		.4byte	.LVL219
 18811 1772 6A000000 		.4byte	.LVL220
 18812 1776 0100     		.2byte	0x1
 18813 1778 54       		.byte	0x54
 18814 1779 00000000 		.4byte	0
 18815 177d 00000000 		.4byte	0
 18816              	.LLST73:
 18817 1781 5C000000 		.4byte	.LVL219
 18818 1785 6A000000 		.4byte	.LVL220
 18819 1789 0100     		.2byte	0x1
 18820 178b 57       		.byte	0x57
 18821 178c 00000000 		.4byte	0
 18822 1790 00000000 		.4byte	0
 18823              	.LLST74:
ARM GAS  C:\Users\adrie\AppData\Local\Temp\ccgB8szF.s 			page 332


 18824 1794 5C000000 		.4byte	.LVL219
 18825 1798 6A000000 		.4byte	.LVL220
 18826 179c 0100     		.2byte	0x1
 18827 179e 58       		.byte	0x58
 18828 179f 00000000 		.4byte	0
 18829 17a3 00000000 		.4byte	0
 18830              	.LLST107:
 18831 17a7 00000000 		.4byte	.LVL301
 18832 17ab 18000000 		.4byte	.LVL303
 18833 17af 0200     		.2byte	0x2
 18834 17b1 90       		.byte	0x90
 18835 17b2 40       		.uleb128 0x40
 18836 17b3 18000000 		.4byte	.LVL303
 18837 17b7 A0000000 		.4byte	.LFE305
 18838 17bb 0600     		.2byte	0x6
 18839 17bd F3       		.byte	0xf3
 18840 17be 03       		.uleb128 0x3
 18841 17bf F5       		.byte	0xf5
 18842 17c0 40       		.uleb128 0x40
 18843 17c1 25       		.uleb128 0x25
 18844 17c2 9F       		.byte	0x9f
 18845 17c3 00000000 		.4byte	0
 18846 17c7 00000000 		.4byte	0
 18847              	.LLST108:
 18848 17cb 00000000 		.4byte	.LVL301
 18849 17cf 5C000000 		.4byte	.LVL305
 18850 17d3 0200     		.2byte	0x2
 18851 17d5 90       		.byte	0x90
 18852 17d6 41       		.uleb128 0x41
 18853 17d7 5C000000 		.4byte	.LVL305
 18854 17db 6C000000 		.4byte	.LVL308
 18855 17df 0600     		.2byte	0x6
 18856 17e1 F3       		.byte	0xf3
 18857 17e2 03       		.uleb128 0x3
 18858 17e3 F5       		.byte	0xf5
 18859 17e4 41       		.uleb128 0x41
 18860 17e5 25       		.uleb128 0x25
 18861 17e6 9F       		.byte	0x9f
 18862 17e7 6C000000 		.4byte	.LVL308
 18863 17eb 6E000000 		.4byte	.LVL309
 18864 17ef 0200     		.2byte	0x2
 18865 17f1 90       		.byte	0x90
 18866 17f2 41       		.uleb128 0x41
 18867 17f3 6E000000 		.4byte	.LVL309
 18868 17f7 7C000000 		.4byte	.LVL310
 18869 17fb 0600     		.2byte	0x6
 18870 17fd F3       		.byte	0xf3
 18871 17fe 03       		.uleb128 0x3
 18872 17ff F5       		.byte	0xf5
 18873 1800 41       		.uleb128 0x41
 18874 1801 25       		.uleb128 0x25
 18875 1802 9F       		.byte	0x9f
 18876 1803 7C000000 		.4byte	.LVL310
 18877 1807 82000000 		.4byte	.LVL311
 18878 180b 0200     		.2byte	0x2
 18879 180d 90       		.byte	0x90
 18880 180e 41       		.uleb128 0x41
ARM GAS  C:\Users\adrie\AppData\Local\Temp\ccgB8szF.s 			page 333


 18881 180f 82000000 		.4byte	.LVL311
 18882 1813 A0000000 		.4byte	.LFE305
 18883 1817 0600     		.2byte	0x6
 18884 1819 F3       		.byte	0xf3
 18885 181a 03       		.uleb128 0x3
 18886 181b F5       		.byte	0xf5
 18887 181c 41       		.uleb128 0x41
 18888 181d 25       		.uleb128 0x25
 18889 181e 9F       		.byte	0x9f
 18890 181f 00000000 		.4byte	0
 18891 1823 00000000 		.4byte	0
 18892              	.LLST109:
 18893 1827 0E000000 		.4byte	.LVL302
 18894 182b 18000000 		.4byte	.LVL303
 18895 182f 0600     		.2byte	0x6
 18896 1831 9E       		.byte	0x9e
 18897 1832 04       		.uleb128 0x4
 18898 1833 00000000 		.4byte	0
 18899 1837 18000000 		.4byte	.LVL303
 18900 183b 60000000 		.4byte	.LVL306
 18901 183f 0200     		.2byte	0x2
 18902 1841 90       		.byte	0x90
 18903 1842 40       		.uleb128 0x40
 18904 1843 60000000 		.4byte	.LVL306
 18905 1847 6C000000 		.4byte	.LVL308
 18906 184b 0C00     		.2byte	0xc
 18907 184d F3       		.byte	0xf3
 18908 184e 03       		.uleb128 0x3
 18909 184f F5       		.byte	0xf5
 18910 1850 40       		.uleb128 0x40
 18911 1851 25       		.uleb128 0x25
 18912 1852 F3       		.byte	0xf3
 18913 1853 03       		.uleb128 0x3
 18914 1854 F5       		.byte	0xf5
 18915 1855 41       		.uleb128 0x41
 18916 1856 25       		.uleb128 0x25
 18917 1857 1C       		.byte	0x1c
 18918 1858 9F       		.byte	0x9f
 18919 1859 7C000000 		.4byte	.LVL310
 18920 185d 82000000 		.4byte	.LVL311
 18921 1861 0200     		.2byte	0x2
 18922 1863 90       		.byte	0x90
 18923 1864 40       		.uleb128 0x40
 18924 1865 00000000 		.4byte	0
 18925 1869 00000000 		.4byte	0
 18926              	.LLST110:
 18927 186d 0E000000 		.4byte	.LVL302
 18928 1871 58000000 		.4byte	.LVL304
 18929 1875 0600     		.2byte	0x6
 18930 1877 9E       		.byte	0x9e
 18931 1878 04       		.uleb128 0x4
 18932 1879 00000000 		.4byte	0
 18933 187d 58000000 		.4byte	.LVL304
 18934 1881 60000000 		.4byte	.LVL306
 18935 1885 0C00     		.2byte	0xc
 18936 1887 F5       		.byte	0xf5
 18937 1888 40       		.uleb128 0x40
ARM GAS  C:\Users\adrie\AppData\Local\Temp\ccgB8szF.s 			page 334


 18938 1889 25       		.uleb128 0x25
 18939 188a F4       		.byte	0xf4
 18940 188b 25       		.uleb128 0x25
 18941 188c 04       		.byte	0x4
 18942 188d 0000FA45 		.4byte	0x45fa0000
 18943 1891 1E       		.byte	0x1e
 18944 1892 9F       		.byte	0x9f
 18945 1893 60000000 		.4byte	.LVL306
 18946 1897 64000000 		.4byte	.LVL307
 18947 189b 0200     		.2byte	0x2
 18948 189d 90       		.byte	0x90
 18949 189e 40       		.uleb128 0x40
 18950 189f 64000000 		.4byte	.LVL307
 18951 18a3 6C000000 		.4byte	.LVL308
 18952 18a7 1400     		.2byte	0x14
 18953 18a9 F3       		.byte	0xf3
 18954 18aa 03       		.uleb128 0x3
 18955 18ab F5       		.byte	0xf5
 18956 18ac 40       		.uleb128 0x40
 18957 18ad 25       		.uleb128 0x25
 18958 18ae F3       		.byte	0xf3
 18959 18af 03       		.uleb128 0x3
 18960 18b0 F5       		.byte	0xf5
 18961 18b1 41       		.uleb128 0x41
 18962 18b2 25       		.uleb128 0x25
 18963 18b3 1C       		.byte	0x1c
 18964 18b4 F4       		.byte	0xf4
 18965 18b5 25       		.uleb128 0x25
 18966 18b6 04       		.byte	0x4
 18967 18b7 0000FA45 		.4byte	0x45fa0000
 18968 18bb 1E       		.byte	0x1e
 18969 18bc 9F       		.byte	0x9f
 18970 18bd 6C000000 		.4byte	.LVL308
 18971 18c1 6E000000 		.4byte	.LVL309
 18972 18c5 0600     		.2byte	0x6
 18973 18c7 9E       		.byte	0x9e
 18974 18c8 04       		.uleb128 0x4
 18975 18c9 00000000 		.4byte	0
 18976 18cd 7C000000 		.4byte	.LVL310
 18977 18d1 82000000 		.4byte	.LVL311
 18978 18d5 0600     		.2byte	0x6
 18979 18d7 9E       		.byte	0x9e
 18980 18d8 04       		.uleb128 0x4
 18981 18d9 00000000 		.4byte	0
 18982 18dd 00000000 		.4byte	0
 18983 18e1 00000000 		.4byte	0
 18984              		.section	.debug_aranges,"",%progbits
 18985 0000 AC000000 		.4byte	0xac
 18986 0004 0200     		.2byte	0x2
 18987 0006 00000000 		.4byte	.Ldebug_info0
 18988 000a 04       		.byte	0x4
 18989 000b 00       		.byte	0
 18990 000c 0000     		.2byte	0
 18991 000e 0000     		.2byte	0
 18992 0010 00000000 		.4byte	.LFB308
 18993 0014 BC000000 		.4byte	.LFE308-.LFB308
 18994 0018 00000000 		.4byte	.LFB306
ARM GAS  C:\Users\adrie\AppData\Local\Temp\ccgB8szF.s 			page 335


 18995 001c 8C020000 		.4byte	.LFE306-.LFB306
 18996 0020 00000000 		.4byte	.LFB290
 18997 0024 C0000000 		.4byte	.LFE290-.LFB290
 18998 0028 00000000 		.4byte	.LFB292
 18999 002c 78000000 		.4byte	.LFE292-.LFB292
 19000 0030 00000000 		.4byte	.LFB293
 19001 0034 A4010000 		.4byte	.LFE293-.LFB293
 19002 0038 00000000 		.4byte	.LFB294
 19003 003c 44000000 		.4byte	.LFE294-.LFB294
 19004 0040 00000000 		.4byte	.LFB295
 19005 0044 44000000 		.4byte	.LFE295-.LFB295
 19006 0048 00000000 		.4byte	.LFB296
 19007 004c 64000000 		.4byte	.LFE296-.LFB296
 19008 0050 00000000 		.4byte	.LFB297
 19009 0054 2C000000 		.4byte	.LFE297-.LFB297
 19010 0058 00000000 		.4byte	.LFB298
 19011 005c C0000000 		.4byte	.LFE298-.LFB298
 19012 0060 00000000 		.4byte	.LFB299
 19013 0064 80000000 		.4byte	.LFE299-.LFB299
 19014 0068 00000000 		.4byte	.LFB300
 19015 006c 88000000 		.4byte	.LFE300-.LFB300
 19016 0070 00000000 		.4byte	.LFB291
 19017 0074 14030000 		.4byte	.LFE291-.LFB291
 19018 0078 00000000 		.4byte	.LFB301
 19019 007c 20000000 		.4byte	.LFE301-.LFB301
 19020 0080 00000000 		.4byte	.LFB302
 19021 0084 3C000000 		.4byte	.LFE302-.LFB302
 19022 0088 00000000 		.4byte	.LFB303
 19023 008c 28000000 		.4byte	.LFE303-.LFB303
 19024 0090 00000000 		.4byte	.LFB304
 19025 0094 28000000 		.4byte	.LFE304-.LFB304
 19026 0098 00000000 		.4byte	.LFB305
 19027 009c A0000000 		.4byte	.LFE305-.LFB305
 19028 00a0 00000000 		.4byte	.LFB307
 19029 00a4 38000000 		.4byte	.LFE307-.LFB307
 19030 00a8 00000000 		.4byte	0
 19031 00ac 00000000 		.4byte	0
 19032              		.section	.debug_ranges,"",%progbits
 19033              	.Ldebug_ranges0:
 19034 0000 26000000 		.4byte	.LBB148
 19035 0004 68000000 		.4byte	.LBE148
 19036 0008 9C000000 		.4byte	.LBB155
 19037 000c A8000000 		.4byte	.LBE155
 19038 0010 00000000 		.4byte	0
 19039 0014 00000000 		.4byte	0
 19040 0018 08000000 		.4byte	.LBB193
 19041 001c 0C000000 		.4byte	.LBE193
 19042 0020 0E000000 		.4byte	.LBB197
 19043 0024 14000000 		.4byte	.LBE197
 19044 0028 22000000 		.4byte	.LBB278
 19045 002c 24000000 		.4byte	.LBE278
 19046 0030 00000000 		.4byte	0
 19047 0034 00000000 		.4byte	0
 19048 0038 18000000 		.4byte	.LBB198
 19049 003c 22000000 		.4byte	.LBE198
 19050 0040 2C000000 		.4byte	.LBB279
 19051 0044 8C020000 		.4byte	.LBE279
ARM GAS  C:\Users\adrie\AppData\Local\Temp\ccgB8szF.s 			page 336


 19052 0048 00000000 		.4byte	0
 19053 004c 00000000 		.4byte	0
 19054 0050 18000000 		.4byte	.LBB199
 19055 0054 1A000000 		.4byte	.LBE199
 19056 0058 4E010000 		.4byte	.LBB243
 19057 005c 52010000 		.4byte	.LBE243
 19058 0060 54010000 		.4byte	.LBB245
 19059 0064 56010000 		.4byte	.LBE245
 19060 0068 58010000 		.4byte	.LBB247
 19061 006c 5A010000 		.4byte	.LBE247
 19062 0070 5C010000 		.4byte	.LBB249
 19063 0074 5E010000 		.4byte	.LBE249
 19064 0078 72010000 		.4byte	.LBB262
 19065 007c 7A010000 		.4byte	.LBE262
 19066 0080 00000000 		.4byte	0
 19067 0084 00000000 		.4byte	0
 19068 0088 4E010000 		.4byte	.LBB201
 19069 008c 52010000 		.4byte	.LBE201
 19070 0090 54010000 		.4byte	.LBB202
 19071 0094 56010000 		.4byte	.LBE202
 19072 0098 58010000 		.4byte	.LBB203
 19073 009c 5A010000 		.4byte	.LBE203
 19074 00a0 5C010000 		.4byte	.LBB204
 19075 00a4 5E010000 		.4byte	.LBE204
 19076 00a8 00000000 		.4byte	0
 19077 00ac 00000000 		.4byte	0
 19078 00b0 84000000 		.4byte	.LBB212
 19079 00b4 DA000000 		.4byte	.LBE212
 19080 00b8 F2010000 		.4byte	.LBB274
 19081 00bc 18020000 		.4byte	.LBE274
 19082 00c0 2A020000 		.4byte	.LBB277
 19083 00c4 8C020000 		.4byte	.LBE277
 19084 00c8 00000000 		.4byte	0
 19085 00cc 00000000 		.4byte	0
 19086 00d0 4A010000 		.4byte	.LBB232
 19087 00d4 4E010000 		.4byte	.LBE232
 19088 00d8 52010000 		.4byte	.LBB244
 19089 00dc 54010000 		.4byte	.LBE244
 19090 00e0 56010000 		.4byte	.LBB246
 19091 00e4 58010000 		.4byte	.LBE246
 19092 00e8 5A010000 		.4byte	.LBB248
 19093 00ec 5C010000 		.4byte	.LBE248
 19094 00f0 66010000 		.4byte	.LBB258
 19095 00f4 6A010000 		.4byte	.LBE258
 19096 00f8 6C010000 		.4byte	.LBB260
 19097 00fc 70010000 		.4byte	.LBE260
 19098 0100 00000000 		.4byte	0
 19099 0104 00000000 		.4byte	0
 19100 0108 4A010000 		.4byte	.LBB234
 19101 010c 4E010000 		.4byte	.LBE234
 19102 0110 52010000 		.4byte	.LBB235
 19103 0114 54010000 		.4byte	.LBE235
 19104 0118 56010000 		.4byte	.LBB236
 19105 011c 58010000 		.4byte	.LBE236
 19106 0120 5A010000 		.4byte	.LBB237
 19107 0124 5C010000 		.4byte	.LBE237
 19108 0128 00000000 		.4byte	0
ARM GAS  C:\Users\adrie\AppData\Local\Temp\ccgB8szF.s 			page 337


 19109 012c 00000000 		.4byte	0
 19110 0130 5E010000 		.4byte	.LBB250
 19111 0134 66010000 		.4byte	.LBE250
 19112 0138 6A010000 		.4byte	.LBB259
 19113 013c 6C010000 		.4byte	.LBE259
 19114 0140 70010000 		.4byte	.LBB261
 19115 0144 72010000 		.4byte	.LBE261
 19116 0148 86010000 		.4byte	.LBB271
 19117 014c 8E010000 		.4byte	.LBE271
 19118 0150 00000000 		.4byte	0
 19119 0154 00000000 		.4byte	0
 19120 0158 5E010000 		.4byte	.LBB252
 19121 015c 66010000 		.4byte	.LBE252
 19122 0160 6A010000 		.4byte	.LBB253
 19123 0164 6C010000 		.4byte	.LBE253
 19124 0168 70010000 		.4byte	.LBB254
 19125 016c 72010000 		.4byte	.LBE254
 19126 0170 00000000 		.4byte	0
 19127 0174 00000000 		.4byte	0
 19128 0178 7A010000 		.4byte	.LBB263
 19129 017c 82010000 		.4byte	.LBE263
 19130 0180 84010000 		.4byte	.LBB270
 19131 0184 86010000 		.4byte	.LBE270
 19132 0188 8E010000 		.4byte	.LBB272
 19133 018c 92010000 		.4byte	.LBE272
 19134 0190 94010000 		.4byte	.LBB273
 19135 0194 98010000 		.4byte	.LBE273
 19136 0198 00000000 		.4byte	0
 19137 019c 00000000 		.4byte	0
 19138 01a0 7A010000 		.4byte	.LBB265
 19139 01a4 82010000 		.4byte	.LBE265
 19140 01a8 84010000 		.4byte	.LBB266
 19141 01ac 86010000 		.4byte	.LBE266
 19142 01b0 00000000 		.4byte	0
 19143 01b4 00000000 		.4byte	0
 19144 01b8 04000000 		.4byte	.LBB281
 19145 01bc 06000000 		.4byte	.LBE281
 19146 01c0 0C000000 		.4byte	.LBB282
 19147 01c4 12000000 		.4byte	.LBE282
 19148 01c8 14000000 		.4byte	.LBB283
 19149 01cc 1C000000 		.4byte	.LBE283
 19150 01d0 20000000 		.4byte	.LBB284
 19151 01d4 24000000 		.4byte	.LBE284
 19152 01d8 00000000 		.4byte	0
 19153 01dc 00000000 		.4byte	0
 19154 01e0 0A000000 		.4byte	.LBB286
 19155 01e4 14000000 		.4byte	.LBE286
 19156 01e8 1A000000 		.4byte	.LBB289
 19157 01ec 2C000000 		.4byte	.LBE289
 19158 01f0 00000000 		.4byte	0
 19159 01f4 00000000 		.4byte	0
 19160 01f8 28000000 		.4byte	.LBB290
 19161 01fc 6A000000 		.4byte	.LBE290
 19162 0200 9E000000 		.4byte	.LBB297
 19163 0204 AA000000 		.4byte	.LBE297
 19164 0208 00000000 		.4byte	0
 19165 020c 00000000 		.4byte	0
ARM GAS  C:\Users\adrie\AppData\Local\Temp\ccgB8szF.s 			page 338


 19166 0210 BC000000 		.4byte	.LBB342
 19167 0214 E6010000 		.4byte	.LBE342
 19168 0218 FC010000 		.4byte	.LBB447
 19169 021c C4020000 		.4byte	.LBE447
 19170 0220 00000000 		.4byte	0
 19171 0224 00000000 		.4byte	0
 19172 0228 28010000 		.4byte	.LBB343
 19173 022c 2C010000 		.4byte	.LBE343
 19174 0230 2E010000 		.4byte	.LBB346
 19175 0234 32010000 		.4byte	.LBE346
 19176 0238 00000000 		.4byte	0
 19177 023c 00000000 		.4byte	0
 19178 0240 32010000 		.4byte	.LBB347
 19179 0244 36010000 		.4byte	.LBE347
 19180 0248 3A010000 		.4byte	.LBB350
 19181 024c 3E010000 		.4byte	.LBE350
 19182 0250 00000000 		.4byte	0
 19183 0254 00000000 		.4byte	0
 19184 0258 66010000 		.4byte	.LBB355
 19185 025c 6A010000 		.4byte	.LBE355
 19186 0260 74010000 		.4byte	.LBB362
 19187 0264 76010000 		.4byte	.LBE362
 19188 0268 98010000 		.4byte	.LBB363
 19189 026c 9C010000 		.4byte	.LBE363
 19190 0270 BA010000 		.4byte	.LBB364
 19191 0274 C2010000 		.4byte	.LBE364
 19192 0278 CA010000 		.4byte	.LBB365
 19193 027c CE010000 		.4byte	.LBE365
 19194 0280 D2010000 		.4byte	.LBB366
 19195 0284 D6010000 		.4byte	.LBE366
 19196 0288 00000000 		.4byte	0
 19197 028c 00000000 		.4byte	0
 19198 0290 06020000 		.4byte	.LBB368
 19199 0294 4C020000 		.4byte	.LBE368
 19200 0298 BE020000 		.4byte	.LBB446
 19201 029c C4020000 		.4byte	.LBE446
 19202 02a0 00000000 		.4byte	0
 19203 02a4 00000000 		.4byte	0
 19204 02a8 14020000 		.4byte	.LBB375
 19205 02ac 20020000 		.4byte	.LBE375
 19206 02b0 BE020000 		.4byte	.LBB383
 19207 02b4 C4020000 		.4byte	.LBE383
 19208 02b8 00000000 		.4byte	0
 19209 02bc 00000000 		.4byte	0
 19210 02c0 4E020000 		.4byte	.LBB385
 19211 02c4 52020000 		.4byte	.LBE385
 19212 02c8 56020000 		.4byte	.LBB396
 19213 02cc 5A020000 		.4byte	.LBE396
 19214 02d0 6E020000 		.4byte	.LBB431
 19215 02d4 70020000 		.4byte	.LBE431
 19216 02d8 72020000 		.4byte	.LBB433
 19217 02dc 74020000 		.4byte	.LBE433
 19218 02e0 7E020000 		.4byte	.LBB438
 19219 02e4 84020000 		.4byte	.LBE438
 19220 02e8 90020000 		.4byte	.LBB442
 19221 02ec 94020000 		.4byte	.LBE442
 19222 02f0 00000000 		.4byte	0
ARM GAS  C:\Users\adrie\AppData\Local\Temp\ccgB8szF.s 			page 339


 19223 02f4 00000000 		.4byte	0
 19224 02f8 4E020000 		.4byte	.LBB387
 19225 02fc 52020000 		.4byte	.LBE387
 19226 0300 56020000 		.4byte	.LBB388
 19227 0304 5A020000 		.4byte	.LBE388
 19228 0308 6E020000 		.4byte	.LBB389
 19229 030c 70020000 		.4byte	.LBE389
 19230 0310 7E020000 		.4byte	.LBB390
 19231 0314 80020000 		.4byte	.LBE390
 19232 0318 00000000 		.4byte	0
 19233 031c 00000000 		.4byte	0
 19234 0320 5A020000 		.4byte	.LBB397
 19235 0324 5E020000 		.4byte	.LBE397
 19236 0328 66020000 		.4byte	.LBB428
 19237 032c 6A020000 		.4byte	.LBE428
 19238 0330 70020000 		.4byte	.LBB432
 19239 0334 72020000 		.4byte	.LBE432
 19240 0338 7A020000 		.4byte	.LBB436
 19241 033c 7C020000 		.4byte	.LBE436
 19242 0340 84020000 		.4byte	.LBB439
 19243 0344 88020000 		.4byte	.LBE439
 19244 0348 94020000 		.4byte	.LBB443
 19245 034c 98020000 		.4byte	.LBE443
 19246 0350 00000000 		.4byte	0
 19247 0354 00000000 		.4byte	0
 19248 0358 5A020000 		.4byte	.LBB399
 19249 035c 5E020000 		.4byte	.LBE399
 19250 0360 66020000 		.4byte	.LBB400
 19251 0364 6A020000 		.4byte	.LBE400
 19252 0368 70020000 		.4byte	.LBB401
 19253 036c 72020000 		.4byte	.LBE401
 19254 0370 7A020000 		.4byte	.LBB402
 19255 0374 7C020000 		.4byte	.LBE402
 19256 0378 00000000 		.4byte	0
 19257 037c 00000000 		.4byte	0
 19258 0380 5E020000 		.4byte	.LBB408
 19259 0384 62020000 		.4byte	.LBE408
 19260 0388 6A020000 		.4byte	.LBB429
 19261 038c 6C020000 		.4byte	.LBE429
 19262 0390 74020000 		.4byte	.LBB434
 19263 0394 76020000 		.4byte	.LBE434
 19264 0398 7C020000 		.4byte	.LBB437
 19265 039c 7E020000 		.4byte	.LBE437
 19266 03a0 88020000 		.4byte	.LBB440
 19267 03a4 8C020000 		.4byte	.LBE440
 19268 03a8 98020000 		.4byte	.LBB444
 19269 03ac 9C020000 		.4byte	.LBE444
 19270 03b0 00000000 		.4byte	0
 19271 03b4 00000000 		.4byte	0
 19272 03b8 5E020000 		.4byte	.LBB410
 19273 03bc 62020000 		.4byte	.LBE410
 19274 03c0 6A020000 		.4byte	.LBB411
 19275 03c4 6C020000 		.4byte	.LBE411
 19276 03c8 74020000 		.4byte	.LBB412
 19277 03cc 76020000 		.4byte	.LBE412
 19278 03d0 7C020000 		.4byte	.LBB413
 19279 03d4 7E020000 		.4byte	.LBE413
ARM GAS  C:\Users\adrie\AppData\Local\Temp\ccgB8szF.s 			page 340


 19280 03d8 00000000 		.4byte	0
 19281 03dc 00000000 		.4byte	0
 19282 03e0 62020000 		.4byte	.LBB419
 19283 03e4 66020000 		.4byte	.LBE419
 19284 03e8 6C020000 		.4byte	.LBB430
 19285 03ec 6E020000 		.4byte	.LBE430
 19286 03f0 76020000 		.4byte	.LBB435
 19287 03f4 7A020000 		.4byte	.LBE435
 19288 03f8 8C020000 		.4byte	.LBB441
 19289 03fc 90020000 		.4byte	.LBE441
 19290 0400 9C020000 		.4byte	.LBB445
 19291 0404 A0020000 		.4byte	.LBE445
 19292 0408 00000000 		.4byte	0
 19293 040c 00000000 		.4byte	0
 19294 0410 62020000 		.4byte	.LBB421
 19295 0414 66020000 		.4byte	.LBE421
 19296 0418 6C020000 		.4byte	.LBB422
 19297 041c 6E020000 		.4byte	.LBE422
 19298 0420 76020000 		.4byte	.LBB423
 19299 0424 7A020000 		.4byte	.LBE423
 19300 0428 00000000 		.4byte	0
 19301 042c 00000000 		.4byte	0
 19302 0430 02000000 		.4byte	.LBB448
 19303 0434 04000000 		.4byte	.LBE448
 19304 0438 06000000 		.4byte	.LBB458
 19305 043c 0C000000 		.4byte	.LBE458
 19306 0440 12000000 		.4byte	.LBB459
 19307 0444 14000000 		.4byte	.LBE459
 19308 0448 16000000 		.4byte	.LBB460
 19309 044c 18000000 		.4byte	.LBE460
 19310 0450 1A000000 		.4byte	.LBB461
 19311 0454 20000000 		.4byte	.LBE461
 19312 0458 00000000 		.4byte	0
 19313 045c 00000000 		.4byte	0
 19314 0460 02000000 		.4byte	.LBB450
 19315 0464 04000000 		.4byte	.LBE450
 19316 0468 06000000 		.4byte	.LBB451
 19317 046c 0C000000 		.4byte	.LBE451
 19318 0470 12000000 		.4byte	.LBB452
 19319 0474 14000000 		.4byte	.LBE452
 19320 0478 1A000000 		.4byte	.LBB453
 19321 047c 1C000000 		.4byte	.LBE453
 19322 0480 00000000 		.4byte	0
 19323 0484 00000000 		.4byte	0
 19324 0488 00000000 		.4byte	.LFB308
 19325 048c BC000000 		.4byte	.LFE308
 19326 0490 00000000 		.4byte	.LFB306
 19327 0494 8C020000 		.4byte	.LFE306
 19328 0498 00000000 		.4byte	.LFB290
 19329 049c C0000000 		.4byte	.LFE290
 19330 04a0 00000000 		.4byte	.LFB292
 19331 04a4 78000000 		.4byte	.LFE292
 19332 04a8 00000000 		.4byte	.LFB293
 19333 04ac A4010000 		.4byte	.LFE293
 19334 04b0 00000000 		.4byte	.LFB294
 19335 04b4 44000000 		.4byte	.LFE294
 19336 04b8 00000000 		.4byte	.LFB295
ARM GAS  C:\Users\adrie\AppData\Local\Temp\ccgB8szF.s 			page 341


 19337 04bc 44000000 		.4byte	.LFE295
 19338 04c0 00000000 		.4byte	.LFB296
 19339 04c4 64000000 		.4byte	.LFE296
 19340 04c8 00000000 		.4byte	.LFB297
 19341 04cc 2C000000 		.4byte	.LFE297
 19342 04d0 00000000 		.4byte	.LFB298
 19343 04d4 C0000000 		.4byte	.LFE298
 19344 04d8 00000000 		.4byte	.LFB299
 19345 04dc 80000000 		.4byte	.LFE299
 19346 04e0 00000000 		.4byte	.LFB300
 19347 04e4 88000000 		.4byte	.LFE300
 19348 04e8 00000000 		.4byte	.LFB291
 19349 04ec 14030000 		.4byte	.LFE291
 19350 04f0 00000000 		.4byte	.LFB301
 19351 04f4 20000000 		.4byte	.LFE301
 19352 04f8 00000000 		.4byte	.LFB302
 19353 04fc 3C000000 		.4byte	.LFE302
 19354 0500 00000000 		.4byte	.LFB303
 19355 0504 28000000 		.4byte	.LFE303
 19356 0508 00000000 		.4byte	.LFB304
 19357 050c 28000000 		.4byte	.LFE304
 19358 0510 00000000 		.4byte	.LFB305
 19359 0514 A0000000 		.4byte	.LFE305
 19360 0518 00000000 		.4byte	.LFB307
 19361 051c 38000000 		.4byte	.LFE307
 19362 0520 00000000 		.4byte	0
 19363 0524 00000000 		.4byte	0
 19364              		.section	.debug_line,"",%progbits
 19365              	.Ldebug_line0:
 19366 0000 300F0000 		.section	.debug_str,"MS",%progbits,1
 19366      02004B0A 
 19366      00000201 
 19366      FB0E0D00 
 19366      01010101 
 19367              	.LASF585:
 19368 0000 5553425F 		.ascii	"USB_STOP\000"
 19368      53544F50 
 19368      00
 19369              	.LASF195:
 19370 0009 706F7274 		.ascii	"port_intctx\000"
 19370      5F696E74 
 19370      63747800 
 19371              	.LASF204:
 19372 0015 63685F74 		.ascii	"ch_trace_buffer_t\000"
 19372      72616365 
 19372      5F627566 
 19372      6665725F 
 19372      7400
 19373              	.LASF237:
 19374 0027 63685F70 		.ascii	"ch_ptrsize\000"
 19374      74727369 
 19374      7A6500
 19375              	.LASF777:
 19376 0032 6D657373 		.ascii	"messagebus_watcher_s\000"
 19376      61676562 
 19376      75735F77 
 19376      61746368 
ARM GAS  C:\Users\adrie\AppData\Local\Temp\ccgB8szF.s 			page 342


 19376      65725F73 
 19377              	.LASF521:
 19378 0047 6576656E 		.ascii	"event\000"
 19378      7400
 19379              	.LASF874:
 19380 004d 5F6D6272 		.ascii	"_mbrtowc_state\000"
 19380      746F7763 
 19380      5F737461 
 19380      746500
 19381              	.LASF371:
 19382 005c 43414E5F 		.ascii	"CAN_STARTING\000"
 19382      53544152 
 19382      54494E47 
 19382      00
 19383              	.LASF966:
 19384 0069 6D61785F 		.ascii	"max_left\000"
 19384      6C656674 
 19384      00
 19385              	.LASF991:
 19386 0072 70726F63 		.ascii	"processAudioData\000"
 19386      65737341 
 19386      7564696F 
 19386      44617461 
 19386      00
 19387              	.LASF739:
 19388 0083 44434D49 		.ascii	"DCMI_ACTIVE_ONESHOT\000"
 19388      5F414354 
 19388      4956455F 
 19388      4F4E4553 
 19388      484F5400 
 19389              	.LASF32:
 19390 0097 6D73675F 		.ascii	"msg_t\000"
 19390      7400
 19391              	.LASF316:
 19392 009d 61667268 		.ascii	"afrh\000"
 19392      00
 19393              	.LASF464:
 19394 00a2 4F504D4F 		.ascii	"OPMODE_SMBUS_DEVICE\000"
 19394      44455F53 
 19394      4D425553 
 19394      5F444556 
 19394      49434500 
 19395              	.LASF215:
 19396 00b6 6D5F6372 		.ascii	"m_crit_isr\000"
 19396      69745F69 
 19396      737200
 19397              	.LASF904:
 19398 00c1 76656374 		.ascii	"vect\000"
 19398      00
 19399              	.LASF644:
 19400 00c6 44494550 		.ascii	"DIEPTXF0\000"
 19400      54584630 
 19400      00
 19401              	.LASF720:
 19402 00cf 55534244 		.ascii	"USBD1\000"
 19402      3100
 19403              	.LASF370:
ARM GAS  C:\Users\adrie\AppData\Local\Temp\ccgB8szF.s 			page 343


 19404 00d5 43414E5F 		.ascii	"CAN_STOP\000"
 19404      53544F50 
 19404      00
 19405              	.LASF250:
 19406 00de 63665F6F 		.ascii	"cf_off_time\000"
 19406      66665F74 
 19406      696D6500 
 19407              	.LASF91:
 19408 00ea 63685F73 		.ascii	"ch_system_t\000"
 19408      79737465 
 19408      6D5F7400 
 19409              	.LASF7:
 19410 00f6 5F5F7569 		.ascii	"__uint8_t\000"
 19410      6E74385F 
 19410      7400
 19411              	.LASF221:
 19412 0100 77747365 		.ascii	"wtsemp\000"
 19412      6D7000
 19413              	.LASF300:
 19414 0107 5F426F6F 		.ascii	"_Bool\000"
 19414      6C00
 19415              	.LASF412:
 19416 010d 64617461 		.ascii	"datamode\000"
 19416      6D6F6465 
 19416      00
 19417              	.LASF480:
 19418 0116 646D6172 		.ascii	"dmarx\000"
 19418      7800
 19419              	.LASF485:
 19420 011c 4932535F 		.ascii	"I2S_READY\000"
 19420      52454144 
 19420      5900
 19421              	.LASF807:
 19422 0126 5F617465 		.ascii	"_atexit\000"
 19422      78697400 
 19423              	.LASF889:
 19424 012e 6368616E 		.ascii	"changed_cnt\000"
 19424      6765645F 
 19424      636E7400 
 19425              	.LASF886:
 19426 013a 7375626F 		.ascii	"suboptarg\000"
 19426      70746172 
 19426      6700
 19427              	.LASF360:
 19428 0144 73717231 		.ascii	"sqr1\000"
 19428      00
 19429              	.LASF774:
 19430 0149 7075626C 		.ascii	"published\000"
 19430      69736865 
 19430      6400
 19431              	.LASF287:
 19432 0153 424C4B5F 		.ascii	"BLK_UNINIT\000"
 19432      554E494E 
 19432      495400
 19433              	.LASF492:
 19434 015e 72785F62 		.ascii	"rx_buffer\000"
 19434      75666665 
ARM GAS  C:\Users\adrie\AppData\Local\Temp\ccgB8szF.s 			page 344


 19434      7200
 19435              	.LASF476:
 19436 0168 6572726F 		.ascii	"errors\000"
 19436      727300
 19437              	.LASF974:
 19438 016f 6D61785F 		.ascii	"max_norm\000"
 19438      6E6F726D 
 19438      00
 19439              	.LASF208:
 19440 0178 776F7273 		.ascii	"worst\000"
 19440      7400
 19441              	.LASF84:
 19442 017e 76745F73 		.ascii	"vt_systime\000"
 19442      79737469 
 19442      6D6500
 19443              	.LASF150:
 19444 0189 444F5231 		.ascii	"DOR1\000"
 19444      00
 19445              	.LASF151:
 19446 018e 444F5232 		.ascii	"DOR2\000"
 19446      00
 19447              	.LASF491:
 19448 0193 74785F62 		.ascii	"tx_buffer\000"
 19448      75666665 
 19448      7200
 19449              	.LASF797:
 19450 019d 5F5F746D 		.ascii	"__tm_mon\000"
 19450      5F6D6F6E 
 19450      00
 19451              	.LASF805:
 19452 01a6 5F666E74 		.ascii	"_fntypes\000"
 19452      79706573 
 19452      00
 19453              	.LASF936:
 19454 01af 616E676C 		.ascii	"angle\000"
 19454      6500
 19455              	.LASF230:
 19456 01b5 6D5F6E65 		.ascii	"m_next\000"
 19456      787400
 19457              	.LASF320:
 19458 01bc 50434461 		.ascii	"PCData\000"
 19458      746100
 19459              	.LASF835:
 19460 01c3 5F696E63 		.ascii	"_inc\000"
 19460      00
 19461              	.LASF808:
 19462 01c8 5F696E64 		.ascii	"_ind\000"
 19462      00
 19463              	.LASF1001:
 19464 01cd 6D6F7965 		.ascii	"moyenne_back\000"
 19464      6E6E655F 
 19464      6261636B 
 19464      00
 19465              	.LASF180:
 19466 01da 4D41534B 		.ascii	"MASK\000"
 19466      00
 19467              	.LASF345:
ARM GAS  C:\Users\adrie\AppData\Local\Temp\ccgB8szF.s 			page 345


 19468 01df 73616D70 		.ascii	"samples\000"
 19468      6C657300 
 19469              	.LASF996:
 19470 01e7 6E6F726D 		.ascii	"norm_front\000"
 19470      5F66726F 
 19470      6E7400
 19471              	.LASF648:
 19472 01f2 47434346 		.ascii	"GCCFG\000"
 19472      4700
 19473              	.LASF441:
 19474 01f8 42445452 		.ascii	"BDTR\000"
 19474      00
 19475              	.LASF394:
 19476 01fd 7265676D 		.ascii	"regmask\000"
 19476      61736B00 
 19477              	.LASF992:
 19478 0205 6E756D5F 		.ascii	"num_samples\000"
 19478      73616D70 
 19478      6C657300 
 19479              	.LASF474:
 19480 0211 49324343 		.ascii	"I2CConfig\000"
 19480      6F6E6669 
 19480      6700
 19481              	.LASF21:
 19482 021b 75696E74 		.ascii	"uint16_t\000"
 19482      31365F74 
 19482      00
 19483              	.LASF481:
 19484 0224 646D6174 		.ascii	"dmatx\000"
 19484      7800
 19485              	.LASF718:
 19486 022a 736F665F 		.ascii	"sof_cb\000"
 19486      636200
 19487              	.LASF1039:
 19488 0231 6765745F 		.ascii	"get_line_position\000"
 19488      6C696E65 
 19488      5F706F73 
 19488      6974696F 
 19488      6E00
 19489              	.LASF417:
 19490 0243 4558545F 		.ascii	"EXT_ACTIVE\000"
 19490      41435449 
 19490      564500
 19491              	.LASF814:
 19492 024e 5F666C61 		.ascii	"_flags\000"
 19492      677300
 19493              	.LASF776:
 19494 0255 6E657874 		.ascii	"next\000"
 19494      00
 19495              	.LASF313:
 19496 025a 6F737065 		.ascii	"ospeedr\000"
 19496      65647200 
 19497              	.LASF651:
 19498 0262 44494550 		.ascii	"DIEPTXF\000"
 19498      54584600 
 19499              	.LASF259:
 19500 026a 656C5F6E 		.ascii	"el_next\000"
ARM GAS  C:\Users\adrie\AppData\Local\Temp\ccgB8szF.s 			page 346


 19500      65787400 
 19501              	.LASF340:
 19502 0272 4144435F 		.ascii	"ADC_ERR_OVERFLOW\000"
 19502      4552525F 
 19502      4F564552 
 19502      464C4F57 
 19502      00
 19503              	.LASF725:
 19504 0283 53657269 		.ascii	"SerialUSBDriver\000"
 19504      616C5553 
 19504      42447269 
 19504      76657200 
 19505              	.LASF845:
 19506 0293 5F637674 		.ascii	"_cvtlen\000"
 19506      6C656E00 
 19507              	.LASF89:
 19508 029b 6C6F636B 		.ascii	"lock_cnt\000"
 19508      5F636E74 
 19508      00
 19509              	.LASF65:
 19510 02a4 63685F74 		.ascii	"ch_threads_queue\000"
 19510      68726561 
 19510      64735F71 
 19510      75657565 
 19510      00
 19511              	.LASF926:
 19512 02b5 5F5F6664 		.ascii	"__fdlibm_svid\000"
 19512      6C69626D 
 19512      5F737669 
 19512      6400
 19513              	.LASF849:
 19514 02c3 5F736967 		.ascii	"_sig_func\000"
 19514      5F66756E 
 19514      6300
 19515              	.LASF43:
 19516 02cd 705F6E65 		.ascii	"p_newer\000"
 19516      77657200 
 19517              	.LASF661:
 19518 02d5 48505254 		.ascii	"HPRT\000"
 19518      00
 19519              	.LASF615:
 19520 02da 4843494E 		.ascii	"HCINT\000"
 19520      5400
 19521              	.LASF100:
 19522 02e0 534D5052 		.ascii	"SMPR1\000"
 19522      3100
 19523              	.LASF101:
 19524 02e6 534D5052 		.ascii	"SMPR2\000"
 19524      3200
 19525              	.LASF247:
 19526 02ec 63665F6F 		.ascii	"cf_off_flags\000"
 19526      66665F66 
 19526      6C616773 
 19526      00
 19527              	.LASF827:
 19528 02f9 5F6C6F63 		.ascii	"_lock\000"
 19528      6B00
ARM GAS  C:\Users\adrie\AppData\Local\Temp\ccgB8szF.s 			page 347


 19529              	.LASF823:
 19530 02ff 5F6E6275 		.ascii	"_nbuf\000"
 19530      6600
 19531              	.LASF554:
 19532 0305 5350495F 		.ascii	"SPI_STOP\000"
 19532      53544F50 
 19532      00
 19533              	.LASF508:
 19534 030e 70776D63 		.ascii	"pwmchnmsk_t\000"
 19534      686E6D73 
 19534      6B5F7400 
 19535              	.LASF319:
 19536 031a 50424461 		.ascii	"PBData\000"
 19536      746100
 19537              	.LASF235:
 19538 0321 63685F73 		.ascii	"ch_size\000"
 19538      697A6500 
 19539              	.LASF970:
 19540 0329 70695F72 		.ascii	"pi_regulator\000"
 19540      6567756C 
 19540      61746F72 
 19540      00
 19541              	.LASF736:
 19542 0336 44434D49 		.ascii	"DCMI_STOP\000"
 19542      5F53544F 
 19542      5000
 19543              	.LASF657:
 19544 0340 48505458 		.ascii	"HPTXSTS\000"
 19544      53545300 
 19545              	.LASF312:
 19546 0348 6F747970 		.ascii	"otyper\000"
 19546      657200
 19547              	.LASF303:
 19548 034f 4F545950 		.ascii	"OTYPER\000"
 19548      455200
 19549              	.LASF909:
 19550 0356 6D617869 		.ascii	"maximum_fft\000"
 19550      6D756D5F 
 19550      66667400 
 19551              	.LASF396:
 19552 0362 64616370 		.ascii	"dacparams_t\000"
 19552      6172616D 
 19552      735F7400 
 19553              	.LASF532:
 19554 036e 5344435F 		.ascii	"SDC_MODE_1BIT\000"
 19554      4D4F4445 
 19554      5F314249 
 19554      5400
 19555              	.LASF613:
 19556 037c 48434348 		.ascii	"HCCHAR\000"
 19556      415200
 19557              	.LASF804:
 19558 0383 5F64736F 		.ascii	"_dso_handle\000"
 19558      5F68616E 
 19558      646C6500 
 19559              	.LASF458:
 19560 038f 4932435F 		.ascii	"I2C_ACTIVE_RX\000"
ARM GAS  C:\Users\adrie\AppData\Local\Temp\ccgB8szF.s 			page 348


 19560      41435449 
 19560      56455F52 
 19560      5800
 19561              	.LASF38:
 19562 039d 74687265 		.ascii	"thread_t\000"
 19562      61645F74 
 19562      00
 19563              	.LASF261:
 19564 03a6 656C5F65 		.ascii	"el_events\000"
 19564      76656E74 
 19564      7300
 19565              	.LASF501:
 19566 03b0 70776D73 		.ascii	"pwmstate_t\000"
 19566      74617465 
 19566      5F7400
 19567              	.LASF381:
 19568 03bb 736C6565 		.ascii	"sleep_event\000"
 19568      705F6576 
 19568      656E7400 
 19569              	.LASF83:
 19570 03c7 63685F76 		.ascii	"ch_virtual_timers_list\000"
 19570      69727475 
 19570      616C5F74 
 19570      696D6572 
 19570      735F6C69 
 19571              	.LASF284:
 19572 03de 76656374 		.ascii	"vector\000"
 19572      6F7200
 19573              	.LASF942:
 19574 03e5 6D69634C 		.ascii	"micLeft_cmplx_input\000"
 19574      6566745F 
 19574      636D706C 
 19574      785F696E 
 19574      70757400 
 19575              	.LASF982:
 19576 03f9 6D696372 		.ascii	"micro\000"
 19576      6F00
 19577              	.LASF22:
 19578 03ff 696E7433 		.ascii	"int32_t\000"
 19578      325F7400 
 19579              	.LASF869:
 19580 0407 5F776374 		.ascii	"_wctomb_state\000"
 19580      6F6D625F 
 19580      73746174 
 19580      6500
 19581              	.LASF985:
 19582 0415 73757072 		.ascii	"supremum\000"
 19582      656D756D 
 19582      00
 19583              	.LASF472:
 19584 041e 636C6F63 		.ascii	"clock_speed\000"
 19584      6B5F7370 
 19584      65656400 
 19585              	.LASF37:
 19586 042a 73797374 		.ascii	"systime_t\000"
 19586      696D655F 
 19586      7400
ARM GAS  C:\Users\adrie\AppData\Local\Temp\ccgB8szF.s 			page 349


 19587              	.LASF941:
 19588 0434 6D6F7965 		.ascii	"moyenne\000"
 19588      6E6E6500 
 19589              	.LASF414:
 19590 043c 44414344 		.ascii	"DACD2\000"
 19590      3200
 19591              	.LASF383:
 19592 0442 43414E44 		.ascii	"CANDriver\000"
 19592      72697665 
 19592      7200
 19593              	.LASF245:
 19594 044c 63665F6F 		.ascii	"cf_off_stklimit\000"
 19594      66665F73 
 19594      746B6C69 
 19594      6D697400 
 19595              	.LASF161:
 19596 045c 4D304152 		.ascii	"M0AR\000"
 19596      00
 19597              	.LASF620:
 19598 0461 72657376 		.ascii	"resvd1c\000"
 19598      64316300 
 19599              	.LASF462:
 19600 0469 69326366 		.ascii	"i2cflags_t\000"
 19600      6C616773 
 19600      5F7400
 19601              	.LASF658:
 19602 0474 4841494E 		.ascii	"HAINT\000"
 19602      5400
 19603              	.LASF1018:
 19604 047a 5F646267 		.ascii	"_dbg_check_lock\000"
 19604      5F636865 
 19604      636B5F6C 
 19604      6F636B00 
 19605              	.LASF136:
 19606 048a 46413152 		.ascii	"FA1R\000"
 19606      00
 19607              	.LASF159:
 19608 048f 44434D49 		.ascii	"DCMI_TypeDef\000"
 19608      5F547970 
 19608      65446566 
 19608      00
 19609              	.LASF655:
 19610 049c 48464E55 		.ascii	"HFNUM\000"
 19610      4D00
 19611              	.LASF890:
 19612 04a2 70617265 		.ascii	"parent\000"
 19612      6E7400
 19613              	.LASF277:
 19614 04a9 716E6F74 		.ascii	"qnotify_t\000"
 19614      6966795F 
 19614      7400
 19615              	.LASF336:
 19616 04b3 61646373 		.ascii	"adcstate_t\000"
 19616      74617465 
 19616      5F7400
 19617              	.LASF784:
 19618 04be 7075626C 		.ascii	"published_topic\000"
ARM GAS  C:\Users\adrie\AppData\Local\Temp\ccgB8szF.s 			page 350


 19618      69736865 
 19618      645F746F 
 19618      70696300 
 19619              	.LASF751:
 19620 04ce 44434D49 		.ascii	"DCMID\000"
 19620      4400
 19621              	.LASF282:
 19622 04d4 69736869 		.ascii	"ishift\000"
 19622      667400
 19623              	.LASF1006:
 19624 04db 63684253 		.ascii	"chBSemWait\000"
 19624      656D5761 
 19624      697400
 19625              	.LASF431:
 19626 04e6 4750545F 		.ascii	"GPT_ONESHOT\000"
 19626      4F4E4553 
 19626      484F5400 
 19627              	.LASF272:
 19628 04f2 715F746F 		.ascii	"q_top\000"
 19628      7000
 19629              	.LASF816:
 19630 04f8 5F6C6266 		.ascii	"_lbfsize\000"
 19630      73697A65 
 19630      00
 19631              	.LASF606:
 19632 0501 75645F73 		.ascii	"ud_string\000"
 19632      7472696E 
 19632      6700
 19633              	.LASF475:
 19634 050b 49324344 		.ascii	"I2CDriver\000"
 19634      72697665 
 19634      7200
 19635              	.LASF457:
 19636 0515 4932435F 		.ascii	"I2C_ACTIVE_TX\000"
 19636      41435449 
 19636      56455F54 
 19636      5800
 19637              	.LASF527:
 19638 0523 72656164 		.ascii	"read\000"
 19638      00
 19639              	.LASF463:
 19640 0528 4F504D4F 		.ascii	"OPMODE_I2C\000"
 19640      44455F49 
 19640      324300
 19641              	.LASF667:
 19642 0533 72657376 		.ascii	"resvd80C\000"
 19642      64383043 
 19642      00
 19643              	.LASF715:
 19644 053c 6576656E 		.ascii	"event_cb\000"
 19644      745F6362 
 19644      00
 19645              	.LASF978:
 19646 0545 6C65645F 		.ascii	"led_direction\000"
 19646      64697265 
 19646      6374696F 
 19646      6E00
ARM GAS  C:\Users\adrie\AppData\Local\Temp\ccgB8szF.s 			page 351


 19647              	.LASF847:
 19648 0553 5F6E6577 		.ascii	"_new\000"
 19648      00
 19649              	.LASF949:
 19650 0558 6D696342 		.ascii	"micBack_output\000"
 19650      61636B5F 
 19650      6F757470 
 19650      757400
 19651              	.LASF634:
 19652 0567 474F5447 		.ascii	"GOTGCTL\000"
 19652      43544C00 
 19653              	.LASF948:
 19654 056f 6D696346 		.ascii	"micFront_output\000"
 19654      726F6E74 
 19654      5F6F7574 
 19654      70757400 
 19655              	.LASF728:
 19656 057f 62756C6B 		.ascii	"bulk_out\000"
 19656      5F6F7574 
 19656      00
 19657              	.LASF609:
 19658 0588 75736265 		.ascii	"usbepcallback_t\000"
 19658      7063616C 
 19658      6C626163 
 19658      6B5F7400 
 19659              	.LASF461:
 19660 0598 69326361 		.ascii	"i2caddr_t\000"
 19660      6464725F 
 19660      7400
 19661              	.LASF94:
 19662 05a2 76746C69 		.ascii	"vtlist\000"
 19662      737400
 19663              	.LASF166:
 19664 05a9 54524953 		.ascii	"TRISE\000"
 19664      4500
 19665              	.LASF673:
 19666 05af 72657376 		.ascii	"resvd824\000"
 19666      64383234 
 19666      00
 19667              	.LASF52:
 19668 05b8 705F7761 		.ascii	"p_waiting\000"
 19668      6974696E 
 19668      6700
 19669              	.LASF216:
 19670 05c2 6B65726E 		.ascii	"kernel_stats_t\000"
 19670      656C5F73 
 19670      74617473 
 19670      5F7400
 19671              	.LASF269:
 19672 05d1 715F7761 		.ascii	"q_waiting\000"
 19672      6974696E 
 19672      6700
 19673              	.LASF118:
 19674 05db 43414E5F 		.ascii	"CAN_TxMailBox_TypeDef\000"
 19674      54784D61 
 19674      696C426F 
 19674      785F5479 
ARM GAS  C:\Users\adrie\AppData\Local\Temp\ccgB8szF.s 			page 352


 19674      70654465 
 19675              	.LASF93:
 19676 05f1 726C6973 		.ascii	"rlist\000"
 19676      7400
 19677              	.LASF61:
 19678 05f7 74687265 		.ascii	"threads_list_t\000"
 19678      6164735F 
 19678      6C697374 
 19678      5F7400
 19679              	.LASF241:
 19680 0606 63665F6F 		.ascii	"cf_off_ctx\000"
 19680      66665F63 
 19680      747800
 19681              	.LASF278:
 19682 0611 696E7075 		.ascii	"input_queue_t\000"
 19682      745F7175 
 19682      6575655F 
 19682      7400
 19683              	.LASF363:
 19684 061f 41444343 		.ascii	"ADCConversionGroup\000"
 19684      6F6E7665 
 19684      7273696F 
 19684      6E47726F 
 19684      757000
 19685              	.LASF666:
 19686 0632 44535453 		.ascii	"DSTS\000"
 19686      00
 19687              	.LASF882:
 19688 0637 5F5F6C6F 		.ascii	"__lock\000"
 19688      636B00
 19689              	.LASF467:
 19690 063e 5354445F 		.ascii	"STD_DUTY_CYCLE\000"
 19690      44555459 
 19690      5F435943 
 19690      4C4500
 19691              	.LASF372:
 19692 064d 43414E5F 		.ascii	"CAN_READY\000"
 19692      52454144 
 19692      5900
 19693              	.LASF243:
 19694 0657 63665F6F 		.ascii	"cf_off_older\000"
 19694      66665F6F 
 19694      6C646572 
 19694      00
 19695              	.LASF26:
 19696 0664 72747469 		.ascii	"rttime_t\000"
 19696      6D655F74 
 19696      00
 19697              	.LASF426:
 19698 066d 45585444 		.ascii	"EXTD1\000"
 19698      3100
 19699              	.LASF700:
 19700 0673 72787175 		.ascii	"rxqueued\000"
 19700      65756564 
 19700      00
 19701              	.LASF374:
 19702 067c 63616E73 		.ascii	"canstate_t\000"
ARM GAS  C:\Users\adrie\AppData\Local\Temp\ccgB8szF.s 			page 353


 19702      74617465 
 19702      5F7400
 19703              	.LASF138:
 19704 0687 7346696C 		.ascii	"sFilterRegister\000"
 19704      74657252 
 19704      65676973 
 19704      74657200 
 19705              	.LASF851:
 19706 0697 5F5F7366 		.ascii	"__sf\000"
 19706      00
 19707              	.LASF672:
 19708 069c 72657376 		.ascii	"resvd820\000"
 19708      64383230 
 19708      00
 19709              	.LASF1041:
 19710 06a5 5F5F7374 		.ascii	"__stack_chk_fail\000"
 19710      61636B5F 
 19710      63686B5F 
 19710      6661696C 
 19710      00
 19711              	.LASF172:
 19712 06b6 52455350 		.ascii	"RESP1\000"
 19712      3100
 19713              	.LASF173:
 19714 06bc 52455350 		.ascii	"RESP2\000"
 19714      3200
 19715              	.LASF174:
 19716 06c2 52455350 		.ascii	"RESP3\000"
 19716      3300
 19717              	.LASF175:
 19718 06c8 52455350 		.ascii	"RESP4\000"
 19718      3400
 19719              	.LASF868:
 19720 06ce 5F6D6274 		.ascii	"_mbtowc_state\000"
 19720      6F77635F 
 19720      73746174 
 19720      6500
 19721              	.LASF454:
 19722 06dc 4932435F 		.ascii	"I2C_UNINIT\000"
 19722      554E494E 
 19722      495400
 19723              	.LASF611:
 19724 06e7 75736272 		.ascii	"usbreqhandler_t\000"
 19724      65716861 
 19724      6E646C65 
 19724      725F7400 
 19725              	.LASF334:
 19726 06f7 4144435F 		.ascii	"ADC_COMPLETE\000"
 19726      434F4D50 
 19726      4C455445 
 19726      00
 19727              	.LASF951:
 19728 0704 5F5F4655 		.ascii	"__FUNCTION__\000"
 19728      4E435449 
 19728      4F4E5F5F 
 19728      00
 19729              	.LASF450:
ARM GAS  C:\Users\adrie\AppData\Local\Temp\ccgB8szF.s 			page 354


 19730 0711 47505443 		.ascii	"GPTConfig\000"
 19730      6F6E6669 
 19730      6700
 19731              	.LASF516:
 19732 071b 53445F55 		.ascii	"SD_UNINIT\000"
 19732      4E494E49 
 19732      5400
 19733              	.LASF735:
 19734 0725 44434D49 		.ascii	"DCMI_UNINIT\000"
 19734      5F554E49 
 19734      4E495400 
 19735              	.LASF31:
 19736 0731 74707269 		.ascii	"tprio_t\000"
 19736      6F5F7400 
 19737              	.LASF212:
 19738 0739 6E5F6972 		.ascii	"n_irq\000"
 19738      7100
 19739              	.LASF772:
 19740 073f 636F6E64 		.ascii	"condvar\000"
 19740      76617200 
 19741              	.LASF495:
 19742 0747 69327370 		.ascii	"i2spr\000"
 19742      7200
 19743              	.LASF1021:
 19744 074d 63685379 		.ascii	"chSysHalt\000"
 19744      7348616C 
 19744      7400
 19745              	.LASF676:
 19746 0757 72657376 		.ascii	"resvd830\000"
 19746      64383330 
 19746      00
 19747              	.LASF456:
 19748 0760 4932435F 		.ascii	"I2C_READY\000"
 19748      52454144 
 19748      5900
 19749              	.LASF1035:
 19750 076a 433A5C55 		.ascii	"C:\\Users\\adrie\\OneDrive\\Documents\\GitHub\\Proj"
 19750      73657273 
 19750      5C616472 
 19750      69655C4F 
 19750      6E654472 
 19751 0797 6563745F 		.ascii	"ect_robotique\000"
 19751      726F626F 
 19751      74697175 
 19751      6500
 19752              	.LASF678:
 19753 07a5 72657376 		.ascii	"resvd838\000"
 19753      64383338 
 19753      00
 19754              	.LASF470:
 19755 07ae 69326364 		.ascii	"i2cdutycycle_t\000"
 19755      75747963 
 19755      79636C65 
 19755      5F7400
 19756              	.LASF724:
 19757 07bd 73647573 		.ascii	"sdustate_t\000"
 19757      74617465 
ARM GAS  C:\Users\adrie\AppData\Local\Temp\ccgB8szF.s 			page 355


 19757      5F7400
 19758              	.LASF763:
 19759 07c8 6F707461 		.ascii	"optarg\000"
 19759      726700
 19760              	.LASF679:
 19761 07cf 72657376 		.ascii	"resvd83C\000"
 19761      64383343 
 19761      00
 19762              	.LASF348:
 19763 07d8 74687265 		.ascii	"thread\000"
 19763      616400
 19764              	.LASF393:
 19765 07df 72656773 		.ascii	"regshift\000"
 19765      68696674 
 19765      00
 19766              	.LASF574:
 19767 07e8 73657475 		.ascii	"setup\000"
 19767      7000
 19768              	.LASF553:
 19769 07ee 5350495F 		.ascii	"SPI_UNINIT\000"
 19769      554E494E 
 19769      495400
 19770              	.LASF627:
 19771 07f9 44545846 		.ascii	"DTXFSTS\000"
 19771      53545300 
 19772              	.LASF297:
 19773 0801 626C6B5F 		.ascii	"blk_size\000"
 19773      73697A65 
 19773      00
 19774              	.LASF993:
 19775 080a 6E625F73 		.ascii	"nb_samples\000"
 19775      616D706C 
 19775      657300
 19776              	.LASF740:
 19777 0815 44434D49 		.ascii	"DCMI_COMPLETE\000"
 19777      5F434F4D 
 19777      504C4554 
 19777      4500
 19778              	.LASF568:
 19779 0823 696E5F70 		.ascii	"in_params\000"
 19779      6172616D 
 19779      7300
 19780              	.LASF440:
 19781 082d 43434552 		.ascii	"CCER\000"
 19781      00
 19782              	.LASF188:
 19783 0832 49325350 		.ascii	"I2SPR\000"
 19783      5200
 19784              	.LASF498:
 19785 0838 50574D5F 		.ascii	"PWM_UNINIT\000"
 19785      554E494E 
 19785      495400
 19786              	.LASF207:
 19787 0843 62657374 		.ascii	"best\000"
 19787      00
 19788              	.LASF897:
 19789 0848 74797065 		.ascii	"type\000"
ARM GAS  C:\Users\adrie\AppData\Local\Temp\ccgB8szF.s 			page 356


 19789      00
 19790              	.LASF636:
 19791 084d 47414842 		.ascii	"GAHBCFG\000"
 19791      43464700 
 19792              	.LASF403:
 19793 0855 64616363 		.ascii	"daccallback_t\000"
 19793      616C6C62 
 19793      61636B5F 
 19793      7400
 19794              	.LASF723:
 19795 0863 5344555F 		.ascii	"SDU_READY\000"
 19795      52454144 
 19795      5900
 19796              	.LASF752:
 19797 086d 5F4C4F43 		.ascii	"_LOCK_T\000"
 19797      4B5F5400 
 19798              	.LASF680:
 19799 0875 72657376 		.ascii	"resvd840\000"
 19799      64383430 
 19799      00
 19800              	.LASF184:
 19801 087e 43524350 		.ascii	"CRCPR\000"
 19801      5200
 19802              	.LASF958:
 19803 0884 64697374 		.ascii	"distance_source\000"
 19803      616E6365 
 19803      5F736F75 
 19803      72636500 
 19804              	.LASF983:
 19805 0894 736F6D6D 		.ascii	"somme\000"
 19805      6500
 19806              	.LASF292:
 19807 089a 424C4B5F 		.ascii	"BLK_READY\000"
 19807      52454144 
 19807      5900
 19808              	.LASF9:
 19809 08a4 5F5F696E 		.ascii	"__int16_t\000"
 19809      7431365F 
 19809      7400
 19810              	.LASF11:
 19811 08ae 5F5F7569 		.ascii	"__uint16_t\000"
 19811      6E743136 
 19811      5F7400
 19812              	.LASF430:
 19813 08b9 4750545F 		.ascii	"GPT_CONTINUOUS\000"
 19813      434F4E54 
 19813      494E554F 
 19813      555300
 19814              	.LASF694:
 19815 08c8 74787175 		.ascii	"txqueued\000"
 19815      65756564 
 19815      00
 19816              	.LASF54:
 19817 08d1 705F6D73 		.ascii	"p_msg\000"
 19817      6700
 19818              	.LASF860:
 19819 08d7 5F756E75 		.ascii	"_unused_rand\000"
ARM GAS  C:\Users\adrie\AppData\Local\Temp\ccgB8szF.s 			page 357


 19819      7365645F 
 19819      72616E64 
 19819      00
 19820              	.LASF633:
 19821 08e4 73746D33 		.ascii	"stm32_otg_out_ep_t\000"
 19821      325F6F74 
 19821      675F6F75 
 19821      745F6570 
 19821      5F7400
 19822              	.LASF642:
 19823 08f7 47525853 		.ascii	"GRXSTSP\000"
 19823      54535000 
 19824              	.LASF641:
 19825 08ff 47525853 		.ascii	"GRXSTSR\000"
 19825      54535200 
 19826              	.LASF218:
 19827 0907 65786974 		.ascii	"exitcode\000"
 19827      636F6465 
 19827      00
 19828              	.LASF162:
 19829 0910 4D314152 		.ascii	"M1AR\000"
 19829      00
 19830              	.LASF581:
 19831 0915 77616974 		.ascii	"wait\000"
 19831      00
 19832              	.LASF163:
 19833 091a 444D415F 		.ascii	"DMA_Stream_TypeDef\000"
 19833      53747265 
 19833      616D5F54 
 19833      79706544 
 19833      656600
 19834              	.LASF588:
 19835 092d 5553425F 		.ascii	"USB_ACTIVE\000"
 19835      41435449 
 19835      564500
 19836              	.LASF767:
 19837 0938 6F707472 		.ascii	"optreset\000"
 19837      65736574 
 19837      00
 19838              	.LASF629:
 19839 0941 73746D33 		.ascii	"stm32_otg_in_ep_t\000"
 19839      325F6F74 
 19839      675F696E 
 19839      5F65705F 
 19839      7400
 19840              	.LASF702:
 19841 0953 7278636E 		.ascii	"rxcnt\000"
 19841      7400
 19842              	.LASF330:
 19843 0959 4144435F 		.ascii	"ADC_UNINIT\000"
 19843      554E494E 
 19843      495400
 19844              	.LASF478:
 19845 0964 7278646D 		.ascii	"rxdmamode\000"
 19845      616D6F64 
 19845      6500
 19846              	.LASF842:
ARM GAS  C:\Users\adrie\AppData\Local\Temp\ccgB8szF.s 			page 358


 19847 096e 5F726573 		.ascii	"_result_k\000"
 19847      756C745F 
 19847      6B00
 19848              	.LASF422:
 19849 0978 6D6F6465 		.ascii	"mode\000"
 19849      00
 19850              	.LASF834:
 19851 097d 5F737464 		.ascii	"_stderr\000"
 19851      65727200 
 19852              	.LASF841:
 19853 0985 5F726573 		.ascii	"_result\000"
 19853      756C7400 
 19854              	.LASF231:
 19855 098d 6D5F636E 		.ascii	"m_cnt\000"
 19855      7400
 19856              	.LASF419:
 19857 0993 45585444 		.ascii	"EXTDriver\000"
 19857      72697665 
 19857      7200
 19858              	.LASF246:
 19859 099d 63665F6F 		.ascii	"cf_off_state\000"
 19859      66665F73 
 19859      74617465 
 19859      00
 19860              	.LASF490:
 19861 09aa 69327363 		.ascii	"i2scallback_t\000"
 19861      616C6C62 
 19861      61636B5F 
 19861      7400
 19862              	.LASF562:
 19863 09b8 73737061 		.ascii	"sspad\000"
 19863      6400
 19864              	.LASF479:
 19865 09be 7478646D 		.ascii	"txdmamode\000"
 19865      616D6F64 
 19865      6500
 19866              	.LASF902:
 19867 09c8 6275665F 		.ascii	"buf_dim\000"
 19867      64696D00 
 19868              	.LASF446:
 19869 09d0 67707466 		.ascii	"gptfreq_t\000"
 19869      7265715F 
 19869      7400
 19870              	.LASF799:
 19871 09da 5F5F746D 		.ascii	"__tm_wday\000"
 19871      5F776461 
 19871      7900
 19872              	.LASF928:
 19873 09e4 5F5F6664 		.ascii	"__fdlibm_posix\000"
 19873      6C69626D 
 19873      5F706F73 
 19873      697800
 19874              	.LASF796:
 19875 09f3 5F5F746D 		.ascii	"__tm_mday\000"
 19875      5F6D6461 
 19875      7900
 19876              	.LASF906:
ARM GAS  C:\Users\adrie\AppData\Local\Temp\ccgB8szF.s 			page 359


 19877 09fd 75736263 		.ascii	"usbcfg\000"
 19877      666700
 19878              	.LASF687:
 19879 0a04 72785F66 		.ascii	"rx_fifo_size\000"
 19879      69666F5F 
 19879      73697A65 
 19879      00
 19880              	.LASF193:
 19881 0a11 73746B61 		.ascii	"stkalign_t\000"
 19881      6C69676E 
 19881      5F7400
 19882              	.LASF401:
 19883 0a1c 4441435F 		.ascii	"DAC_ERR_UNDERFLOW\000"
 19883      4552525F 
 19883      554E4445 
 19883      52464C4F 
 19883      5700
 19884              	.LASF382:
 19885 0a2e 77616B65 		.ascii	"wakeup_event\000"
 19885      75705F65 
 19885      76656E74 
 19885      00
 19886              	.LASF78:
 19887 0a3b 76745F70 		.ascii	"vt_prev\000"
 19887      72657600 
 19888              	.LASF800:
 19889 0a43 5F5F746D 		.ascii	"__tm_yday\000"
 19889      5F796461 
 19889      7900
 19890              	.LASF356:
 19891 0a4d 656E645F 		.ascii	"end_cb\000"
 19891      636200
 19892              	.LASF1015:
 19893 0a54 63685468 		.ascii	"chThdCreateStatic\000"
 19893      64437265 
 19893      61746553 
 19893      74617469 
 19893      6300
 19894              	.LASF705:
 19895 0a66 73657475 		.ascii	"setup_cb\000"
 19895      705F6362 
 19895      00
 19896              	.LASF8:
 19897 0a6f 756E7369 		.ascii	"unsigned char\000"
 19897      676E6564 
 19897      20636861 
 19897      7200
 19898              	.LASF833:
 19899 0a7d 5F737464 		.ascii	"_stdout\000"
 19899      6F757400 
 19900              	.LASF182:
 19901 0a85 4649464F 		.ascii	"FIFO\000"
 19901      00
 19902              	.LASF946:
 19903 0a8a 6D69634C 		.ascii	"micLeft_output\000"
 19903      6566745F 
 19903      6F757470 
ARM GAS  C:\Users\adrie\AppData\Local\Temp\ccgB8szF.s 			page 360


 19903      757400
 19904              	.LASF203:
 19905 0a99 74625F62 		.ascii	"tb_buffer\000"
 19905      75666665 
 19905      7200
 19906              	.LASF376:
 19907 0aa3 74787175 		.ascii	"txqueue\000"
 19907      65756500 
 19908              	.LASF153:
 19909 0aab 52495352 		.ascii	"RISR\000"
 19909      00
 19910              	.LASF226:
 19911 0ab0 735F636E 		.ascii	"s_cnt\000"
 19911      7400
 19912              	.LASF66:
 19913 0ab6 72656164 		.ascii	"ready_list_t\000"
 19913      795F6C69 
 19913      73745F74 
 19913      00
 19914              	.LASF62:
 19915 0ac3 63685F74 		.ascii	"ch_thread\000"
 19915      68726561 
 19915      6400
 19916              	.LASF465:
 19917 0acd 4F504D4F 		.ascii	"OPMODE_SMBUS_HOST\000"
 19917      44455F53 
 19917      4D425553 
 19917      5F484F53 
 19917      5400
 19918              	.LASF907:
 19919 0adf 73657275 		.ascii	"serusbcfg\000"
 19919      73626366 
 19919      6700
 19920              	.LASF875:
 19921 0ae9 5F6D6273 		.ascii	"_mbsrtowcs_state\000"
 19921      72746F77 
 19921      63735F73 
 19921      74617465 
 19921      00
 19922              	.LASF583:
 19923 0afa 75736265 		.ascii	"usbep_t\000"
 19923      705F7400 
 19924              	.LASF791:
 19925 0b02 5F776473 		.ascii	"_wds\000"
 19925      00
 19926              	.LASF0:
 19927 0b07 666C6F61 		.ascii	"float\000"
 19927      7400
 19928              	.LASF415:
 19929 0b0d 4558545F 		.ascii	"EXT_UNINIT\000"
 19929      554E494E 
 19929      495400
 19930              	.LASF373:
 19931 0b18 43414E5F 		.ascii	"CAN_SLEEP\000"
 19931      534C4545 
 19931      5000
 19932              	.LASF199:
ARM GAS  C:\Users\adrie\AppData\Local\Temp\ccgB8szF.s 			page 361


 19933 0b22 73655F73 		.ascii	"se_state\000"
 19933      74617465 
 19933      00
 19934              	.LASF369:
 19935 0b2b 43414E5F 		.ascii	"CAN_UNINIT\000"
 19935      554E494E 
 19935      495400
 19936              	.LASF552:
 19937 0b36 53444344 		.ascii	"SDCD1\000"
 19937      3100
 19938              	.LASF85:
 19939 0b3c 73797374 		.ascii	"system_debug_t\000"
 19939      656D5F64 
 19939      65627567 
 19939      5F7400
 19940              	.LASF143:
 19941 0b4b 44485238 		.ascii	"DHR8R1\000"
 19941      523100
 19942              	.LASF146:
 19943 0b52 44485238 		.ascii	"DHR8R2\000"
 19943      523200
 19944              	.LASF437:
 19945 0b59 44494552 		.ascii	"DIER\000"
 19945      00
 19946              	.LASF780:
 19947 0b5e 68656164 		.ascii	"head\000"
 19947      00
 19948              	.LASF42:
 19949 0b63 705F6374 		.ascii	"p_ctx\000"
 19949      7800
 19950              	.LASF81:
 19951 0b69 76745F70 		.ascii	"vt_par\000"
 19951      617200
 19952              	.LASF102:
 19953 0b70 4A4F4652 		.ascii	"JOFR1\000"
 19953      3100
 19954              	.LASF103:
 19955 0b76 4A4F4652 		.ascii	"JOFR2\000"
 19955      3200
 19956              	.LASF104:
 19957 0b7c 4A4F4652 		.ascii	"JOFR3\000"
 19957      3300
 19958              	.LASF105:
 19959 0b82 4A4F4652 		.ascii	"JOFR4\000"
 19959      3400
 19960              	.LASF73:
 19961 0b88 725F6375 		.ascii	"r_current\000"
 19961      7272656E 
 19961      7400
 19962              	.LASF1034:
 19963 0b92 61756469 		.ascii	"audio_processing.c\000"
 19963      6F5F7072 
 19963      6F636573 
 19963      73696E67 
 19963      2E6300
 19964              	.LASF819:
 19965 0ba5 5F777269 		.ascii	"_write\000"
ARM GAS  C:\Users\adrie\AppData\Local\Temp\ccgB8szF.s 			page 362


 19965      746500
 19966              	.LASF186:
 19967 0bac 54584352 		.ascii	"TXCRCR\000"
 19967      435200
 19968              	.LASF408:
 19969 0bb3 64616364 		.ascii	"dacdhrmode_t\000"
 19969      68726D6F 
 19969      64655F74 
 19969      00
 19970              	.LASF922:
 19971 0bc0 46524F4E 		.ascii	"FRONT\000"
 19971      5400
 19972              	.LASF350:
 19973 0bc6 646D6173 		.ascii	"dmastp\000"
 19973      747000
 19974              	.LASF771:
 19975 0bcd 6C6F636B 		.ascii	"lock\000"
 19975      00
 19976              	.LASF469:
 19977 0bd2 46415354 		.ascii	"FAST_DUTY_CYCLE_16_9\000"
 19977      5F445554 
 19977      595F4359 
 19977      434C455F 
 19977      31365F39 
 19978              	.LASF812:
 19979 0be7 5F73697A 		.ascii	"_size\000"
 19979      6500
 19980              	.LASF24:
 19981 0bed 75696E74 		.ascii	"uint64_t\000"
 19981      36345F74 
 19981      00
 19982              	.LASF213:
 19983 0bf6 6E5F6374 		.ascii	"n_ctxswc\000"
 19983      78737763 
 19983      00
 19984              	.LASF976:
 19985 0bff 6D61785F 		.ascii	"max_norm_index\000"
 19985      6E6F726D 
 19985      5F696E64 
 19985      657800
 19986              	.LASF252:
 19987 0c0e 63685F64 		.ascii	"ch_debug\000"
 19987      65627567 
 19987      00
 19988              	.LASF959:
 19989 0c17 676F616C 		.ascii	"goal\000"
 19989      00
 19990              	.LASF411:
 19991 0c1c 696E6974 		.ascii	"init\000"
 19991      00
 19992              	.LASF130:
 19993 0c21 464D3152 		.ascii	"FM1R\000"
 19993      00
 19994              	.LASF794:
 19995 0c26 5F5F746D 		.ascii	"__tm_min\000"
 19995      5F6D696E 
 19995      00
ARM GAS  C:\Users\adrie\AppData\Local\Temp\ccgB8szF.s 			page 363


 19996              	.LASF327:
 19997 0c2f 50414C43 		.ascii	"PALConfig\000"
 19997      6F6E6669 
 19997      6700
 19998              	.LASF696:
 19999 0c39 7478636E 		.ascii	"txcnt\000"
 19999      7400
 20000              	.LASF891:
 20001 0c3f 73756273 		.ascii	"subspaces\000"
 20001      70616365 
 20001      7300
 20002              	.LASF610:
 20003 0c49 75736265 		.ascii	"usbeventcb_t\000"
 20003      76656E74 
 20003      63625F74 
 20003      00
 20004              	.LASF289:
 20005 0c56 424C4B5F 		.ascii	"BLK_ACTIVE\000"
 20005      41435449 
 20005      564500
 20006              	.LASF798:
 20007 0c61 5F5F746D 		.ascii	"__tm_year\000"
 20007      5F796561 
 20007      7200
 20008              	.LASF257:
 20009 0c6b 6576656E 		.ascii	"event_listener_t\000"
 20009      745F6C69 
 20009      7374656E 
 20009      65725F74 
 20009      00
 20010              	.LASF824:
 20011 0c7c 5F626C6B 		.ascii	"_blksize\000"
 20011      73697A65 
 20011      00
 20012              	.LASF688:
 20013 0c85 6F74675F 		.ascii	"otg_ram_size\000"
 20013      72616D5F 
 20013      73697A65 
 20013      00
 20014              	.LASF690:
 20015 0c92 73746D33 		.ascii	"stm32_otg_params_t\000"
 20015      325F6F74 
 20015      675F7061 
 20015      72616D73 
 20015      5F7400
 20016              	.LASF683:
 20017 0ca5 72657376 		.ascii	"resvdD00\000"
 20017      64443030 
 20017      00
 20018              	.LASF185:
 20019 0cae 52584352 		.ascii	"RXCRCR\000"
 20019      435200
 20020              	.LASF699:
 20021 0cb5 72786275 		.ascii	"rxbuf\000"
 20021      6600
 20022              	.LASF639:
 20023 0cbb 47494E54 		.ascii	"GINTSTS\000"
ARM GAS  C:\Users\adrie\AppData\Local\Temp\ccgB8szF.s 			page 364


 20023      53545300 
 20024              	.LASF227:
 20025 0cc3 63685F6D 		.ascii	"ch_mutex\000"
 20025      75746578 
 20025      00
 20026              	.LASF379:
 20027 0ccc 7478656D 		.ascii	"txempty_event\000"
 20027      7074795F 
 20027      6576656E 
 20027      7400
 20028              	.LASF721:
 20029 0cda 5344555F 		.ascii	"SDU_UNINIT\000"
 20029      554E494E 
 20029      495400
 20030              	.LASF502:
 20031 0ce5 50574D44 		.ascii	"PWMDriver\000"
 20031      72697665 
 20031      7200
 20032              	.LASF324:
 20033 0cef 50474461 		.ascii	"PGData\000"
 20033      746100
 20034              	.LASF964:
 20035 0cf6 76616C65 		.ascii	"valeur\000"
 20035      757200
 20036              	.LASF511:
 20037 0cfd 50574D43 		.ascii	"PWMConfig\000"
 20037      6F6E6669 
 20037      6700
 20038              	.LASF873:
 20039 0d07 5F6D6272 		.ascii	"_mbrlen_state\000"
 20039      6C656E5F 
 20039      73746174 
 20039      6500
 20040              	.LASF952:
 20041 0d15 74696D65 		.ascii	"time\000"
 20041      00
 20042              	.LASF898:
 20043 0d1a 76616C75 		.ascii	"value\000"
 20043      6500
 20044              	.LASF242:
 20045 0d20 63665F6F 		.ascii	"cf_off_newer\000"
 20045      66665F6E 
 20045      65776572 
 20045      00
 20046              	.LASF668:
 20047 0d2d 44494550 		.ascii	"DIEPMSK\000"
 20047      4D534B00 
 20048              	.LASF635:
 20049 0d35 474F5447 		.ascii	"GOTGINT\000"
 20049      494E5400 
 20050              	.LASF707:
 20051 0d3d 6F75745F 		.ascii	"out_cb\000"
 20051      636200
 20052              	.LASF659:
 20053 0d44 4841494E 		.ascii	"HAINTMSK\000"
 20053      544D534B 
 20053      00
ARM GAS  C:\Users\adrie\AppData\Local\Temp\ccgB8szF.s 			page 365


 20054              	.LASF569:
 20055 0d4d 6F75745F 		.ascii	"out_params\000"
 20055      70617261 
 20055      6D7300
 20056              	.LASF198:
 20057 0d58 73655F77 		.ascii	"se_wtobjp\000"
 20057      746F626A 
 20057      7000
 20058              	.LASF109:
 20059 0d62 4A535152 		.ascii	"JSQR\000"
 20059      00
 20060              	.LASF832:
 20061 0d67 5F737464 		.ascii	"_stdin\000"
 20061      696E00
 20062              	.LASF880:
 20063 0d6e 5F6E6D61 		.ascii	"_nmalloc\000"
 20063      6C6C6F63 
 20063      00
 20064              	.LASF449:
 20065 0d77 64696572 		.ascii	"dier\000"
 20065      00
 20066              	.LASF547:
 20067 0d7c 69735F70 		.ascii	"is_protected\000"
 20067      726F7465 
 20067      63746564 
 20067      00
 20068              	.LASF75:
 20069 0d89 76697274 		.ascii	"virtual_timer_t\000"
 20069      75616C5F 
 20069      74696D65 
 20069      725F7400 
 20070              	.LASF709:
 20071 0d99 6F75745F 		.ascii	"out_maxsize\000"
 20071      6D617873 
 20071      697A6500 
 20072              	.LASF70:
 20073 0da5 725F6374 		.ascii	"r_ctx\000"
 20073      7800
 20074              	.LASF77:
 20075 0dab 76745F6E 		.ascii	"vt_next\000"
 20075      65787400 
 20076              	.LASF484:
 20077 0db3 4932535F 		.ascii	"I2S_STOP\000"
 20077      53544F50 
 20077      00
 20078              	.LASF499:
 20079 0dbc 50574D5F 		.ascii	"PWM_STOP\000"
 20079      53544F50 
 20079      00
 20080              	.LASF945:
 20081 0dc5 6D696342 		.ascii	"micBack_cmplx_input\000"
 20081      61636B5F 
 20081      636D706C 
 20081      785F696E 
 20081      70757400 
 20082              	.LASF25:
 20083 0dd9 7274636E 		.ascii	"rtcnt_t\000"
ARM GAS  C:\Users\adrie\AppData\Local\Temp\ccgB8szF.s 			page 366


 20083      745F7400 
 20084              	.LASF349:
 20085 0de1 6D757465 		.ascii	"mutex\000"
 20085      7800
 20086              	.LASF493:
 20087 0de7 73697A65 		.ascii	"size\000"
 20087      00
 20088              	.LASF965:
 20089 0dec 6D61785F 		.ascii	"max_right\000"
 20089      72696768 
 20089      7400
 20090              	.LASF397:
 20091 0df6 44414344 		.ascii	"DACDriver\000"
 20091      72697665 
 20091      7200
 20092              	.LASF413:
 20093 0e00 44414343 		.ascii	"DACConfig\000"
 20093      6F6E6669 
 20093      6700
 20094              	.LASF580:
 20095 0e0a 74787065 		.ascii	"txpending\000"
 20095      6E64696E 
 20095      6700
 20096              	.LASF434:
 20097 0e14 636C6F63 		.ascii	"clock\000"
 20097      6B00
 20098              	.LASF301:
 20099 0e1a 636C6561 		.ascii	"clear\000"
 20099      7200
 20100              	.LASF444:
 20101 0e20 43435852 		.ascii	"CCXR\000"
 20101      00
 20102              	.LASF973:
 20103 0e25 77616974 		.ascii	"wait_send_to_computer\000"
 20103      5F73656E 
 20103      645F746F 
 20103      5F636F6D 
 20103      70757465 
 20104              	.LASF139:
 20105 0e3b 43414E5F 		.ascii	"CAN_TypeDef\000"
 20105      54797065 
 20105      44656600 
 20106              	.LASF753:
 20107 0e47 5F6F6666 		.ascii	"_off_t\000"
 20107      5F7400
 20108              	.LASF200:
 20109 0e4e 63685F73 		.ascii	"ch_swc_event_t\000"
 20109      77635F65 
 20109      76656E74 
 20109      5F7400
 20110              	.LASF517:
 20111 0e5d 53445F53 		.ascii	"SD_STOP\000"
 20111      544F5000 
 20112              	.LASF614:
 20113 0e65 72657376 		.ascii	"resvd8\000"
 20113      643800
 20114              	.LASF6:
ARM GAS  C:\Users\adrie\AppData\Local\Temp\ccgB8szF.s 			page 367


 20115 0e6c 73697A65 		.ascii	"size_t\000"
 20115      5F7400
 20116              	.LASF96:
 20117 0e73 6B65726E 		.ascii	"kernel_stats\000"
 20117      656C5F73 
 20117      74617473 
 20117      00
 20118              	.LASF681:
 20119 0e80 72657376 		.ascii	"resvd880\000"
 20119      64383830 
 20119      00
 20120              	.LASF905:
 20121 0e89 70617261 		.ascii	"parameter_root\000"
 20121      6D657465 
 20121      725F726F 
 20121      6F7400
 20122              	.LASF758:
 20123 0e98 5F5F636F 		.ascii	"__count\000"
 20123      756E7400 
 20124              	.LASF19:
 20125 0ea0 75696E74 		.ascii	"uint8_t\000"
 20125      385F7400 
 20126              	.LASF618:
 20127 0ea8 72657376 		.ascii	"resvd14\000"
 20127      64313400 
 20128              	.LASF619:
 20129 0eb0 72657376 		.ascii	"resvd18\000"
 20129      64313800 
 20130              	.LASF72:
 20131 0eb8 725F6F6C 		.ascii	"r_older\000"
 20131      64657200 
 20132              	.LASF40:
 20133 0ec0 705F7072 		.ascii	"p_prev\000"
 20133      657600
 20134              	.LASF244:
 20135 0ec7 63665F6F 		.ascii	"cf_off_name\000"
 20135      66665F6E 
 20135      616D6500 
 20136              	.LASF510:
 20137 0ed3 50574D43 		.ascii	"PWMChannelConfig\000"
 20137      68616E6E 
 20137      656C436F 
 20137      6E666967 
 20137      00
 20138              	.LASF509:
 20139 0ee4 70776D63 		.ascii	"pwmcnt_t\000"
 20139      6E745F74 
 20139      00
 20140              	.LASF677:
 20141 0eed 44494550 		.ascii	"DIEPEMPMSK\000"
 20141      454D504D 
 20141      534B00
 20142              	.LASF916:
 20143 0ef8 52494748 		.ascii	"RIGHT_OUTPUT\000"
 20143      545F4F55 
 20143      54505554 
 20143      00
ARM GAS  C:\Users\adrie\AppData\Local\Temp\ccgB8szF.s 			page 368


 20144              	.LASF746:
 20145 0f05 64636D69 		.ascii	"dcmicallback_t\000"
 20145      63616C6C 
 20145      6261636B 
 20145      5F7400
 20146              	.LASF622:
 20147 0f14 44494550 		.ascii	"DIEPCTL\000"
 20147      43544C00 
 20148              	.LASF263:
 20149 0f1c 656C5F77 		.ascii	"el_wflags\000"
 20149      666C6167 
 20149      7300
 20150              	.LASF578:
 20151 0f26 6F746770 		.ascii	"otgparams\000"
 20151      6172616D 
 20151      7300
 20152              	.LASF201:
 20153 0f30 74625F73 		.ascii	"tb_size\000"
 20153      697A6500 
 20154              	.LASF321:
 20155 0f38 50444461 		.ascii	"PDData\000"
 20155      746100
 20156              	.LASF542:
 20157 0f3f 73637261 		.ascii	"scratchpad\000"
 20157      74636870 
 20157      616400
 20158              	.LASF846:
 20159 0f4a 5F637674 		.ascii	"_cvtbuf\000"
 20159      62756600 
 20160              	.LASF711:
 20161 0f52 6F75745F 		.ascii	"out_state\000"
 20161      73746174 
 20161      6500
 20162              	.LASF267:
 20163 0f5c 696F5F71 		.ascii	"io_queue_t\000"
 20163      75657565 
 20163      5F7400
 20164              	.LASF836:
 20165 0f67 5F656D65 		.ascii	"_emergency\000"
 20165      7267656E 
 20165      637900
 20166              	.LASF558:
 20167 0f72 73706973 		.ascii	"spistate_t\000"
 20167      74617465 
 20167      5F7400
 20168              	.LASF455:
 20169 0f7d 4932435F 		.ascii	"I2C_STOP\000"
 20169      53544F50 
 20169      00
 20170              	.LASF988:
 20171 0f86 63616C63 		.ascii	"calcul_distance\000"
 20171      756C5F64 
 20171      69737461 
 20171      6E636500 
 20172              	.LASF477:
 20173 0f96 61646472 		.ascii	"addr\000"
 20173      00
ARM GAS  C:\Users\adrie\AppData\Local\Temp\ccgB8szF.s 			page 369


 20174              	.LASF124:
 20175 0f9b 52463052 		.ascii	"RF0R\000"
 20175      00
 20176              	.LASF339:
 20177 0fa0 4144435F 		.ascii	"ADC_ERR_DMAFAILURE\000"
 20177      4552525F 
 20177      444D4146 
 20177      41494C55 
 20177      524500
 20178              	.LASF556:
 20179 0fb3 5350495F 		.ascii	"SPI_ACTIVE\000"
 20179      41435449 
 20179      564500
 20180              	.LASF762:
 20181 0fbe 656E7669 		.ascii	"environ\000"
 20181      726F6E00 
 20182              	.LASF423:
 20183 0fc6 45585443 		.ascii	"EXTChannelConfig\000"
 20183      68616E6E 
 20183      656C436F 
 20183      6E666967 
 20183      00
 20184              	.LASF304:
 20185 0fd7 4F535045 		.ascii	"OSPEEDR\000"
 20185      45445200 
 20186              	.LASF387:
 20187 0fdf 4441435F 		.ascii	"DAC_READY\000"
 20187      52454144 
 20187      5900
 20188              	.LASF646:
 20189 0fe9 72657376 		.ascii	"resvd30\000"
 20189      64333000 
 20190              	.LASF757:
 20191 0ff1 5F5F7763 		.ascii	"__wchb\000"
 20191      686200
 20192              	.LASF647:
 20193 0ff8 72657376 		.ascii	"resvd34\000"
 20193      64333400 
 20194              	.LASF675:
 20195 1000 44564255 		.ascii	"DVBUSPULSE\000"
 20195      5350554C 
 20195      534500
 20196              	.LASF795:
 20197 100b 5F5F746D 		.ascii	"__tm_hour\000"
 20197      5F686F75 
 20197      7200
 20198              	.LASF288:
 20199 1015 424C4B5F 		.ascii	"BLK_STOP\000"
 20199      53544F50 
 20199      00
 20200              	.LASF525:
 20201 101e 53657269 		.ascii	"SerialDriverVMT\000"
 20201      616C4472 
 20201      69766572 
 20201      564D5400 
 20202              	.LASF596:
 20203 102e 5553425F 		.ascii	"USB_EP0_ERROR\000"
ARM GAS  C:\Users\adrie\AppData\Local\Temp\ccgB8szF.s 			page 370


 20203      4550305F 
 20203      4552524F 
 20203      5200
 20204              	.LASF1030:
 20205 103c 61726D5F 		.ascii	"arm_cmplx_mag_f32\000"
 20205      636D706C 
 20205      785F6D61 
 20205      675F6633 
 20205      3200
 20206              	.LASF999:
 20207 104e 6D6F7965 		.ascii	"moyenne_left\000"
 20207      6E6E655F 
 20207      6C656674 
 20207      00
 20208              	.LASF755:
 20209 105b 77696E74 		.ascii	"wint_t\000"
 20209      5F7400
 20210              	.LASF548:
 20211 1062 636F6E6E 		.ascii	"connect\000"
 20211      65637400 
 20212              	.LASF125:
 20213 106a 52463152 		.ascii	"RF1R\000"
 20213      00
 20214              	.LASF342:
 20215 106f 41444344 		.ascii	"ADCDriver\000"
 20215      72697665 
 20215      7200
 20216              	.LASF689:
 20217 1079 6E756D5F 		.ascii	"num_endpoints\000"
 20217      656E6470 
 20217      6F696E74 
 20217      7300
 20218              	.LASF365:
 20219 1087 41444343 		.ascii	"ADCConfig\000"
 20219      6F6E6669 
 20219      6700
 20220              	.LASF697:
 20221 1091 746F7473 		.ascii	"totsize\000"
 20221      697A6500 
 20222              	.LASF903:
 20223 1099 5F706172 		.ascii	"_param_val_matrix_s\000"
 20223      616D5F76 
 20223      616C5F6D 
 20223      61747269 
 20223      785F7300 
 20224              	.LASF854:
 20225 10ad 5F6E696F 		.ascii	"_niobs\000"
 20225      627300
 20226              	.LASF518:
 20227 10b4 53445F52 		.ascii	"SD_READY\000"
 20227      45414459 
 20227      00
 20228              	.LASF612:
 20229 10bd 75736267 		.ascii	"usbgetdescriptor_t\000"
 20229      65746465 
 20229      73637269 
 20229      70746F72 
ARM GAS  C:\Users\adrie\AppData\Local\Temp\ccgB8szF.s 			page 371


 20229      5F7400
 20230              	.LASF1033:
 20231 10d0 474E5520 		.ascii	"GNU C11 7.2.1 20170904 (release) [ARM/embedded-7-br"
 20231      43313120 
 20231      372E322E 
 20231      31203230 
 20231      31373039 
 20232 1103 616E6368 		.ascii	"anch revision 255204] -mcpu=cortex-m4 -mfloat-abi=h"
 20232      20726576 
 20232      6973696F 
 20232      6E203235 
 20232      35323034 
 20233 1136 61726420 		.ascii	"ard -mfpu=fpv4-sp-d16 -mno-thumb-interwork -mthumb "
 20233      2D6D6670 
 20233      753D6670 
 20233      76342D73 
 20233      702D6431 
 20234 1169 2D676764 		.ascii	"-ggdb -O2 -fomit-frame-pointer -falign-functions=16"
 20234      62202D4F 
 20234      32202D66 
 20234      6F6D6974 
 20234      2D667261 
 20235 119c 202D666E 		.ascii	" -fno-strict-aliasing -fstack-protector-all -ffunct"
 20235      6F2D7374 
 20235      72696374 
 20235      2D616C69 
 20235      6173696E 
 20236 11cf 696F6E2D 		.ascii	"ion-sections -fdata-sections -fno-common -fsingle-p"
 20236      73656374 
 20236      696F6E73 
 20236      202D6664 
 20236      6174612D 
 20237 1202 72656369 		.ascii	"recision-constant\000"
 20237      73696F6E 
 20237      2D636F6E 
 20237      7374616E 
 20237      7400
 20238              	.LASF939:
 20239 1214 6E62725F 		.ascii	"nbr_passage\000"
 20239      70617373 
 20239      61676500 
 20240              	.LASF390:
 20241 1220 4441435F 		.ascii	"DAC_ERROR\000"
 20241      4552524F 
 20241      5200
 20242              	.LASF831:
 20243 122a 5F657272 		.ascii	"_errno\000"
 20243      6E6F00
 20244              	.LASF782:
 20245 1231 6D657373 		.ascii	"messagebus_t\000"
 20245      61676562 
 20245      75735F74 
 20245      00
 20246              	.LASF591:
 20247 123e 5553425F 		.ascii	"USB_EP0_TX\000"
 20247      4550305F 
 20247      545800
ARM GAS  C:\Users\adrie\AppData\Local\Temp\ccgB8szF.s 			page 372


 20248              	.LASF570:
 20249 1249 65703073 		.ascii	"ep0state\000"
 20249      74617465 
 20249      00
 20250              	.LASF894:
 20251 1252 70617261 		.ascii	"parameter_s\000"
 20251      6D657465 
 20251      725F7300 
 20252              	.LASF768:
 20253 125e 746F7069 		.ascii	"topic_s\000"
 20253      635F7300 
 20254              	.LASF281:
 20255 1266 69666372 		.ascii	"ifcr\000"
 20255      00
 20256              	.LASF483:
 20257 126b 4932535F 		.ascii	"I2S_UNINIT\000"
 20257      554E494E 
 20257      495400
 20258              	.LASF727:
 20259 1276 62756C6B 		.ascii	"bulk_in\000"
 20259      5F696E00 
 20260              	.LASF310:
 20261 127e 73746D33 		.ascii	"stm32_gpio_t\000"
 20261      325F6770 
 20261      696F5F74 
 20261      00
 20262              	.LASF217:
 20263 128b 7264796D 		.ascii	"rdymsg\000"
 20263      736700
 20264              	.LASF803:
 20265 1292 5F666E61 		.ascii	"_fnargs\000"
 20265      72677300 
 20266              	.LASF500:
 20267 129a 50574D5F 		.ascii	"PWM_READY\000"
 20267      52454144 
 20267      5900
 20268              	.LASF115:
 20269 12a4 54445452 		.ascii	"TDTR\000"
 20269      00
 20270              	.LASF123:
 20271 12a9 43414E5F 		.ascii	"CAN_FilterRegister_TypeDef\000"
 20271      46696C74 
 20271      65725265 
 20271      67697374 
 20271      65725F54 
 20272              	.LASF380:
 20273 12c4 6572726F 		.ascii	"error_event\000"
 20273      725F6576 
 20273      656E7400 
 20274              	.LASF355:
 20275 12d0 6E756D5F 		.ascii	"num_channels\000"
 20275      6368616E 
 20275      6E656C73 
 20275      00
 20276              	.LASF649:
 20277 12dd 72657376 		.ascii	"resvd58\000"
 20277      64353800 
ARM GAS  C:\Users\adrie\AppData\Local\Temp\ccgB8szF.s 			page 373


 20278              	.LASF698:
 20279 12e5 55534249 		.ascii	"USBInEndpointState\000"
 20279      6E456E64 
 20279      706F696E 
 20279      74537461 
 20279      746500
 20280              	.LASF41:
 20281 12f8 705F7072 		.ascii	"p_prio\000"
 20281      696F00
 20282              	.LASF896:
 20283 12ff 64656669 		.ascii	"defined\000"
 20283      6E656400 
 20284              	.LASF268:
 20285 1307 696F5F71 		.ascii	"io_queue\000"
 20285      75657565 
 20285      00
 20286              	.LASF984:
 20287 1310 63616C63 		.ascii	"calcul_angle\000"
 20287      756C5F61 
 20287      6E676C65 
 20287      00
 20288              	.LASF1032:
 20289 131d 7365745F 		.ascii	"set_led\000"
 20289      6C656400 
 20290              	.LASF318:
 20291 1325 50414461 		.ascii	"PAData\000"
 20291      746100
 20292              	.LASF17:
 20293 132c 5F5F7569 		.ascii	"__uint64_t\000"
 20293      6E743634 
 20293      5F7400
 20294              	.LASF788:
 20295 1337 5F6E6578 		.ascii	"_next\000"
 20295      7400
 20296              	.LASF908:
 20297 133d 53445531 		.ascii	"SDU1\000"
 20297      00
 20298              	.LASF990:
 20299 1342 696E7465 		.ascii	"intensite_transition\000"
 20299      6E736974 
 20299      655F7472 
 20299      616E7369 
 20299      74696F6E 
 20300              	.LASF505:
 20301 1357 70776D63 		.ascii	"pwmcallback_t\000"
 20301      616C6C62 
 20301      61636B5F 
 20301      7400
 20302              	.LASF934:
 20303 1365 4E554D5F 		.ascii	"NUM_LED\000"
 20303      4C454400 
 20304              	.LASF398:
 20305 136d 70617261 		.ascii	"params\000"
 20305      6D7300
 20306              	.LASF595:
 20307 1374 5553425F 		.ascii	"USB_EP0_SENDING_STS\000"
 20307      4550305F 
ARM GAS  C:\Users\adrie\AppData\Local\Temp\ccgB8szF.s 			page 374


 20307      53454E44 
 20307      494E475F 
 20307      53545300 
 20308              	.LASF871:
 20309 1388 5F736967 		.ascii	"_signal_buf\000"
 20309      6E616C5F 
 20309      62756600 
 20310              	.LASF729:
 20311 1394 696E745F 		.ascii	"int_in\000"
 20311      696E00
 20312              	.LASF460:
 20313 139b 69326373 		.ascii	"i2cstate_t\000"
 20313      74617465 
 20313      5F7400
 20314              	.LASF817:
 20315 13a6 5F636F6F 		.ascii	"_cookie\000"
 20315      6B696500 
 20316              	.LASF887:
 20317 13ae 70617261 		.ascii	"parameter_namespace_t\000"
 20317      6D657465 
 20317      725F6E61 
 20317      6D657370 
 20317      6163655F 
 20318              	.LASF597:
 20319 13c4 75736265 		.ascii	"usbep0state_t\000"
 20319      70307374 
 20319      6174655F 
 20319      7400
 20320              	.LASF402:
 20321 13d2 64616365 		.ascii	"dacerror_t\000"
 20321      72726F72 
 20321      5F7400
 20322              	.LASF127:
 20323 13dd 7354784D 		.ascii	"sTxMailBox\000"
 20323      61696C42 
 20323      6F7800
 20324              	.LASF337:
 20325 13e8 61646373 		.ascii	"adcsample_t\000"
 20325      616D706C 
 20325      655F7400 
 20326              	.LASF435:
 20327 13f4 67707463 		.ascii	"gptcallback_t\000"
 20327      616C6C62 
 20327      61636B5F 
 20327      7400
 20328              	.LASF271:
 20329 1402 715F6275 		.ascii	"q_buffer\000"
 20329      66666572 
 20329      00
 20330              	.LASF39:
 20331 140b 705F6E65 		.ascii	"p_next\000"
 20331      787400
 20332              	.LASF482:
 20333 1412 49324344 		.ascii	"I2CD1\000"
 20333      3100
 20334              	.LASF623:
 20335 1418 72657376 		.ascii	"resvd4\000"
ARM GAS  C:\Users\adrie\AppData\Local\Temp\ccgB8szF.s 			page 375


 20335      643400
 20336              	.LASF565:
 20337 141f 55534244 		.ascii	"USBDriver\000"
 20337      72697665 
 20337      7200
 20338              	.LASF682:
 20339 1429 72657376 		.ascii	"resvd8C0\000"
 20339      64384330 
 20339      00
 20340              	.LASF719:
 20341 1432 55534243 		.ascii	"USBConfig\000"
 20341      6F6E6669 
 20341      6700
 20342              	.LASF625:
 20343 143c 72657376 		.ascii	"resvdC\000"
 20343      644300
 20344              	.LASF512:
 20345 1443 50574D44 		.ascii	"PWMD2\000"
 20345      3200
 20346              	.LASF513:
 20347 1449 50574D44 		.ascii	"PWMD3\000"
 20347      3300
 20348              	.LASF514:
 20349 144f 50574D44 		.ascii	"PWMD4\000"
 20349      3400
 20350              	.LASF515:
 20351 1455 50574D44 		.ascii	"PWMD5\000"
 20351      3500
 20352              	.LASF998:
 20353 145b 6D6F7965 		.ascii	"moyenne_right\000"
 20353      6E6E655F 
 20353      72696768 
 20353      7400
 20354              	.LASF523:
 20355 1469 6F717565 		.ascii	"oqueue\000"
 20355      756500
 20356              	.LASF29:
 20357 1470 74726566 		.ascii	"trefs_t\000"
 20357      735F7400 
 20358              	.LASF58:
 20359 1478 705F6D70 		.ascii	"p_mpool\000"
 20359      6F6F6C00 
 20360              	.LASF977:
 20361 1480 706F696E 		.ascii	"point\000"
 20361      7400
 20362              	.LASF410:
 20363 1486 44414343 		.ascii	"DACConversionGroup\000"
 20363      6F6E7665 
 20363      7273696F 
 20363      6E47726F 
 20363      757000
 20364              	.LASF157:
 20365 1499 43575354 		.ascii	"CWSTRTR\000"
 20365      52545200 
 20366              	.LASF793:
 20367 14a1 5F5F746D 		.ascii	"__tm_sec\000"
 20367      5F736563 
ARM GAS  C:\Users\adrie\AppData\Local\Temp\ccgB8szF.s 			page 376


 20367      00
 20368              	.LASF712:
 20369 14aa 696E5F6D 		.ascii	"in_multiplier\000"
 20369      756C7469 
 20369      706C6965 
 20369      7200
 20370              	.LASF335:
 20371 14b8 4144435F 		.ascii	"ADC_ERROR\000"
 20371      4552524F 
 20371      5200
 20372              	.LASF802:
 20373 14c2 5F6F6E5F 		.ascii	"_on_exit_args\000"
 20373      65786974 
 20373      5F617267 
 20373      7300
 20374              	.LASF917:
 20375 14d0 46524F4E 		.ascii	"FRONT_OUTPUT\000"
 20375      545F4F55 
 20375      54505554 
 20375      00
 20376              	.LASF914:
 20377 14dd 4241434B 		.ascii	"BACK_CMPLX_INPUT\000"
 20377      5F434D50 
 20377      4C585F49 
 20377      4E505554 
 20377      00
 20378              	.LASF863:
 20379 14ee 5F6C6F63 		.ascii	"_localtime_buf\000"
 20379      616C7469 
 20379      6D655F62 
 20379      756600
 20380              	.LASF27:
 20381 14fd 746D6F64 		.ascii	"tmode_t\000"
 20381      655F7400 
 20382              	.LASF741:
 20383 1505 44434D49 		.ascii	"DCMI_ERROR\000"
 20383      5F455252 
 20383      4F5200
 20384              	.LASF333:
 20385 1510 4144435F 		.ascii	"ADC_ACTIVE\000"
 20385      41435449 
 20385      564500
 20386              	.LASF811:
 20387 151b 5F626173 		.ascii	"_base\000"
 20387      6500
 20388              	.LASF106:
 20389 1521 53515231 		.ascii	"SQR1\000"
 20389      00
 20390              	.LASF107:
 20391 1526 53515232 		.ascii	"SQR2\000"
 20391      00
 20392              	.LASF108:
 20393 152b 53515233 		.ascii	"SQR3\000"
 20393      00
 20394              	.LASF306:
 20395 1530 42535252 		.ascii	"BSRR\000"
 20395      00
ARM GAS  C:\Users\adrie\AppData\Local\Temp\ccgB8szF.s 			page 377


 20396              	.LASF285:
 20397 1535 73746D33 		.ascii	"stm32_dma_stream_t\000"
 20397      325F646D 
 20397      615F7374 
 20397      7265616D 
 20397      5F7400
 20398              	.LASF717:
 20399 1548 72657175 		.ascii	"requests_hook_cb\000"
 20399      65737473 
 20399      5F686F6F 
 20399      6B5F6362 
 20399      00
 20400              	.LASF876:
 20401 1559 5F776372 		.ascii	"_wcrtomb_state\000"
 20401      746F6D62 
 20401      5F737461 
 20401      746500
 20402              	.LASF534:
 20403 1568 5344435F 		.ascii	"SDC_MODE_8BIT\000"
 20403      4D4F4445 
 20403      5F384249 
 20403      5400
 20404              	.LASF1027:
 20405 1576 63685365 		.ascii	"chSemSignalI\000"
 20405      6D536967 
 20405      6E616C49 
 20405      00
 20406              	.LASF695:
 20407 1583 74787369 		.ascii	"txsize\000"
 20407      7A6500
 20408              	.LASF923:
 20409 158a 4241434B 		.ascii	"BACK\000"
 20409      00
 20410              	.LASF406:
 20411 158f 4441435F 		.ascii	"DAC_DHRM_12BIT_LEFT\000"
 20411      4448524D 
 20411      5F313242 
 20411      49545F4C 
 20411      45465400 
 20412              	.LASF911:
 20413 15a3 4C454654 		.ascii	"LEFT_CMPLX_INPUT\000"
 20413      5F434D50 
 20413      4C585F49 
 20413      4E505554 
 20413      00
 20414              	.LASF503:
 20415 15b4 70657269 		.ascii	"period\000"
 20415      6F6400
 20416              	.LASF935:
 20417 15bb 73656E64 		.ascii	"sendToComputer_sem\000"
 20417      546F436F 
 20417      6D707574 
 20417      65725F73 
 20417      656D00
 20418              	.LASF459:
 20419 15ce 4932435F 		.ascii	"I2C_LOCKED\000"
 20419      4C4F434B 
ARM GAS  C:\Users\adrie\AppData\Local\Temp\ccgB8szF.s 			page 378


 20419      454400
 20420              	.LASF1004:
 20421 15d9 63684253 		.ascii	"chBSemSignalI\000"
 20421      656D5369 
 20421      676E616C 
 20421      4900
 20422              	.LASF88:
 20423 15e7 6973725F 		.ascii	"isr_cnt\000"
 20423      636E7400 
 20424              	.LASF586:
 20425 15ef 5553425F 		.ascii	"USB_READY\000"
 20425      52454144 
 20425      5900
 20426              	.LASF531:
 20427 15f9 72656164 		.ascii	"readt\000"
 20427      7400
 20428              	.LASF828:
 20429 15ff 5F6D6273 		.ascii	"_mbstate\000"
 20429      74617465 
 20429      00
 20430              	.LASF638:
 20431 1608 47525354 		.ascii	"GRSTCTL\000"
 20431      43544C00 
 20432              	.LASF432:
 20433 1610 67707473 		.ascii	"gptstate_t\000"
 20433      74617465 
 20433      5F7400
 20434              	.LASF786:
 20435 161b 5F5F554C 		.ascii	"__ULong\000"
 20435      6F6E6700 
 20436              	.LASF87:
 20437 1623 70616E69 		.ascii	"panic_msg\000"
 20437      635F6D73 
 20437      6700
 20438              	.LASF557:
 20439 162d 5350495F 		.ascii	"SPI_COMPLETE\000"
 20439      434F4D50 
 20439      4C455445 
 20439      00
 20440              	.LASF924:
 20441 163a 4D494352 		.ascii	"MICRO_NAME\000"
 20441      4F5F4E41 
 20441      4D4500
 20442              	.LASF176:
 20443 1645 4454494D 		.ascii	"DTIMER\000"
 20443      455200
 20444              	.LASF71:
 20445 164c 725F6E65 		.ascii	"r_newer\000"
 20445      77657200 
 20446              	.LASF603:
 20447 1654 5553425F 		.ascii	"USB_EVENT_STALLED\000"
 20447      4556454E 
 20447      545F5354 
 20447      414C4C45 
 20447      4400
 20448              	.LASF251:
 20449 1666 63686465 		.ascii	"chdebug_t\000"
ARM GAS  C:\Users\adrie\AppData\Local\Temp\ccgB8szF.s 			page 379


 20449      6275675F 
 20449      7400
 20450              	.LASF1019:
 20451 1670 5F646267 		.ascii	"_dbg_check_unlock\000"
 20451      5F636865 
 20451      636B5F75 
 20451      6E6C6F63 
 20451      6B00
 20452              	.LASF701:
 20453 1682 72787369 		.ascii	"rxsize\000"
 20453      7A6500
 20454              	.LASF617:
 20455 1689 48435453 		.ascii	"HCTSIZ\000"
 20455      495A00
 20456              	.LASF600:
 20457 1690 5553425F 		.ascii	"USB_EVENT_CONFIGURED\000"
 20457      4556454E 
 20457      545F434F 
 20457      4E464947 
 20457      55524544 
 20458              	.LASF549:
 20459 16a5 64697363 		.ascii	"disconnect\000"
 20459      6F6E6E65 
 20459      637400
 20460              	.LASF766:
 20461 16b0 6F70746F 		.ascii	"optopt\000"
 20461      707400
 20462              	.LASF528:
 20463 16b7 70757474 		.ascii	"putt\000"
 20463      00
 20464              	.LASF30:
 20465 16bc 74736C69 		.ascii	"tslices_t\000"
 20465      6365735F 
 20465      7400
 20466              	.LASF861:
 20467 16c6 5F737472 		.ascii	"_strtok_last\000"
 20467      746F6B5F 
 20467      6C617374 
 20467      00
 20468              	.LASF238:
 20469 16d3 63685F74 		.ascii	"ch_timesize\000"
 20469      696D6573 
 20469      697A6500 
 20470              	.LASF944:
 20471 16df 6D696346 		.ascii	"micFront_cmplx_input\000"
 20471      726F6E74 
 20471      5F636D70 
 20471      6C785F69 
 20471      6E707574 
 20472              	.LASF582:
 20473 16f4 77615F70 		.ascii	"wa_pump\000"
 20473      756D7000 
 20474              	.LASF181:
 20475 16fc 4649464F 		.ascii	"FIFOCNT\000"
 20475      434E5400 
 20476              	.LASF266:
 20477 1704 6576656E 		.ascii	"event_source_t\000"
ARM GAS  C:\Users\adrie\AppData\Local\Temp\ccgB8szF.s 			page 380


 20477      745F736F 
 20477      75726365 
 20477      5F7400
 20478              	.LASF652:
 20479 1713 72657376 		.ascii	"resvd140\000"
 20479      64313430 
 20479      00
 20480              	.LASF79:
 20481 171c 76745F64 		.ascii	"vt_delta\000"
 20481      656C7461 
 20481      00
 20482              	.LASF857:
 20483 1725 5F736565 		.ascii	"_seed\000"
 20483      6400
 20484              	.LASF202:
 20485 172b 74625F70 		.ascii	"tb_ptr\000"
 20485      747200
 20486              	.LASF409:
 20487 1732 74726967 		.ascii	"trigger\000"
 20487      67657200 
 20488              	.LASF820:
 20489 173a 5F736565 		.ascii	"_seek\000"
 20489      6B00
 20490              	.LASF601:
 20491 1740 5553425F 		.ascii	"USB_EVENT_SUSPEND\000"
 20491      4556454E 
 20491      545F5355 
 20491      5350454E 
 20491      4400
 20492              	.LASF20:
 20493 1752 696E7431 		.ascii	"int16_t\000"
 20493      365F7400 
 20494              	.LASF428:
 20495 175a 4750545F 		.ascii	"GPT_STOP\000"
 20495      53544F50 
 20495      00
 20496              	.LASF114:
 20497 1763 4144435F 		.ascii	"ADC_TypeDef\000"
 20497      54797065 
 20497      44656600 
 20498              	.LASF12:
 20499 176f 73686F72 		.ascii	"short unsigned int\000"
 20499      7420756E 
 20499      7369676E 
 20499      65642069 
 20499      6E7400
 20500              	.LASF471:
 20501 1782 6F705F6D 		.ascii	"op_mode\000"
 20501      6F646500 
 20502              	.LASF5:
 20503 178a 7369676E 		.ascii	"signed char\000"
 20503      65642063 
 20503      68617200 
 20504              	.LASF893:
 20505 1796 70617261 		.ascii	"parameter_t\000"
 20505      6D657465 
 20505      725F7400 
ARM GAS  C:\Users\adrie\AppData\Local\Temp\ccgB8szF.s 			page 381


 20506              	.LASF540:
 20507 17a2 63617264 		.ascii	"cardmode\000"
 20507      6D6F6465 
 20507      00
 20508              	.LASF50:
 20509 17ab 705F7072 		.ascii	"p_preempt\000"
 20509      65656D70 
 20509      7400
 20510              	.LASF36:
 20511 17b5 75636E74 		.ascii	"ucnt_t\000"
 20511      5F7400
 20512              	.LASF117:
 20513 17bc 54444852 		.ascii	"TDHR\000"
 20513      00
 20514              	.LASF331:
 20515 17c1 4144435F 		.ascii	"ADC_STOP\000"
 20515      53544F50 
 20515      00
 20516              	.LASF594:
 20517 17ca 5553425F 		.ascii	"USB_EP0_RX\000"
 20517      4550305F 
 20517      525800
 20518              	.LASF925:
 20519 17d5 5F5F6664 		.ascii	"__fdlibm_ieee\000"
 20519      6C69626D 
 20519      5F696565 
 20519      6500
 20520              	.LASF506:
 20521 17e3 70776D6D 		.ascii	"pwmmode_t\000"
 20521      6F64655F 
 20521      7400
 20522              	.LASF575:
 20523 17ed 73746174 		.ascii	"status\000"
 20523      757300
 20524              	.LASF177:
 20525 17f4 444C454E 		.ascii	"DLEN\000"
 20525      00
 20526              	.LASF533:
 20527 17f9 5344435F 		.ascii	"SDC_MODE_4BIT\000"
 20527      4D4F4445 
 20527      5F344249 
 20527      5400
 20528              	.LASF607:
 20529 1807 55534244 		.ascii	"USBDescriptor\000"
 20529      65736372 
 20529      6970746F 
 20529      7200
 20530              	.LASF560:
 20531 1815 73706963 		.ascii	"spicallback_t\000"
 20531      616C6C62 
 20531      61636B5F 
 20531      7400
 20532              	.LASF1010:
 20533 1823 5F5F6675 		.ascii	"__func__\000"
 20533      6E635F5F 
 20533      00
 20534              	.LASF844:
ARM GAS  C:\Users\adrie\AppData\Local\Temp\ccgB8szF.s 			page 382


 20535 182c 5F667265 		.ascii	"_freelist\000"
 20535      656C6973 
 20535      7400
 20536              	.LASF576:
 20537 1836 61646472 		.ascii	"address\000"
 20537      65737300 
 20538              	.LASF53:
 20539 183e 705F6D73 		.ascii	"p_msgqueue\000"
 20539      67717565 
 20539      756500
 20540              	.LASF248:
 20541 1849 63665F6F 		.ascii	"cf_off_refs\000"
 20541      66665F72 
 20541      65667300 
 20542              	.LASF950:
 20543 1855 77615069 		.ascii	"waPiRegulator\000"
 20543      52656775 
 20543      6C61746F 
 20543      7200
 20544              	.LASF544:
 20545 1863 53444343 		.ascii	"SDCConfig\000"
 20545      6F6E6669 
 20545      6700
 20546              	.LASF229:
 20547 186d 6D5F6F77 		.ascii	"m_owner\000"
 20547      6E657200 
 20548              	.LASF1003:
 20549 1875 63684253 		.ascii	"chBSemSignal\000"
 20549      656D5369 
 20549      676E616C 
 20549      00
 20550              	.LASF825:
 20551 1882 5F6F6666 		.ascii	"_offset\000"
 20551      73657400 
 20552              	.LASF901:
 20553 188a 5F706172 		.ascii	"_param_val_vector_s\000"
 20553      616D5F76 
 20553      616C5F76 
 20553      6563746F 
 20553      725F7300 
 20554              	.LASF99:
 20555 189e 53797374 		.ascii	"SystemCoreClock\000"
 20555      656D436F 
 20555      7265436C 
 20555      6F636B00 
 20556              	.LASF353:
 20557 18ae 61646365 		.ascii	"adcerrorcallback_t\000"
 20557      72726F72 
 20557      63616C6C 
 20557      6261636B 
 20557      5F7400
 20558              	.LASF388:
 20559 18c1 4441435F 		.ascii	"DAC_ACTIVE\000"
 20559      41435449 
 20559      564500
 20560              	.LASF343:
 20561 18cc 73746174 		.ascii	"state\000"
ARM GAS  C:\Users\adrie\AppData\Local\Temp\ccgB8szF.s 			page 383


 20561      6500
 20562              	.LASF236:
 20563 18d2 63685F76 		.ascii	"ch_version\000"
 20563      65727369 
 20563      6F6E00
 20564              	.LASF810:
 20565 18dd 5F5F7362 		.ascii	"__sbuf\000"
 20565      756600
 20566              	.LASF541:
 20567 18e4 7364696F 		.ascii	"sdio\000"
 20567      00
 20568              	.LASF140:
 20569 18e9 53575452 		.ascii	"SWTRIGR\000"
 20569      49475200 
 20570              	.LASF593:
 20571 18f1 5553425F 		.ascii	"USB_EP0_WAITING_STS\000"
 20571      4550305F 
 20571      57414954 
 20571      494E475F 
 20571      53545300 
 20572              	.LASF168:
 20573 1905 4932435F 		.ascii	"I2C_TypeDef\000"
 20573      54797065 
 20573      44656600 
 20574              	.LASF971:
 20575 1911 6765745F 		.ascii	"get_max_norm_index\000"
 20575      6D61785F 
 20575      6E6F726D 
 20575      5F696E64 
 20575      657800
 20576              	.LASF121:
 20577 1924 52444852 		.ascii	"RDHR\000"
 20577      00
 20578              	.LASF765:
 20579 1929 6F707465 		.ascii	"opterr\000"
 20579      727200
 20580              	.LASF859:
 20581 1930 5F616464 		.ascii	"_add\000"
 20581      00
 20582              	.LASF442:
 20583 1935 444D4152 		.ascii	"DMAR\000"
 20583      00
 20584              	.LASF448:
 20585 193a 63616C6C 		.ascii	"callback\000"
 20585      6261636B 
 20585      00
 20586              	.LASF92:
 20587 1943 63685F73 		.ascii	"ch_system\000"
 20587      79737465 
 20587      6D00
 20588              	.LASF169:
 20589 194d 504F5745 		.ascii	"POWER\000"
 20589      5200
 20590              	.LASF830:
 20591 1953 5F726565 		.ascii	"_reent\000"
 20591      6E7400
 20592              	.LASF90:
ARM GAS  C:\Users\adrie\AppData\Local\Temp\ccgB8szF.s 			page 384


 20593 195a 74726163 		.ascii	"trace_buffer\000"
 20593      655F6275 
 20593      66666572 
 20593      00
 20594              	.LASF870:
 20595 1967 5F6C3634 		.ascii	"_l64a_buf\000"
 20595      615F6275 
 20595      6600
 20596              	.LASF862:
 20597 1971 5F617363 		.ascii	"_asctime_buf\000"
 20597      74696D65 
 20597      5F627566 
 20597      00
 20598              	.LASF407:
 20599 197e 4441435F 		.ascii	"DAC_DHRM_8BIT_RIGHT\000"
 20599      4448524D 
 20599      5F384249 
 20599      545F5249 
 20599      47485400 
 20600              	.LASF427:
 20601 1992 4750545F 		.ascii	"GPT_UNINIT\000"
 20601      554E494E 
 20601      495400
 20602              	.LASF756:
 20603 199d 5F5F7763 		.ascii	"__wch\000"
 20603      6800
 20604              	.LASF759:
 20605 19a3 5F5F7661 		.ascii	"__value\000"
 20605      6C756500 
 20606              	.LASF224:
 20607 19ab 63685F73 		.ascii	"ch_semaphore\000"
 20607      656D6170 
 20607      686F7265 
 20607      00
 20608              	.LASF877:
 20609 19b8 5F776373 		.ascii	"_wcsrtombs_state\000"
 20609      72746F6D 
 20609      62735F73 
 20609      74617465 
 20609      00
 20610              	.LASF731:
 20611 19c9 53657269 		.ascii	"SerialUSBDriverVMT\000"
 20611      616C5553 
 20611      42447269 
 20611      76657256 
 20611      4D5400
 20612              	.LASF919:
 20613 19dc 42554646 		.ascii	"BUFFER_NAME_t\000"
 20613      45525F4E 
 20613      414D455F 
 20613      7400
 20614              	.LASF743:
 20615 19ea 64636D69 		.ascii	"dcmistate_t\000"
 20615      73746174 
 20615      655F7400 
 20616              	.LASF626:
 20617 19f6 44494550 		.ascii	"DIEPTSIZ\000"
ARM GAS  C:\Users\adrie\AppData\Local\Temp\ccgB8szF.s 			page 385


 20617      5453495A 
 20617      00
 20618              	.LASF1012:
 20619 19ff 706F7274 		.ascii	"port_unlock\000"
 20619      5F756E6C 
 20619      6F636B00 
 20620              	.LASF899:
 20621 1a0b 5F706172 		.ascii	"_param_val_str_s\000"
 20621      616D5F76 
 20621      616C5F73 
 20621      74725F73 
 20621      00
 20622              	.LASF358:
 20623 1a1c 736D7072 		.ascii	"smpr1\000"
 20623      3100
 20624              	.LASF359:
 20625 1a22 736D7072 		.ascii	"smpr2\000"
 20625      3200
 20626              	.LASF994:
 20627 1a28 6E6F726D 		.ascii	"norm_right\000"
 20627      5F726967 
 20627      687400
 20628              	.LASF1023:
 20629 1a33 6C656674 		.ascii	"left_motor_set_speed\000"
 20629      5F6D6F74 
 20629      6F725F73 
 20629      65745F73 
 20629      70656564 
 20630              	.LASF64:
 20631 1a48 74687265 		.ascii	"threads_queue_t\000"
 20631      6164735F 
 20631      71756575 
 20631      655F7400 
 20632              	.LASF296:
 20633 1a58 626C6B73 		.ascii	"blkstate_t\000"
 20633      74617465 
 20633      5F7400
 20634              	.LASF1036:
 20635 1a63 5F5F6664 		.ascii	"__fdlibm_version\000"
 20635      6C69626D 
 20635      5F766572 
 20635      73696F6E 
 20635      00
 20636              	.LASF1011:
 20637 1a74 63685379 		.ascii	"chSysLock\000"
 20637      734C6F63 
 20637      6B00
 20638              	.LASF51:
 20639 1a7e 705F7469 		.ascii	"p_time\000"
 20639      6D6500
 20640              	.LASF49:
 20641 1a85 705F7265 		.ascii	"p_refs\000"
 20641      667300
 20642              	.LASF704:
 20643 1a8c 65705F6D 		.ascii	"ep_mode\000"
 20643      6F646500 
 20644              	.LASF507:
ARM GAS  C:\Users\adrie\AppData\Local\Temp\ccgB8szF.s 			page 386


 20645 1a94 70776D63 		.ascii	"pwmchannel_t\000"
 20645      68616E6E 
 20645      656C5F74 
 20645      00
 20646              	.LASF1038:
 20647 1aa1 50695265 		.ascii	"PiRegulator\000"
 20647      67756C61 
 20647      746F7200 
 20648              	.LASF116:
 20649 1aad 54444C52 		.ascii	"TDLR\000"
 20649      00
 20650              	.LASF14:
 20651 1ab2 6C6F6E67 		.ascii	"long int\000"
 20651      20696E74 
 20651      00
 20652              	.LASF95:
 20653 1abb 6D61696E 		.ascii	"mainthread\000"
 20653      74687265 
 20653      616400
 20654              	.LASF1022:
 20655 1ac6 72696768 		.ascii	"right_motor_set_speed\000"
 20655      745F6D6F 
 20655      746F725F 
 20655      7365745F 
 20655      73706565 
 20656              	.LASF572:
 20657 1adc 6570306E 		.ascii	"ep0n\000"
 20657      00
 20658              	.LASF685:
 20659 1ae1 72657376 		.ascii	"resvdE04\000"
 20659      64453034 
 20659      00
 20660              	.LASF228:
 20661 1aea 6D5F7175 		.ascii	"m_queue\000"
 20661      65756500 
 20662              	.LASF395:
 20663 1af2 646D6169 		.ascii	"dmairqprio\000"
 20663      72717072 
 20663      696F00
 20664              	.LASF433:
 20665 1afd 47505444 		.ascii	"GPTDriver\000"
 20665      72697665 
 20665      7200
 20666              	.LASF537:
 20667 1b07 73646366 		.ascii	"sdcflags_t\000"
 20667      6C616773 
 20667      5F7400
 20668              	.LASF325:
 20669 1b12 50484461 		.ascii	"PHData\000"
 20669      746100
 20670              	.LASF328:
 20671 1b19 696F706F 		.ascii	"ioportid_t\000"
 20671      72746964 
 20671      5F7400
 20672              	.LASF779:
 20673 1b24 6D657373 		.ascii	"messagebus_topic_t\000"
 20673      61676562 
ARM GAS  C:\Users\adrie\AppData\Local\Temp\ccgB8szF.s 			page 387


 20673      75735F74 
 20673      6F706963 
 20673      5F7400
 20674              	.LASF366:
 20675 1b37 41444344 		.ascii	"ADCD1\000"
 20675      3100
 20676              	.LASF367:
 20677 1b3d 41444344 		.ascii	"ADCD2\000"
 20677      3200
 20678              	.LASF368:
 20679 1b43 41444344 		.ascii	"ADCD3\000"
 20679      3300
 20680              	.LASF653:
 20681 1b49 48434647 		.ascii	"HCFG\000"
 20681      00
 20682              	.LASF351:
 20683 1b4e 646D616D 		.ascii	"dmamode\000"
 20683      6F646500 
 20684              	.LASF210:
 20685 1b56 63756D75 		.ascii	"cumulative\000"
 20685      6C617469 
 20685      766500
 20686              	.LASF855:
 20687 1b61 5F696F62 		.ascii	"_iobs\000"
 20687      7300
 20688              	.LASF564:
 20689 1b67 53504944 		.ascii	"SPID1\000"
 20689      3100
 20690              	.LASF529:
 20691 1b6d 67657474 		.ascii	"gett\000"
 20691      00
 20692              	.LASF989:
 20693 1b72 696E7465 		.ascii	"intensite_moyenne\000"
 20693      6E736974 
 20693      655F6D6F 
 20693      79656E6E 
 20693      6500
 20694              	.LASF220:
 20695 1b84 77747472 		.ascii	"wttrp\000"
 20695      7000
 20696              	.LASF274:
 20697 1b8a 715F7264 		.ascii	"q_rdptr\000"
 20697      70747200 
 20698              	.LASF194:
 20699 1b92 636F6E74 		.ascii	"context\000"
 20699      65787400 
 20700              	.LASF526:
 20701 1b9a 77726974 		.ascii	"write\000"
 20701      6500
 20702              	.LASF865:
 20703 1ba0 5F72616E 		.ascii	"_rand_next\000"
 20703      645F6E65 
 20703      787400
 20704              	.LASF522:
 20705 1bab 69717565 		.ascii	"iqueue\000"
 20705      756500
 20706              	.LASF706:
ARM GAS  C:\Users\adrie\AppData\Local\Temp\ccgB8szF.s 			page 388


 20707 1bb2 696E5F63 		.ascii	"in_cb\000"
 20707      6200
 20708              	.LASF631:
 20709 1bb8 444F4550 		.ascii	"DOEPINT\000"
 20709      494E5400 
 20710              	.LASF209:
 20711 1bc0 6C617374 		.ascii	"last\000"
 20711      00
 20712              	.LASF307:
 20713 1bc5 4C434B52 		.ascii	"LCKR\000"
 20713      00
 20714              	.LASF519:
 20715 1bca 73647374 		.ascii	"sdstate_t\000"
 20715      6174655F 
 20715      7400
 20716              	.LASF23:
 20717 1bd4 75696E74 		.ascii	"uint32_t\000"
 20717      33325F74 
 20717      00
 20718              	.LASF392:
 20719 1bdd 64617461 		.ascii	"dataoffset\000"
 20719      6F666673 
 20719      657400
 20720              	.LASF789:
 20721 1be8 5F6D6178 		.ascii	"_maxwds\000"
 20721      77647300 
 20722              	.LASF294:
 20723 1bf0 424C4B5F 		.ascii	"BLK_WRITING\000"
 20723      57524954 
 20723      494E4700 
 20724              	.LASF120:
 20725 1bfc 52444C52 		.ascii	"RDLR\000"
 20725      00
 20726              	.LASF981:
 20727 1c01 63616C63 		.ascii	"calcul_moyenne\000"
 20727      756C5F6D 
 20727      6F79656E 
 20727      6E6500
 20728              	.LASF770:
 20729 1c10 62756666 		.ascii	"buffer_len\000"
 20729      65725F6C 
 20729      656E00
 20730              	.LASF790:
 20731 1c1b 5F736967 		.ascii	"_sign\000"
 20731      6E00
 20732              	.LASF1013:
 20733 1c21 706F7274 		.ascii	"port_lock\000"
 20733      5F6C6F63 
 20733      6B00
 20734              	.LASF4:
 20735 1c2b 6C6F6E67 		.ascii	"long double\000"
 20735      20646F75 
 20735      626C6500 
 20736              	.LASF192:
 20737 1c37 72656761 		.ascii	"regarm_t\000"
 20737      726D5F74 
 20737      00
ARM GAS  C:\Users\adrie\AppData\Local\Temp\ccgB8szF.s 			page 389


 20738              	.LASF33:
 20739 1c40 6576656E 		.ascii	"eventmask_t\000"
 20739      746D6173 
 20739      6B5F7400 
 20740              	.LASF1002:
 20741 1c4c 736F756E 		.ascii	"sound_remote\000"
 20741      645F7265 
 20741      6D6F7465 
 20741      00
 20742              	.LASF346:
 20743 1c59 64657074 		.ascii	"depth\000"
 20743      6800
 20744              	.LASF134:
 20745 1c5f 46464131 		.ascii	"FFA1R\000"
 20745      5200
 20746              	.LASF587:
 20747 1c65 5553425F 		.ascii	"USB_SELECTED\000"
 20747      53454C45 
 20747      43544544 
 20747      00
 20748              	.LASF1028:
 20749 1c72 63685363 		.ascii	"chSchRescheduleS\000"
 20749      68526573 
 20749      63686564 
 20749      756C6553 
 20749      00
 20750              	.LASF16:
 20751 1c83 6C6F6E67 		.ascii	"long unsigned int\000"
 20751      20756E73 
 20751      69676E65 
 20751      6420696E 
 20751      7400
 20752              	.LASF579:
 20753 1c95 706D6E65 		.ascii	"pmnext\000"
 20753      787400
 20754              	.LASF486:
 20755 1c9c 4932535F 		.ascii	"I2S_ACTIVE\000"
 20755      41435449 
 20755      564500
 20756              	.LASF429:
 20757 1ca7 4750545F 		.ascii	"GPT_READY\000"
 20757      52454144 
 20757      5900
 20758              	.LASF391:
 20759 1cb1 64616373 		.ascii	"dacstate_t\000"
 20759      74617465 
 20759      5F7400
 20760              	.LASF742:
 20761 1cbc 44434D49 		.ascii	"DCMI_TIMEOUT\000"
 20761      5F54494D 
 20761      454F5554 
 20761      00
 20762              	.LASF197:
 20763 1cc9 73655F74 		.ascii	"se_tp\000"
 20763      7000
 20764              	.LASF955:
 20765 1ccf 70756973 		.ascii	"puissance_moyenne\000"
ARM GAS  C:\Users\adrie\AppData\Local\Temp\ccgB8szF.s 			page 390


 20765      73616E63 
 20765      655F6D6F 
 20765      79656E6E 
 20765      6500
 20766              	.LASF273:
 20767 1ce1 715F7772 		.ascii	"q_wrptr\000"
 20767      70747200 
 20768              	.LASF399:
 20769 1ce9 64616373 		.ascii	"dacsample_t\000"
 20769      616D706C 
 20769      655F7400 
 20770              	.LASF961:
 20771 1cf5 73756D5F 		.ascii	"sum_error\000"
 20771      6572726F 
 20771      7200
 20772              	.LASF599:
 20773 1cff 5553425F 		.ascii	"USB_EVENT_ADDRESS\000"
 20773      4556454E 
 20773      545F4144 
 20773      44524553 
 20773      5300
 20774              	.LASF494:
 20775 1d11 69327363 		.ascii	"i2scfgr\000"
 20775      66677200 
 20776              	.LASF722:
 20777 1d19 5344555F 		.ascii	"SDU_STOP\000"
 20777      53544F50 
 20777      00
 20778              	.LASF171:
 20779 1d22 52455350 		.ascii	"RESPCMD\000"
 20779      434D4400 
 20780              	.LASF378:
 20781 1d2a 72786675 		.ascii	"rxfull_event\000"
 20781      6C6C5F65 
 20781      76656E74 
 20781      00
 20782              	.LASF604:
 20783 1d37 75736265 		.ascii	"usbevent_t\000"
 20783      76656E74 
 20783      5F7400
 20784              	.LASF821:
 20785 1d42 5F636C6F 		.ascii	"_close\000"
 20785      736500
 20786              	.LASF232:
 20787 1d49 63686172 		.ascii	"char\000"
 20787      00
 20788              	.LASF967:
 20789 1d4e 6D61785F 		.ascii	"max_front\000"
 20789      66726F6E 
 20789      7400
 20790              	.LASF733:
 20791 1d58 44434D49 		.ascii	"DCMI_ERR_OVERFLOW\000"
 20791      5F455252 
 20791      5F4F5645 
 20791      52464C4F 
 20791      5700
 20792              	.LASF155:
ARM GAS  C:\Users\adrie\AppData\Local\Temp\ccgB8szF.s 			page 391


 20793 1d6a 45534352 		.ascii	"ESCR\000"
 20793      00
 20794              	.LASF375:
 20795 1d6f 43414E43 		.ascii	"CANConfig\000"
 20795      6F6E6669 
 20795      6700
 20796              	.LASF322:
 20797 1d79 50454461 		.ascii	"PEData\000"
 20797      746100
 20798              	.LASF68:
 20799 1d80 725F7175 		.ascii	"r_queue\000"
 20799      65756500 
 20800              	.LASF853:
 20801 1d88 5F676C75 		.ascii	"_glue\000"
 20801      6500
 20802              	.LASF783:
 20803 1d8e 6D657373 		.ascii	"messagebus_watchgroup_s\000"
 20803      61676562 
 20803      75735F77 
 20803      61746368 
 20803      67726F75 
 20804              	.LASF504:
 20805 1da6 656E6162 		.ascii	"enabled\000"
 20805      6C656400 
 20806              	.LASF400:
 20807 1dae 4441435F 		.ascii	"DAC_ERR_DMAFAILURE\000"
 20807      4552525F 
 20807      444D4146 
 20807      41494C55 
 20807      524500
 20808              	.LASF643:
 20809 1dc1 47525846 		.ascii	"GRXFSIZ\000"
 20809      53495A00 
 20810              	.LASF550:
 20811 1dc9 73796E63 		.ascii	"sync\000"
 20811      00
 20812              	.LASF524:
 20813 1dce 75736172 		.ascii	"usart\000"
 20813      7400
 20814              	.LASF1020:
 20815 1dd4 5F737461 		.ascii	"_stats_stop_measure_crit_thd\000"
 20815      74735F73 
 20815      746F705F 
 20815      6D656173 
 20815      7572655F 
 20816              	.LASF158:
 20817 1df1 43575349 		.ascii	"CWSIZER\000"
 20817      5A455200 
 20818              	.LASF536:
 20819 1df9 7364636D 		.ascii	"sdcmode_t\000"
 20819      6F64655F 
 20819      7400
 20820              	.LASF276:
 20821 1e03 715F6C69 		.ascii	"q_link\000"
 20821      6E6B00
 20822              	.LASF954:
 20823 1e0a 73706565 		.ascii	"speed_correction\000"
ARM GAS  C:\Users\adrie\AppData\Local\Temp\ccgB8szF.s 			page 392


 20823      645F636F 
 20823      72726563 
 20823      74696F6E 
 20823      00
 20824              	.LASF940:
 20825 1e1b 636F7465 		.ascii	"cote_max\000"
 20825      5F6D6178 
 20825      00
 20826              	.LASF997:
 20827 1e24 6E6F726D 		.ascii	"norm_back\000"
 20827      5F626163 
 20827      6B00
 20828              	.LASF747:
 20829 1e2e 64636D69 		.ascii	"dcmierrorcallback_t\000"
 20829      6572726F 
 20829      7263616C 
 20829      6C626163 
 20829      6B5F7400 
 20830              	.LASF664:
 20831 1e42 44434647 		.ascii	"DCFG\000"
 20831      00
 20832              	.LASF787:
 20833 1e47 5F426967 		.ascii	"_Bigint\000"
 20833      696E7400 
 20834              	.LASF674:
 20835 1e4f 44564255 		.ascii	"DVBUSDIS\000"
 20835      53444953 
 20835      00
 20836              	.LASF640:
 20837 1e58 47494E54 		.ascii	"GINTMSK\000"
 20837      4D534B00 
 20838              	.LASF645:
 20839 1e60 484E5054 		.ascii	"HNPTXSTS\000"
 20839      58535453 
 20839      00
 20840              	.LASF577:
 20841 1e69 636F6E66 		.ascii	"configuration\000"
 20841      69677572 
 20841      6174696F 
 20841      6E00
 20842              	.LASF848:
 20843 1e77 5F617465 		.ascii	"_atexit0\000"
 20843      78697430 
 20843      00
 20844              	.LASF930:
 20845 1e80 4C454431 		.ascii	"LED1\000"
 20845      00
 20846              	.LASF931:
 20847 1e85 4C454433 		.ascii	"LED3\000"
 20847      00
 20848              	.LASF932:
 20849 1e8a 4C454435 		.ascii	"LED5\000"
 20849      00
 20850              	.LASF933:
 20851 1e8f 4C454437 		.ascii	"LED7\000"
 20851      00
 20852              	.LASF972:
ARM GAS  C:\Users\adrie\AppData\Local\Temp\ccgB8szF.s 			page 393


 20853 1e94 65636861 		.ascii	"echantillone_distance\000"
 20853      6E74696C 
 20853      6C6F6E65 
 20853      5F646973 
 20853      74616E63 
 20854              	.LASF317:
 20855 1eaa 73746D33 		.ascii	"stm32_gpio_setup_t\000"
 20855      325F6770 
 20855      696F5F73 
 20855      65747570 
 20855      5F7400
 20856              	.LASF969:
 20857 1ebd 6765745F 		.ascii	"get_audio_buffer_ptr\000"
 20857      61756469 
 20857      6F5F6275 
 20857      66666572 
 20857      5F707472 
 20858              	.LASF915:
 20859 1ed2 4C454654 		.ascii	"LEFT_OUTPUT\000"
 20859      5F4F5554 
 20859      50555400 
 20860              	.LASF1026:
 20861 1ede 63684462 		.ascii	"chDbgCheckClassI\000"
 20861      67436865 
 20861      636B436C 
 20861      61737349 
 20861      00
 20862              	.LASF286:
 20863 1eef 5F73746D 		.ascii	"_stm32_dma_streams\000"
 20863      33325F64 
 20863      6D615F73 
 20863      74726561 
 20863      6D7300
 20864              	.LASF142:
 20865 1f02 44485231 		.ascii	"DHR12L1\000"
 20865      324C3100 
 20866              	.LASF145:
 20867 1f0a 44485231 		.ascii	"DHR12L2\000"
 20867      324C3200 
 20868              	.LASF872:
 20869 1f12 5F676574 		.ascii	"_getdate_err\000"
 20869      64617465 
 20869      5F657272 
 20869      00
 20870              	.LASF913:
 20871 1f1f 46524F4E 		.ascii	"FRONT_CMPLX_INPUT\000"
 20871      545F434D 
 20871      504C585F 
 20871      494E5055 
 20871      5400
 20872              	.LASF535:
 20873 1f31 73646362 		.ascii	"sdcbusmode_t\000"
 20873      75736D6F 
 20873      64655F74 
 20873      00
 20874              	.LASF792:
 20875 1f3e 5F5F746D 		.ascii	"__tm\000"
ARM GAS  C:\Users\adrie\AppData\Local\Temp\ccgB8szF.s 			page 394


 20875      00
 20876              	.LASF148:
 20877 1f43 44485231 		.ascii	"DHR12LD\000"
 20877      324C4400 
 20878              	.LASF352:
 20879 1f4b 61646363 		.ascii	"adccallback_t\000"
 20879      616C6C62 
 20879      61636B5F 
 20879      7400
 20880              	.LASF785:
 20881 1f59 6D657373 		.ascii	"messagebus_watchgroup_t\000"
 20881      61676562 
 20881      75735F77 
 20881      61746368 
 20881      67726F75 
 20882              	.LASF46:
 20883 1f71 705F7374 		.ascii	"p_stklimit\000"
 20883      6B6C696D 
 20883      697400
 20884              	.LASF35:
 20885 1f7c 636E745F 		.ascii	"cnt_t\000"
 20885      7400
 20886              	.LASF418:
 20887 1f82 65787473 		.ascii	"extstate_t\000"
 20887      74617465 
 20887      5F7400
 20888              	.LASF592:
 20889 1f8d 5553425F 		.ascii	"USB_EP0_WAITING_TX0\000"
 20889      4550305F 
 20889      57414954 
 20889      494E475F 
 20889      54583000 
 20890              	.LASF571:
 20891 1fa1 6570306E 		.ascii	"ep0next\000"
 20891      65787400 
 20892              	.LASF621:
 20893 1fa9 73746D33 		.ascii	"stm32_otg_host_chn_t\000"
 20893      325F6F74 
 20893      675F686F 
 20893      73745F63 
 20893      686E5F74 
 20894              	.LASF309:
 20895 1fbe 41465248 		.ascii	"AFRH\000"
 20895      00
 20896              	.LASF769:
 20897 1fc3 62756666 		.ascii	"buffer\000"
 20897      657200
 20898              	.LASF308:
 20899 1fca 4146524C 		.ascii	"AFRL\000"
 20899      00
 20900              	.LASF884:
 20901 1fcf 5F696D70 		.ascii	"_impure_ptr\000"
 20901      7572655F 
 20901      70747200 
 20902              	.LASF249:
 20903 1fdb 63665F6F 		.ascii	"cf_off_preempt\000"
 20903      66665F70 
ARM GAS  C:\Users\adrie\AppData\Local\Temp\ccgB8szF.s 			page 395


 20903      7265656D 
 20903      707400
 20904              	.LASF881:
 20905 1fea 5F756E75 		.ascii	"_unused\000"
 20905      73656400 
 20906              	.LASF389:
 20907 1ff2 4441435F 		.ascii	"DAC_COMPLETE\000"
 20907      434F4D50 
 20907      4C455445 
 20907      00
 20908              	.LASF630:
 20909 1fff 444F4550 		.ascii	"DOEPCTL\000"
 20909      43544C00 
 20910              	.LASF616:
 20911 2007 4843494E 		.ascii	"HCINTMSK\000"
 20911      544D534B 
 20911      00
 20912              	.LASF822:
 20913 2010 5F756275 		.ascii	"_ubuf\000"
 20913      6600
 20914              	.LASF344:
 20915 2016 636F6E66 		.ascii	"config\000"
 20915      696700
 20916              	.LASF452:
 20917 201d 47505444 		.ascii	"GPTD11\000"
 20917      313100
 20918              	.LASF453:
 20919 2024 47505444 		.ascii	"GPTD12\000"
 20919      313200
 20920              	.LASF867:
 20921 202b 5F6D626C 		.ascii	"_mblen_state\000"
 20921      656E5F73 
 20921      74617465 
 20921      00
 20922              	.LASF850:
 20923 2038 5F5F7367 		.ascii	"__sglue\000"
 20923      6C756500 
 20924              	.LASF883:
 20925 2040 5F5F6C6F 		.ascii	"__locale_t\000"
 20925      63616C65 
 20925      5F7400
 20926              	.LASF968:
 20927 204b 6D61785F 		.ascii	"max_back\000"
 20927      6261636B 
 20927      00
 20928              	.LASF290:
 20929 2054 424C4B5F 		.ascii	"BLK_CONNECTING\000"
 20929      434F4E4E 
 20929      45435449 
 20929      4E4700
 20930              	.LASF920:
 20931 2063 4C454654 		.ascii	"LEFT\000"
 20931      00
 20932              	.LASF840:
 20933 2068 5F5F636C 		.ascii	"__cleanup\000"
 20933      65616E75 
 20933      7000
ARM GAS  C:\Users\adrie\AppData\Local\Temp\ccgB8szF.s 			page 396


 20934              	.LASF385:
 20935 2072 4441435F 		.ascii	"DAC_UNINIT\000"
 20935      554E494E 
 20935      495400
 20936              	.LASF338:
 20937 207d 6164635F 		.ascii	"adc_channels_num_t\000"
 20937      6368616E 
 20937      6E656C73 
 20937      5F6E756D 
 20937      5F7400
 20938              	.LASF74:
 20939 2090 76746675 		.ascii	"vtfunc_t\000"
 20939      6E635F74 
 20939      00
 20940              	.LASF122:
 20941 2099 43414E5F 		.ascii	"CAN_FIFOMailBox_TypeDef\000"
 20941      4649464F 
 20941      4D61696C 
 20941      426F785F 
 20941      54797065 
 20942              	.LASF152:
 20943 20b1 4441435F 		.ascii	"DAC_TypeDef\000"
 20943      54797065 
 20943      44656600 
 20944              	.LASF219:
 20945 20bd 77746F62 		.ascii	"wtobjp\000"
 20945      6A7000
 20946              	.LASF754:
 20947 20c4 5F66706F 		.ascii	"_fpos_t\000"
 20947      735F7400 
 20948              	.LASF405:
 20949 20cc 4441435F 		.ascii	"DAC_DHRM_12BIT_RIGHT\000"
 20949      4448524D 
 20949      5F313242 
 20949      49545F52 
 20949      49474854 
 20950              	.LASF815:
 20951 20e1 5F66696C 		.ascii	"_file\000"
 20951      6500
 20952              	.LASF57:
 20953 20e7 705F7265 		.ascii	"p_realprio\000"
 20953      616C7072 
 20953      696F00
 20954              	.LASF539:
 20955 20f2 63617061 		.ascii	"capacity\000"
 20955      63697479 
 20955      00
 20956              	.LASF730:
 20957 20fb 53657269 		.ascii	"SerialUSBConfig\000"
 20957      616C5553 
 20957      42436F6E 
 20957      66696700 
 20958              	.LASF275:
 20959 210b 715F6E6F 		.ascii	"q_notify\000"
 20959      74696679 
 20959      00
 20960              	.LASF222:
ARM GAS  C:\Users\adrie\AppData\Local\Temp\ccgB8szF.s 			page 397


 20961 2114 77746D74 		.ascii	"wtmtxp\000"
 20961      787000
 20962              	.LASF813:
 20963 211b 5F5F7346 		.ascii	"__sFILE\000"
 20963      494C4500 
 20964              	.LASF1:
 20965 2123 646F7562 		.ascii	"double\000"
 20965      6C6500
 20966              	.LASF809:
 20967 212a 5F666E73 		.ascii	"_fns\000"
 20967      00
 20968              	.LASF748:
 20969 212f 6672616D 		.ascii	"frame_end_cb\000"
 20969      655F656E 
 20969      645F6362 
 20969      00
 20970              	.LASF1040:
 20971 213c 63685654 		.ascii	"chVTGetSystemTimeX\000"
 20971      47657453 
 20971      79737465 
 20971      6D54696D 
 20971      655800
 20972              	.LASF703:
 20973 214f 5553424F 		.ascii	"USBOutEndpointState\000"
 20973      7574456E 
 20973      64706F69 
 20973      6E745374 
 20973      61746500 
 20974              	.LASF660:
 20975 2163 72657376 		.ascii	"resvd41C\000"
 20975      64343143 
 20975      00
 20976              	.LASF895:
 20977 216c 6368616E 		.ascii	"changed\000"
 20977      67656400 
 20978              	.LASF760:
 20979 2174 5F6D6273 		.ascii	"_mbstate_t\000"
 20979      74617465 
 20979      5F7400
 20980              	.LASF878:
 20981 217f 5F685F65 		.ascii	"_h_errno\000"
 20981      72726E6F 
 20981      00
 20982              	.LASF986:
 20983 2188 7472616E 		.ascii	"transition\000"
 20983      73697469 
 20983      6F6E00
 20984              	.LASF119:
 20985 2193 52445452 		.ascii	"RDTR\000"
 20985      00
 20986              	.LASF298:
 20987 2198 626C6B5F 		.ascii	"blk_num\000"
 20987      6E756D00 
 20988              	.LASF598:
 20989 21a0 5553425F 		.ascii	"USB_EVENT_RESET\000"
 20989      4556454E 
 20989      545F5245 
ARM GAS  C:\Users\adrie\AppData\Local\Temp\ccgB8szF.s 			page 398


 20989      53455400 
 20990              	.LASF927:
 20991 21b0 5F5F6664 		.ascii	"__fdlibm_xopen\000"
 20991      6C69626D 
 20991      5F786F70 
 20991      656E00
 20992              	.LASF953:
 20993 21bf 73706565 		.ascii	"speed\000"
 20993      6400
 20994              	.LASF67:
 20995 21c5 63685F72 		.ascii	"ch_ready_list\000"
 20995      65616479 
 20995      5F6C6973 
 20995      7400
 20996              	.LASF778:
 20997 21d3 67726F75 		.ascii	"group\000"
 20997      7000
 20998              	.LASF305:
 20999 21d9 50555044 		.ascii	"PUPDR\000"
 20999      5200
 21000              	.LASF13:
 21001 21df 5F5F696E 		.ascii	"__int32_t\000"
 21001      7433325F 
 21001      7400
 21002              	.LASF15:
 21003 21e9 5F5F7569 		.ascii	"__uint32_t\000"
 21003      6E743332 
 21003      5F7400
 21004              	.LASF86:
 21005 21f4 63685F73 		.ascii	"ch_system_debug\000"
 21005      79737465 
 21005      6D5F6465 
 21005      62756700 
 21006              	.LASF975:
 21007 2204 64617461 		.ascii	"data\000"
 21007      00
 21008              	.LASF671:
 21009 2209 4441494E 		.ascii	"DAINTMSK\000"
 21009      544D534B 
 21009      00
 21010              	.LASF738:
 21011 2212 44434D49 		.ascii	"DCMI_ACTIVE_STREAM\000"
 21011      5F414354 
 21011      4956455F 
 21011      53545245 
 21011      414D00
 21012              	.LASF425:
 21013 2225 45585443 		.ascii	"EXTConfig\000"
 21013      6F6E6669 
 21013      6700
 21014              	.LASF888:
 21015 222f 70617261 		.ascii	"parameter_namespace_s\000"
 21015      6D657465 
 21015      725F6E61 
 21015      6D657370 
 21015      6163655F 
 21016              	.LASF270:
ARM GAS  C:\Users\adrie\AppData\Local\Temp\ccgB8szF.s 			page 399


 21017 2245 715F636F 		.ascii	"q_counter\000"
 21017      756E7465 
 21017      7200
 21018              	.LASF590:
 21019 224f 5553425F 		.ascii	"USB_EP0_WAITING_SETUP\000"
 21019      4550305F 
 21019      57414954 
 21019      494E475F 
 21019      53455455 
 21020              	.LASF806:
 21021 2265 5F69735F 		.ascii	"_is_cxa\000"
 21021      63786100 
 21022              	.LASF293:
 21023 226d 424C4B5F 		.ascii	"BLK_READING\000"
 21023      52454144 
 21023      494E4700 
 21024              	.LASF315:
 21025 2279 6166726C 		.ascii	"afrl\000"
 21025      00
 21026              	.LASF693:
 21027 227e 71756575 		.ascii	"queue\000"
 21027      6500
 21028              	.LASF573:
 21029 2284 65703065 		.ascii	"ep0endcb\000"
 21029      6E646362 
 21029      00
 21030              	.LASF937:
 21031 228d 64697374 		.ascii	"distance\000"
 21031      616E6365 
 21031      00
 21032              	.LASF283:
 21033 2296 73656C66 		.ascii	"selfindex\000"
 21033      696E6465 
 21033      7800
 21034              	.LASF256:
 21035 22a0 6D757465 		.ascii	"mutex_t\000"
 21035      785F7400 
 21036              	.LASF843:
 21037 22a8 5F703573 		.ascii	"_p5s\000"
 21037      00
 21038              	.LASF55:
 21039 22ad 705F6570 		.ascii	"p_epending\000"
 21039      656E6469 
 21039      6E6700
 21040              	.LASF302:
 21041 22b8 4D4F4445 		.ascii	"MODER\000"
 21041      5200
 21042              	.LASF963:
 21043 22be 6765745F 		.ascii	"get_max_front_moyenne\000"
 21043      6D61785F 
 21043      66726F6E 
 21043      745F6D6F 
 21043      79656E6E 
 21044              	.LASF487:
 21045 22d4 4932535F 		.ascii	"I2S_COMPLETE\000"
 21045      434F4D50 
 21045      4C455445 
ARM GAS  C:\Users\adrie\AppData\Local\Temp\ccgB8szF.s 			page 400


 21045      00
 21046              	.LASF775:
 21047 22e1 77617463 		.ascii	"watchers\000"
 21047      68657273 
 21047      00
 21048              	.LASF126:
 21049 22ea 52455345 		.ascii	"RESERVED0\000"
 21049      52564544 
 21049      3000
 21050              	.LASF129:
 21051 22f4 52455345 		.ascii	"RESERVED1\000"
 21051      52564544 
 21051      3100
 21052              	.LASF131:
 21053 22fe 52455345 		.ascii	"RESERVED2\000"
 21053      52564544 
 21053      3200
 21054              	.LASF133:
 21055 2308 52455345 		.ascii	"RESERVED3\000"
 21055      52564544 
 21055      3300
 21056              	.LASF135:
 21057 2312 52455345 		.ascii	"RESERVED4\000"
 21057      52564544 
 21057      3400
 21058              	.LASF137:
 21059 231c 52455345 		.ascii	"RESERVED5\000"
 21059      52564544 
 21059      3500
 21060              	.LASF714:
 21061 2326 55534245 		.ascii	"USBEndpointConfig\000"
 21061      6E64706F 
 21061      696E7443 
 21061      6F6E6669 
 21061      6700
 21062              	.LASF141:
 21063 2338 44485231 		.ascii	"DHR12R1\000"
 21063      32523100 
 21064              	.LASF144:
 21065 2340 44485231 		.ascii	"DHR12R2\000"
 21065      32523200 
 21066              	.LASF421:
 21067 2348 65787463 		.ascii	"extcallback_t\000"
 21067      616C6C62 
 21067      61636B5F 
 21067      7400
 21068              	.LASF377:
 21069 2356 72787175 		.ascii	"rxqueue\000"
 21069      65756500 
 21070              	.LASF196:
 21071 235e 73655F74 		.ascii	"se_time\000"
 21071      696D6500 
 21072              	.LASF662:
 21073 2366 72657376 		.ascii	"resvd444\000"
 21073      64343434 
 21073      00
 21074              	.LASF329:
ARM GAS  C:\Users\adrie\AppData\Local\Temp\ccgB8szF.s 			page 401


 21075 236f 70616C5F 		.ascii	"pal_default_config\000"
 21075      64656661 
 21075      756C745F 
 21075      636F6E66 
 21075      696700
 21076              	.LASF885:
 21077 2382 5F676C6F 		.ascii	"_global_impure_ptr\000"
 21077      62616C5F 
 21077      696D7075 
 21077      72655F70 
 21077      747200
 21078              	.LASF921:
 21079 2395 52494748 		.ascii	"RIGHT\000"
 21079      5400
 21080              	.LASF347:
 21081 239b 67727070 		.ascii	"grpp\000"
 21081      00
 21082              	.LASF147:
 21083 23a0 44485231 		.ascii	"DHR12RD\000"
 21083      32524400 
 21084              	.LASF260:
 21085 23a8 656C5F6C 		.ascii	"el_listener\000"
 21085      69737465 
 21085      6E657200 
 21086              	.LASF692:
 21087 23b4 6C696E65 		.ascii	"linear\000"
 21087      617200
 21088              	.LASF737:
 21089 23bb 44434D49 		.ascii	"DCMI_READY\000"
 21089      5F524541 
 21089      445900
 21090              	.LASF918:
 21091 23c6 4241434B 		.ascii	"BACK_OUTPUT\000"
 21091      5F4F5554 
 21091      50555400 
 21092              	.LASF445:
 21093 23d2 73746D33 		.ascii	"stm32_tim_t\000"
 21093      325F7469 
 21093      6D5F7400 
 21094              	.LASF69:
 21095 23de 725F7072 		.ascii	"r_prio\000"
 21095      696F00
 21096              	.LASF154:
 21097 23e5 4D495352 		.ascii	"MISR\000"
 21097      00
 21098              	.LASF98:
 21099 23ea 49544D5F 		.ascii	"ITM_RxBuffer\000"
 21099      52784275 
 21099      66666572 
 21099      00
 21100              	.LASF299:
 21101 23f7 426C6F63 		.ascii	"BlockDeviceInfo\000"
 21101      6B446576 
 21101      69636549 
 21101      6E666F00 
 21102              	.LASF18:
 21103 2407 6C6F6E67 		.ascii	"long long unsigned int\000"
ARM GAS  C:\Users\adrie\AppData\Local\Temp\ccgB8szF.s 			page 402


 21103      206C6F6E 
 21103      6720756E 
 21103      7369676E 
 21103      65642069 
 21104              	.LASF183:
 21105 241e 5344494F 		.ascii	"SDIO_TypeDef\000"
 21105      5F547970 
 21105      65446566 
 21105      00
 21106              	.LASF205:
 21107 242b 6F666673 		.ascii	"offset\000"
 21107      657400
 21108              	.LASF1005:
 21109 2432 63685265 		.ascii	"chRegSetThreadName\000"
 21109      67536574 
 21109      54687265 
 21109      61644E61 
 21109      6D6500
 21110              	.LASF781:
 21111 2445 746F7069 		.ascii	"topics\000"
 21111      637300
 21112              	.LASF1009:
 21113 244c 63685379 		.ascii	"chSysUnlock\000"
 21113      73556E6C 
 21113      6F636B00 
 21114              	.LASF160:
 21115 2458 4E445452 		.ascii	"NDTR\000"
 21115      00
 21116              	.LASF265:
 21117 245d 65735F6E 		.ascii	"es_next\000"
 21117      65787400 
 21118              	.LASF864:
 21119 2465 5F67616D 		.ascii	"_gamma_signgam\000"
 21119      6D615F73 
 21119      69676E67 
 21119      616D00
 21120              	.LASF628:
 21121 2474 72657376 		.ascii	"resvd1C\000"
 21121      64314300 
 21122              	.LASF97:
 21123 247c 69646C65 		.ascii	"idle_thread_wa\000"
 21123      5F746872 
 21123      6561645F 
 21123      776100
 21124              	.LASF624:
 21125 248b 44494550 		.ascii	"DIEPINT\000"
 21125      494E5400 
 21126              	.LASF189:
 21127 2493 5350495F 		.ascii	"SPI_TypeDef\000"
 21127      54797065 
 21127      44656600 
 21128              	.LASF80:
 21129 249f 76745F66 		.ascii	"vt_func\000"
 21129      756E6300 
 21130              	.LASF436:
 21131 24a7 534D4352 		.ascii	"SMCR\000"
 21131      00
ARM GAS  C:\Users\adrie\AppData\Local\Temp\ccgB8szF.s 			page 403


 21132              	.LASF669:
 21133 24ac 444F4550 		.ascii	"DOEPMSK\000"
 21133      4D534B00 
 21134              	.LASF76:
 21135 24b4 63685F76 		.ascii	"ch_virtual_timer\000"
 21135      69727475 
 21135      616C5F74 
 21135      696D6572 
 21135      00
 21136              	.LASF48:
 21137 24c5 705F666C 		.ascii	"p_flags\000"
 21137      61677300 
 21138              	.LASF960:
 21139 24cd 6572726F 		.ascii	"error\000"
 21139      7200
 21140              	.LASF223:
 21141 24d3 65776D61 		.ascii	"ewmask\000"
 21141      736B00
 21142              	.LASF262:
 21143 24da 656C5F66 		.ascii	"el_flags\000"
 21143      6C616773 
 21143      00
 21144              	.LASF979:
 21145 24e3 75706461 		.ascii	"update_moyenne\000"
 21145      74655F6D 
 21145      6F79656E 
 21145      6E6500
 21146              	.LASF826:
 21147 24f2 5F646174 		.ascii	"_data\000"
 21147      6100
 21148              	.LASF943:
 21149 24f8 6D696352 		.ascii	"micRight_cmplx_input\000"
 21149      69676874 
 21149      5F636D70 
 21149      6C785F69 
 21149      6E707574 
 21150              	.LASF264:
 21151 250d 6576656E 		.ascii	"event_source\000"
 21151      745F736F 
 21151      75726365 
 21151      00
 21152              	.LASF56:
 21153 251a 705F6D74 		.ascii	"p_mtxlist\000"
 21153      786C6973 
 21153      7400
 21154              	.LASF384:
 21155 2524 43414E44 		.ascii	"CAND1\000"
 21155      3100
 21156              	.LASF132:
 21157 252a 46533152 		.ascii	"FS1R\000"
 21157      00
 21158              	.LASF28:
 21159 252f 74737461 		.ascii	"tstate_t\000"
 21159      74655F74 
 21159      00
 21160              	.LASF559:
 21161 2538 53504944 		.ascii	"SPIDriver\000"
ARM GAS  C:\Users\adrie\AppData\Local\Temp\ccgB8szF.s 			page 404


 21161      72697665 
 21161      7200
 21162              	.LASF670:
 21163 2542 4441494E 		.ascii	"DAINT\000"
 21163      5400
 21164              	.LASF563:
 21165 2548 53504943 		.ascii	"SPIConfig\000"
 21165      6F6E6669 
 21165      6700
 21166              	.LASF837:
 21167 2552 5F756E73 		.ascii	"_unspecified_locale_info\000"
 21167      70656369 
 21167      66696564 
 21167      5F6C6F63 
 21167      616C655F 
 21168              	.LASF314:
 21169 256b 70757064 		.ascii	"pupdr\000"
 21169      7200
 21170              	.LASF404:
 21171 2571 64616365 		.ascii	"dacerrorcallback_t\000"
 21171      72726F72 
 21171      63616C6C 
 21171      6261636B 
 21171      5F7400
 21172              	.LASF745:
 21173 2584 64636D69 		.ascii	"dcmi\000"
 21173      00
 21174              	.LASF566:
 21175 2589 7472616E 		.ascii	"transmitting\000"
 21175      736D6974 
 21175      74696E67 
 21175      00
 21176              	.LASF424:
 21177 2596 6368616E 		.ascii	"channels\000"
 21177      6E656C73 
 21177      00
 21178              	.LASF170:
 21179 259f 434C4B43 		.ascii	"CLKCR\000"
 21179      5200
 21180              	.LASF538:
 21181 25a5 53444344 		.ascii	"SDCDriver\000"
 21181      72697665 
 21181      7200
 21182              	.LASF45:
 21183 25af 705F6E61 		.ascii	"p_name\000"
 21183      6D6500
 21184              	.LASF839:
 21185 25b6 5F5F7364 		.ascii	"__sdidinit\000"
 21185      6964696E 
 21185      697400
 21186              	.LASF520:
 21187 25c1 53657269 		.ascii	"SerialDriver\000"
 21187      616C4472 
 21187      69766572 
 21187      00
 21188              	.LASF110:
 21189 25ce 4A445231 		.ascii	"JDR1\000"
ARM GAS  C:\Users\adrie\AppData\Local\Temp\ccgB8szF.s 			page 405


 21189      00
 21190              	.LASF111:
 21191 25d3 4A445232 		.ascii	"JDR2\000"
 21191      00
 21192              	.LASF112:
 21193 25d8 4A445233 		.ascii	"JDR3\000"
 21193      00
 21194              	.LASF113:
 21195 25dd 4A445234 		.ascii	"JDR4\000"
 21195      00
 21196              	.LASF632:
 21197 25e2 444F4550 		.ascii	"DOEPTSIZ\000"
 21197      5453495A 
 21197      00
 21198              	.LASF332:
 21199 25eb 4144435F 		.ascii	"ADC_READY\000"
 21199      52454144 
 21199      5900
 21200              	.LASF773:
 21201 25f5 6E616D65 		.ascii	"name\000"
 21201      00
 21202              	.LASF255:
 21203 25fa 62696E61 		.ascii	"binary_semaphore_t\000"
 21203      72795F73 
 21203      656D6170 
 21203      686F7265 
 21203      5F7400
 21204              	.LASF987:
 21205 260d 7472616E 		.ascii	"transition2\000"
 21205      73697469 
 21205      6F6E3200 
 21206              	.LASF761:
 21207 2619 5F666C6F 		.ascii	"_flock_t\000"
 21207      636B5F74 
 21207      00
 21208              	.LASF82:
 21209 2622 76697274 		.ascii	"virtual_timers_list_t\000"
 21209      75616C5F 
 21209      74696D65 
 21209      72735F6C 
 21209      6973745F 
 21210              	.LASF962:
 21211 2638 6765745F 		.ascii	"get_distance_cm\000"
 21211      64697374 
 21211      616E6365 
 21211      5F636D00 
 21212              	.LASF656:
 21213 2648 72657376 		.ascii	"resvd40C\000"
 21213      64343043 
 21213      00
 21214              	.LASF354:
 21215 2651 63697263 		.ascii	"circular\000"
 21215      756C6172 
 21215      00
 21216              	.LASF488:
 21217 265a 69327373 		.ascii	"i2sstate_t\000"
 21217      74617465 
ARM GAS  C:\Users\adrie\AppData\Local\Temp\ccgB8szF.s 			page 406


 21217      5F7400
 21218              	.LASF311:
 21219 2665 6D6F6465 		.ascii	"moder\000"
 21219      7200
 21220              	.LASF912:
 21221 266b 52494748 		.ascii	"RIGHT_CMPLX_INPUT\000"
 21221      545F434D 
 21221      504C585F 
 21221      494E5055 
 21221      5400
 21222              	.LASF225:
 21223 267d 735F7175 		.ascii	"s_queue\000"
 21223      65756500 
 21224              	.LASF214:
 21225 2685 6D5F6372 		.ascii	"m_crit_thd\000"
 21225      69745F74 
 21225      686400
 21226              	.LASF386:
 21227 2690 4441435F 		.ascii	"DAC_STOP\000"
 21227      53544F50 
 21227      00
 21228              	.LASF663:
 21229 2699 72657376 		.ascii	"resvd700\000"
 21229      64373030 
 21229      00
 21230              	.LASF187:
 21231 26a2 49325343 		.ascii	"I2SCFGR\000"
 21231      46475200 
 21232              	.LASF726:
 21233 26aa 75736270 		.ascii	"usbp\000"
 21233      00
 21234              	.LASF764:
 21235 26af 6F707469 		.ascii	"optind\000"
 21235      6E6400
 21236              	.LASF233:
 21237 26b6 63685F69 		.ascii	"ch_identifier\000"
 21237      64656E74 
 21237      69666965 
 21237      7200
 21238              	.LASF530:
 21239 26c4 77726974 		.ascii	"writet\000"
 21239      657400
 21240              	.LASF956:
 21241 26cb 66726571 		.ascii	"frequence_max\000"
 21241      75656E63 
 21241      655F6D61 
 21241      7800
 21242              	.LASF3:
 21243 26d9 6C6F6E67 		.ascii	"long long int\000"
 21243      206C6F6E 
 21243      6720696E 
 21243      7400
 21244              	.LASF650:
 21245 26e7 48505458 		.ascii	"HPTXFSIZ\000"
 21245      4653495A 
 21245      00
 21246              	.LASF749:
ARM GAS  C:\Users\adrie\AppData\Local\Temp\ccgB8szF.s 			page 407


 21247 26f0 7472616E 		.ascii	"transfer_complete_cb\000"
 21247      73666572 
 21247      5F636F6D 
 21247      706C6574 
 21247      655F6362 
 21248              	.LASF240:
 21249 2705 63665F6F 		.ascii	"cf_off_prio\000"
 21249      66665F70 
 21249      72696F00 
 21250              	.LASF829:
 21251 2711 5F666C61 		.ascii	"_flags2\000"
 21251      67733200 
 21252              	.LASF879:
 21253 2719 5F6E6578 		.ascii	"_nextf\000"
 21253      746600
 21254              	.LASF1000:
 21255 2720 6D6F7965 		.ascii	"moyenne_front\000"
 21255      6E6E655F 
 21255      66726F6E 
 21255      7400
 21256              	.LASF211:
 21257 272e 74696D65 		.ascii	"time_measurement_t\000"
 21257      5F6D6561 
 21257      73757265 
 21257      6D656E74 
 21257      5F7400
 21258              	.LASF1007:
 21259 2741 63685654 		.ascii	"chVTGetSystemTime\000"
 21259      47657453 
 21259      79737465 
 21259      6D54696D 
 21259      6500
 21260              	.LASF551:
 21261 2753 6765745F 		.ascii	"get_info\000"
 21261      696E666F 
 21261      00
 21262              	.LASF341:
 21263 275c 61646365 		.ascii	"adcerror_t\000"
 21263      72726F72 
 21263      5F7400
 21264              	.LASF1031:
 21265 2767 636C6561 		.ascii	"clear_leds\000"
 21265      725F6C65 
 21265      647300
 21266              	.LASF716:
 21267 2772 6765745F 		.ascii	"get_descriptor_cb\000"
 21267      64657363 
 21267      72697074 
 21267      6F725F63 
 21267      6200
 21268              	.LASF838:
 21269 2784 5F6C6F63 		.ascii	"_locale\000"
 21269      616C6500 
 21270              	.LASF34:
 21271 278c 6576656E 		.ascii	"eventflags_t\000"
 21271      74666C61 
 21271      67735F74 
ARM GAS  C:\Users\adrie\AppData\Local\Temp\ccgB8szF.s 			page 408


 21271      00
 21272              	.LASF555:
 21273 2799 5350495F 		.ascii	"SPI_READY\000"
 21273      52454144 
 21273      5900
 21274              	.LASF253:
 21275 27a3 73656D61 		.ascii	"semaphore_t\000"
 21275      70686F72 
 21275      655F7400 
 21276              	.LASF128:
 21277 27af 73464946 		.ascii	"sFIFOMailBox\000"
 21277      4F4D6169 
 21277      6C426F78 
 21277      00
 21278              	.LASF543:
 21279 27bc 6275735F 		.ascii	"bus_width\000"
 21279      77696474 
 21279      6800
 21280              	.LASF947:
 21281 27c6 6D696352 		.ascii	"micRight_output\000"
 21281      69676874 
 21281      5F6F7574 
 21281      70757400 
 21282              	.LASF149:
 21283 27d6 44485238 		.ascii	"DHR8RD\000"
 21283      524400
 21284              	.LASF665:
 21285 27dd 4443544C 		.ascii	"DCTL\000"
 21285      00
 21286              	.LASF545:
 21287 27e2 53444344 		.ascii	"SDCDriverVMT\000"
 21287      72697665 
 21287      72564D54 
 21287      00
 21288              	.LASF1008:
 21289 27ef 73797374 		.ascii	"systime\000"
 21289      696D6500 
 21290              	.LASF691:
 21291 27f7 74786275 		.ascii	"txbuf\000"
 21291      6600
 21292              	.LASF684:
 21293 27fd 50434743 		.ascii	"PCGCCTL\000"
 21293      43544C00 
 21294              	.LASF602:
 21295 2805 5553425F 		.ascii	"USB_EVENT_WAKEUP\000"
 21295      4556454E 
 21295      545F5741 
 21295      4B455550 
 21295      00
 21296              	.LASF866:
 21297 2816 5F723438 		.ascii	"_r48\000"
 21297      00
 21298              	.LASF1014:
 21299 281b 5F5F7365 		.ascii	"__set_BASEPRI\000"
 21299      745F4241 
 21299      53455052 
 21299      4900
ARM GAS  C:\Users\adrie\AppData\Local\Temp\ccgB8szF.s 			page 409


 21300              	.LASF44:
 21301 2829 705F6F6C 		.ascii	"p_older\000"
 21301      64657200 
 21302              	.LASF295:
 21303 2831 424C4B5F 		.ascii	"BLK_SYNCING\000"
 21303      53594E43 
 21303      494E4700 
 21304              	.LASF326:
 21305 283d 50494461 		.ascii	"PIData\000"
 21305      746100
 21306              	.LASF713:
 21307 2844 73657475 		.ascii	"setup_buf\000"
 21307      705F6275 
 21307      6600
 21308              	.LASF451:
 21309 284e 47505444 		.ascii	"GPTD6\000"
 21309      3600
 21310              	.LASF732:
 21311 2854 44434D49 		.ascii	"DCMI_ERR_DMAFAILURE\000"
 21311      5F455252 
 21311      5F444D41 
 21311      4641494C 
 21311      55524500 
 21312              	.LASF357:
 21313 2868 6572726F 		.ascii	"error_cb\000"
 21313      725F6362 
 21313      00
 21314              	.LASF910:
 21315 2871 6E6F726D 		.ascii	"norm\000"
 21315      00
 21316              	.LASF291:
 21317 2876 424C4B5F 		.ascii	"BLK_DISCONNECTING\000"
 21317      44495343 
 21317      4F4E4E45 
 21317      4354494E 
 21317      4700
 21318              	.LASF561:
 21319 2888 7373706F 		.ascii	"ssport\000"
 21319      727400
 21320              	.LASF900:
 21321 288f 6275665F 		.ascii	"buf_len\000"
 21321      6C656E00 
 21322              	.LASF60:
 21323 2897 74687265 		.ascii	"thread_reference_t\000"
 21323      61645F72 
 21323      65666572 
 21323      656E6365 
 21323      5F7400
 21324              	.LASF734:
 21325 28aa 64636D69 		.ascii	"dcmierror_t\000"
 21325      6572726F 
 21325      725F7400 
 21326              	.LASF420:
 21327 28b6 65787063 		.ascii	"expchannel_t\000"
 21327      68616E6E 
 21327      656C5F74 
 21327      00
ARM GAS  C:\Users\adrie\AppData\Local\Temp\ccgB8szF.s 			page 410


 21328              	.LASF938:
 21329 28c3 72656665 		.ascii	"reference\000"
 21329      72656E63 
 21329      6500
 21330              	.LASF567:
 21331 28cd 72656365 		.ascii	"receiving\000"
 21331      6976696E 
 21331      6700
 21332              	.LASF892:
 21333 28d7 70617261 		.ascii	"parameter_list\000"
 21333      6D657465 
 21333      725F6C69 
 21333      737400
 21334              	.LASF852:
 21335 28e6 5F5F4649 		.ascii	"__FILE\000"
 21335      4C4500
 21336              	.LASF1024:
 21337 28ed 63685468 		.ascii	"chThdSleepUntilWindowed\000"
 21337      64536C65 
 21337      6570556E 
 21337      74696C57 
 21337      696E646F 
 21338              	.LASF447:
 21339 2905 66726571 		.ascii	"frequency\000"
 21339      75656E63 
 21339      7900
 21340              	.LASF1017:
 21341 290f 5F737461 		.ascii	"_stats_start_measure_crit_thd\000"
 21341      74735F73 
 21341      74617274 
 21341      5F6D6561 
 21341      73757265 
 21342              	.LASF206:
 21343 292d 746D5F63 		.ascii	"tm_calibration_t\000"
 21343      616C6962 
 21343      72617469 
 21343      6F6E5F74 
 21343      00
 21344              	.LASF710:
 21345 293e 696E5F73 		.ascii	"in_state\000"
 21345      74617465 
 21345      00
 21346              	.LASF190:
 21347 2947 47545052 		.ascii	"GTPR\000"
 21347      00
 21348              	.LASF995:
 21349 294c 6E6F726D 		.ascii	"norm_left\000"
 21349      5F6C6566 
 21349      7400
 21350              	.LASF234:
 21351 2956 63685F7A 		.ascii	"ch_zero\000"
 21351      65726F00 
 21352              	.LASF468:
 21353 295e 46415354 		.ascii	"FAST_DUTY_CYCLE_2\000"
 21353      5F445554 
 21353      595F4359 
 21353      434C455F 
ARM GAS  C:\Users\adrie\AppData\Local\Temp\ccgB8szF.s 			page 411


 21353      3200
 21354              	.LASF178:
 21355 2970 44435452 		.ascii	"DCTRL\000"
 21355      4C00
 21356              	.LASF239:
 21357 2976 63685F74 		.ascii	"ch_threadsize\000"
 21357      68726561 
 21357      6473697A 
 21357      6500
 21358              	.LASF167:
 21359 2984 464C5452 		.ascii	"FLTR\000"
 21359      00
 21360              	.LASF1029:
 21361 2989 646F4646 		.ascii	"doFFT_optimized\000"
 21361      545F6F70 
 21361      74696D69 
 21361      7A656400 
 21362              	.LASF929:
 21363 2999 5F5F6664 		.ascii	"__fdlib_version\000"
 21363      6C69625F 
 21363      76657273 
 21363      696F6E00 
 21364              	.LASF438:
 21365 29a9 43434D52 		.ascii	"CCMR1\000"
 21365      3100
 21366              	.LASF439:
 21367 29af 43434D52 		.ascii	"CCMR2\000"
 21367      3200
 21368              	.LASF443:
 21369 29b5 43434D52 		.ascii	"CCMR3\000"
 21369      3300
 21370              	.LASF2:
 21371 29bb 756E7369 		.ascii	"unsigned int\000"
 21371      676E6564 
 21371      20696E74 
 21371      00
 21372              	.LASF361:
 21373 29c8 73717232 		.ascii	"sqr2\000"
 21373      00
 21374              	.LASF362:
 21375 29cd 73717233 		.ascii	"sqr3\000"
 21375      00
 21376              	.LASF744:
 21377 29d2 44434D49 		.ascii	"DCMIDriver\000"
 21377      44726976 
 21377      657200
 21378              	.LASF654:
 21379 29dd 48464952 		.ascii	"HFIR\000"
 21379      00
 21380              	.LASF750:
 21381 29e2 44434D49 		.ascii	"DCMIConfig\000"
 21381      436F6E66 
 21381      696700
 21382              	.LASF1037:
 21383 29ed 70695F72 		.ascii	"pi_regulator_start\000"
 21383      6567756C 
 21383      61746F72 
ARM GAS  C:\Users\adrie\AppData\Local\Temp\ccgB8szF.s 			page 412


 21383      5F737461 
 21383      727400
 21384              	.LASF584:
 21385 2a00 5553425F 		.ascii	"USB_UNINIT\000"
 21385      554E494E 
 21385      495400
 21386              	.LASF280:
 21387 2a0b 73747265 		.ascii	"stream\000"
 21387      616D00
 21388              	.LASF364:
 21389 2a12 64756D6D 		.ascii	"dummy\000"
 21389      7900
 21390              	.LASF466:
 21391 2a18 6932636F 		.ascii	"i2copmode_t\000"
 21391      706D6F64 
 21391      655F7400 
 21392              	.LASF957:
 21393 2a24 70756973 		.ascii	"puissance_source\000"
 21393      73616E63 
 21393      655F736F 
 21393      75726365 
 21393      00
 21394              	.LASF254:
 21395 2a35 62735F73 		.ascii	"bs_sem\000"
 21395      656D00
 21396              	.LASF156:
 21397 2a3c 45535552 		.ascii	"ESUR\000"
 21397      00
 21398              	.LASF258:
 21399 2a41 6576656E 		.ascii	"event_listener\000"
 21399      745F6C69 
 21399      7374656E 
 21399      657200
 21400              	.LASF858:
 21401 2a50 5F6D756C 		.ascii	"_mult\000"
 21401      7400
 21402              	.LASF10:
 21403 2a56 73686F72 		.ascii	"short int\000"
 21403      7420696E 
 21403      7400
 21404              	.LASF608:
 21405 2a60 75736263 		.ascii	"usbcallback_t\000"
 21405      616C6C62 
 21405      61636B5F 
 21405      7400
 21406              	.LASF818:
 21407 2a6e 5F726561 		.ascii	"_read\000"
 21407      6400
 21408              	.LASF1016:
 21409 2a74 73717274 		.ascii	"sqrt\000"
 21409      00
 21410              	.LASF637:
 21411 2a79 47555342 		.ascii	"GUSBCFG\000"
 21411      43464700 
 21412              	.LASF191:
 21413 2a81 55534152 		.ascii	"USART_TypeDef\000"
 21413      545F5479 
ARM GAS  C:\Users\adrie\AppData\Local\Temp\ccgB8szF.s 			page 413


 21413      70654465 
 21413      6600
 21414              	.LASF279:
 21415 2a8f 6F757470 		.ascii	"output_queue_t\000"
 21415      75745F71 
 21415      75657565 
 21415      5F7400
 21416              	.LASF856:
 21417 2a9e 5F72616E 		.ascii	"_rand48\000"
 21417      64343800 
 21418              	.LASF686:
 21419 2aa6 73746D33 		.ascii	"stm32_otg_t\000"
 21419      325F6F74 
 21419      675F7400 
 21420              	.LASF801:
 21421 2ab2 5F5F746D 		.ascii	"__tm_isdst\000"
 21421      5F697364 
 21421      737400
 21422              	.LASF489:
 21423 2abd 49325344 		.ascii	"I2SDriver\000"
 21423      72697665 
 21423      7200
 21424              	.LASF473:
 21425 2ac7 64757479 		.ascii	"duty_cycle\000"
 21425      5F637963 
 21425      6C6500
 21426              	.LASF496:
 21427 2ad2 49325343 		.ascii	"I2SConfig\000"
 21427      6F6E6669 
 21427      6700
 21428              	.LASF605:
 21429 2adc 75645F73 		.ascii	"ud_size\000"
 21429      697A6500 
 21430              	.LASF1025:
 21431 2ae4 63685365 		.ascii	"chSemWait\000"
 21431      6D576169 
 21431      7400
 21432              	.LASF980:
 21433 2aee 6D757374 		.ascii	"mustSend\000"
 21433      53656E64 
 21433      00
 21434              	.LASF708:
 21435 2af7 696E5F6D 		.ascii	"in_maxsize\000"
 21435      61787369 
 21435      7A6500
 21436              	.LASF323:
 21437 2b02 50464461 		.ascii	"PFData\000"
 21437      746100
 21438              	.LASF416:
 21439 2b09 4558545F 		.ascii	"EXT_STOP\000"
 21439      53544F50 
 21439      00
 21440              	.LASF47:
 21441 2b12 705F7374 		.ascii	"p_state\000"
 21441      61746500 
 21442              	.LASF497:
 21443 2b1a 49325344 		.ascii	"I2SD2\000"
ARM GAS  C:\Users\adrie\AppData\Local\Temp\ccgB8szF.s 			page 414


 21443      3200
 21444              	.LASF546:
 21445 2b20 69735F69 		.ascii	"is_inserted\000"
 21445      6E736572 
 21445      74656400 
 21446              	.LASF63:
 21447 2b2c 63685F74 		.ascii	"ch_threads_list\000"
 21447      68726561 
 21447      64735F6C 
 21447      69737400 
 21448              	.LASF179:
 21449 2b3c 44434F55 		.ascii	"DCOUNT\000"
 21449      4E5400
 21450              	.LASF164:
 21451 2b43 4F415231 		.ascii	"OAR1\000"
 21451      00
 21452              	.LASF165:
 21453 2b48 4F415232 		.ascii	"OAR2\000"
 21453      00
 21454              	.LASF59:
 21455 2b4d 705F7374 		.ascii	"p_stats\000"
 21455      61747300 
 21456              	.LASF589:
 21457 2b55 75736273 		.ascii	"usbstate_t\000"
 21457      74617465 
 21457      5F7400
 21458              		.ident	"GCC: (GNU Tools for Arm Embedded Processors 7-2017-q4-major) 7.2.1 20170904 (release) [ARM
ARM GAS  C:\Users\adrie\AppData\Local\Temp\ccgB8szF.s 			page 415


DEFINED SYMBOLS
                            *ABS*:00000000 audio_processing.c
C:\Users\adrie\AppData\Local\Temp\ccgB8szF.s:18     .text.get_max_norm_index.part.0:00000000 $t
C:\Users\adrie\AppData\Local\Temp\ccgB8szF.s:25     .text.get_max_norm_index.part.0:00000000 get_max_norm_index.part.0
C:\Users\adrie\AppData\Local\Temp\ccgB8szF.s:178    .text.get_max_norm_index.part.0:000000ac $d
C:\Users\adrie\AppData\Local\Temp\ccgB8szF.s:3223   .bss.micBack_output:00000000 micBack_output
C:\Users\adrie\AppData\Local\Temp\ccgB8szF.s:3235   .bss.micFront_output:00000000 micFront_output
C:\Users\adrie\AppData\Local\Temp\ccgB8szF.s:193    .text.PiRegulator:00000000 $t
C:\Users\adrie\AppData\Local\Temp\ccgB8szF.s:200    .text.PiRegulator:00000000 PiRegulator
C:\Users\adrie\AppData\Local\Temp\ccgB8szF.s:717    .text.PiRegulator:00000248 $d
C:\Users\adrie\AppData\Local\Temp\ccgB8szF.s:741    .text.sound_remote:00000000 $t
C:\Users\adrie\AppData\Local\Temp\ccgB8szF.s:749    .text.sound_remote:00000000 sound_remote
C:\Users\adrie\AppData\Local\Temp\ccgB8szF.s:894    .text.sound_remote:000000b4 $d
C:\Users\adrie\AppData\Local\Temp\ccgB8szF.s:901    .text.calcul_distance:00000000 $t
C:\Users\adrie\AppData\Local\Temp\ccgB8szF.s:909    .text.calcul_distance:00000000 calcul_distance
C:\Users\adrie\AppData\Local\Temp\ccgB8szF.s:988    .text.calcul_distance:00000068 $d
C:\Users\adrie\AppData\Local\Temp\ccgB8szF.s:996    .text.calcul_angle:00000000 $t
C:\Users\adrie\AppData\Local\Temp\ccgB8szF.s:1004   .text.calcul_angle:00000000 calcul_angle
C:\Users\adrie\AppData\Local\Temp\ccgB8szF.s:1307   .text.calcul_angle:00000198 $d
C:\Users\adrie\AppData\Local\Temp\ccgB8szF.s:1314   .text.calcul_moyenne:00000000 $t
C:\Users\adrie\AppData\Local\Temp\ccgB8szF.s:1322   .text.calcul_moyenne:00000000 calcul_moyenne
C:\Users\adrie\AppData\Local\Temp\ccgB8szF.s:1388   .text.calcul_moyenne:00000038 $d
C:\Users\adrie\AppData\Local\Temp\ccgB8szF.s:1395   .text.update_moyenne:00000000 $t
C:\Users\adrie\AppData\Local\Temp\ccgB8szF.s:1403   .text.update_moyenne:00000000 update_moyenne
C:\Users\adrie\AppData\Local\Temp\ccgB8szF.s:1467   .text.update_moyenne:0000003c $d
C:\Users\adrie\AppData\Local\Temp\ccgB8szF.s:1473   .text.max_norm:00000000 $t
C:\Users\adrie\AppData\Local\Temp\ccgB8szF.s:1481   .text.max_norm:00000000 max_norm
C:\Users\adrie\AppData\Local\Temp\ccgB8szF.s:1564   .text.max_norm:0000005c $d
C:\Users\adrie\AppData\Local\Temp\ccgB8szF.s:1570   .text.wait_send_to_computer:00000000 $t
C:\Users\adrie\AppData\Local\Temp\ccgB8szF.s:1578   .text.wait_send_to_computer:00000000 wait_send_to_computer
C:\Users\adrie\AppData\Local\Temp\ccgB8szF.s:1625   .text.wait_send_to_computer:00000024 $d
C:\Users\adrie\AppData\Local\Temp\ccgB8szF.s:1633   .text.get_max_norm_index:00000000 $t
C:\Users\adrie\AppData\Local\Temp\ccgB8szF.s:1641   .text.get_max_norm_index:00000000 get_max_norm_index
C:\Users\adrie\AppData\Local\Temp\ccgB8szF.s:1793   .text.get_max_norm_index:000000b0 $d
C:\Users\adrie\AppData\Local\Temp\ccgB8szF.s:3259   .bss.micRight_output:00000000 micRight_output
C:\Users\adrie\AppData\Local\Temp\ccgB8szF.s:3247   .bss.micLeft_output:00000000 micLeft_output
C:\Users\adrie\AppData\Local\Temp\ccgB8szF.s:1801   .text.get_audio_buffer_ptr:00000000 $t
C:\Users\adrie\AppData\Local\Temp\ccgB8szF.s:1809   .text.get_audio_buffer_ptr:00000000 get_audio_buffer_ptr
C:\Users\adrie\AppData\Local\Temp\ccgB8szF.s:1915   .text.get_audio_buffer_ptr:0000005c $d
C:\Users\adrie\AppData\Local\Temp\ccgB8szF.s:3241   .bss.micLeft_cmplx_input:00000000 micLeft_cmplx_input
C:\Users\adrie\AppData\Local\Temp\ccgB8szF.s:3253   .bss.micRight_cmplx_input:00000000 micRight_cmplx_input
C:\Users\adrie\AppData\Local\Temp\ccgB8szF.s:3217   .bss.micBack_cmplx_input:00000000 micBack_cmplx_input
C:\Users\adrie\AppData\Local\Temp\ccgB8szF.s:3229   .bss.micFront_cmplx_input:00000000 micFront_cmplx_input
C:\Users\adrie\AppData\Local\Temp\ccgB8szF.s:1928   .text.led_direction:00000000 $t
C:\Users\adrie\AppData\Local\Temp\ccgB8szF.s:1936   .text.led_direction:00000000 led_direction
C:\Users\adrie\AppData\Local\Temp\ccgB8szF.s:2084   .text.led_direction:00000084 $d
C:\Users\adrie\AppData\Local\Temp\ccgB8szF.s:2089   .text.processAudioData:00000000 $t
C:\Users\adrie\AppData\Local\Temp\ccgB8szF.s:2097   .text.processAudioData:00000000 processAudioData
C:\Users\adrie\AppData\Local\Temp\ccgB8szF.s:2769   .text.processAudioData:000002c8 $d
C:\Users\adrie\AppData\Local\Temp\ccgB8szF.s:2792   .text.echantillone_distance:00000000 $t
C:\Users\adrie\AppData\Local\Temp\ccgB8szF.s:2800   .text.echantillone_distance:00000000 echantillone_distance
C:\Users\adrie\AppData\Local\Temp\ccgB8szF.s:2833   .text.echantillone_distance:0000001c $d
C:\Users\adrie\AppData\Local\Temp\ccgB8szF.s:2838   .text.get_max_front_moyenne:00000000 $t
C:\Users\adrie\AppData\Local\Temp\ccgB8szF.s:2846   .text.get_max_front_moyenne:00000000 get_max_front_moyenne
C:\Users\adrie\AppData\Local\Temp\ccgB8szF.s:2928   .text.get_max_front_moyenne:00000030 $d
C:\Users\adrie\AppData\Local\Temp\ccgB8szF.s:2935   .text.get_line_position:00000000 $t
C:\Users\adrie\AppData\Local\Temp\ccgB8szF.s:2943   .text.get_line_position:00000000 get_line_position
ARM GAS  C:\Users\adrie\AppData\Local\Temp\ccgB8szF.s 			page 416


C:\Users\adrie\AppData\Local\Temp\ccgB8szF.s:2981   .text.get_line_position:00000020 $d
C:\Users\adrie\AppData\Local\Temp\ccgB8szF.s:2987   .text.get_distance_cm:00000000 $t
C:\Users\adrie\AppData\Local\Temp\ccgB8szF.s:2995   .text.get_distance_cm:00000000 get_distance_cm
C:\Users\adrie\AppData\Local\Temp\ccgB8szF.s:3028   .text.get_distance_cm:00000020 $d
C:\Users\adrie\AppData\Local\Temp\ccgB8szF.s:3034   .text.pi_regulator:00000000 $t
C:\Users\adrie\AppData\Local\Temp\ccgB8szF.s:3042   .text.pi_regulator:00000000 pi_regulator
C:\Users\adrie\AppData\Local\Temp\ccgB8szF.s:3135   .text.pi_regulator:00000088 $d
C:\Users\adrie\AppData\Local\Temp\ccgB8szF.s:3145   .text.pi_regulator_start:00000000 $t
C:\Users\adrie\AppData\Local\Temp\ccgB8szF.s:3153   .text.pi_regulator_start:00000000 pi_regulator_start
C:\Users\adrie\AppData\Local\Temp\ccgB8szF.s:3200   .text.pi_regulator_start:0000002c $d
C:\Users\adrie\AppData\Local\Temp\ccgB8szF.s:3207   .bss.angle:00000000 $d
C:\Users\adrie\AppData\Local\Temp\ccgB8szF.s:3211   .bss.angle:00000000 angle
C:\Users\adrie\AppData\Local\Temp\ccgB8szF.s:3214   .bss.micBack_cmplx_input:00000000 $d
C:\Users\adrie\AppData\Local\Temp\ccgB8szF.s:3220   .bss.micBack_output:00000000 $d
C:\Users\adrie\AppData\Local\Temp\ccgB8szF.s:3226   .bss.micFront_cmplx_input:00000000 $d
C:\Users\adrie\AppData\Local\Temp\ccgB8szF.s:3232   .bss.micFront_output:00000000 $d
C:\Users\adrie\AppData\Local\Temp\ccgB8szF.s:3238   .bss.micLeft_cmplx_input:00000000 $d
C:\Users\adrie\AppData\Local\Temp\ccgB8szF.s:3244   .bss.micLeft_output:00000000 $d
C:\Users\adrie\AppData\Local\Temp\ccgB8szF.s:3250   .bss.micRight_cmplx_input:00000000 $d
C:\Users\adrie\AppData\Local\Temp\ccgB8szF.s:3256   .bss.micRight_output:00000000 $d
C:\Users\adrie\AppData\Local\Temp\ccgB8szF.s:3262   .bss.moyenne:00000000 $d
C:\Users\adrie\AppData\Local\Temp\ccgB8szF.s:3266   .bss.moyenne:00000000 moyenne
C:\Users\adrie\AppData\Local\Temp\ccgB8szF.s:3272   .bss.mustSend.14256:00000000 mustSend.14256
C:\Users\adrie\AppData\Local\Temp\ccgB8szF.s:3273   .bss.mustSend.14256:00000000 $d
C:\Users\adrie\AppData\Local\Temp\ccgB8szF.s:3275   .bss.nb_samples.14255:00000000 $d
C:\Users\adrie\AppData\Local\Temp\ccgB8szF.s:3279   .bss.nb_samples.14255:00000000 nb_samples.14255
C:\Users\adrie\AppData\Local\Temp\ccgB8szF.s:3282   .bss.nbr_passage:00000000 $d
C:\Users\adrie\AppData\Local\Temp\ccgB8szF.s:3286   .bss.nbr_passage:00000000 nbr_passage
C:\Users\adrie\AppData\Local\Temp\ccgB8szF.s:3289   .bss.sum_error.14346:00000000 $d
C:\Users\adrie\AppData\Local\Temp\ccgB8szF.s:3293   .bss.sum_error.14346:00000000 sum_error.14346
C:\Users\adrie\AppData\Local\Temp\ccgB8szF.s:3296   .bss.waPiRegulator:00000000 $d
C:\Users\adrie\AppData\Local\Temp\ccgB8szF.s:3300   .bss.waPiRegulator:00000000 waPiRegulator
C:\Users\adrie\AppData\Local\Temp\ccgB8szF.s:3303   .data.sendToComputer_sem:00000000 $d
C:\Users\adrie\AppData\Local\Temp\ccgB8szF.s:3307   .data.sendToComputer_sem:00000000 sendToComputer_sem
C:\Users\adrie\AppData\Local\Temp\ccgB8szF.s:3312   .rodata.__FUNCTION__.14351:00000000 $d
C:\Users\adrie\AppData\Local\Temp\ccgB8szF.s:3316   .rodata.__FUNCTION__.14351:00000000 __FUNCTION__.14351
C:\Users\adrie\AppData\Local\Temp\ccgB8szF.s:3319   .rodata.__func__.7153:00000000 $d
C:\Users\adrie\AppData\Local\Temp\ccgB8szF.s:3323   .rodata.__func__.7153:00000000 __func__.7153

UNDEFINED SYMBOLS
__stack_chk_fail
__stack_chk_guard
__aeabi_i2d
__aeabi_dmul
__aeabi_ddiv
__aeabi_dcmpun
__aeabi_dcmpge
__aeabi_dadd
__aeabi_d2f
sqrt
right_motor_set_speed
left_motor_set_speed
chThdSleepUntilWindowed
_stats_start_measure_crit_thd
_dbg_check_lock
_dbg_check_unlock
_stats_stop_measure_crit_thd
ARM GAS  C:\Users\adrie\AppData\Local\Temp\ccgB8szF.s 			page 417


chSysHalt
ch
chSemWait
clear_leds
set_led
doFFT_optimized
arm_cmplx_mag_f32
chDbgCheckClassI
chSchRescheduleS
chSemSignalI
chThdCreateStatic
