ARM GAS  C:\Users\JEANCO~1\AppData\Local\Temp\ccxhVNGN.s 			page 1


   1              		.cpu cortex-m4
   2              		.eabi_attribute 27, 1
   3              		.eabi_attribute 28, 1
   4              		.eabi_attribute 20, 1
   5              		.eabi_attribute 21, 1
   6              		.eabi_attribute 23, 3
   7              		.eabi_attribute 24, 1
   8              		.eabi_attribute 25, 1
   9              		.eabi_attribute 26, 1
  10              		.eabi_attribute 30, 2
  11              		.eabi_attribute 34, 1
  12              		.eabi_attribute 18, 4
  13              		.file	"audio_processing.c"
  14              		.text
  15              	.Ltext0:
  16              		.cfi_sections	.debug_frame
  17              		.section	.text.get_max_norm_index.part.0,"ax",%progbits
  18              		.align	1
  19              		.p2align 4,,15
  20              		.syntax unified
  21              		.thumb
  22              		.thumb_func
  23              		.fpu fpv4-sp-d16
  24              		.type	get_max_norm_index.part.0, %function
  25              	get_max_norm_index.part.0:
  26              	.LFB310:
  27              		.file 1 "audio_processing.c"
  28              		.loc 1 432 0
  29              		.cfi_startproc
  30              		@ args = 0, pretend = 0, frame = 8
  31              		@ frame_needed = 0, uses_anonymous_args = 0
  32              	.LVL0:
  33 0000 70B5     		push	{r4, r5, r6, lr}
  34              		.cfi_def_cfa_offset 16
  35              		.cfi_offset 4, -16
  36              		.cfi_offset 5, -12
  37              		.cfi_offset 6, -8
  38              		.cfi_offset 14, -4
  39 0002 2A4E     		ldr	r6, .L24
  40 0004 82B0     		sub	sp, sp, #8
  41              		.cfi_def_cfa_offset 24
  42              		.loc 1 432 0
  43 0006 3368     		ldr	r3, [r6]
  44 0008 0193     		str	r3, [sp, #4]
  45              		.loc 1 440 0
  46 000a 0629     		cmp	r1, #6
  47 000c 2BD0     		beq	.L21
  48              		.loc 1 443 0
  49 000e 0729     		cmp	r1, #7
  50 0010 08D0     		beq	.L22
  51              	.LVL1:
  52              	.LBB151:
  53              		.loc 1 448 0
  54 0012 0023     		movs	r3, #0
  55 0014 C0E90033 		strd	r3, r3, [r0]
  56              	.LVL2:
  57              	.L1:
ARM GAS  C:\Users\JEANCO~1\AppData\Local\Temp\ccxhVNGN.s 			page 2


  58              	.LBE151:
  59              		.loc 1 450 0
  60 0018 019A     		ldr	r2, [sp, #4]
  61 001a 3368     		ldr	r3, [r6]
  62 001c 9A42     		cmp	r2, r3
  63 001e 43D1     		bne	.L23
  64 0020 02B0     		add	sp, sp, #8
  65              		.cfi_remember_state
  66              		.cfi_def_cfa_offset 16
  67              		@ sp needed
  68 0022 70BD     		pop	{r4, r5, r6, pc}
  69              	.LVL3:
  70              	.L22:
  71              		.cfi_restore_state
  72 0024 224A     		ldr	r2, .L24+4
  73              	.LBB152:
  74              	.LBB153:
  75              		.loc 1 410 0
  76 0026 9FED237A 		vldr.32	s14, .L24+8
  77              		.loc 1 411 0
  78 002a 4FF0FF31 		mov	r1, #-1
  79              	.LVL4:
  80              	.LBB154:
  81              		.loc 1 416 0
  82 002e 0A23     		movs	r3, #10
  83 0030 40F60104 		movw	r4, #2049
  84              	.L10:
  85              	.LVL5:
  86              		.loc 1 417 0
  87 0034 F2EC017A 		vldmia.32	r2!, {s15}
  88 0038 F4EEC77A 		vcmpe.f32	s15, s14
  89 003c F1EE10FA 		vmrs	APSR_nzcv, FPSCR
  90 0040 08DD     		ble	.L8
  91 0042 A3F13305 		sub	r5, r3, #51
  92 0046 B5F56D7F 		cmp	r5, #948
  93 004a 98BF     		it	ls
  94 004c 1946     		movls	r1, r3
  95              	.LVL6:
  96 004e 98BF     		it	ls
  97 0050 B0EE677A 		vmovls.f32	s14, s15
  98              	.LVL7:
  99              	.L8:
 100              		.loc 1 416 0
 101 0054 0133     		adds	r3, r3, #1
 102              	.LVL8:
 103 0056 A342     		cmp	r3, r4
 104 0058 ECD1     		bne	.L10
 105              	.LVL9:
 106              	.LBE154:
 107              		.loc 1 422 0
 108 005a BDEEC77A 		vcvt.s32.f32	s14, s14
 109              	.LVL10:
 110              		.loc 1 424 0
 111 005e 4160     		str	r1, [r0, #4]
 112              	.LVL11:
 113              		.loc 1 422 0
 114 0060 80ED007A 		vstr.32	s14, [r0]	@ int
ARM GAS  C:\Users\JEANCO~1\AppData\Local\Temp\ccxhVNGN.s 			page 3


 115 0064 D8E7     		b	.L1
 116              	.LVL12:
 117              	.L21:
 118 0066 144A     		ldr	r2, .L24+12
 119              	.LBE153:
 120              	.LBE152:
 121              	.LBB156:
 122              	.LBB157:
 123              		.loc 1 410 0
 124 0068 9FED127A 		vldr.32	s14, .L24+8
 125              		.loc 1 411 0
 126 006c 4FF0FF31 		mov	r1, #-1
 127              	.LVL13:
 128              	.LBB158:
 129              		.loc 1 416 0
 130 0070 0A23     		movs	r3, #10
 131 0072 40F60104 		movw	r4, #2049
 132              	.L5:
 133              	.LVL14:
 134              		.loc 1 417 0
 135 0076 F2EC017A 		vldmia.32	r2!, {s15}
 136 007a F4EEC77A 		vcmpe.f32	s15, s14
 137 007e F1EE10FA 		vmrs	APSR_nzcv, FPSCR
 138 0082 08DD     		ble	.L3
 139 0084 A3F13305 		sub	r5, r3, #51
 140 0088 B5F56D7F 		cmp	r5, #948
 141 008c 98BF     		it	ls
 142 008e 1946     		movls	r1, r3
 143              	.LVL15:
 144 0090 98BF     		it	ls
 145 0092 B0EE677A 		vmovls.f32	s14, s15
 146              	.LVL16:
 147              	.L3:
 148              		.loc 1 416 0
 149 0096 0133     		adds	r3, r3, #1
 150              	.LVL17:
 151 0098 A342     		cmp	r3, r4
 152 009a ECD1     		bne	.L5
 153              	.LVL18:
 154              	.LBE158:
 155              	.LBE157:
 156              	.LBE156:
 157              	.LBB159:
 158              	.LBB155:
 159              		.loc 1 422 0
 160 009c BDEEC77A 		vcvt.s32.f32	s14, s14
 161              	.LVL19:
 162              		.loc 1 424 0
 163 00a0 4160     		str	r1, [r0, #4]
 164              	.LVL20:
 165              		.loc 1 422 0
 166 00a2 80ED007A 		vstr.32	s14, [r0]	@ int
 167 00a6 B7E7     		b	.L1
 168              	.LVL21:
 169              	.L23:
 170              	.LBE155:
 171              	.LBE159:
ARM GAS  C:\Users\JEANCO~1\AppData\Local\Temp\ccxhVNGN.s 			page 4


 172              		.loc 1 450 0
 173 00a8 FFF7FEFF 		bl	__stack_chk_fail
 174              	.LVL22:
 175              	.L25:
 176              		.align	2
 177              	.L24:
 178 00ac 00000000 		.word	__stack_chk_guard
 179 00b0 28000000 		.word	micBack_output+40
 180 00b4 0000C842 		.word	1120403456
 181 00b8 28000000 		.word	micFront_output+40
 182              		.cfi_endproc
 183              	.LFE310:
 184              		.size	get_max_norm_index.part.0, .-get_max_norm_index.part.0
 185              		.section	.text.sound_remote,"ax",%progbits
 186              		.align	1
 187              		.p2align 4,,15
 188              		.global	sound_remote
 189              		.syntax unified
 190              		.thumb
 191              		.thumb_func
 192              		.fpu fpv4-sp-d16
 193              		.type	sound_remote, %function
 194              	sound_remote:
 195              	.LFB290:
 196              		.loc 1 89 0
 197              		.cfi_startproc
 198              		@ args = 0, pretend = 0, frame = 8
 199              		@ frame_needed = 0, uses_anonymous_args = 0
 200              	.LVL23:
 201 0000 10B5     		push	{r4, lr}
 202              		.cfi_def_cfa_offset 8
 203              		.cfi_offset 4, -8
 204              		.cfi_offset 14, -4
 205 0002 2C4C     		ldr	r4, .L51
 206              		.loc 1 90 0
 207 0004 9FED2C7A 		vldr.32	s14, .L51+4
 208              		.loc 1 89 0
 209 0008 2368     		ldr	r3, [r4]
 210 000a 82B0     		sub	sp, sp, #8
 211              		.cfi_def_cfa_offset 16
 212 000c 2830     		adds	r0, r0, #40
 213              	.LVL24:
 214              		.loc 1 89 0
 215 000e 0193     		str	r3, [sp, #4]
 216              	.LVL25:
 217              		.loc 1 91 0
 218 0010 4FF0FF31 		mov	r1, #-1
 219              		.loc 1 89 0
 220 0014 0A23     		movs	r3, #10
 221              	.LBB160:
 222              		.loc 1 94 0
 223 0016 40F60102 		movw	r2, #2049
 224              	.LVL26:
 225              	.L29:
 226              		.loc 1 95 0
 227 001a F0EC017A 		vldmia.32	r0!, {s15}
 228 001e F4EEC77A 		vcmpe.f32	s15, s14
ARM GAS  C:\Users\JEANCO~1\AppData\Local\Temp\ccxhVNGN.s 			page 5


 229 0022 F1EE10FA 		vmrs	APSR_nzcv, FPSCR
 230              	.LVL27:
 231              		.loc 1 97 0
 232 0026 C8BF     		it	gt
 233 0028 19B2     		sxthgt	r1, r3
 234              	.LVL28:
 235 002a 03F10103 		add	r3, r3, #1
 236              	.LVL29:
 237              		.loc 1 96 0
 238 002e C8BF     		it	gt
 239 0030 B0EE677A 		vmovgt.f32	s14, s15
 240              	.LVL30:
 241              		.loc 1 94 0
 242 0034 9342     		cmp	r3, r2
 243 0036 F0D1     		bne	.L29
 244              	.LBE160:
 245              		.loc 1 103 0
 246 0038 89B2     		uxth	r1, r1
 247 003a A1F10F03 		sub	r3, r1, #15
 248 003e 022B     		cmp	r3, #2
 249 0040 24D9     		bls	.L47
 250              		.loc 1 108 0
 251 0042 A1F11203 		sub	r3, r1, #18
 252 0046 022B     		cmp	r3, #2
 253 0048 11D9     		bls	.L48
 254              		.loc 1 113 0
 255 004a A1F11603 		sub	r3, r1, #22
 256 004e 022B     		cmp	r3, #2
 257 0050 2CD9     		bls	.L49
 258              		.loc 1 118 0
 259 0052 1939     		subs	r1, r1, #25
 260 0054 0229     		cmp	r1, #2
 261 0056 1CD9     		bls	.L50
 262              		.loc 1 123 0
 263 0058 0020     		movs	r0, #0
 264 005a FFF7FEFF 		bl	left_motor_set_speed
 265              	.LVL31:
 266              		.loc 1 124 0
 267 005e 019A     		ldr	r2, [sp, #4]
 268 0060 2368     		ldr	r3, [r4]
 269 0062 9A42     		cmp	r2, r3
 270 0064 08BF     		it	eq
 271 0066 0020     		moveq	r0, #0
 272 0068 0BD0     		beq	.L43
 273              	.L44:
 274 006a FFF7FEFF 		bl	__stack_chk_fail
 275              	.LVL32:
 276              	.L48:
 277              		.loc 1 109 0
 278 006e 1348     		ldr	r0, .L51+8
 279              	.L45:
 280 0070 FFF7FEFF 		bl	left_motor_set_speed
 281              	.LVL33:
 282              		.loc 1 110 0
 283 0074 019A     		ldr	r2, [sp, #4]
 284 0076 2368     		ldr	r3, [r4]
 285 0078 9A42     		cmp	r2, r3
ARM GAS  C:\Users\JEANCO~1\AppData\Local\Temp\ccxhVNGN.s 			page 6


 286 007a 08BF     		it	eq
 287 007c 4FF41670 		moveq	r0, #600
 288 0080 F3D1     		bne	.L44
 289              	.L43:
 290              		.loc 1 127 0
 291 0082 02B0     		add	sp, sp, #8
 292              		.cfi_remember_state
 293              		.cfi_def_cfa_offset 8
 294              		@ sp needed
 295 0084 BDE81040 		pop	{r4, lr}
 296              		.cfi_restore 14
 297              		.cfi_restore 4
 298              		.cfi_def_cfa_offset 0
 299              		.loc 1 124 0
 300 0088 FFF7FEBF 		b	right_motor_set_speed
 301              	.LVL34:
 302              	.L47:
 303              		.cfi_restore_state
 304              		.loc 1 104 0
 305 008c 4FF41670 		mov	r0, #600
 306 0090 EEE7     		b	.L45
 307              	.L50:
 308              		.loc 1 119 0
 309 0092 0A48     		ldr	r0, .L51+8
 310              	.L46:
 311 0094 FFF7FEFF 		bl	left_motor_set_speed
 312              	.LVL35:
 313              		.loc 1 120 0
 314 0098 019A     		ldr	r2, [sp, #4]
 315 009a 2368     		ldr	r3, [r4]
 316 009c 9A42     		cmp	r2, r3
 317 009e E4D1     		bne	.L44
 318 00a0 0648     		ldr	r0, .L51+8
 319              		.loc 1 127 0
 320 00a2 02B0     		add	sp, sp, #8
 321              		.cfi_remember_state
 322              		.cfi_def_cfa_offset 8
 323              		@ sp needed
 324 00a4 BDE81040 		pop	{r4, lr}
 325              		.cfi_restore 14
 326              		.cfi_restore 4
 327              		.cfi_def_cfa_offset 0
 328              		.loc 1 124 0
 329 00a8 FFF7FEBF 		b	right_motor_set_speed
 330              	.LVL36:
 331              	.L49:
 332              		.cfi_restore_state
 333              		.loc 1 114 0
 334 00ac 4FF41670 		mov	r0, #600
 335 00b0 F0E7     		b	.L46
 336              	.L52:
 337 00b2 00BF     		.align	2
 338              	.L51:
 339 00b4 00000000 		.word	__stack_chk_guard
 340 00b8 00401C46 		.word	1176256512
 341 00bc A8FDFFFF 		.word	-600
 342              		.cfi_endproc
ARM GAS  C:\Users\JEANCO~1\AppData\Local\Temp\ccxhVNGN.s 			page 7


 343              	.LFE290:
 344              		.size	sound_remote, .-sound_remote
 345              		.global	__aeabi_i2d
 346              		.global	__aeabi_dmul
 347              		.global	__aeabi_ddiv
 348              		.global	__aeabi_dadd
 349              		.section	.text.calcul_distance,"ax",%progbits
 350              		.align	1
 351              		.p2align 4,,15
 352              		.global	calcul_distance
 353              		.syntax unified
 354              		.thumb
 355              		.thumb_func
 356              		.fpu fpv4-sp-d16
 357              		.type	calcul_distance, %function
 358              	calcul_distance:
 359              	.LFB292:
 360              		.loc 1 268 0
 361              		.cfi_startproc
 362              		@ args = 0, pretend = 0, frame = 8
 363              		@ frame_needed = 0, uses_anonymous_args = 0
 364              	.LVL37:
 365 0000 F0B5     		push	{r4, r5, r6, r7, lr}
 366              		.cfi_def_cfa_offset 20
 367              		.cfi_offset 4, -20
 368              		.cfi_offset 5, -16
 369              		.cfi_offset 6, -12
 370              		.cfi_offset 7, -8
 371              		.cfi_offset 14, -4
 372 0002 1B4C     		ldr	r4, .L57+8
 373 0004 83B0     		sub	sp, sp, #12
 374              		.cfi_def_cfa_offset 32
 375              		.loc 1 268 0
 376 0006 2368     		ldr	r3, [r4]
 377 0008 0193     		str	r3, [sp, #4]
 378 000a 0546     		mov	r5, r0
 379              	.LVL38:
 380              		.loc 1 271 0
 381 000c 0846     		mov	r0, r1
 382              	.LVL39:
 383 000e FFF7FEFF 		bl	__aeabi_i2d
 384              	.LVL40:
 385 0012 0646     		mov	r6, r0
 386              		.loc 1 270 0
 387 0014 2846     		mov	r0, r5
 388              		.loc 1 271 0
 389 0016 0F46     		mov	r7, r1
 390              		.loc 1 270 0
 391 0018 FFF7FEFF 		bl	__aeabi_i2d
 392              	.LVL41:
 393              		.loc 1 271 0
 394 001c 0022     		movs	r2, #0
 395 001e 154B     		ldr	r3, .L57+12
 396 0020 FFF7FEFF 		bl	__aeabi_dmul
 397              	.LVL42:
 398 0024 10A3     		adr	r3, .L57
 399 0026 D3E90023 		ldrd	r2, [r3]
ARM GAS  C:\Users\JEANCO~1\AppData\Local\Temp\ccxhVNGN.s 			page 8


 400 002a FFF7FEFF 		bl	__aeabi_dmul
 401              	.LVL43:
 402 002e 0246     		mov	r2, r0
 403 0030 0B46     		mov	r3, r1
 404 0032 3046     		mov	r0, r6
 405 0034 3946     		mov	r1, r7
 406 0036 FFF7FEFF 		bl	__aeabi_ddiv
 407              	.LVL44:
 408 003a 41EC100B 		vmov	d0, r0, r1
 409 003e FFF7FEFF 		bl	sqrt
 410              	.LVL45:
 411 0042 53EC102B 		vmov	r2, r3, d0
 412              	.LVL46:
 413              		.loc 1 273 0
 414 0046 10EE100A 		vmov	r0, s0	@ int
 415 004a 1946     		mov	r1, r3
 416 004c FFF7FEFF 		bl	__aeabi_dadd
 417              	.LVL47:
 418              		.loc 1 274 0
 419 0050 019A     		ldr	r2, [sp, #4]
 420 0052 2368     		ldr	r3, [r4]
 421 0054 9A42     		cmp	r2, r3
 422 0056 03D1     		bne	.L56
 423 0058 41EC100B 		vmov	d0, r0, r1
 424 005c 03B0     		add	sp, sp, #12
 425              		.cfi_remember_state
 426              		.cfi_def_cfa_offset 20
 427              		@ sp needed
 428 005e F0BD     		pop	{r4, r5, r6, r7, pc}
 429              	.LVL48:
 430              	.L56:
 431              		.cfi_restore_state
 432 0060 FFF7FEFF 		bl	__stack_chk_fail
 433              	.LVL49:
 434              	.L58:
 435 0064 AFF30080 		.align	3
 436              	.L57:
 437 0068 000000C0 		.word	-1073741824
 438 006c CA210940 		.word	1074340298
 439 0070 00000000 		.word	__stack_chk_guard
 440 0074 00001040 		.word	1074790400
 441              		.cfi_endproc
 442              	.LFE292:
 443              		.size	calcul_distance, .-calcul_distance
 444              		.section	.text.calcul_angle,"ax",%progbits
 445              		.align	1
 446              		.p2align 4,,15
 447              		.global	calcul_angle
 448              		.syntax unified
 449              		.thumb
 450              		.thumb_func
 451              		.fpu fpv4-sp-d16
 452              		.type	calcul_angle, %function
 453              	calcul_angle:
 454              	.LFB293:
 455              		.loc 1 276 0
 456              		.cfi_startproc
ARM GAS  C:\Users\JEANCO~1\AppData\Local\Temp\ccxhVNGN.s 			page 9


 457              		@ args = 0, pretend = 0, frame = 8
 458              		@ frame_needed = 0, uses_anonymous_args = 0
 459              	.LVL50:
 460 0000 30B5     		push	{r4, r5, lr}
 461              		.cfi_def_cfa_offset 12
 462              		.cfi_offset 4, -12
 463              		.cfi_offset 5, -8
 464              		.cfi_offset 14, -4
 465 0002 654C     		ldr	r4, .L98
 466 0004 83B0     		sub	sp, sp, #12
 467              		.cfi_def_cfa_offset 24
 468              		.loc 1 276 0
 469 0006 2568     		ldr	r5, [r4]
 470 0008 0195     		str	r5, [sp, #4]
 471              	.LVL51:
 472              		.loc 1 283 0
 473 000a 8842     		cmp	r0, r1
 474 000c 01DB     		blt	.L88
 475              		.loc 1 283 0 is_stmt 0 discriminator 1
 476 000e 9042     		cmp	r0, r2
 477 0010 61DA     		bge	.L92
 478              	.L88:
 479              		.loc 1 278 0 is_stmt 1
 480 0012 FF25     		movs	r5, #255
 481              	.L60:
 482              	.LVL52:
 483              		.loc 1 295 0
 484 0014 9142     		cmp	r1, r2
 485 0016 18DB     		blt	.L66
 486              		.loc 1 295 0 is_stmt 0 discriminator 1
 487 0018 9942     		cmp	r1, r3
 488 001a 16DB     		blt	.L66
 489              		.loc 1 296 0 is_stmt 1
 490 001c 07EE901A 		vmov	s15, r1	@ int
 491 0020 9FED5E7A 		vldr.32	s14, .L98+4
 492 0024 F8EEE77A 		vcvt.f32.s32	s15, s15
 493 0028 67EE877A 		vmul.f32	s15, s15, s14
 494 002c FDEEE77A 		vcvt.s32.f32	s15, s15
 495 0030 17EE905A 		vmov	r5, s15	@ int
 496              	.LVL53:
 497              		.loc 1 297 0
 498 0034 AA42     		cmp	r2, r5
 499 0036 78DC     		bgt	.L67
 500              		.loc 1 297 0 is_stmt 0 discriminator 1
 501 0038 AB42     		cmp	r3, r5
 502 003a 40F39A80 		ble	.L68
 503              		.loc 1 299 0 is_stmt 1
 504 003e AA42     		cmp	r2, r5
 505 0040 73DA     		bge	.L67
 506              		.loc 1 303 0
 507 0042 574B     		ldr	r3, .L98+8
 508              	.LVL54:
 509 0044 E122     		movs	r2, #225
 510              	.LVL55:
 511 0046 1A60     		str	r2, [r3]
 512              		.loc 1 304 0
 513 0048 16E0     		b	.L59
ARM GAS  C:\Users\JEANCO~1\AppData\Local\Temp\ccxhVNGN.s 			page 10


 514              	.LVL56:
 515              	.L66:
 516              		.loc 1 308 0
 517 004a 9A42     		cmp	r2, r3
 518 004c 1BDA     		bge	.L93
 519              	.LVL57:
 520              	.L70:
 521              		.loc 1 354 0
 522 004e 8842     		cmp	r0, r1
 523 0050 C0F28280 		blt	.L76
 524              		.loc 1 352 0 discriminator 1
 525 0054 07EE900A 		vmov	s15, r0	@ int
 526 0058 9FED507A 		vldr.32	s14, .L98+4
 527 005c F8EEE77A 		vcvt.f32.s32	s15, s15
 528              	.LVL58:
 529 0060 67EE877A 		vmul.f32	s15, s15, s14
 530              	.LVL59:
 531 0064 FDEEE77A 		vcvt.s32.f32	s15, s15
 532              		.loc 1 354 0 discriminator 1
 533 0068 17EE903A 		vmov	r3, s15	@ int
 534              	.LVL60:
 535 006c 9942     		cmp	r1, r3
 536              		.loc 1 355 0 discriminator 1
 537 006e 4C4B     		ldr	r3, .L98+8
 538 0070 D4BF     		ite	le
 539 0072 9D22     		movle	r2, #157
 540              	.LVL61:
 541              		.loc 1 358 0 discriminator 1
 542 0074 B422     		movgt	r2, #180
 543 0076 1A60     		str	r2, [r3]
 544              	.LVL62:
 545              	.L59:
 546              		.loc 1 384 0
 547 0078 019A     		ldr	r2, [sp, #4]
 548 007a 2368     		ldr	r3, [r4]
 549 007c 9A42     		cmp	r2, r3
 550 007e 40F08880 		bne	.L94
 551 0082 03B0     		add	sp, sp, #12
 552              		.cfi_remember_state
 553              		.cfi_def_cfa_offset 12
 554              		@ sp needed
 555 0084 30BD     		pop	{r4, r5, pc}
 556              	.LVL63:
 557              	.L93:
 558              		.cfi_restore_state
 559              		.loc 1 309 0
 560 0086 07EE902A 		vmov	s15, r2	@ int
 561 008a DFED446A 		vldr.32	s13, .L98+4
 562 008e B8EEE77A 		vcvt.f32.s32	s14, s15
 563 0092 27EE267A 		vmul.f32	s14, s14, s13
 564 0096 BDEEC77A 		vcvt.s32.f32	s14, s14
 565              		.loc 1 310 0
 566 009a 17EE10CA 		vmov	ip, s14	@ int
 567 009e 6345     		cmp	r3, ip
 568 00a0 2FDD     		ble	.L95
 569              		.loc 1 333 0
 570 00a2 012D     		cmp	r5, #1
ARM GAS  C:\Users\JEANCO~1\AppData\Local\Temp\ccxhVNGN.s 			page 11


 571 00a4 54D0     		beq	.L96
 572              		.loc 1 351 0
 573 00a6 032D     		cmp	r5, #3
 574 00a8 D1D0     		beq	.L70
 575              	.LVL64:
 576              	.L72:
 577              		.loc 1 368 0
 578 00aa 9A42     		cmp	r2, r3
 579 00ac 4BDC     		bgt	.L78
 580              		.loc 1 366 0 discriminator 1
 581 00ae 07EE903A 		vmov	s15, r3	@ int
 582 00b2 9FED3A7A 		vldr.32	s14, .L98+4
 583 00b6 F8EEE77A 		vcvt.f32.s32	s15, s15
 584 00ba 67EE877A 		vmul.f32	s15, s15, s14
 585 00be FDEEE77A 		vcvt.s32.f32	s15, s15
 586              		.loc 1 368 0 discriminator 1
 587 00c2 17EE903A 		vmov	r3, s15	@ int
 588              	.LVL65:
 589 00c6 9A42     		cmp	r2, r3
 590              		.loc 1 369 0 discriminator 1
 591 00c8 354B     		ldr	r3, .L98+8
 592 00ca D4BF     		ite	le
 593 00cc F722     		movle	r2, #247
 594              	.LVL66:
 595              		.loc 1 372 0 discriminator 1
 596 00ce 4FF48772 		movgt	r2, #270
 597 00d2 1A60     		str	r2, [r3]
 598              		.loc 1 373 0 discriminator 1
 599 00d4 D0E7     		b	.L59
 600              	.LVL67:
 601              	.L92:
 602              		.loc 1 283 0 discriminator 2
 603 00d6 9842     		cmp	r0, r3
 604 00d8 9BDB     		blt	.L88
 605              		.loc 1 284 0
 606 00da 07EE900A 		vmov	s15, r0	@ int
 607 00de 9FED2F7A 		vldr.32	s14, .L98+4
 608 00e2 F8EEE77A 		vcvt.f32.s32	s15, s15
 609 00e6 67EE877A 		vmul.f32	s15, s15, s14
 610 00ea FDEEE77A 		vcvt.s32.f32	s15, s15
 611 00ee 17EE905A 		vmov	r5, s15	@ int
 612              	.LVL68:
 613              		.loc 1 285 0
 614 00f2 A942     		cmp	r1, r5
 615 00f4 34DC     		bgt	.L61
 616              		.loc 1 285 0 is_stmt 0 discriminator 1
 617 00f6 AA42     		cmp	r2, r5
 618 00f8 1EDC     		bgt	.L62
 619              		.loc 1 285 0 discriminator 2
 620 00fa AB42     		cmp	r3, r5
 621 00fc 1ADC     		bgt	.L97
 622              		.loc 1 286 0 is_stmt 1
 623 00fe 0125     		movs	r5, #1
 624              	.LVL69:
 625 0100 88E7     		b	.L60
 626              	.LVL70:
 627              	.L95:
ARM GAS  C:\Users\JEANCO~1\AppData\Local\Temp\ccxhVNGN.s 			page 12


 628 0102 07EE901A 		vmov	s15, r1	@ int
 629 0106 F8EEE77A 		vcvt.f32.s32	s15, s15
 630 010a 67EEA67A 		vmul.f32	s15, s15, s13
 631 010e FDEEE77A 		vcvt.s32.f32	s15, s15
 632 0112 17EE905A 		vmov	r5, s15	@ int
 633              	.LVL71:
 634              	.L71:
 635              		.loc 1 319 0
 636 0116 8842     		cmp	r0, r1
 637              		.loc 1 320 0
 638 0118 214B     		ldr	r3, .L98+8
 639              	.LVL72:
 640              		.loc 1 319 0
 641 011a 11DC     		bgt	.L74
 642              		.loc 1 319 0 is_stmt 0 discriminator 1
 643 011c A842     		cmp	r0, r5
 644              		.loc 1 320 0 is_stmt 1 discriminator 1
 645 011e D4BF     		ite	le
 646 0120 40F25112 		movwle	r2, #337
 647              	.LVL73:
 648              		.loc 1 323 0 discriminator 1
 649 0124 0022     		movgt	r2, #0
 650 0126 1A60     		str	r2, [r3]
 651              		.loc 1 324 0 discriminator 1
 652 0128 A6E7     		b	.L59
 653              	.LVL74:
 654              	.L67:
 655              		.loc 1 300 0
 656 012a 1D4B     		ldr	r3, .L98+8
 657              	.LVL75:
 658 012c 40F23B12 		movw	r2, #315
 659              	.LVL76:
 660 0130 1A60     		str	r2, [r3]
 661              		.loc 1 301 0
 662 0132 A1E7     		b	.L59
 663              	.LVL77:
 664              	.L97:
 665              		.loc 1 287 0
 666 0134 AA42     		cmp	r2, r5
 667 0136 18DB     		blt	.L82
 668              	.L62:
 669              		.loc 1 288 0
 670 0138 194B     		ldr	r3, .L98+8
 671              	.LVL78:
 672 013a 2D22     		movs	r2, #45
 673              	.LVL79:
 674 013c 1A60     		str	r2, [r3]
 675              		.loc 1 289 0
 676 013e 9BE7     		b	.L59
 677              	.LVL80:
 678              	.L74:
 679              		.loc 1 326 0
 680 0140 1622     		movs	r2, #22
 681              	.LVL81:
 682 0142 1A60     		str	r2, [r3]
 683              		.loc 1 328 0
 684 0144 98E7     		b	.L59
ARM GAS  C:\Users\JEANCO~1\AppData\Local\Temp\ccxhVNGN.s 			page 13


 685              	.LVL82:
 686              	.L78:
 687              		.loc 1 375 0
 688 0146 164B     		ldr	r3, .L98+8
 689              	.LVL83:
 690 0148 4FF49272 		mov	r2, #292
 691              	.LVL84:
 692 014c 1A60     		str	r2, [r3]
 693              		.loc 1 376 0
 694 014e 93E7     		b	.L59
 695              	.LVL85:
 696              	.L96:
 697              		.loc 1 340 0
 698 0150 134B     		ldr	r3, .L98+8
 699              	.LVL86:
 700 0152 5A22     		movs	r2, #90
 701              	.LVL87:
 702 0154 1A60     		str	r2, [r3]
 703              		.loc 1 341 0
 704 0156 8FE7     		b	.L59
 705              	.LVL88:
 706              	.L76:
 707              		.loc 1 361 0
 708 0158 114B     		ldr	r3, .L98+8
 709              	.LVL89:
 710 015a CA22     		movs	r2, #202
 711              	.LVL90:
 712 015c 1A60     		str	r2, [r3]
 713              		.loc 1 362 0
 714 015e 8BE7     		b	.L59
 715              	.LVL91:
 716              	.L61:
 717              		.loc 1 287 0
 718 0160 AA42     		cmp	r2, r5
 719 0162 E9DA     		bge	.L62
 720              		.loc 1 290 0
 721 0164 AB42     		cmp	r3, r5
 722 0166 FFF654AF 		blt	.L88
 723              	.L82:
 724              		.loc 1 291 0
 725 016a 0D4B     		ldr	r3, .L98+8
 726              	.LVL92:
 727 016c 8722     		movs	r2, #135
 728              	.LVL93:
 729 016e 1A60     		str	r2, [r3]
 730              		.loc 1 292 0
 731 0170 82E7     		b	.L59
 732              	.LVL94:
 733              	.L68:
 734              		.loc 1 308 0
 735 0172 9A42     		cmp	r2, r3
 736 0174 FFF66BAF 		blt	.L70
 737              	.LVL95:
 738              		.loc 1 309 0
 739 0178 07EE902A 		vmov	s15, r2	@ int
 740 017c F8EEE77A 		vcvt.f32.s32	s15, s15
 741 0180 27EE877A 		vmul.f32	s14, s15, s14
ARM GAS  C:\Users\JEANCO~1\AppData\Local\Temp\ccxhVNGN.s 			page 14


 742 0184 BDEEC77A 		vcvt.s32.f32	s14, s14
 743              		.loc 1 310 0
 744 0188 17EE10CA 		vmov	ip, s14	@ int
 745 018c 6345     		cmp	r3, ip
 746 018e C2DD     		ble	.L71
 747 0190 8BE7     		b	.L72
 748              	.LVL96:
 749              	.L94:
 750              		.loc 1 384 0
 751 0192 FFF7FEFF 		bl	__stack_chk_fail
 752              	.LVL97:
 753              	.L99:
 754 0196 00BF     		.align	2
 755              	.L98:
 756 0198 00000000 		.word	__stack_chk_guard
 757 019c AE47613F 		.word	1063339950
 758 01a0 00000000 		.word	.LANCHOR0
 759              		.cfi_endproc
 760              	.LFE293:
 761              		.size	calcul_angle, .-calcul_angle
 762              		.section	.text.calcul_moyenne,"ax",%progbits
 763              		.align	1
 764              		.p2align 4,,15
 765              		.global	calcul_moyenne
 766              		.syntax unified
 767              		.thumb
 768              		.thumb_func
 769              		.fpu fpv4-sp-d16
 770              		.type	calcul_moyenne, %function
 771              	calcul_moyenne:
 772              	.LFB294:
 773              		.loc 1 387 0
 774              		.cfi_startproc
 775              		@ args = 0, pretend = 0, frame = 8
 776              		@ frame_needed = 0, uses_anonymous_args = 0
 777              	.LVL98:
 778 0000 70B5     		push	{r4, r5, r6, lr}
 779              		.cfi_def_cfa_offset 16
 780              		.cfi_offset 4, -16
 781              		.cfi_offset 5, -12
 782              		.cfi_offset 6, -8
 783              		.cfi_offset 14, -4
 784 0002 0D4C     		ldr	r4, .L104
 785              	.LBB161:
 786              		.loc 1 390 0
 787 0004 0D4B     		ldr	r3, .L104+4
 788              	.LBE161:
 789              		.loc 1 387 0
 790 0006 2168     		ldr	r1, [r4]
 791              		.loc 1 393 0
 792 0008 0D4A     		ldr	r2, .L104+8
 793              		.loc 1 387 0
 794 000a 82B0     		sub	sp, sp, #8
 795              		.cfi_def_cfa_offset 24
 796              	.LBB162:
 797              		.loc 1 390 0
 798 000c 0001     		lsls	r0, r0, #4
ARM GAS  C:\Users\JEANCO~1\AppData\Local\Temp\ccxhVNGN.s 			page 15


 799              	.LVL99:
 800              	.LBE162:
 801              		.loc 1 387 0
 802 000e 0191     		str	r1, [sp, #4]
 803              	.LVL100:
 804              	.LBB163:
 805              		.loc 1 390 0
 806 0010 1918     		adds	r1, r3, r0
 807 0012 D1E90165 		ldrd	r6, r5, [r1, #4]
 808 0016 1B58     		ldr	r3, [r3, r0]
 809 0018 C868     		ldr	r0, [r1, #12]
 810 001a 3344     		add	r3, r3, r6
 811              	.LVL101:
 812 001c 2B44     		add	r3, r3, r5
 813              	.LVL102:
 814              	.LBE163:
 815              		.loc 1 394 0
 816 001e 019D     		ldr	r5, [sp, #4]
 817 0020 2168     		ldr	r1, [r4]
 818              	.LBB164:
 819              		.loc 1 390 0
 820 0022 0344     		add	r3, r3, r0
 821              	.LBE164:
 822              		.loc 1 393 0
 823 0024 82FB0320 		smull	r2, r0, r2, r3
 824              		.loc 1 394 0
 825 0028 8D42     		cmp	r5, r1
 826 002a A0EBE370 		sub	r0, r0, r3, asr #31
 827 002e 01D1     		bne	.L103
 828 0030 02B0     		add	sp, sp, #8
 829              		.cfi_remember_state
 830              		.cfi_def_cfa_offset 16
 831              		@ sp needed
 832 0032 70BD     		pop	{r4, r5, r6, pc}
 833              	.L103:
 834              		.cfi_restore_state
 835 0034 FFF7FEFF 		bl	__stack_chk_fail
 836              	.LVL103:
 837              	.L105:
 838              		.align	2
 839              	.L104:
 840 0038 00000000 		.word	__stack_chk_guard
 841 003c 00000000 		.word	.LANCHOR1
 842 0040 56555555 		.word	1431655766
 843              		.cfi_endproc
 844              	.LFE294:
 845              		.size	calcul_moyenne, .-calcul_moyenne
 846              		.section	.text.update_moyenne,"ax",%progbits
 847              		.align	1
 848              		.p2align 4,,15
 849              		.global	update_moyenne
 850              		.syntax unified
 851              		.thumb
 852              		.thumb_func
 853              		.fpu fpv4-sp-d16
 854              		.type	update_moyenne, %function
 855              	update_moyenne:
ARM GAS  C:\Users\JEANCO~1\AppData\Local\Temp\ccxhVNGN.s 			page 16


 856              	.LFB295:
 857              		.loc 1 397 0
 858              		.cfi_startproc
 859              		@ args = 4, pretend = 0, frame = 8
 860              		@ frame_needed = 0, uses_anonymous_args = 0
 861              	.LVL104:
 862 0000 F0B5     		push	{r4, r5, r6, r7, lr}
 863              		.cfi_def_cfa_offset 20
 864              		.cfi_offset 4, -20
 865              		.cfi_offset 5, -16
 866              		.cfi_offset 6, -12
 867              		.cfi_offset 7, -8
 868              		.cfi_offset 14, -4
 869 0002 0E4C     		ldr	r4, .L111
 870 0004 83B0     		sub	sp, sp, #12
 871              		.cfi_def_cfa_offset 32
 872              		.loc 1 397 0
 873 0006 2568     		ldr	r5, [r4]
 874 0008 089E     		ldr	r6, [sp, #32]
 875 000a 0195     		str	r5, [sp, #4]
 876              		.loc 1 398 0
 877 000c 0328     		cmp	r0, #3
 878 000e 0DD8     		bhi	.L106
 879              		.loc 1 399 0
 880 0010 0B4D     		ldr	r5, .L111+4
 881 0012 00F1FF3C 		add	ip, r0, #-1
 882              		.loc 1 401 0
 883 0016 C71C     		adds	r7, r0, #3
 884              		.loc 1 399 0
 885 0018 45F82C20 		str	r2, [r5, ip, lsl #2]
 886              		.loc 1 402 0
 887 001c C21D     		adds	r2, r0, #7
 888              	.LVL105:
 889              		.loc 1 403 0
 890 001e 0B30     		adds	r0, r0, #11
 891              	.LVL106:
 892              		.loc 1 401 0
 893 0020 45F82710 		str	r1, [r5, r7, lsl #2]
 894              		.loc 1 402 0
 895 0024 45F82230 		str	r3, [r5, r2, lsl #2]
 896              		.loc 1 403 0
 897 0028 45F82060 		str	r6, [r5, r0, lsl #2]
 898              	.LVL107:
 899              	.L106:
 900              		.loc 1 408 0
 901 002c 019A     		ldr	r2, [sp, #4]
 902 002e 2368     		ldr	r3, [r4]
 903              	.LVL108:
 904 0030 9A42     		cmp	r2, r3
 905 0032 01D1     		bne	.L110
 906 0034 03B0     		add	sp, sp, #12
 907              		.cfi_remember_state
 908              		.cfi_def_cfa_offset 20
 909              		@ sp needed
 910 0036 F0BD     		pop	{r4, r5, r6, r7, pc}
 911              	.LVL109:
 912              	.L110:
ARM GAS  C:\Users\JEANCO~1\AppData\Local\Temp\ccxhVNGN.s 			page 17


 913              		.cfi_restore_state
 914 0038 FFF7FEFF 		bl	__stack_chk_fail
 915              	.LVL110:
 916              	.L112:
 917              		.align	2
 918              	.L111:
 919 003c 00000000 		.word	__stack_chk_guard
 920 0040 00000000 		.word	.LANCHOR1
 921              		.cfi_endproc
 922              	.LFE295:
 923              		.size	update_moyenne, .-update_moyenne
 924              		.section	.text.max_norm,"ax",%progbits
 925              		.align	1
 926              		.p2align 4,,15
 927              		.global	max_norm
 928              		.syntax unified
 929              		.thumb
 930              		.thumb_func
 931              		.fpu fpv4-sp-d16
 932              		.type	max_norm, %function
 933              	max_norm:
 934              	.LFB296:
 935              		.loc 1 409 0
 936              		.cfi_startproc
 937              		@ args = 0, pretend = 0, frame = 8
 938              		@ frame_needed = 0, uses_anonymous_args = 0
 939              	.LVL111:
 940 0000 70B5     		push	{r4, r5, r6, lr}
 941              		.cfi_def_cfa_offset 16
 942              		.cfi_offset 4, -16
 943              		.cfi_offset 5, -12
 944              		.cfi_offset 6, -8
 945              		.cfi_offset 14, -4
 946 0002 164E     		ldr	r6, .L123
 947              		.loc 1 410 0
 948 0004 9FED167A 		vldr.32	s14, .L123+4
 949              		.loc 1 409 0
 950 0008 3368     		ldr	r3, [r6]
 951 000a 82B0     		sub	sp, sp, #8
 952              		.cfi_def_cfa_offset 24
 953 000c 2831     		adds	r1, r1, #40
 954              	.LVL112:
 955              		.loc 1 409 0
 956 000e 0193     		str	r3, [sp, #4]
 957              	.LVL113:
 958              		.loc 1 411 0
 959 0010 4FF0FF32 		mov	r2, #-1
 960              	.LBB165:
 961              		.loc 1 416 0
 962 0014 0A23     		movs	r3, #10
 963 0016 40F60104 		movw	r4, #2049
 964              	.LVL114:
 965              	.L116:
 966              		.loc 1 417 0
 967 001a F1EC017A 		vldmia.32	r1!, {s15}
 968 001e F4EEC77A 		vcmpe.f32	s15, s14
 969 0022 F1EE10FA 		vmrs	APSR_nzcv, FPSCR
ARM GAS  C:\Users\JEANCO~1\AppData\Local\Temp\ccxhVNGN.s 			page 18


 970 0026 08DD     		ble	.L114
 971              		.loc 1 417 0 is_stmt 0 discriminator 1
 972 0028 A3F13305 		sub	r5, r3, #51
 973 002c B5F56D7F 		cmp	r5, #948
 974 0030 98BF     		it	ls
 975 0032 1A46     		movls	r2, r3
 976              	.LVL115:
 977 0034 98BF     		it	ls
 978 0036 B0EE677A 		vmovls.f32	s14, s15
 979              	.LVL116:
 980              	.L114:
 981              		.loc 1 416 0 is_stmt 1 discriminator 2
 982 003a 0133     		adds	r3, r3, #1
 983              	.LVL117:
 984 003c A342     		cmp	r3, r4
 985 003e ECD1     		bne	.L116
 986              	.LVL118:
 987              	.LBE165:
 988              		.loc 1 425 0
 989 0040 0199     		ldr	r1, [sp, #4]
 990 0042 3368     		ldr	r3, [r6]
 991              	.LVL119:
 992              		.loc 1 424 0
 993 0044 4260     		str	r2, [r0, #4]
 994              	.LVL120:
 995              		.loc 1 422 0
 996 0046 BDEEC77A 		vcvt.s32.f32	s14, s14
 997              	.LVL121:
 998              		.loc 1 425 0
 999 004a 9942     		cmp	r1, r3
 1000              		.loc 1 422 0
 1001 004c 80ED007A 		vstr.32	s14, [r0]	@ int
 1002              		.loc 1 425 0
 1003 0050 01D1     		bne	.L122
 1004 0052 02B0     		add	sp, sp, #8
 1005              		.cfi_remember_state
 1006              		.cfi_def_cfa_offset 16
 1007              		@ sp needed
 1008 0054 70BD     		pop	{r4, r5, r6, pc}
 1009              	.L122:
 1010              		.cfi_restore_state
 1011 0056 FFF7FEFF 		bl	__stack_chk_fail
 1012              	.LVL122:
 1013              	.L124:
 1014 005a 00BF     		.align	2
 1015              	.L123:
 1016 005c 00000000 		.word	__stack_chk_guard
 1017 0060 0000C842 		.word	1120403456
 1018              		.cfi_endproc
 1019              	.LFE296:
 1020              		.size	max_norm, .-max_norm
 1021              		.section	.text.wait_send_to_computer,"ax",%progbits
 1022              		.align	1
 1023              		.p2align 4,,15
 1024              		.global	wait_send_to_computer
 1025              		.syntax unified
 1026              		.thumb
ARM GAS  C:\Users\JEANCO~1\AppData\Local\Temp\ccxhVNGN.s 			page 19


 1027              		.thumb_func
 1028              		.fpu fpv4-sp-d16
 1029              		.type	wait_send_to_computer, %function
 1030              	wait_send_to_computer:
 1031              	.LFB297:
 1032              		.loc 1 428 0
 1033              		.cfi_startproc
 1034              		@ args = 0, pretend = 0, frame = 8
 1035              		@ frame_needed = 0, uses_anonymous_args = 0
 1036 0000 00B5     		push	{lr}
 1037              		.cfi_def_cfa_offset 4
 1038              		.cfi_offset 14, -4
 1039 0002 084B     		ldr	r3, .L130
 1040 0004 83B0     		sub	sp, sp, #12
 1041              		.cfi_def_cfa_offset 16
 1042              		.loc 1 428 0
 1043 0006 1A68     		ldr	r2, [r3]
 1044 0008 0192     		str	r2, [sp, #4]
 1045              	.LVL123:
 1046              	.LBB166:
 1047              	.LBB167:
 1048              		.file 2 "../lib/e-puck2_main-processor/ChibiOS//os/rt/include/chbsem.h"
 1049              		.loc 2 143 0
 1050 000a 019A     		ldr	r2, [sp, #4]
 1051 000c 1B68     		ldr	r3, [r3]
 1052 000e 9A42     		cmp	r2, r3
 1053 0010 05D1     		bne	.L129
 1054 0012 0548     		ldr	r0, .L130+4
 1055              	.LBE167:
 1056              	.LBE166:
 1057              		.loc 1 430 0
 1058 0014 03B0     		add	sp, sp, #12
 1059              		.cfi_remember_state
 1060              		.cfi_def_cfa_offset 4
 1061              		@ sp needed
 1062 0016 5DF804EB 		ldr	lr, [sp], #4
 1063              		.cfi_restore 14
 1064              		.cfi_def_cfa_offset 0
 1065              	.LBB169:
 1066              	.LBB168:
 1067              		.loc 2 143 0
 1068 001a FFF7FEBF 		b	chSemWait
 1069              	.LVL124:
 1070              	.L129:
 1071              		.cfi_restore_state
 1072 001e FFF7FEFF 		bl	__stack_chk_fail
 1073              	.LVL125:
 1074              	.L131:
 1075 0022 00BF     		.align	2
 1076              	.L130:
 1077 0024 00000000 		.word	__stack_chk_guard
 1078 0028 00000000 		.word	.LANCHOR2
 1079              	.LBE168:
 1080              	.LBE169:
 1081              		.cfi_endproc
 1082              	.LFE297:
 1083              		.size	wait_send_to_computer, .-wait_send_to_computer
ARM GAS  C:\Users\JEANCO~1\AppData\Local\Temp\ccxhVNGN.s 			page 20


 1084              		.section	.text.get_max_norm_index,"ax",%progbits
 1085              		.align	1
 1086              		.p2align 4,,15
 1087              		.global	get_max_norm_index
 1088              		.syntax unified
 1089              		.thumb
 1090              		.thumb_func
 1091              		.fpu fpv4-sp-d16
 1092              		.type	get_max_norm_index, %function
 1093              	get_max_norm_index:
 1094              	.LFB298:
 1095              		.loc 1 432 0
 1096              		.cfi_startproc
 1097              		@ args = 0, pretend = 0, frame = 8
 1098              		@ frame_needed = 0, uses_anonymous_args = 0
 1099              	.LVL126:
 1100 0000 70B5     		push	{r4, r5, r6, lr}
 1101              		.cfi_def_cfa_offset 16
 1102              		.cfi_offset 4, -16
 1103              		.cfi_offset 5, -12
 1104              		.cfi_offset 6, -8
 1105              		.cfi_offset 14, -4
 1106 0002 2B4D     		ldr	r5, .L154
 1107 0004 82B0     		sub	sp, sp, #8
 1108              		.cfi_def_cfa_offset 24
 1109              		.loc 1 432 0
 1110 0006 2A68     		ldr	r2, [r5]
 1111 0008 0192     		str	r2, [sp, #4]
 1112              		.loc 1 434 0
 1113 000a 0429     		cmp	r1, #4
 1114              		.loc 1 432 0
 1115 000c 0446     		mov	r4, r0
 1116              		.loc 1 434 0
 1117 000e 2BD0     		beq	.L151
 1118              		.loc 1 437 0
 1119 0010 0529     		cmp	r1, #5
 1120 0012 08D0     		beq	.L152
 1121 0014 FFF7FEFF 		bl	get_max_norm_index.part.0
 1122              	.LVL127:
 1123              	.L132:
 1124              		.loc 1 450 0
 1125 0018 019A     		ldr	r2, [sp, #4]
 1126 001a 2B68     		ldr	r3, [r5]
 1127 001c 9A42     		cmp	r2, r3
 1128 001e 2046     		mov	r0, r4
 1129 0020 43D1     		bne	.L153
 1130              	.LVL128:
 1131 0022 02B0     		add	sp, sp, #8
 1132              		.cfi_remember_state
 1133              		.cfi_def_cfa_offset 16
 1134              		@ sp needed
 1135 0024 70BD     		pop	{r4, r5, r6, pc}
 1136              	.LVL129:
 1137              	.L152:
 1138              		.cfi_restore_state
 1139 0026 234A     		ldr	r2, .L154+4
 1140              	.LBB170:
ARM GAS  C:\Users\JEANCO~1\AppData\Local\Temp\ccxhVNGN.s 			page 21


 1141              	.LBB171:
 1142              		.loc 1 410 0
 1143 0028 9FED237A 		vldr.32	s14, .L154+8
 1144              		.loc 1 411 0
 1145 002c 4FF0FF31 		mov	r1, #-1
 1146              	.LVL130:
 1147              	.LBB172:
 1148              		.loc 1 416 0
 1149 0030 0A23     		movs	r3, #10
 1150 0032 40F60100 		movw	r0, #2049
 1151              	.LVL131:
 1152              	.L141:
 1153              		.loc 1 417 0
 1154 0036 F2EC017A 		vldmia.32	r2!, {s15}
 1155 003a F4EEC77A 		vcmpe.f32	s15, s14
 1156 003e F1EE10FA 		vmrs	APSR_nzcv, FPSCR
 1157 0042 08DD     		ble	.L139
 1158 0044 A3F13306 		sub	r6, r3, #51
 1159 0048 B6F56D7F 		cmp	r6, #948
 1160 004c 98BF     		it	ls
 1161 004e 1946     		movls	r1, r3
 1162              	.LVL132:
 1163 0050 98BF     		it	ls
 1164 0052 B0EE677A 		vmovls.f32	s14, s15
 1165              	.LVL133:
 1166              	.L139:
 1167              		.loc 1 416 0
 1168 0056 0133     		adds	r3, r3, #1
 1169              	.LVL134:
 1170 0058 8342     		cmp	r3, r0
 1171 005a ECD1     		bne	.L141
 1172              	.LVL135:
 1173              	.LBE172:
 1174              		.loc 1 422 0
 1175 005c BDEEC77A 		vcvt.s32.f32	s14, s14
 1176              	.LVL136:
 1177              		.loc 1 424 0
 1178 0060 6160     		str	r1, [r4, #4]
 1179              	.LVL137:
 1180              		.loc 1 422 0
 1181 0062 84ED007A 		vstr.32	s14, [r4]	@ int
 1182 0066 D7E7     		b	.L132
 1183              	.LVL138:
 1184              	.L151:
 1185 0068 144A     		ldr	r2, .L154+12
 1186              	.LBE171:
 1187              	.LBE170:
 1188              	.LBB174:
 1189              	.LBB175:
 1190              		.loc 1 410 0
 1191 006a 9FED137A 		vldr.32	s14, .L154+8
 1192              		.loc 1 411 0
 1193 006e 4FF0FF31 		mov	r1, #-1
 1194              	.LVL139:
 1195              	.LBB176:
 1196              		.loc 1 416 0
 1197 0072 0A23     		movs	r3, #10
ARM GAS  C:\Users\JEANCO~1\AppData\Local\Temp\ccxhVNGN.s 			page 22


 1198 0074 40F60100 		movw	r0, #2049
 1199              	.LVL140:
 1200              	.L136:
 1201              		.loc 1 417 0
 1202 0078 F2EC017A 		vldmia.32	r2!, {s15}
 1203 007c F4EEC77A 		vcmpe.f32	s15, s14
 1204 0080 F1EE10FA 		vmrs	APSR_nzcv, FPSCR
 1205 0084 08DD     		ble	.L134
 1206 0086 A3F13306 		sub	r6, r3, #51
 1207 008a B6F56D7F 		cmp	r6, #948
 1208 008e 98BF     		it	ls
 1209 0090 1946     		movls	r1, r3
 1210              	.LVL141:
 1211 0092 98BF     		it	ls
 1212 0094 B0EE677A 		vmovls.f32	s14, s15
 1213              	.LVL142:
 1214              	.L134:
 1215              		.loc 1 416 0
 1216 0098 0133     		adds	r3, r3, #1
 1217              	.LVL143:
 1218 009a 8342     		cmp	r3, r0
 1219 009c ECD1     		bne	.L136
 1220              	.LVL144:
 1221              	.LBE176:
 1222              	.LBE175:
 1223              	.LBE174:
 1224              	.LBB177:
 1225              	.LBB173:
 1226              		.loc 1 422 0
 1227 009e BDEEC77A 		vcvt.s32.f32	s14, s14
 1228              	.LVL145:
 1229              		.loc 1 424 0
 1230 00a2 6160     		str	r1, [r4, #4]
 1231              	.LVL146:
 1232              		.loc 1 422 0
 1233 00a4 84ED007A 		vstr.32	s14, [r4]	@ int
 1234 00a8 B6E7     		b	.L132
 1235              	.LVL147:
 1236              	.L153:
 1237              	.LBE173:
 1238              	.LBE177:
 1239              		.loc 1 450 0
 1240 00aa FFF7FEFF 		bl	__stack_chk_fail
 1241              	.LVL148:
 1242              	.L155:
 1243 00ae 00BF     		.align	2
 1244              	.L154:
 1245 00b0 00000000 		.word	__stack_chk_guard
 1246 00b4 28000000 		.word	micRight_output+40
 1247 00b8 0000C842 		.word	1120403456
 1248 00bc 28000000 		.word	micLeft_output+40
 1249              		.cfi_endproc
 1250              	.LFE298:
 1251              		.size	get_max_norm_index, .-get_max_norm_index
 1252              		.section	.text.get_audio_buffer_ptr,"ax",%progbits
 1253              		.align	1
 1254              		.p2align 4,,15
ARM GAS  C:\Users\JEANCO~1\AppData\Local\Temp\ccxhVNGN.s 			page 23


 1255              		.global	get_audio_buffer_ptr
 1256              		.syntax unified
 1257              		.thumb
 1258              		.thumb_func
 1259              		.fpu fpv4-sp-d16
 1260              		.type	get_audio_buffer_ptr, %function
 1261              	get_audio_buffer_ptr:
 1262              	.LFB299:
 1263              		.loc 1 452 0
 1264              		.cfi_startproc
 1265              		@ args = 0, pretend = 0, frame = 8
 1266              		@ frame_needed = 0, uses_anonymous_args = 0
 1267              	.LVL149:
 1268 0000 00B5     		push	{lr}
 1269              		.cfi_def_cfa_offset 4
 1270              		.cfi_offset 14, -4
 1271 0002 164B     		ldr	r3, .L169
 1272 0004 83B0     		sub	sp, sp, #12
 1273              		.cfi_def_cfa_offset 16
 1274              		.loc 1 452 0
 1275 0006 1A68     		ldr	r2, [r3]
 1276 0008 0192     		str	r2, [sp, #4]
 1277              		.loc 1 453 0
 1278 000a 88B1     		cbz	r0, .L159
 1279              		.loc 1 456 0
 1280 000c 0128     		cmp	r0, #1
 1281 000e 17D0     		beq	.L160
 1282              		.loc 1 459 0
 1283 0010 0228     		cmp	r0, #2
 1284 0012 19D0     		beq	.L161
 1285              		.loc 1 462 0
 1286 0014 0328     		cmp	r0, #3
 1287 0016 15D0     		beq	.L162
 1288              		.loc 1 465 0
 1289 0018 0428     		cmp	r0, #4
 1290 001a 17D0     		beq	.L163
 1291              		.loc 1 468 0
 1292 001c 0528     		cmp	r0, #5
 1293 001e 17D0     		beq	.L164
 1294              		.loc 1 471 0
 1295 0020 0628     		cmp	r0, #6
 1296 0022 17D0     		beq	.L165
 1297              		.loc 1 478 0
 1298 0024 0E4A     		ldr	r2, .L169+4
 1299              		.loc 1 474 0
 1300 0026 0728     		cmp	r0, #7
 1301              		.loc 1 478 0
 1302 0028 0CBF     		ite	eq
 1303 002a 1046     		moveq	r0, r2
 1304              	.LVL150:
 1305 002c 0020     		movne	r0, #0
 1306 002e 00E0     		b	.L156
 1307              	.LVL151:
 1308              	.L159:
 1309              		.loc 1 454 0
 1310 0030 0C48     		ldr	r0, .L169+8
 1311              	.LVL152:
ARM GAS  C:\Users\JEANCO~1\AppData\Local\Temp\ccxhVNGN.s 			page 24


 1312              	.L156:
 1313              		.loc 1 480 0
 1314 0032 019A     		ldr	r2, [sp, #4]
 1315 0034 1B68     		ldr	r3, [r3]
 1316 0036 9A42     		cmp	r2, r3
 1317 0038 0ED1     		bne	.L168
 1318 003a 03B0     		add	sp, sp, #12
 1319              		.cfi_remember_state
 1320              		.cfi_def_cfa_offset 4
 1321              		@ sp needed
 1322 003c 5DF804FB 		ldr	pc, [sp], #4
 1323              	.LVL153:
 1324              	.L160:
 1325              		.cfi_restore_state
 1326              		.loc 1 457 0
 1327 0040 0948     		ldr	r0, .L169+12
 1328              	.LVL154:
 1329 0042 F6E7     		b	.L156
 1330              	.LVL155:
 1331              	.L162:
 1332              		.loc 1 463 0
 1333 0044 0948     		ldr	r0, .L169+16
 1334              	.LVL156:
 1335 0046 F4E7     		b	.L156
 1336              	.LVL157:
 1337              	.L161:
 1338              		.loc 1 460 0
 1339 0048 0948     		ldr	r0, .L169+20
 1340              	.LVL158:
 1341 004a F2E7     		b	.L156
 1342              	.LVL159:
 1343              	.L163:
 1344              		.loc 1 466 0
 1345 004c 0948     		ldr	r0, .L169+24
 1346              	.LVL160:
 1347 004e F0E7     		b	.L156
 1348              	.LVL161:
 1349              	.L164:
 1350              		.loc 1 469 0
 1351 0050 0948     		ldr	r0, .L169+28
 1352              	.LVL162:
 1353 0052 EEE7     		b	.L156
 1354              	.LVL163:
 1355              	.L165:
 1356              		.loc 1 472 0
 1357 0054 0948     		ldr	r0, .L169+32
 1358              	.LVL164:
 1359 0056 ECE7     		b	.L156
 1360              	.L168:
 1361              		.loc 1 480 0
 1362 0058 FFF7FEFF 		bl	__stack_chk_fail
 1363              	.LVL165:
 1364              	.L170:
 1365              		.align	2
 1366              	.L169:
 1367 005c 00000000 		.word	__stack_chk_guard
 1368 0060 00000000 		.word	micBack_output
ARM GAS  C:\Users\JEANCO~1\AppData\Local\Temp\ccxhVNGN.s 			page 25


 1369 0064 00000000 		.word	micLeft_cmplx_input
 1370 0068 00000000 		.word	micRight_cmplx_input
 1371 006c 00000000 		.word	micBack_cmplx_input
 1372 0070 00000000 		.word	micFront_cmplx_input
 1373 0074 00000000 		.word	micLeft_output
 1374 0078 00000000 		.word	micRight_output
 1375 007c 00000000 		.word	micFront_output
 1376              		.cfi_endproc
 1377              	.LFE299:
 1378              		.size	get_audio_buffer_ptr, .-get_audio_buffer_ptr
 1379              		.section	.text.led_direction,"ax",%progbits
 1380              		.align	1
 1381              		.p2align 4,,15
 1382              		.global	led_direction
 1383              		.syntax unified
 1384              		.thumb
 1385              		.thumb_func
 1386              		.fpu fpv4-sp-d16
 1387              		.type	led_direction, %function
 1388              	led_direction:
 1389              	.LFB300:
 1390              		.loc 1 483 0
 1391              		.cfi_startproc
 1392              		@ args = 0, pretend = 0, frame = 8
 1393              		@ frame_needed = 0, uses_anonymous_args = 0
 1394              	.LVL166:
 1395 0000 2DE9F041 		push	{r4, r5, r6, r7, r8, lr}
 1396              		.cfi_def_cfa_offset 24
 1397              		.cfi_offset 4, -24
 1398              		.cfi_offset 5, -20
 1399              		.cfi_offset 6, -16
 1400              		.cfi_offset 7, -12
 1401              		.cfi_offset 8, -8
 1402              		.cfi_offset 14, -4
 1403 0004 1F4D     		ldr	r5, .L186
 1404 0006 82B0     		sub	sp, sp, #8
 1405              		.cfi_def_cfa_offset 32
 1406              		.loc 1 483 0
 1407 0008 0646     		mov	r6, r0
 1408 000a 0C46     		mov	r4, r1
 1409 000c 2968     		ldr	r1, [r5]
 1410              	.LVL167:
 1411 000e 0191     		str	r1, [sp, #4]
 1412 0010 1746     		mov	r7, r2
 1413 0012 9846     		mov	r8, r3
 1414              		.loc 1 484 0
 1415 0014 FFF7FEFF 		bl	clear_leds
 1416              	.LVL168:
 1417              		.loc 1 485 0
 1418 0018 A642     		cmp	r6, r4
 1419 001a 10DB     		blt	.L172
 1420              		.loc 1 485 0 is_stmt 0 discriminator 1
 1421 001c BE42     		cmp	r6, r7
 1422 001e 0CDA     		bge	.L183
 1423              	.L173:
 1424              		.loc 1 493 0 is_stmt 1
 1425 0020 4745     		cmp	r7, r8
ARM GAS  C:\Users\JEANCO~1\AppData\Local\Temp\ccxhVNGN.s 			page 26


 1426 0022 10DB     		blt	.L175
 1427              		.loc 1 494 0
 1428 0024 019A     		ldr	r2, [sp, #4]
 1429 0026 2B68     		ldr	r3, [r5]
 1430 0028 9A42     		cmp	r2, r3
 1431 002a 29D1     		bne	.L182
 1432 002c 0121     		movs	r1, #1
 1433 002e 0020     		movs	r0, #0
 1434              		.loc 1 502 0
 1435 0030 02B0     		add	sp, sp, #8
 1436              		.cfi_remember_state
 1437              		.cfi_def_cfa_offset 24
 1438              		@ sp needed
 1439 0032 BDE8F041 		pop	{r4, r5, r6, r7, r8, lr}
 1440              		.cfi_restore 14
 1441              		.cfi_restore 8
 1442              		.cfi_restore 7
 1443              		.cfi_restore 6
 1444              		.cfi_restore 5
 1445              		.cfi_restore 4
 1446              		.cfi_def_cfa_offset 0
 1447              	.LVL169:
 1448              		.loc 1 498 0
 1449 0036 FFF7FEBF 		b	set_led
 1450              	.LVL170:
 1451              	.L183:
 1452              		.cfi_restore_state
 1453              		.loc 1 485 0 discriminator 2
 1454 003a 4645     		cmp	r6, r8
 1455 003c 0EDA     		bge	.L184
 1456              	.L172:
 1457              		.loc 1 489 0
 1458 003e BC42     		cmp	r4, r7
 1459 0040 EEDB     		blt	.L173
 1460              		.loc 1 489 0 is_stmt 0 discriminator 1
 1461 0042 4445     		cmp	r4, r8
 1462 0044 11DA     		bge	.L185
 1463              	.L175:
 1464              		.loc 1 498 0 is_stmt 1
 1465 0046 019A     		ldr	r2, [sp, #4]
 1466 0048 2B68     		ldr	r3, [r5]
 1467 004a 9A42     		cmp	r2, r3
 1468 004c 18D1     		bne	.L182
 1469 004e 0121     		movs	r1, #1
 1470 0050 0220     		movs	r0, #2
 1471              	.L181:
 1472              		.loc 1 502 0
 1473 0052 02B0     		add	sp, sp, #8
 1474              		.cfi_remember_state
 1475              		.cfi_def_cfa_offset 24
 1476              		@ sp needed
 1477 0054 BDE8F041 		pop	{r4, r5, r6, r7, r8, lr}
 1478              		.cfi_restore 14
 1479              		.cfi_restore 8
 1480              		.cfi_restore 7
 1481              		.cfi_restore 6
 1482              		.cfi_restore 5
ARM GAS  C:\Users\JEANCO~1\AppData\Local\Temp\ccxhVNGN.s 			page 27


 1483              		.cfi_restore 4
 1484              		.cfi_def_cfa_offset 0
 1485              	.LVL171:
 1486              		.loc 1 498 0
 1487 0058 FFF7FEBF 		b	set_led
 1488              	.LVL172:
 1489              	.L184:
 1490              		.cfi_restore_state
 1491              	.LBB180:
 1492              	.LBB181:
 1493              		.loc 1 486 0
 1494 005c 019A     		ldr	r2, [sp, #4]
 1495 005e 2B68     		ldr	r3, [r5]
 1496 0060 9A42     		cmp	r2, r3
 1497 0062 0DD1     		bne	.L182
 1498 0064 0121     		movs	r1, #1
 1499 0066 0846     		mov	r0, r1
 1500 0068 F3E7     		b	.L181
 1501              	.LVL173:
 1502              	.L185:
 1503              	.LBE181:
 1504              	.LBE180:
 1505              		.loc 1 490 0
 1506 006a 019A     		ldr	r2, [sp, #4]
 1507 006c 2B68     		ldr	r3, [r5]
 1508 006e 9A42     		cmp	r2, r3
 1509 0070 06D1     		bne	.L182
 1510 0072 0121     		movs	r1, #1
 1511 0074 0320     		movs	r0, #3
 1512              		.loc 1 502 0
 1513 0076 02B0     		add	sp, sp, #8
 1514              		.cfi_remember_state
 1515              		.cfi_def_cfa_offset 24
 1516              		@ sp needed
 1517 0078 BDE8F041 		pop	{r4, r5, r6, r7, r8, lr}
 1518              		.cfi_restore 14
 1519              		.cfi_restore 8
 1520              		.cfi_restore 7
 1521              		.cfi_restore 6
 1522              		.cfi_restore 5
 1523              		.cfi_restore 4
 1524              		.cfi_def_cfa_offset 0
 1525              	.LVL174:
 1526              		.loc 1 498 0
 1527 007c FFF7FEBF 		b	set_led
 1528              	.LVL175:
 1529              	.L182:
 1530              		.cfi_restore_state
 1531 0080 FFF7FEFF 		bl	__stack_chk_fail
 1532              	.LVL176:
 1533              	.L187:
 1534              		.align	2
 1535              	.L186:
 1536 0084 00000000 		.word	__stack_chk_guard
 1537              		.cfi_endproc
 1538              	.LFE300:
 1539              		.size	led_direction, .-led_direction
ARM GAS  C:\Users\JEANCO~1\AppData\Local\Temp\ccxhVNGN.s 			page 28


 1540              		.section	.text.processAudioData,"ax",%progbits
 1541              		.align	1
 1542              		.p2align 4,,15
 1543              		.global	processAudioData
 1544              		.syntax unified
 1545              		.thumb
 1546              		.thumb_func
 1547              		.fpu fpv4-sp-d16
 1548              		.type	processAudioData, %function
 1549              	processAudioData:
 1550              	.LFB291:
 1551              		.loc 1 138 0
 1552              		.cfi_startproc
 1553              		@ args = 0, pretend = 0, frame = 80
 1554              		@ frame_needed = 0, uses_anonymous_args = 0
 1555              	.LVL177:
 1556 0000 2DE9F04F 		push	{r4, r5, r6, r7, r8, r9, r10, fp, lr}
 1557              		.cfi_def_cfa_offset 36
 1558              		.cfi_offset 4, -36
 1559              		.cfi_offset 5, -32
 1560              		.cfi_offset 6, -28
 1561              		.cfi_offset 7, -24
 1562              		.cfi_offset 8, -20
 1563              		.cfi_offset 9, -16
 1564              		.cfi_offset 10, -12
 1565              		.cfi_offset 11, -8
 1566              		.cfi_offset 14, -4
 1567 0004 B64C     		ldr	r4, .L205
 1568 0006 B74D     		ldr	r5, .L205+4
 1569 0008 2368     		ldr	r3, [r4]
 1570 000a 2A88     		ldrh	r2, [r5]
 1571 000c 95B0     		sub	sp, sp, #84
 1572              		.cfi_def_cfa_offset 120
 1573              		.loc 1 138 0
 1574 000e 1393     		str	r3, [sp, #76]
 1575              	.LVL178:
 1576              	.LBB221:
 1577              		.loc 1 152 0
 1578 0010 0029     		cmp	r1, #0
 1579 0012 00F0EB80 		beq	.L189
 1580 0016 DFF8D492 		ldr	r9, .L205+12
 1581 001a DFF8D482 		ldr	r8, .L205+16
 1582 001e DFF8D8E2 		ldr	lr, .L205+24
 1583 0022 DFF8D0C2 		ldr	ip, .L205+20
 1584              		.loc 1 161 0
 1585 0026 DFEDB07A 		vldr.32	s15, .L205+8
 1586              		.loc 1 152 0
 1587 002a 0027     		movs	r7, #0
 1588 002c 04E0     		b	.L192
 1589              	.LVL179:
 1590              	.L190:
 1591              		.loc 1 152 0 is_stmt 0 discriminator 2
 1592 002e 0437     		adds	r7, r7, #4
 1593              	.LVL180:
 1594 0030 BFB2     		uxth	r7, r7
 1595              	.LVL181:
 1596 0032 B942     		cmp	r1, r7
ARM GAS  C:\Users\JEANCO~1\AppData\Local\Temp\ccxhVNGN.s 			page 29


 1597 0034 40F2D280 		bls	.L202
 1598              	.LVL182:
 1599              	.L192:
 1600              		.loc 1 154 0 is_stmt 1
 1601 0038 30F91730 		ldrsh	r3, [r0, r7, lsl #1]
 1602 003c 07EE103A 		vmov	s14, r3	@ int
 1603 0040 9600     		lsls	r6, r2, #2
 1604 0042 B8EEC77A 		vcvt.f32.s32	s14, s14
 1605 0046 09EB060A 		add	r10, r9, r6
 1606              		.loc 1 155 0
 1607 004a 00EB4703 		add	r3, r0, r7, lsl #1
 1608              		.loc 1 154 0
 1609 004e 8AED007A 		vstr.32	s14, [r10]
 1610              		.loc 1 155 0
 1611 0052 B3F902A0 		ldrsh	r10, [r3, #2]
 1612 0056 07EE10AA 		vmov	s14, r10	@ int
 1613 005a B8EEC77A 		vcvt.f32.s32	s14, s14
 1614 005e 08EB060A 		add	r10, r8, r6
 1615 0062 8AED007A 		vstr.32	s14, [r10]
 1616              		.loc 1 156 0
 1617 0066 B3F904A0 		ldrsh	r10, [r3, #4]
 1618 006a 07EE10AA 		vmov	s14, r10	@ int
 1619 006e B8EEC77A 		vcvt.f32.s32	s14, s14
 1620 0072 0EEB060A 		add	r10, lr, r6
 1621 0076 8AED007A 		vstr.32	s14, [r10]
 1622              		.loc 1 157 0
 1623 007a B3F90630 		ldrsh	r3, [r3, #6]
 1624 007e 07EE103A 		vmov	s14, r3	@ int
 1625              		.loc 1 161 0
 1626 0082 531C     		adds	r3, r2, #1
 1627 0084 9BB2     		uxth	r3, r3
 1628              		.loc 1 157 0
 1629 0086 B8EEC77A 		vcvt.f32.s32	s14, s14
 1630              		.loc 1 166 0
 1631 008a 0232     		adds	r2, r2, #2
 1632              		.loc 1 161 0
 1633 008c 9B00     		lsls	r3, r3, #2
 1634              		.loc 1 157 0
 1635 008e 6644     		add	r6, r6, ip
 1636              		.loc 1 166 0
 1637 0090 92B2     		uxth	r2, r2
 1638              		.loc 1 157 0
 1639 0092 86ED007A 		vstr.32	s14, [r6]
 1640              		.loc 1 161 0
 1641 0096 09EB030B 		add	fp, r9, r3
 1642              		.loc 1 162 0
 1643 009a 08EB030A 		add	r10, r8, r3
 1644              		.loc 1 163 0
 1645 009e 0EEB0306 		add	r6, lr, r3
 1646              		.loc 1 169 0
 1647 00a2 B2F5006F 		cmp	r2, #2048
 1648              		.loc 1 164 0
 1649 00a6 6344     		add	r3, r3, ip
 1650              		.loc 1 161 0
 1651 00a8 CBED007A 		vstr.32	s15, [fp]
 1652              		.loc 1 162 0
 1653 00ac CAED007A 		vstr.32	s15, [r10]
ARM GAS  C:\Users\JEANCO~1\AppData\Local\Temp\ccxhVNGN.s 			page 30


 1654              		.loc 1 163 0
 1655 00b0 C6ED007A 		vstr.32	s15, [r6]
 1656              		.loc 1 164 0
 1657 00b4 C3ED007A 		vstr.32	s15, [r3]
 1658              		.loc 1 169 0
 1659 00b8 B9D3     		bcc	.L190
 1660 00ba 2A80     		strh	r2, [r5]	@ movhi
 1661              	.LVL183:
 1662              	.L191:
 1663              	.LBE221:
 1664              	.LBB222:
 1665              		.loc 1 181 0
 1666 00bc 8B49     		ldr	r1, .L205+12
 1667              	.LVL184:
 1668 00be 4FF48060 		mov	r0, #1024
 1669              	.LVL185:
 1670 00c2 FFF7FEFF 		bl	doFFT_optimized
 1671              	.LVL186:
 1672              		.loc 1 182 0
 1673 00c6 8A49     		ldr	r1, .L205+16
 1674 00c8 4FF48060 		mov	r0, #1024
 1675 00cc FFF7FEFF 		bl	doFFT_optimized
 1676              	.LVL187:
 1677              		.loc 1 183 0
 1678 00d0 8849     		ldr	r1, .L205+20
 1679 00d2 4FF48060 		mov	r0, #1024
 1680 00d6 FFF7FEFF 		bl	doFFT_optimized
 1681              	.LVL188:
 1682              		.loc 1 184 0
 1683 00da 8749     		ldr	r1, .L205+24
 1684 00dc 4FF48060 		mov	r0, #1024
 1685 00e0 FFF7FEFF 		bl	doFFT_optimized
 1686              	.LVL189:
 1687              		.loc 1 194 0
 1688 00e4 4FF48062 		mov	r2, #1024
 1689 00e8 8449     		ldr	r1, .L205+28
 1690 00ea 8048     		ldr	r0, .L205+12
 1691 00ec FFF7FEFF 		bl	arm_cmplx_mag_f32
 1692              	.LVL190:
 1693              		.loc 1 195 0
 1694 00f0 4FF48062 		mov	r2, #1024
 1695 00f4 8249     		ldr	r1, .L205+32
 1696 00f6 7E48     		ldr	r0, .L205+16
 1697 00f8 FFF7FEFF 		bl	arm_cmplx_mag_f32
 1698              	.LVL191:
 1699              		.loc 1 196 0
 1700 00fc 4FF48062 		mov	r2, #1024
 1701 0100 8049     		ldr	r1, .L205+36
 1702 0102 7C48     		ldr	r0, .L205+20
 1703 0104 FFF7FEFF 		bl	arm_cmplx_mag_f32
 1704              	.LVL192:
 1705              		.loc 1 197 0
 1706 0108 4FF48062 		mov	r2, #1024
 1707 010c 7E49     		ldr	r1, .L205+40
 1708 010e 7A48     		ldr	r0, .L205+24
 1709 0110 FFF7FEFF 		bl	arm_cmplx_mag_f32
 1710              	.LVL193:
ARM GAS  C:\Users\JEANCO~1\AppData\Local\Temp\ccxhVNGN.s 			page 31


 1711              		.loc 1 202 0
 1712 0114 0521     		movs	r1, #5
 1713 0116 03A8     		add	r0, sp, #12
 1714 0118 FFF7FEFF 		bl	get_max_norm_index
 1715              	.LVL194:
 1716              		.loc 1 203 0
 1717 011c 0421     		movs	r1, #4
 1718 011e 05A8     		add	r0, sp, #20
 1719              		.loc 1 202 0
 1720 0120 DDF80C80 		ldr	r8, [sp, #12]
 1721              	.LVL195:
 1722              		.loc 1 203 0
 1723 0124 FFF7FEFF 		bl	get_max_norm_index
 1724              	.LVL196:
 1725              	.LBB223:
 1726              	.LBB224:
 1727 0128 0621     		movs	r1, #6
 1728 012a 07A8     		add	r0, sp, #28
 1729              	.LBE224:
 1730              	.LBE223:
 1731 012c DDF814A0 		ldr	r10, [sp, #20]
 1732              	.LVL197:
 1733              	.LBB226:
 1734              	.LBB225:
 1735 0130 FFF7FEFF 		bl	get_max_norm_index.part.0
 1736              	.LVL198:
 1737              	.LBE225:
 1738              	.LBE226:
 1739              	.LBB227:
 1740              	.LBB228:
 1741 0134 0721     		movs	r1, #7
 1742 0136 09A8     		add	r0, sp, #36
 1743              	.LBE228:
 1744              	.LBE227:
 1745              		.loc 1 204 0
 1746 0138 DDF81C90 		ldr	r9, [sp, #28]
 1747              	.LVL199:
 1748              	.LBB230:
 1749              	.LBB229:
 1750 013c FFF7FEFF 		bl	get_max_norm_index.part.0
 1751              	.LVL200:
 1752              	.LBE229:
 1753              	.LBE230:
 1754              		.loc 1 206 0
 1755 0140 0521     		movs	r1, #5
 1756 0142 0BA8     		add	r0, sp, #44
 1757              		.loc 1 205 0
 1758 0144 099F     		ldr	r7, [sp, #36]
 1759              	.LVL201:
 1760              		.loc 1 206 0
 1761 0146 FFF7FEFF 		bl	get_max_norm_index
 1762              	.LVL202:
 1763              		.loc 1 207 0
 1764 014a 0421     		movs	r1, #4
 1765 014c 0DA8     		add	r0, sp, #52
 1766 014e FFF7FEFF 		bl	get_max_norm_index
 1767              	.LVL203:
ARM GAS  C:\Users\JEANCO~1\AppData\Local\Temp\ccxhVNGN.s 			page 32


 1768              	.LBB231:
 1769              	.LBB232:
 1770 0152 0621     		movs	r1, #6
 1771 0154 0FA8     		add	r0, sp, #60
 1772 0156 FFF7FEFF 		bl	get_max_norm_index.part.0
 1773              	.LVL204:
 1774              	.LBE232:
 1775              	.LBE231:
 1776              	.LBB233:
 1777              	.LBB234:
 1778 015a 0721     		movs	r1, #7
 1779 015c 11A8     		add	r0, sp, #68
 1780 015e FFF7FEFF 		bl	get_max_norm_index.part.0
 1781              	.LVL205:
 1782              	.LBE234:
 1783              	.LBE233:
 1784              		.loc 1 215 0
 1785 0162 6A4B     		ldr	r3, .L205+44
 1786 0164 1B78     		ldrb	r3, [r3]	@ zero_extendqisi2
 1787              	.LVL206:
 1788              	.LBB235:
 1789              	.LBB236:
 1790              		.loc 1 398 0
 1791 0166 032B     		cmp	r3, #3
 1792 0168 44D8     		bhi	.L194
 1793              	.LBE236:
 1794              	.LBE235:
 1795              		.loc 1 203 0
 1796 016a 07EE90AA 		vmov	s15, r10	@ int
 1797 016e 9FED686A 		vldr.32	s12, .L205+48
 1798              		.loc 1 216 0
 1799 0172 6848     		ldr	r0, .L205+52
 1800              	.LBB242:
 1801              	.LBB237:
 1802              		.loc 1 399 0
 1803 0174 6849     		ldr	r1, .L205+56
 1804              	.LBE237:
 1805              	.LBE242:
 1806              		.loc 1 216 0
 1807 0176 0268     		ldr	r2, [r0]
 1808              		.loc 1 203 0
 1809 0178 F8EEE76A 		vcvt.f32.s32	s13, s15
 1810              	.LVL207:
 1811              		.loc 1 202 0
 1812 017c 07EE908A 		vmov	s15, r8	@ int
 1813              		.loc 1 203 0
 1814 0180 66EE866A 		vmul.f32	s13, s13, s12
 1815              	.LVL208:
 1816              		.loc 1 202 0
 1817 0184 B8EEE77A 		vcvt.f32.s32	s14, s15
 1818              	.LVL209:
 1819              		.loc 1 205 0
 1820 0188 07EE907A 		vmov	s15, r7	@ int
 1821              		.loc 1 202 0
 1822 018c 27EE067A 		vmul.f32	s14, s14, s12
 1823              	.LVL210:
 1824              		.loc 1 205 0
ARM GAS  C:\Users\JEANCO~1\AppData\Local\Temp\ccxhVNGN.s 			page 33


 1825 0190 F8EEE77A 		vcvt.f32.s32	s15, s15
 1826              	.LVL211:
 1827              		.loc 1 203 0
 1828 0194 FDEEE66A 		vcvt.s32.f32	s13, s13
 1829              	.LBB243:
 1830              	.LBB238:
 1831              		.loc 1 399 0
 1832 0198 5F1E     		subs	r7, r3, #1
 1833              	.LBE238:
 1834              	.LBE243:
 1835              		.loc 1 216 0
 1836 019a 02F1010C 		add	ip, r2, #1
 1837              		.loc 1 205 0
 1838 019e 67EE867A 		vmul.f32	s15, s15, s12
 1839              	.LVL212:
 1840              		.loc 1 203 0
 1841 01a2 3A46     		mov	r2, r7
 1842              		.loc 1 202 0
 1843 01a4 BDEEC77A 		vcvt.s32.f32	s14, s14
 1844              		.loc 1 203 0
 1845 01a8 16EE907A 		vmov	r7, s13	@ int
 1846              		.loc 1 202 0
 1847 01ac 17EE106A 		vmov	r6, s14	@ int
 1848              		.loc 1 203 0
 1849 01b0 41F82270 		str	r7, [r1, r2, lsl #2]
 1850              		.loc 1 205 0
 1851 01b4 FDEEE77A 		vcvt.s32.f32	s15, s15
 1852              	.LBB244:
 1853              	.LBB239:
 1854              		.loc 1 401 0
 1855 01b8 DA1C     		adds	r2, r3, #3
 1856              		.loc 1 402 0
 1857 01ba DF1D     		adds	r7, r3, #7
 1858              	.LBE239:
 1859              	.LBE244:
 1860              		.loc 1 202 0
 1861 01bc 41F82260 		str	r6, [r1, r2, lsl #2]
 1862              		.loc 1 216 0
 1863 01c0 C0F800C0 		str	ip, [r0]
 1864              	.LBB245:
 1865              	.LBB240:
 1866              		.loc 1 403 0
 1867 01c4 03F10B02 		add	r2, r3, #11
 1868              	.LBE240:
 1869              	.LBE245:
 1870              		.loc 1 205 0
 1871 01c8 17EE900A 		vmov	r0, s15	@ int
 1872              	.LBB246:
 1873              	.LBB241:
 1874              		.loc 1 402 0
 1875 01cc 41F82790 		str	r9, [r1, r7, lsl #2]
 1876              	.LBE241:
 1877              	.LBE246:
 1878              		.loc 1 205 0
 1879 01d0 41F82200 		str	r0, [r1, r2, lsl #2]
 1880              	.LVL213:
 1881              	.L195:
ARM GAS  C:\Users\JEANCO~1\AppData\Local\Temp\ccxhVNGN.s 			page 34


 1882              		.loc 1 260 0
 1883 01d4 4D49     		ldr	r1, .L205+44
 1884 01d6 0133     		adds	r3, r3, #1
 1885              		.loc 1 259 0
 1886 01d8 0022     		movs	r2, #0
 1887              		.loc 1 260 0
 1888 01da 0B70     		strb	r3, [r1]
 1889              	.LVL214:
 1890              	.L202:
 1891              		.loc 1 259 0
 1892 01dc 2A80     		strh	r2, [r5]	@ movhi
 1893              	.L188:
 1894              	.LBE222:
 1895              		.loc 1 266 0
 1896 01de 139A     		ldr	r2, [sp, #76]
 1897 01e0 2368     		ldr	r3, [r4]
 1898 01e2 9A42     		cmp	r2, r3
 1899 01e4 7AD1     		bne	.L203
 1900 01e6 15B0     		add	sp, sp, #84
 1901              		.cfi_remember_state
 1902              		.cfi_def_cfa_offset 36
 1903              		@ sp needed
 1904 01e8 BDE8F08F 		pop	{r4, r5, r6, r7, r8, r9, r10, fp, pc}
 1905              	.LVL215:
 1906              	.L189:
 1907              		.cfi_restore_state
 1908              		.loc 1 174 0
 1909 01ec B2F5006F 		cmp	r2, #2048
 1910 01f0 F5D3     		bcc	.L188
 1911 01f2 63E7     		b	.L191
 1912              	.LVL216:
 1913              	.L194:
 1914              	.LBB354:
 1915              		.loc 1 216 0
 1916 01f4 474A     		ldr	r2, .L205+52
 1917 01f6 1368     		ldr	r3, [r2]
 1918 01f8 0133     		adds	r3, r3, #1
 1919 01fa 1360     		str	r3, [r2]
 1920              	.LVL217:
 1921              	.LBB247:
 1922              	.LBB248:
 1923              	.LBB249:
 1924              	.LBB250:
 1925              	.LBB251:
 1926              	.LBB252:
 1927              	.LBB253:
 1928              	.LBB254:
 1929              		.file 3 "../lib/e-puck2_main-processor/ChibiOS//os/ext/CMSIS/include/core_cmFunc.h"
 1930              		.loc 3 546 0
 1931 01fc 2023     		movs	r3, #32
 1932              		.syntax unified
 1933              	@ 546 "../lib/e-puck2_main-processor/ChibiOS//os/ext/CMSIS/include/core_cmFunc.h" 1
 1934 01fe 83F31188 		MSR basepri, r3
 1935              	@ 0 "" 2
 1936              	.LVL218:
 1937              		.thumb
 1938              		.syntax unified
ARM GAS  C:\Users\JEANCO~1\AppData\Local\Temp\ccxhVNGN.s 			page 35


 1939              	.LBE254:
 1940              	.LBE253:
 1941              	.LBE252:
 1942              		.file 4 "../lib/e-puck2_main-processor/ChibiOS//os/rt/include/chsys.h"
 1943              		.loc 4 349 0
 1944 0202 FFF7FEFF 		bl	_stats_start_measure_crit_thd
 1945              	.LVL219:
 1946              		.loc 4 350 0
 1947 0206 FFF7FEFF 		bl	_dbg_check_lock
 1948              	.LVL220:
 1949              	.LBE251:
 1950              	.LBE250:
 1951              	.LBB255:
 1952              	.LBB256:
 1953              		.loc 2 268 0
 1954 020a FFF7FEFF 		bl	chDbgCheckClassI
 1955              	.LVL221:
 1956              		.loc 2 270 0
 1957 020e 4348     		ldr	r0, .L205+60
 1958 0210 8368     		ldr	r3, [r0, #8]
 1959 0212 002B     		cmp	r3, #0
 1960 0214 5FDD     		ble	.L204
 1961              	.L198:
 1962              	.LVL222:
 1963              	.LBE256:
 1964              	.LBE255:
 1965              		.loc 2 286 0
 1966 0216 FFF7FEFF 		bl	chSchRescheduleS
 1967              	.LVL223:
 1968              	.LBB258:
 1969              	.LBB259:
 1970              		.loc 4 360 0
 1971 021a FFF7FEFF 		bl	_dbg_check_unlock
 1972              	.LVL224:
 1973              		.loc 4 361 0
 1974 021e FFF7FEFF 		bl	_stats_stop_measure_crit_thd
 1975              	.LVL225:
 1976              		.loc 4 367 0
 1977 0222 3F4B     		ldr	r3, .L205+64
 1978 0224 1A68     		ldr	r2, [r3]
 1979 0226 9A42     		cmp	r2, r3
 1980 0228 07D0     		beq	.L196
 1981 022a 9969     		ldr	r1, [r3, #24]
 1982 022c 9368     		ldr	r3, [r2, #8]
 1983 022e 8A68     		ldr	r2, [r1, #8]
 1984 0230 9A42     		cmp	r2, r3
 1985 0232 02D2     		bcs	.L196
 1986 0234 3B48     		ldr	r0, .L205+68
 1987 0236 FFF7FEFF 		bl	chSysHalt
 1988              	.LVL226:
 1989              	.L196:
 1990              	.LBB260:
 1991              	.LBB261:
 1992              	.LBB262:
 1993              		.loc 3 546 0
 1994 023a 0021     		movs	r1, #0
 1995              		.syntax unified
ARM GAS  C:\Users\JEANCO~1\AppData\Local\Temp\ccxhVNGN.s 			page 36


 1996              	@ 546 "../lib/e-puck2_main-processor/ChibiOS//os/ext/CMSIS/include/core_cmFunc.h" 1
 1997 023c 81F31188 		MSR basepri, r1
 1998              	@ 0 "" 2
 1999              	.LVL227:
 2000              		.thumb
 2001              		.syntax unified
 2002              	.LBE262:
 2003              	.LBE261:
 2004              	.LBE260:
 2005              	.LBE259:
 2006              	.LBE258:
 2007              	.LBE249:
 2008              	.LBE248:
 2009              	.LBB265:
 2010              	.LBB266:
 2011              	.LBB267:
 2012              		.loc 1 390 0
 2013 0240 354B     		ldr	r3, .L205+56
 2014              	.LBE267:
 2015              	.LBE266:
 2016              	.LBE265:
 2017              		.loc 1 224 0
 2018 0242 324A     		ldr	r2, .L205+44
 2019              	.LBB284:
 2020              	.LBB275:
 2021              	.LBB268:
 2022              		.loc 1 390 0
 2023 0244 1E69     		ldr	r6, [r3, #16]
 2024              	.LBE268:
 2025              	.LBE275:
 2026              	.LBE284:
 2027              		.loc 1 224 0
 2028 0246 1170     		strb	r1, [r2]
 2029              	.LVL228:
 2030              	.LBB285:
 2031              	.LBB276:
 2032              	.LBB269:
 2033              		.loc 1 390 0
 2034 0248 9A69     		ldr	r2, [r3, #24]
 2035 024a 0192     		str	r2, [sp, #4]
 2036 024c 3246     		mov	r2, r6
 2037 024e 5E69     		ldr	r6, [r3, #20]
 2038              	.LVL229:
 2039              	.LBE269:
 2040              	.LBE276:
 2041              	.LBE285:
 2042              	.LBB286:
 2043              	.LBB287:
 2044              	.LBB288:
 2045 0250 586B     		ldr	r0, [r3, #52]
 2046              	.LBE288:
 2047              	.LBE287:
 2048              	.LBE286:
 2049              	.LBB299:
 2050              	.LBB300:
 2051              	.LBB301:
 2052 0252 9968     		ldr	r1, [r3, #8]
ARM GAS  C:\Users\JEANCO~1\AppData\Local\Temp\ccxhVNGN.s 			page 37


 2053              	.LBE301:
 2054              	.LBE300:
 2055              	.LBE299:
 2056              	.LBB312:
 2057              	.LBB313:
 2058              	.LBB314:
 2059 0254 D3F828B0 		ldr	fp, [r3, #40]
 2060              	.LBE314:
 2061              	.LBE313:
 2062              	.LBE312:
 2063              	.LBB327:
 2064              	.LBB277:
 2065              	.LBB270:
 2066 0258 D3F81CA0 		ldr	r10, [r3, #28]
 2067              	.LVL230:
 2068              	.LBE270:
 2069              	.LBE277:
 2070              	.LBE327:
 2071              	.LBB328:
 2072              	.LBB306:
 2073              	.LBB302:
 2074 025c D3F80C90 		ldr	r9, [r3, #12]
 2075              	.LVL231:
 2076              	.LBE302:
 2077              	.LBE306:
 2078              	.LBE328:
 2079              	.LBB329:
 2080              	.LBB278:
 2081              		.loc 1 393 0
 2082 0260 314F     		ldr	r7, .L205+72
 2083              	.LVL232:
 2084              	.LBB271:
 2085              		.loc 1 390 0
 2086 0262 02EB0608 		add	r8, r2, r6
 2087              	.LVL233:
 2088              	.LBE271:
 2089              	.LBE278:
 2090              	.LBE329:
 2091              	.LBB330:
 2092              	.LBB307:
 2093              	.LBB303:
 2094 0266 1E68     		ldr	r6, [r3]
 2095 0268 3246     		mov	r2, r6
 2096 026a 5E68     		ldr	r6, [r3, #4]
 2097 026c 02EB060E 		add	lr, r2, r6
 2098              	.LBE303:
 2099              	.LBE307:
 2100              	.LBE330:
 2101              	.LBB331:
 2102              	.LBB320:
 2103              	.LBB315:
 2104 0270 1A6A     		ldr	r2, [r3, #32]
 2105              	.LBE315:
 2106              	.LBE320:
 2107              	.LBE331:
 2108              	.LBB332:
 2109              	.LBB293:
ARM GAS  C:\Users\JEANCO~1\AppData\Local\Temp\ccxhVNGN.s 			page 38


 2110              	.LBB289:
 2111 0272 9E6B     		ldr	r6, [r3, #56]
 2112              	.LBE289:
 2113              	.LBE293:
 2114              	.LBE332:
 2115              	.LBB333:
 2116              	.LBB321:
 2117              	.LBB316:
 2118 0274 9446     		mov	ip, r2
 2119 0276 5A6A     		ldr	r2, [r3, #36]
 2120 0278 9444     		add	ip, ip, r2
 2121              	.LBE316:
 2122              	.LBE321:
 2123              	.LBE333:
 2124              	.LBB334:
 2125              	.LBB294:
 2126              	.LBB290:
 2127 027a 1A6B     		ldr	r2, [r3, #48]
 2128 027c 1044     		add	r0, r0, r2
 2129 027e 0246     		mov	r2, r0
 2130              	.LBE290:
 2131              	.LBE294:
 2132              	.LBE334:
 2133              	.LBB335:
 2134              	.LBB279:
 2135              	.LBB272:
 2136 0280 0198     		ldr	r0, [sp, #4]
 2137              	.LBE272:
 2138              	.LBE279:
 2139              	.LBE335:
 2140              	.LBB336:
 2141              	.LBB308:
 2142              	.LBB304:
 2143 0282 7144     		add	r1, r1, lr
 2144              	.LBE304:
 2145              	.LBE308:
 2146              	.LBE336:
 2147              	.LBB337:
 2148              	.LBB322:
 2149              	.LBB317:
 2150 0284 D3F82CE0 		ldr	lr, [r3, #44]
 2151              	.LBE317:
 2152              	.LBE322:
 2153              	.LBE337:
 2154              	.LBB338:
 2155              	.LBB295:
 2156              	.LBB291:
 2157 0288 DB6B     		ldr	r3, [r3, #60]
 2158              	.LBE291:
 2159              	.LBE295:
 2160              	.LBE338:
 2161              	.LBB339:
 2162              	.LBB280:
 2163              	.LBB273:
 2164 028a 4044     		add	r0, r0, r8
 2165              	.LVL234:
 2166              	.LBE273:
ARM GAS  C:\Users\JEANCO~1\AppData\Local\Temp\ccxhVNGN.s 			page 39


 2167              	.LBE280:
 2168              	.LBE339:
 2169              	.LBB340:
 2170              	.LBB323:
 2171              	.LBB318:
 2172 028c DC44     		add	ip, ip, fp
 2173              	.LBE318:
 2174              	.LBE323:
 2175              	.LBE340:
 2176              	.LBB341:
 2177              	.LBB296:
 2178              	.LBB292:
 2179 028e 3244     		add	r2, r2, r6
 2180 0290 1A44     		add	r2, r2, r3
 2181              	.LBE292:
 2182              	.LBE296:
 2183              	.LBE341:
 2184              	.LBB342:
 2185              	.LBB324:
 2186              	.LBB319:
 2187 0292 F444     		add	ip, ip, lr
 2188              	.LBE319:
 2189              	.LBE324:
 2190              	.LBE342:
 2191              	.LBB343:
 2192              	.LBB281:
 2193              	.LBB274:
 2194 0294 5044     		add	r0, r0, r10
 2195              	.LVL235:
 2196              	.LBE274:
 2197              	.LBE281:
 2198              	.LBE343:
 2199              	.LBB344:
 2200              	.LBB309:
 2201              	.LBB305:
 2202 0296 4944     		add	r1, r1, r9
 2203              	.LBE305:
 2204              	.LBE309:
 2205              	.LBE344:
 2206              	.LBB345:
 2207              	.LBB325:
 2208              		.loc 1 393 0
 2209 0298 87FB0C38 		smull	r3, r8, r7, ip
 2210              	.LBE325:
 2211              	.LBE345:
 2212              	.LBB346:
 2213              	.LBB282:
 2214 029c 87FB003A 		smull	r3, r10, r7, r0
 2215              	.LBE282:
 2216              	.LBE346:
 2217              	.LBB347:
 2218              	.LBB310:
 2219 02a0 87FB0139 		smull	r3, r9, r7, r1
 2220              	.LBE310:
 2221              	.LBE347:
 2222              	.LBB348:
 2223              	.LBB297:
ARM GAS  C:\Users\JEANCO~1\AppData\Local\Temp\ccxhVNGN.s 			page 40


 2224 02a4 87FB0237 		smull	r3, r7, r7, r2
 2225              	.LBE297:
 2226              	.LBE348:
 2227              	.LBB349:
 2228              	.LBB326:
 2229 02a8 A8EBEC78 		sub	r8, r8, ip, asr #31
 2230              	.LBE326:
 2231              	.LBE349:
 2232              	.LBB350:
 2233              	.LBB298:
 2234 02ac A7EBE277 		sub	r7, r7, r2, asr #31
 2235              	.LBE298:
 2236              	.LBE350:
 2237              	.LBB351:
 2238              	.LBB283:
 2239 02b0 AAEBE07A 		sub	r10, r10, r0, asr #31
 2240              	.LVL236:
 2241              	.LBE283:
 2242              	.LBE351:
 2243              	.LBB352:
 2244              	.LBB311:
 2245 02b4 A9EBE179 		sub	r9, r9, r1, asr #31
 2246              	.LVL237:
 2247              	.LBE311:
 2248              	.LBE352:
 2249              		.loc 1 233 0
 2250 02b8 5046     		mov	r0, r10
 2251 02ba 4946     		mov	r1, r9
 2252 02bc 4246     		mov	r2, r8
 2253 02be 3B46     		mov	r3, r7
 2254 02c0 FFF7FEFF 		bl	led_direction
 2255              	.LVL238:
 2256              		.loc 1 235 0
 2257 02c4 3B46     		mov	r3, r7
 2258 02c6 4246     		mov	r2, r8
 2259 02c8 4946     		mov	r1, r9
 2260 02ca 5046     		mov	r0, r10
 2261 02cc FFF7FEFF 		bl	calcul_angle
 2262              	.LVL239:
 2263 02d0 0E4B     		ldr	r3, .L205+44
 2264 02d2 1B78     		ldrb	r3, [r3]	@ zero_extendqisi2
 2265 02d4 7EE7     		b	.L195
 2266              	.LVL240:
 2267              	.L204:
 2268              	.LBB353:
 2269              	.LBB264:
 2270              	.LBB263:
 2271              	.LBB257:
 2272              		.loc 2 271 0
 2273 02d6 FFF7FEFF 		bl	chSemSignalI
 2274              	.LVL241:
 2275 02da 9CE7     		b	.L198
 2276              	.LVL242:
 2277              	.L203:
 2278              	.LBE257:
 2279              	.LBE263:
 2280              	.LBE264:
ARM GAS  C:\Users\JEANCO~1\AppData\Local\Temp\ccxhVNGN.s 			page 41


 2281              	.LBE353:
 2282              	.LBE247:
 2283              	.LBE354:
 2284              		.loc 1 266 0
 2285 02dc FFF7FEFF 		bl	__stack_chk_fail
 2286              	.LVL243:
 2287              	.L206:
 2288              		.align	2
 2289              	.L205:
 2290 02e0 00000000 		.word	__stack_chk_guard
 2291 02e4 00000000 		.word	.LANCHOR3
 2292 02e8 00000000 		.word	0
 2293 02ec 00000000 		.word	micRight_cmplx_input
 2294 02f0 00000000 		.word	micLeft_cmplx_input
 2295 02f4 00000000 		.word	micFront_cmplx_input
 2296 02f8 00000000 		.word	micBack_cmplx_input
 2297 02fc 00000000 		.word	micRight_output
 2298 0300 00000000 		.word	micLeft_output
 2299 0304 00000000 		.word	micFront_output
 2300 0308 00000000 		.word	micBack_output
 2301 030c 00000000 		.word	.LANCHOR4
 2302 0310 48E17A3F 		.word	1065017672
 2303 0314 00000000 		.word	.LANCHOR5
 2304 0318 00000000 		.word	.LANCHOR1
 2305 031c 00000000 		.word	.LANCHOR2
 2306 0320 00000000 		.word	ch
 2307 0324 00000000 		.word	.LANCHOR6
 2308 0328 56555555 		.word	1431655766
 2309              		.cfi_endproc
 2310              	.LFE291:
 2311              		.size	processAudioData, .-processAudioData
 2312              		.section	.text.echantillone_distance,"ax",%progbits
 2313              		.align	1
 2314              		.p2align 4,,15
 2315              		.global	echantillone_distance
 2316              		.syntax unified
 2317              		.thumb
 2318              		.thumb_func
 2319              		.fpu fpv4-sp-d16
 2320              		.type	echantillone_distance, %function
 2321              	echantillone_distance:
 2322              	.LFB301:
 2323              		.loc 1 584 0
 2324              		.cfi_startproc
 2325              		@ args = 0, pretend = 0, frame = 8
 2326              		@ frame_needed = 0, uses_anonymous_args = 0
 2327              	.LVL244:
 2328 0000 00B5     		push	{lr}
 2329              		.cfi_def_cfa_offset 4
 2330              		.cfi_offset 14, -4
 2331 0002 064B     		ldr	r3, .L211
 2332 0004 83B0     		sub	sp, sp, #12
 2333              		.cfi_def_cfa_offset 16
 2334              		.loc 1 584 0
 2335 0006 1A68     		ldr	r2, [r3]
 2336 0008 0192     		str	r2, [sp, #4]
 2337              		.loc 1 592 0
ARM GAS  C:\Users\JEANCO~1\AppData\Local\Temp\ccxhVNGN.s 			page 42


 2338 000a 019A     		ldr	r2, [sp, #4]
 2339 000c 1B68     		ldr	r3, [r3]
 2340 000e 9A42     		cmp	r2, r3
 2341 0010 02D1     		bne	.L210
 2342 0012 03B0     		add	sp, sp, #12
 2343              		.cfi_remember_state
 2344              		.cfi_def_cfa_offset 4
 2345              		@ sp needed
 2346 0014 5DF804FB 		ldr	pc, [sp], #4
 2347              	.L210:
 2348              		.cfi_restore_state
 2349 0018 FFF7FEFF 		bl	__stack_chk_fail
 2350              	.LVL245:
 2351              	.L212:
 2352              		.align	2
 2353              	.L211:
 2354 001c 00000000 		.word	__stack_chk_guard
 2355              		.cfi_endproc
 2356              	.LFE301:
 2357              		.size	echantillone_distance, .-echantillone_distance
 2358              		.section	.text.get_max_front_moyenne,"ax",%progbits
 2359              		.align	1
 2360              		.p2align 4,,15
 2361              		.global	get_max_front_moyenne
 2362              		.syntax unified
 2363              		.thumb
 2364              		.thumb_func
 2365              		.fpu fpv4-sp-d16
 2366              		.type	get_max_front_moyenne, %function
 2367              	get_max_front_moyenne:
 2368              	.LFB302:
 2369              		.loc 1 594 0
 2370              		.cfi_startproc
 2371              		@ args = 0, pretend = 0, frame = 8
 2372              		@ frame_needed = 0, uses_anonymous_args = 0
 2373 0000 30B5     		push	{r4, r5, lr}
 2374              		.cfi_def_cfa_offset 12
 2375              		.cfi_offset 4, -12
 2376              		.cfi_offset 5, -8
 2377              		.cfi_offset 14, -4
 2378              	.LBB355:
 2379              	.LBB356:
 2380              	.LBB357:
 2381              		.loc 1 390 0
 2382 0002 0C4A     		ldr	r2, .L217
 2383              	.LBE357:
 2384              	.LBE356:
 2385              	.LBE355:
 2386              		.loc 1 594 0
 2387 0004 0C49     		ldr	r1, .L217+4
 2388              	.LBB365:
 2389              	.LBB361:
 2390              	.LBB358:
 2391              		.loc 1 390 0
 2392 0006 D2E90834 		ldrd	r3, r4, [r2, #32]
 2393 000a D2E90A05 		ldrd	r0, r5, [r2, #40]
 2394              	.LBE358:
ARM GAS  C:\Users\JEANCO~1\AppData\Local\Temp\ccxhVNGN.s 			page 43


 2395              	.LBE361:
 2396              	.LBE365:
 2397              		.loc 1 594 0
 2398 000e 83B0     		sub	sp, sp, #12
 2399              		.cfi_def_cfa_offset 24
 2400              		.loc 1 594 0
 2401 0010 0A68     		ldr	r2, [r1]
 2402 0012 0192     		str	r2, [sp, #4]
 2403              	.LVL246:
 2404              	.LBB366:
 2405              	.LBB362:
 2406              	.LBB359:
 2407              		.loc 1 390 0
 2408 0014 2344     		add	r3, r3, r4
 2409              	.LVL247:
 2410 0016 0344     		add	r3, r3, r0
 2411              	.LVL248:
 2412              	.LBE359:
 2413              	.LBE362:
 2414              	.LBE366:
 2415              		.loc 1 596 0
 2416 0018 019C     		ldr	r4, [sp, #4]
 2417              	.LBB367:
 2418              	.LBB363:
 2419              		.loc 1 393 0
 2420 001a 0848     		ldr	r0, .L217+8
 2421              	.LBE363:
 2422              	.LBE367:
 2423              		.loc 1 596 0
 2424 001c 0A68     		ldr	r2, [r1]
 2425              	.LBB368:
 2426              	.LBB364:
 2427              	.LBB360:
 2428              		.loc 1 390 0
 2429 001e 2B44     		add	r3, r3, r5
 2430              	.LBE360:
 2431              		.loc 1 393 0
 2432 0020 80FB0310 		smull	r1, r0, r0, r3
 2433              	.LBE364:
 2434              	.LBE368:
 2435              		.loc 1 596 0
 2436 0024 9442     		cmp	r4, r2
 2437 0026 A0EBE370 		sub	r0, r0, r3, asr #31
 2438 002a 01D1     		bne	.L216
 2439 002c 03B0     		add	sp, sp, #12
 2440              		.cfi_remember_state
 2441              		.cfi_def_cfa_offset 12
 2442              		@ sp needed
 2443 002e 30BD     		pop	{r4, r5, pc}
 2444              	.L216:
 2445              		.cfi_restore_state
 2446 0030 FFF7FEFF 		bl	__stack_chk_fail
 2447              	.LVL249:
 2448              	.L218:
 2449              		.align	2
 2450              	.L217:
 2451 0034 00000000 		.word	.LANCHOR1
ARM GAS  C:\Users\JEANCO~1\AppData\Local\Temp\ccxhVNGN.s 			page 44


 2452 0038 00000000 		.word	__stack_chk_guard
 2453 003c 56555555 		.word	1431655766
 2454              		.cfi_endproc
 2455              	.LFE302:
 2456              		.size	get_max_front_moyenne, .-get_max_front_moyenne
 2457              		.section	.text.get_line_position,"ax",%progbits
 2458              		.align	1
 2459              		.p2align 4,,15
 2460              		.global	get_line_position
 2461              		.syntax unified
 2462              		.thumb
 2463              		.thumb_func
 2464              		.fpu fpv4-sp-d16
 2465              		.type	get_line_position, %function
 2466              	get_line_position:
 2467              	.LFB303:
 2468              		.loc 1 598 0
 2469              		.cfi_startproc
 2470              		@ args = 0, pretend = 0, frame = 8
 2471              		@ frame_needed = 0, uses_anonymous_args = 0
 2472 0000 00B5     		push	{lr}
 2473              		.cfi_def_cfa_offset 4
 2474              		.cfi_offset 14, -4
 2475 0002 074B     		ldr	r3, .L223
 2476              		.loc 1 599 0
 2477 0004 0749     		ldr	r1, .L223+4
 2478              		.loc 1 598 0
 2479 0006 1A68     		ldr	r2, [r3]
 2480              		.loc 1 600 0
 2481 0008 0868     		ldr	r0, [r1]
 2482              		.loc 1 598 0
 2483 000a 83B0     		sub	sp, sp, #12
 2484              		.cfi_def_cfa_offset 16
 2485              		.loc 1 598 0
 2486 000c 0192     		str	r2, [sp, #4]
 2487              		.loc 1 600 0
 2488 000e 019A     		ldr	r2, [sp, #4]
 2489 0010 1B68     		ldr	r3, [r3]
 2490 0012 9A42     		cmp	r2, r3
 2491 0014 02D1     		bne	.L222
 2492 0016 03B0     		add	sp, sp, #12
 2493              		.cfi_remember_state
 2494              		.cfi_def_cfa_offset 4
 2495              		@ sp needed
 2496 0018 5DF804FB 		ldr	pc, [sp], #4
 2497              	.L222:
 2498              		.cfi_restore_state
 2499 001c FFF7FEFF 		bl	__stack_chk_fail
 2500              	.LVL250:
 2501              	.L224:
 2502              		.align	2
 2503              	.L223:
 2504 0020 00000000 		.word	__stack_chk_guard
 2505 0024 00000000 		.word	.LANCHOR0
 2506              		.cfi_endproc
 2507              	.LFE303:
 2508              		.size	get_line_position, .-get_line_position
ARM GAS  C:\Users\JEANCO~1\AppData\Local\Temp\ccxhVNGN.s 			page 45


 2509              		.section	.text.get_distance_cm,"ax",%progbits
 2510              		.align	1
 2511              		.p2align 4,,15
 2512              		.global	get_distance_cm
 2513              		.syntax unified
 2514              		.thumb
 2515              		.thumb_func
 2516              		.fpu fpv4-sp-d16
 2517              		.type	get_distance_cm, %function
 2518              	get_distance_cm:
 2519              	.LFB304:
 2520              		.loc 1 602 0
 2521              		.cfi_startproc
 2522              		@ args = 0, pretend = 0, frame = 8
 2523              		@ frame_needed = 0, uses_anonymous_args = 0
 2524 0000 00B5     		push	{lr}
 2525              		.cfi_def_cfa_offset 4
 2526              		.cfi_offset 14, -4
 2527 0002 074B     		ldr	r3, .L229
 2528 0004 83B0     		sub	sp, sp, #12
 2529              		.cfi_def_cfa_offset 16
 2530              		.loc 1 602 0
 2531 0006 1A68     		ldr	r2, [r3]
 2532 0008 0192     		str	r2, [sp, #4]
 2533              		.loc 1 604 0
 2534 000a 019A     		ldr	r2, [sp, #4]
 2535 000c 1B68     		ldr	r3, [r3]
 2536 000e 9A42     		cmp	r2, r3
 2537 0010 04D1     		bne	.L228
 2538 0012 9FED040A 		vldr.32	s0, .L229+4
 2539 0016 03B0     		add	sp, sp, #12
 2540              		.cfi_remember_state
 2541              		.cfi_def_cfa_offset 4
 2542              		@ sp needed
 2543 0018 5DF804FB 		ldr	pc, [sp], #4
 2544              	.L228:
 2545              		.cfi_restore_state
 2546 001c FFF7FEFF 		bl	__stack_chk_fail
 2547              	.LVL251:
 2548              	.L230:
 2549              		.align	2
 2550              	.L229:
 2551 0020 00000000 		.word	__stack_chk_guard
 2552 0024 00000000 		.word	0
 2553              		.cfi_endproc
 2554              	.LFE304:
 2555              		.size	get_distance_cm, .-get_distance_cm
 2556              		.section	.text.pi_regulator,"ax",%progbits
 2557              		.align	1
 2558              		.p2align 4,,15
 2559              		.global	pi_regulator
 2560              		.syntax unified
 2561              		.thumb
 2562              		.thumb_func
 2563              		.fpu fpv4-sp-d16
 2564              		.type	pi_regulator, %function
 2565              	pi_regulator:
ARM GAS  C:\Users\JEANCO~1\AppData\Local\Temp\ccxhVNGN.s 			page 46


 2566              	.LFB305:
 2567              		.loc 1 608 0
 2568              		.cfi_startproc
 2569              		@ args = 0, pretend = 0, frame = 8
 2570              		@ frame_needed = 0, uses_anonymous_args = 0
 2571              	.LVL252:
 2572 0000 00B5     		push	{lr}
 2573              		.cfi_def_cfa_offset 4
 2574              		.cfi_offset 14, -4
 2575 0002 214B     		ldr	r3, .L245
 2576 0004 83B0     		sub	sp, sp, #12
 2577              		.cfi_def_cfa_offset 16
 2578              		.loc 1 615 0
 2579 0006 B5EE400A 		vcmp.f32	s0, #0
 2580              		.loc 1 608 0
 2581 000a 1A68     		ldr	r2, [r3]
 2582 000c 0192     		str	r2, [sp, #4]
 2583              	.LVL253:
 2584              		.loc 1 615 0
 2585 000e F1EE10FA 		vmrs	APSR_nzcv, FPSCR
 2586 0012 2BD0     		beq	.L239
 2587              		.loc 1 616 0
 2588 0014 30EE600A 		vsub.f32	s0, s0, s1
 2589              	.LVL254:
 2590              		.loc 1 625 0
 2591 0018 DFED1C7A 		vldr.32	s15, .L245+4
 2592 001c B0EEC07A 		vabs.f32	s14, s0
 2593 0020 B4EEE77A 		vcmpe.f32	s14, s15
 2594 0024 F1EE10FA 		vmrs	APSR_nzcv, FPSCR
 2595 0028 20D4     		bmi	.L239
 2596              		.loc 1 629 0
 2597 002a 194A     		ldr	r2, .L245+8
 2598              		.loc 1 632 0
 2599 002c 9FED197A 		vldr.32	s14, .L245+12
 2600              		.loc 1 629 0
 2601 0030 D2ED007A 		vldr.32	s15, [r2]
 2602 0034 70EE277A 		vadd.f32	s15, s0, s15
 2603              		.loc 1 632 0
 2604 0038 F4EEC77A 		vcmpe.f32	s15, s14
 2605 003c F1EE10FA 		vmrs	APSR_nzcv, FPSCR
 2606 0040 1CDC     		bgt	.L243
 2607              		.loc 1 634 0
 2608 0042 9FED157A 		vldr.32	s14, .L245+16
 2609 0046 F4EEC77A 		vcmpe.f32	s15, s14
 2610 004a F1EE10FA 		vmrs	APSR_nzcv, FPSCR
 2611              		.loc 1 629 0
 2612 004e 48BF     		it	mi
 2613 0050 F0EE477A 		vmovmi.f32	s15, s14
 2614 0054 C2ED007A 		vstr.32	s15, [r2]
 2615              	.L235:
 2616              	.LVL255:
 2617              		.loc 1 638 0
 2618 0058 DFED100A 		vldr.32	s1, .L245+20
 2619              	.LVL256:
 2620 005c 20EE200A 		vmul.f32	s0, s0, s1
 2621              	.LVL257:
 2622              		.loc 1 640 0
ARM GAS  C:\Users\JEANCO~1\AppData\Local\Temp\ccxhVNGN.s 			page 47


 2623 0060 BDEEC00A 		vcvt.s32.f32	s0, s0
 2624              	.LVL258:
 2625 0064 10EE102A 		vmov	r2, s0	@ int
 2626 0068 10B2     		sxth	r0, r2
 2627 006a 00E0     		b	.L232
 2628              	.LVL259:
 2629              	.L239:
 2630              		.loc 1 626 0
 2631 006c 0020     		movs	r0, #0
 2632              	.LVL260:
 2633              	.L232:
 2634              		.loc 1 641 0
 2635 006e 019A     		ldr	r2, [sp, #4]
 2636 0070 1B68     		ldr	r3, [r3]
 2637 0072 9A42     		cmp	r2, r3
 2638 0074 05D1     		bne	.L244
 2639 0076 03B0     		add	sp, sp, #12
 2640              		.cfi_remember_state
 2641              		.cfi_def_cfa_offset 4
 2642              		@ sp needed
 2643 0078 5DF804FB 		ldr	pc, [sp], #4
 2644              	.LVL261:
 2645              	.L243:
 2646              		.cfi_restore_state
 2647              		.loc 1 633 0
 2648 007c 82ED007A 		vstr.32	s14, [r2]
 2649 0080 EAE7     		b	.L235
 2650              	.LVL262:
 2651              	.L244:
 2652              		.loc 1 641 0
 2653 0082 FFF7FEFF 		bl	__stack_chk_fail
 2654              	.LVL263:
 2655              	.L246:
 2656 0086 00BF     		.align	2
 2657              	.L245:
 2658 0088 00000000 		.word	__stack_chk_guard
 2659 008c 0AD7233C 		.word	1008981770
 2660 0090 00000000 		.word	.LANCHOR7
 2661 0094 00005C43 		.word	1130102784
 2662 0098 00005CC3 		.word	-1017380864
 2663 009c 00409C46 		.word	1184645120
 2664              		.cfi_endproc
 2665              	.LFE305:
 2666              		.size	pi_regulator, .-pi_regulator
 2667              		.section	.text.pi_regulator_start,"ax",%progbits
 2668              		.align	1
 2669              		.p2align 4,,15
 2670              		.global	pi_regulator_start
 2671              		.syntax unified
 2672              		.thumb
 2673              		.thumb_func
 2674              		.fpu fpv4-sp-d16
 2675              		.type	pi_regulator_start, %function
 2676              	pi_regulator_start:
 2677              	.LFB307:
 2678              		.loc 1 774 0
 2679              		.cfi_startproc
ARM GAS  C:\Users\JEANCO~1\AppData\Local\Temp\ccxhVNGN.s 			page 48


 2680              		@ args = 0, pretend = 0, frame = 8
 2681              		@ frame_needed = 0, uses_anonymous_args = 0
 2682 0000 10B5     		push	{r4, lr}
 2683              		.cfi_def_cfa_offset 8
 2684              		.cfi_offset 4, -8
 2685              		.cfi_offset 14, -4
 2686 0002 0A4C     		ldr	r4, .L251
 2687              		.loc 1 775 0
 2688 0004 0A4B     		ldr	r3, .L251+4
 2689              		.loc 1 774 0
 2690 0006 2268     		ldr	r2, [r4]
 2691              		.loc 1 775 0
 2692 0008 0A48     		ldr	r0, .L251+8
 2693              		.loc 1 774 0
 2694 000a 84B0     		sub	sp, sp, #16
 2695              		.cfi_def_cfa_offset 24
 2696              		.loc 1 775 0
 2697 000c 4FF41E71 		mov	r1, #632
 2698              		.loc 1 774 0
 2699 0010 0392     		str	r2, [sp, #12]
 2700              		.loc 1 775 0
 2701 0012 0022     		movs	r2, #0
 2702 0014 0092     		str	r2, [sp]
 2703 0016 4022     		movs	r2, #64
 2704 0018 FFF7FEFF 		bl	chThdCreateStatic
 2705              	.LVL264:
 2706              		.loc 1 776 0
 2707 001c 039A     		ldr	r2, [sp, #12]
 2708 001e 2368     		ldr	r3, [r4]
 2709 0020 9A42     		cmp	r2, r3
 2710 0022 01D1     		bne	.L250
 2711 0024 04B0     		add	sp, sp, #16
 2712              		.cfi_remember_state
 2713              		.cfi_def_cfa_offset 8
 2714              		@ sp needed
 2715 0026 10BD     		pop	{r4, pc}
 2716              	.L250:
 2717              		.cfi_restore_state
 2718 0028 FFF7FEFF 		bl	__stack_chk_fail
 2719              	.LVL265:
 2720              	.L252:
 2721              		.align	2
 2722              	.L251:
 2723 002c 00000000 		.word	__stack_chk_guard
 2724 0030 00000000 		.word	PiRegulator
 2725 0034 00000000 		.word	.LANCHOR8
 2726              		.cfi_endproc
 2727              	.LFE307:
 2728              		.size	pi_regulator_start, .-pi_regulator_start
 2729              		.section	.text.calcul_direction,"ax",%progbits
 2730              		.align	1
 2731              		.p2align 4,,15
 2732              		.global	calcul_direction
 2733              		.syntax unified
 2734              		.thumb
 2735              		.thumb_func
 2736              		.fpu fpv4-sp-d16
ARM GAS  C:\Users\JEANCO~1\AppData\Local\Temp\ccxhVNGN.s 			page 49


 2737              		.type	calcul_direction, %function
 2738              	calcul_direction:
 2739              	.LFB308:
 2740              		.loc 1 778 0
 2741              		.cfi_startproc
 2742              		@ args = 0, pretend = 0, frame = 8
 2743              		@ frame_needed = 0, uses_anonymous_args = 0
 2744              	.LVL266:
 2745 0000 00B5     		push	{lr}
 2746              		.cfi_def_cfa_offset 4
 2747              		.cfi_offset 14, -4
 2748              		.loc 1 779 0
 2749 0002 07EE901A 		vmov	s15, r1	@ int
 2750 0006 9FED3D7A 		vldr.32	s14, .L295
 2751              		.loc 1 780 0
 2752 000a DFED3D6A 		vldr.32	s13, .L295+4
 2753              		.loc 1 778 0
 2754 000e 3D4A     		ldr	r2, .L295+8
 2755              		.loc 1 779 0
 2756 0010 F8EEE77A 		vcvt.f32.s32	s15, s15
 2757              		.loc 1 778 0
 2758 0014 83B0     		sub	sp, sp, #12
 2759              		.cfi_def_cfa_offset 16
 2760              		.loc 1 779 0
 2761 0016 27EE877A 		vmul.f32	s14, s15, s14
 2762              		.loc 1 780 0
 2763 001a 67EEA67A 		vmul.f32	s15, s15, s13
 2764              		.loc 1 778 0
 2765 001e 1368     		ldr	r3, [r2]
 2766 0020 0193     		str	r3, [sp, #4]
 2767              		.loc 1 781 0
 2768 0022 0028     		cmp	r0, #0
 2769              		.loc 1 779 0
 2770 0024 BDEEC77A 		vcvt.s32.f32	s14, s14
 2771              	.LVL267:
 2772              		.loc 1 780 0
 2773 0028 FDEEE77A 		vcvt.s32.f32	s15, s15
 2774              	.LVL268:
 2775              		.loc 1 781 0
 2776 002c 11D1     		bne	.L254
 2777              		.loc 1 781 0 is_stmt 0 discriminator 1
 2778 002e 0029     		cmp	r1, #0
 2779 0030 23D0     		beq	.L280
 2780              		.loc 1 786 0 is_stmt 1
 2781 0032 33DA     		bge	.L260
 2782              	.L267:
 2783              		.loc 1 807 0
 2784 0034 4B42     		negs	r3, r1
 2785 0036 8342     		cmp	r3, r0
 2786 0038 1FD0     		beq	.L280
 2787              		.loc 1 807 0 is_stmt 0 discriminator 1
 2788 003a 19DC     		bgt	.L291
 2789              		.loc 1 809 0 is_stmt 1
 2790 003c 04DA     		bge	.L264
 2791              		.loc 1 809 0 is_stmt 0 discriminator 1
 2792 003e 17EE103A 		vmov	r3, s14	@ int
 2793 0042 5B42     		negs	r3, r3
ARM GAS  C:\Users\JEANCO~1\AppData\Local\Temp\ccxhVNGN.s 			page 50


 2794 0044 8342     		cmp	r3, r0
 2795 0046 18DC     		bgt	.L280
 2796              	.L264:
 2797              		.loc 1 814 0 is_stmt 1
 2798 0048 8142     		cmp	r1, r0
 2799 004a B4BF     		ite	lt
 2800 004c 0520     		movlt	r0, #5
 2801 004e 0220     		movge	r0, #2
 2802              	.LVL269:
 2803 0050 14E0     		b	.L255
 2804              	.LVL270:
 2805              	.L254:
 2806              		.loc 1 786 0
 2807 0052 1ADA     		bge	.L292
 2808              		.loc 1 797 0 discriminator 1
 2809 0054 0029     		cmp	r1, #0
 2810 0056 2DDB     		blt	.L261
 2811              		.loc 1 798 0
 2812 0058 4042     		negs	r0, r0
 2813              	.LVL271:
 2814 005a 8842     		cmp	r0, r1
 2815 005c 0DD0     		beq	.L280
 2816              		.loc 1 798 0 is_stmt 0 discriminator 1
 2817 005e 36DC     		bgt	.L293
 2818              		.loc 1 800 0 is_stmt 1
 2819 0060 31DA     		bge	.L276
 2820              		.loc 1 782 0 discriminator 1
 2821 0062 17EE903A 		vmov	r3, s15	@ int
 2822 0066 9842     		cmp	r0, r3
 2823 0068 D4BF     		ite	le
 2824 006a 0120     		movle	r0, #1
 2825 006c 0620     		movgt	r0, #6
 2826              	.LVL272:
 2827 006e 05E0     		b	.L255
 2828              	.LVL273:
 2829              	.L291:
 2830              		.loc 1 807 0 discriminator 2
 2831 0070 17EE903A 		vmov	r3, s15	@ int
 2832 0074 5B42     		negs	r3, r3
 2833 0076 8342     		cmp	r3, r0
 2834 0078 E6DA     		bge	.L264
 2835              	.LVL274:
 2836              	.L280:
 2837              		.loc 1 782 0
 2838 007a 0620     		movs	r0, #6
 2839              	.L255:
 2840              		.loc 1 831 0
 2841 007c 0199     		ldr	r1, [sp, #4]
 2842              	.LVL275:
 2843 007e 1368     		ldr	r3, [r2]
 2844 0080 9942     		cmp	r1, r3
 2845 0082 38D1     		bne	.L294
 2846 0084 03B0     		add	sp, sp, #12
 2847              		.cfi_remember_state
 2848              		.cfi_def_cfa_offset 4
 2849              		@ sp needed
 2850 0086 5DF804FB 		ldr	pc, [sp], #4
ARM GAS  C:\Users\JEANCO~1\AppData\Local\Temp\ccxhVNGN.s 			page 51


 2851              	.LVL276:
 2852              	.L292:
 2853              		.cfi_restore_state
 2854              		.loc 1 786 0
 2855 008a 0029     		cmp	r1, #0
 2856 008c D2DB     		blt	.L267
 2857              		.loc 1 787 0
 2858 008e 8142     		cmp	r1, r0
 2859 0090 0DDA     		bge	.L259
 2860              		.loc 1 787 0 is_stmt 0 discriminator 1
 2861 0092 17EE103A 		vmov	r3, s14	@ int
 2862 0096 8342     		cmp	r3, r0
 2863 0098 17DB     		blt	.L270
 2864              	.LVL277:
 2865              		.loc 1 789 0 is_stmt 1 discriminator 1
 2866 009a 09DC     		bgt	.L272
 2867              	.LVL278:
 2868              	.L260:
 2869              		.loc 1 792 0
 2870 009c 8142     		cmp	r1, r0
 2871 009e 12DD     		ble	.L276
 2872              		.loc 1 782 0 discriminator 1
 2873 00a0 17EE903A 		vmov	r3, s15	@ int
 2874 00a4 8342     		cmp	r3, r0
 2875 00a6 B4BF     		ite	lt
 2876 00a8 0020     		movlt	r0, #0
 2877              	.LVL279:
 2878 00aa 0120     		movge	r0, #1
 2879 00ac E6E7     		b	.L255
 2880              	.LVL280:
 2881              	.L259:
 2882              		.loc 1 789 0 discriminator 3
 2883 00ae F5D1     		bne	.L260
 2884              	.L272:
 2885              		.loc 1 790 0
 2886 00b0 0020     		movs	r0, #0
 2887              	.LVL281:
 2888 00b2 E3E7     		b	.L255
 2889              	.LVL282:
 2890              	.L261:
 2891              		.loc 1 817 0
 2892 00b4 8142     		cmp	r1, r0
 2893 00b6 11DA     		bge	.L265
 2894              		.loc 1 817 0 is_stmt 0 discriminator 1
 2895 00b8 17EE903A 		vmov	r3, s15	@ int
 2896 00bc 8342     		cmp	r3, r0
 2897 00be 18DB     		blt	.L282
 2898              	.LVL283:
 2899              		.loc 1 819 0 is_stmt 1 discriminator 1
 2900 00c0 15DC     		bgt	.L284
 2901              	.LVL284:
 2902              	.L285:
 2903              		.loc 1 824 0
 2904 00c2 0420     		movs	r0, #4
 2905              	.LVL285:
 2906 00c4 DAE7     		b	.L255
 2907              	.L276:
ARM GAS  C:\Users\JEANCO~1\AppData\Local\Temp\ccxhVNGN.s 			page 52


 2908              		.loc 1 795 0
 2909 00c6 0120     		movs	r0, #1
 2910 00c8 D8E7     		b	.L255
 2911              	.LVL286:
 2912              	.L270:
 2913              		.loc 1 788 0
 2914 00ca 0520     		movs	r0, #5
 2915              	.LVL287:
 2916 00cc D6E7     		b	.L255
 2917              	.LVL288:
 2918              	.L293:
 2919              		.loc 1 782 0 discriminator 2
 2920 00ce 17EE103A 		vmov	r3, s14	@ int
 2921 00d2 9842     		cmp	r0, r3
 2922 00d4 ACBF     		ite	ge
 2923 00d6 0120     		movge	r0, #1
 2924 00d8 0620     		movlt	r0, #6
 2925              	.LVL289:
 2926 00da CFE7     		b	.L255
 2927              	.LVL290:
 2928              	.L265:
 2929              		.loc 1 819 0 discriminator 3
 2930 00dc 07D0     		beq	.L284
 2931              		.loc 1 821 0
 2932 00de F0DD     		ble	.L285
 2933              		.loc 1 820 0 discriminator 1
 2934 00e0 17EE103A 		vmov	r3, s14	@ int
 2935 00e4 8342     		cmp	r3, r0
 2936 00e6 ACBF     		ite	ge
 2937 00e8 0420     		movge	r0, #4
 2938 00ea 0320     		movlt	r0, #3
 2939              	.LVL291:
 2940 00ec C6E7     		b	.L255
 2941              	.LVL292:
 2942              	.L284:
 2943              		.loc 1 820 0 is_stmt 0
 2944 00ee 0320     		movs	r0, #3
 2945              	.LVL293:
 2946 00f0 C4E7     		b	.L255
 2947              	.LVL294:
 2948              	.L282:
 2949              		.loc 1 818 0 is_stmt 1
 2950 00f2 0220     		movs	r0, #2
 2951              	.LVL295:
 2952 00f4 C2E7     		b	.L255
 2953              	.LVL296:
 2954              	.L294:
 2955              		.loc 1 831 0
 2956 00f6 FFF7FEFF 		bl	__stack_chk_fail
 2957              	.LVL297:
 2958              	.L296:
 2959 00fa 00BF     		.align	2
 2960              	.L295:
 2961 00fc CDCC8C3F 		.word	1066192077
 2962 0100 6666663F 		.word	1063675494
 2963 0104 00000000 		.word	__stack_chk_guard
 2964              		.cfi_endproc
ARM GAS  C:\Users\JEANCO~1\AppData\Local\Temp\ccxhVNGN.s 			page 53


 2965              	.LFE308:
 2966              		.size	calcul_direction, .-calcul_direction
 2967              		.section	.text.m_a_j_coeff_catpeurs,"ax",%progbits
 2968              		.align	1
 2969              		.p2align 4,,15
 2970              		.global	m_a_j_coeff_catpeurs
 2971              		.syntax unified
 2972              		.thumb
 2973              		.thumb_func
 2974              		.fpu fpv4-sp-d16
 2975              		.type	m_a_j_coeff_catpeurs, %function
 2976              	m_a_j_coeff_catpeurs:
 2977              	.LFB309:
 2978              		.loc 1 833 0
 2979              		.cfi_startproc
 2980              		@ args = 0, pretend = 0, frame = 8
 2981              		@ frame_needed = 0, uses_anonymous_args = 0
 2982              	.LVL298:
 2983 0000 00B5     		push	{lr}
 2984              		.cfi_def_cfa_offset 4
 2985              		.cfi_offset 14, -4
 2986 0002 1F4B     		ldr	r3, .L314
 2987 0004 83B0     		sub	sp, sp, #12
 2988              		.cfi_def_cfa_offset 16
 2989              		.loc 1 833 0
 2990 0006 1A68     		ldr	r2, [r3]
 2991 0008 0192     		str	r2, [sp, #4]
 2992              		.loc 1 835 0
 2993 000a 1E4A     		ldr	r2, .L314+4
 2994              		.loc 1 834 0
 2995 000c 68B1     		cbz	r0, .L307
 2996              		.loc 1 845 0
 2997 000e 0128     		cmp	r0, #1
 2998 0010 16D0     		beq	.L308
 2999              		.loc 1 854 0
 3000 0012 0228     		cmp	r0, #2
 3001 0014 20D0     		beq	.L309
 3002              	.LVL299:
 3003              	.LBB371:
 3004              	.LBB372:
 3005              		.loc 1 864 0
 3006 0016 0428     		cmp	r0, #4
 3007 0018 19D0     		beq	.L310
 3008              		.loc 1 873 0
 3009 001a 0528     		cmp	r0, #5
 3010 001c 22D0     		beq	.L311
 3011              		.loc 1 883 0
 3012 001e 0328     		cmp	r0, #3
 3013 0020 26D0     		beq	.L312
 3014              		.loc 1 893 0
 3015 0022 0021     		movs	r1, #0
 3016              		.loc 1 896 0
 3017 0024 C2E90011 		strd	r1, r1, [r2]
 3018              	.LBE372:
 3019              	.LBE371:
 3020              		.loc 1 902 0
 3021 0028 03E0     		b	.L297
ARM GAS  C:\Users\JEANCO~1\AppData\Local\Temp\ccxhVNGN.s 			page 54


 3022              	.LVL300:
 3023              	.L307:
 3024              		.loc 1 838 0
 3025 002a 1748     		ldr	r0, .L314+8
 3026              	.LVL301:
 3027 002c 1749     		ldr	r1, .L314+12
 3028 002e C2E90001 		strd	r0, r1, [r2]
 3029              	.L297:
 3030              		.loc 1 902 0
 3031 0032 019A     		ldr	r2, [sp, #4]
 3032 0034 1B68     		ldr	r3, [r3]
 3033 0036 9A42     		cmp	r2, r3
 3034 0038 20D1     		bne	.L313
 3035 003a 03B0     		add	sp, sp, #12
 3036              		.cfi_remember_state
 3037              		.cfi_def_cfa_offset 4
 3038              		@ sp needed
 3039 003c 5DF804FB 		ldr	pc, [sp], #4
 3040              	.LVL302:
 3041              	.L308:
 3042              		.cfi_restore_state
 3043              		.loc 1 849 0
 3044 0040 DFF85CC0 		ldr	ip, .L314+32
 3045 0044 4FF07051 		mov	r1, #1006632960
 3046 0048 C2E900C1 		strd	ip, r1, [r2]
 3047 004c F1E7     		b	.L297
 3048              	.LVL303:
 3049              	.L310:
 3050              	.LBB375:
 3051              	.LBB373:
 3052              		.loc 1 868 0
 3053 004e 1048     		ldr	r0, .L314+16
 3054              	.LVL304:
 3055 0050 1049     		ldr	r1, .L314+20
 3056 0052 C2E90001 		strd	r0, r1, [r2]
 3057 0056 ECE7     		b	.L297
 3058              	.LVL305:
 3059              	.L309:
 3060              	.LBE373:
 3061              	.LBE375:
 3062              		.loc 1 858 0
 3063 0058 0F48     		ldr	r0, .L314+24
 3064              	.LVL306:
 3065 005a 41F25041 		movw	r1, #5200
 3066 005e C2E90001 		strd	r0, r1, [r2]
 3067 0062 E6E7     		b	.L297
 3068              	.LVL307:
 3069              	.L311:
 3070              	.LBB376:
 3071              	.LBB374:
 3072              		.loc 1 874 0
 3073 0064 DFF83CC0 		ldr	ip, .L314+36
 3074 0068 3C21     		movs	r1, #60
 3075 006a C2E9001C 		strd	r1, ip, [r2]
 3076 006e E0E7     		b	.L297
 3077              	.L312:
 3078              		.loc 1 887 0
ARM GAS  C:\Users\JEANCO~1\AppData\Local\Temp\ccxhVNGN.s 			page 55


 3079 0070 0A48     		ldr	r0, .L314+28
 3080              	.LVL308:
 3081 0072 42F66401 		movw	r1, #10340
 3082 0076 C2E90001 		strd	r0, r1, [r2]
 3083 007a DAE7     		b	.L297
 3084              	.LVL309:
 3085              	.L313:
 3086              	.LBE374:
 3087              	.LBE376:
 3088              		.loc 1 902 0
 3089 007c FFF7FEFF 		bl	__stack_chk_fail
 3090              	.LVL310:
 3091              	.L315:
 3092              		.align	2
 3093              	.L314:
 3094 0080 00000000 		.word	__stack_chk_guard
 3095 0084 00000000 		.word	.LANCHOR9
 3096 0088 643C1400 		.word	1326180
 3097 008c 00143C64 		.word	1681658880
 3098 0090 00001450 		.word	1343488000
 3099 0094 64501400 		.word	1331300
 3100 0098 001E5064 		.word	1682972160
 3101 009c 00002864 		.word	1680343040
 3102 00a0 50645014 		.word	340812880
 3103 00a4 14506450 		.word	1348751380
 3104              		.cfi_endproc
 3105              	.LFE309:
 3106              		.size	m_a_j_coeff_catpeurs, .-m_a_j_coeff_catpeurs
 3107              		.global	__aeabi_dcmpun
 3108              		.global	__aeabi_dcmpge
 3109              		.global	__aeabi_d2f
 3110              		.section	.text.PiRegulator,"ax",%progbits
 3111              		.align	1
 3112              		.p2align 4,,15
 3113              		.syntax unified
 3114              		.thumb
 3115              		.thumb_func
 3116              		.fpu fpv4-sp-d16
 3117              		.type	PiRegulator, %function
 3118              	PiRegulator:
 3119              	.LFB306:
 3120              		.loc 1 644 0
 3121              		.cfi_startproc
 3122              		@ args = 0, pretend = 0, frame = 24
 3123              		@ frame_needed = 0, uses_anonymous_args = 0
 3124              	.LVL311:
 3125 0000 2DE9F04F 		push	{r4, r5, r6, r7, r8, r9, r10, fp, lr}
 3126              		.cfi_def_cfa_offset 36
 3127              		.cfi_offset 4, -36
 3128              		.cfi_offset 5, -32
 3129              		.cfi_offset 6, -28
 3130              		.cfi_offset 7, -24
 3131              		.cfi_offset 8, -20
 3132              		.cfi_offset 9, -16
 3133              		.cfi_offset 10, -12
 3134              		.cfi_offset 11, -8
 3135              		.cfi_offset 14, -4
ARM GAS  C:\Users\JEANCO~1\AppData\Local\Temp\ccxhVNGN.s 			page 56


 3136 0004 2DED068B 		vpush.64	{d8, d9, d10}
 3137              		.cfi_def_cfa_offset 60
 3138              		.cfi_offset 80, -60
 3139              		.cfi_offset 81, -56
 3140              		.cfi_offset 82, -52
 3141              		.cfi_offset 83, -48
 3142              		.cfi_offset 84, -44
 3143              		.cfi_offset 85, -40
 3144 0008 BB4B     		ldr	r3, .L346+8
 3145              	.LBB418:
 3146              	.LBB419:
 3147              		.file 5 "../lib/e-puck2_main-processor/ChibiOS//os/rt/include/chregistry.h"
 3148              		.loc 5 135 0
 3149 000a BC4A     		ldr	r2, .L346+12
 3150              	.LBE419:
 3151              	.LBE418:
 3152              		.loc 1 644 0
 3153 000c 1B68     		ldr	r3, [r3]
 3154              	.LBB422:
 3155              	.LBB420:
 3156              		.loc 5 135 0
 3157 000e 9269     		ldr	r2, [r2, #24]
 3158 0010 BB49     		ldr	r1, .L346+16
 3159 0012 BC4F     		ldr	r7, .L346+20
 3160              	.LBE420:
 3161              	.LBE422:
 3162              	.LBB423:
 3163              		.loc 1 667 0
 3164 0014 9FEDBCAA 		vldr.32	s20, .L346+24
 3165 0018 DFEDBC9A 		vldr.32	s19, .L346+28
 3166              	.LBE423:
 3167              	.LBB529:
 3168              	.LBB421:
 3169              		.loc 5 135 0
 3170 001c 9161     		str	r1, [r2, #24]
 3171              	.LBE421:
 3172              	.LBE529:
 3173              		.loc 1 644 0
 3174 001e 87B0     		sub	sp, sp, #28
 3175              		.cfi_def_cfa_offset 88
 3176              		.loc 1 644 0
 3177 0020 0593     		str	r3, [sp, #20]
 3178              	.LVL312:
 3179              		.loc 1 655 0
 3180 0022 0023     		movs	r3, #0
 3181 0024 0293     		str	r3, [sp, #8]
 3182              	.LVL313:
 3183              	.L333:
 3184              	.LBB530:
 3185              	.LBB424:
 3186              	.LBB425:
 3187              	.LBB426:
 3188              	.LBB427:
 3189              	.LBB428:
 3190              	.LBB429:
 3191              	.LBB430:
 3192              		.loc 3 546 0
ARM GAS  C:\Users\JEANCO~1\AppData\Local\Temp\ccxhVNGN.s 			page 57


 3193 0026 2023     		movs	r3, #32
 3194              		.syntax unified
 3195              	@ 546 "../lib/e-puck2_main-processor/ChibiOS//os/ext/CMSIS/include/core_cmFunc.h" 1
 3196 0028 83F31188 		MSR basepri, r3
 3197              	@ 0 "" 2
 3198              	.LVL314:
 3199              		.thumb
 3200              		.syntax unified
 3201              	.LBE430:
 3202              	.LBE429:
 3203              	.LBE428:
 3204              	.LBE427:
 3205              	.LBE426:
 3206              	.LBB432:
 3207              	.LBB433:
 3208              		.file 6 "../lib/e-puck2_main-processor/ChibiOS//os/rt/include/chvt.h"
 3209              		.loc 6 231 0
 3210 002c B34C     		ldr	r4, .L346+12
 3211              	.LBE433:
 3212              	.LBE432:
 3213              	.LBB435:
 3214              	.LBB431:
 3215              		.loc 4 349 0
 3216 002e FFF7FEFF 		bl	_stats_start_measure_crit_thd
 3217              	.LVL315:
 3218              		.loc 4 350 0
 3219 0032 FFF7FEFF 		bl	_dbg_check_lock
 3220              	.LVL316:
 3221              	.LBE431:
 3222              	.LBE435:
 3223              	.LBB436:
 3224              	.LBB434:
 3225              		.loc 6 231 0
 3226 0036 A36A     		ldr	r3, [r4, #40]
 3227 0038 0193     		str	r3, [sp, #4]
 3228              	.LBE434:
 3229              	.LBE436:
 3230              	.LBB437:
 3231              	.LBB438:
 3232              		.loc 4 360 0
 3233 003a FFF7FEFF 		bl	_dbg_check_unlock
 3234              	.LVL317:
 3235              		.loc 4 361 0
 3236 003e FFF7FEFF 		bl	_stats_stop_measure_crit_thd
 3237              	.LVL318:
 3238              		.loc 4 367 0
 3239 0042 2368     		ldr	r3, [r4]
 3240 0044 A342     		cmp	r3, r4
 3241 0046 07D0     		beq	.L317
 3242 0048 A269     		ldr	r2, [r4, #24]
 3243 004a 9B68     		ldr	r3, [r3, #8]
 3244 004c 9268     		ldr	r2, [r2, #8]
 3245 004e 9A42     		cmp	r2, r3
 3246 0050 02D2     		bcs	.L317
 3247 0052 AF48     		ldr	r0, .L346+32
 3248 0054 FFF7FEFF 		bl	chSysHalt
 3249              	.LVL319:
ARM GAS  C:\Users\JEANCO~1\AppData\Local\Temp\ccxhVNGN.s 			page 58


 3250              	.L317:
 3251              	.LBB439:
 3252              	.LBB440:
 3253              	.LBB441:
 3254              		.loc 3 546 0
 3255 0058 0023     		movs	r3, #0
 3256              		.syntax unified
 3257              	@ 546 "../lib/e-puck2_main-processor/ChibiOS//os/ext/CMSIS/include/core_cmFunc.h" 1
 3258 005a 83F31188 		MSR basepri, r3
 3259              	@ 0 "" 2
 3260              	.LVL320:
 3261              		.thumb
 3262              		.syntax unified
 3263              	.LBE441:
 3264              	.LBE440:
 3265              	.LBE439:
 3266              	.LBE438:
 3267              	.LBE437:
 3268              	.LBE425:
 3269              	.LBE424:
 3270              	.LBB442:
 3271              	.LBB443:
 3272              	.LBB444:
 3273              		.loc 1 390 0
 3274 005e D7E90031 		ldrd	r3, r1, [r7]
 3275 0062 0B44     		add	r3, r3, r1
 3276 0064 B968     		ldr	r1, [r7, #8]
 3277              	.LBE444:
 3278              	.LBE443:
 3279              	.LBE442:
 3280              	.LBB450:
 3281              	.LBB451:
 3282              	.LBB452:
 3283 0066 3E6B     		ldr	r6, [r7, #48]
 3284              	.LBE452:
 3285              	.LBE451:
 3286              	.LBE450:
 3287              	.LBB464:
 3288              	.LBB465:
 3289              	.LBB466:
 3290 0068 BC6A     		ldr	r4, [r7, #40]
 3291              	.LBE466:
 3292              	.LBE465:
 3293              	.LBE464:
 3294              	.LBB476:
 3295              	.LBB447:
 3296              	.LBB445:
 3297 006a 0B44     		add	r3, r3, r1
 3298              	.LBE445:
 3299              	.LBE447:
 3300              	.LBE476:
 3301              	.LBB477:
 3302              	.LBB458:
 3303              	.LBB453:
 3304 006c 796B     		ldr	r1, [r7, #52]
 3305              	.LBE453:
 3306              	.LBE458:
ARM GAS  C:\Users\JEANCO~1\AppData\Local\Temp\ccxhVNGN.s 			page 59


 3307              	.LBE477:
 3308              	.LBB478:
 3309              	.LBB471:
 3310              	.LBB467:
 3311 006e D7E90820 		ldrd	r2, r0, [r7, #32]
 3312              	.LBE467:
 3313              	.LBE471:
 3314              	.LBE478:
 3315              	.LBB479:
 3316              	.LBB459:
 3317              	.LBB454:
 3318 0072 0E44     		add	r6, r6, r1
 3319 0074 B96B     		ldr	r1, [r7, #56]
 3320              	.LBE454:
 3321              	.LBE459:
 3322              	.LBE479:
 3323              	.LBB480:
 3324              	.LBB472:
 3325              	.LBB468:
 3326 0076 0244     		add	r2, r2, r0
 3327              	.LVL321:
 3328              	.LBE468:
 3329              	.LBE472:
 3330              	.LBE480:
 3331              	.LBB481:
 3332              	.LBB460:
 3333              	.LBB455:
 3334 0078 0E44     		add	r6, r6, r1
 3335              	.LBE455:
 3336              	.LBE460:
 3337              	.LBE481:
 3338              	.LBB482:
 3339              	.LBB483:
 3340              	.LBB484:
 3341 007a D7E90401 		ldrd	r0, r1, [r7, #16]
 3342              	.LBE484:
 3343              	.LBE483:
 3344              	.LBE482:
 3345              	.LBB495:
 3346              	.LBB473:
 3347              	.LBB469:
 3348 007e 1444     		add	r4, r4, r2
 3349              	.LVL322:
 3350 0080 FA6A     		ldr	r2, [r7, #44]
 3351              	.LBE469:
 3352              	.LBE473:
 3353              	.LBE495:
 3354              	.LBB496:
 3355              	.LBB489:
 3356              	.LBB485:
 3357 0082 0144     		add	r1, r1, r0
 3358              	.LVL323:
 3359              	.LBE485:
 3360              	.LBE489:
 3361              	.LBE496:
 3362              	.LBB497:
 3363              	.LBB474:
ARM GAS  C:\Users\JEANCO~1\AppData\Local\Temp\ccxhVNGN.s 			page 60


 3364              	.LBB470:
 3365 0084 2244     		add	r2, r2, r4
 3366              	.LBE470:
 3367              		.loc 1 393 0
 3368 0086 A348     		ldr	r0, .L346+36
 3369              	.LBE474:
 3370              	.LBE497:
 3371              	.LBB498:
 3372              	.LBB448:
 3373              	.LBB446:
 3374              		.loc 1 390 0
 3375 0088 FC68     		ldr	r4, [r7, #12]
 3376 008a 2344     		add	r3, r3, r4
 3377              	.LBE446:
 3378              	.LBE448:
 3379              	.LBE498:
 3380              	.LBB499:
 3381              	.LBB475:
 3382              		.loc 1 393 0
 3383 008c 80FB0254 		smull	r5, r4, r0, r2
 3384 0090 A4EBE27C 		sub	ip, r4, r2, asr #31
 3385              	.LBE475:
 3386              	.LBE499:
 3387              	.LBB500:
 3388              	.LBB490:
 3389              	.LBB486:
 3390              		.loc 1 390 0
 3391 0094 BA69     		ldr	r2, [r7, #24]
 3392              	.LBE486:
 3393              	.LBE490:
 3394              	.LBE500:
 3395              	.LBB501:
 3396              	.LBB449:
 3397              		.loc 1 393 0
 3398 0096 80FB0354 		smull	r5, r4, r0, r3
 3399 009a A4EBE374 		sub	r4, r4, r3, asr #31
 3400              	.LBE449:
 3401              	.LBE501:
 3402              	.LBB502:
 3403              	.LBB491:
 3404              	.LBB487:
 3405              		.loc 1 390 0
 3406 009e 8B18     		adds	r3, r1, r2
 3407              	.LVL324:
 3408 00a0 FA69     		ldr	r2, [r7, #28]
 3409              	.LBE487:
 3410              	.LBE491:
 3411              	.LBE502:
 3412              	.LBB503:
 3413              	.LBB461:
 3414              	.LBB456:
 3415 00a2 F86B     		ldr	r0, [r7, #60]
 3416              	.LBE456:
 3417              	.LBE461:
 3418              	.LBE503:
 3419              	.LBB504:
 3420              	.LBB492:
ARM GAS  C:\Users\JEANCO~1\AppData\Local\Temp\ccxhVNGN.s 			page 61


 3421              	.LBB488:
 3422 00a4 1344     		add	r3, r3, r2
 3423              	.LBE488:
 3424              	.LBE492:
 3425              	.LBE504:
 3426              	.LBB505:
 3427              	.LBB462:
 3428              		.loc 1 393 0
 3429 00a6 9B4A     		ldr	r2, .L346+36
 3430              	.LBB457:
 3431              		.loc 1 390 0
 3432 00a8 0644     		add	r6, r6, r0
 3433              	.LBE457:
 3434              		.loc 1 393 0
 3435 00aa 82FB0610 		smull	r1, r0, r2, r6
 3436              	.LBE462:
 3437              	.LBE505:
 3438              		.loc 1 664 0
 3439 00ae 6444     		add	r4, r4, ip
 3440              	.LBB506:
 3441              	.LBB493:
 3442              		.loc 1 393 0
 3443 00b0 82FB0312 		smull	r1, r2, r2, r3
 3444              	.LBE493:
 3445              	.LBE506:
 3446              	.LBB507:
 3447              	.LBB463:
 3448 00b4 A0EBE676 		sub	r6, r0, r6, asr #31
 3449              	.LBE463:
 3450              	.LBE507:
 3451              	.LBB508:
 3452              	.LBB494:
 3453 00b8 A2EBE373 		sub	r3, r2, r3, asr #31
 3454              	.LBE494:
 3455              	.LBE508:
 3456              		.loc 1 664 0
 3457 00bc 3444     		add	r4, r4, r6
 3458 00be E418     		adds	r4, r4, r3
 3459 00c0 48BF     		it	mi
 3460 00c2 0334     		addmi	r4, r4, #3
 3461 00c4 A410     		asrs	r4, r4, #2
 3462              	.LVL325:
 3463 00c6 2046     		mov	r0, r4
 3464 00c8 FFF7FEFF 		bl	__aeabi_i2d
 3465              	.LVL326:
 3466 00cc 0022     		movs	r2, #0
 3467 00ce 924B     		ldr	r3, .L346+40
 3468 00d0 FFF7FEFF 		bl	__aeabi_dmul
 3469              	.LVL327:
 3470 00d4 86A3     		adr	r3, .L346
 3471 00d6 D3E90023 		ldrd	r2, [r3]
 3472 00da FFF7FEFF 		bl	__aeabi_dmul
 3473              	.LVL328:
 3474              		.loc 1 666 0
 3475 00de 44F62063 		movw	r3, #20000
 3476 00e2 9C42     		cmp	r4, r3
 3477 00e4 8046     		mov	r8, r0
ARM GAS  C:\Users\JEANCO~1\AppData\Local\Temp\ccxhVNGN.s 			page 62


 3478 00e6 8946     		mov	r9, r1
 3479 00e8 40F3C780 		ble	.L319
 3480              		.loc 1 666 0 is_stmt 0 discriminator 1
 3481 00ec 029B     		ldr	r3, [sp, #8]
 3482 00ee 73B9     		cbnz	r3, .L320
 3483              		.loc 1 667 0 is_stmt 1
 3484 00f0 A300     		lsls	r3, r4, #2
 3485 00f2 07EE903A 		vmov	s15, r3	@ int
 3486 00f6 F8EEE77A 		vcvt.f32.s32	s15, s15
 3487 00fa 67EE8A7A 		vmul.f32	s15, s15, s20
 3488 00fe 67EEA97A 		vmul.f32	s15, s15, s19
 3489 0102 67EEA97A 		vmul.f32	s15, s15, s19
 3490 0106 FDEEE77A 		vcvt.s32.f32	s15, s15
 3491 010a CDED027A 		vstr.32	s15, [sp, #8]	@ int
 3492              	.LVL329:
 3493              	.L320:
 3494 010e 029D     		ldr	r5, [sp, #8]
 3495 0110 2846     		mov	r0, r5
 3496 0112 FFF7FEFF 		bl	__aeabi_i2d
 3497              	.LVL330:
 3498 0116 4246     		mov	r2, r8
 3499 0118 4B46     		mov	r3, r9
 3500 011a FFF7FEFF 		bl	__aeabi_ddiv
 3501              	.LVL331:
 3502              		.loc 1 672 0
 3503 011e 002D     		cmp	r5, #0
 3504 0120 8046     		mov	r8, r0
 3505 0122 8946     		mov	r9, r1
 3506 0124 00F3BD80 		bgt	.L344
 3507              	.LVL332:
 3508              	.L321:
 3509              	.LBB509:
 3510              	.LBB510:
 3511              		.loc 1 271 0
 3512 0128 49EC108B 		vmov	d0, r8, r9
 3513 012c FFF7FEFF 		bl	sqrt
 3514              	.LVL333:
 3515 0130 53EC102B 		vmov	r2, r3, d0
 3516              	.LVL334:
 3517              		.loc 1 273 0
 3518 0134 10EE100A 		vmov	r0, s0	@ int
 3519 0138 1946     		mov	r1, r3
 3520 013a FFF7FEFF 		bl	__aeabi_dadd
 3521              	.LVL335:
 3522              	.LBE510:
 3523              	.LBE509:
 3524              		.loc 1 679 0
 3525 013e FFF7FEFF 		bl	__aeabi_d2f
 3526              	.LVL336:
 3527 0142 07EE900A 		vmov	s15, r0
 3528              	.LVL337:
 3529              	.LBB511:
 3530              	.LBB512:
 3531              		.loc 1 615 0
 3532 0146 F5EE407A 		vcmp.f32	s15, #0
 3533 014a F1EE10FA 		vmrs	APSR_nzcv, FPSCR
 3534 014e 5FD0     		beq	.L336
ARM GAS  C:\Users\JEANCO~1\AppData\Local\Temp\ccxhVNGN.s 			page 63


 3535              		.loc 1 616 0
 3536 0150 77EEE97A 		vsub.f32	s15, s15, s19
 3537              	.LVL338:
 3538              		.loc 1 625 0
 3539 0154 9FED717A 		vldr.32	s14, .L346+44
 3540 0158 F0EEE76A 		vabs.f32	s13, s15
 3541 015c F4EEC76A 		vcmpe.f32	s13, s14
 3542 0160 F1EE10FA 		vmrs	APSR_nzcv, FPSCR
 3543 0164 54D4     		bmi	.L336
 3544              		.loc 1 629 0
 3545 0166 6E4B     		ldr	r3, .L346+48
 3546              		.loc 1 632 0
 3547 0168 DFED6E6A 		vldr.32	s13, .L346+52
 3548              		.loc 1 629 0
 3549 016c 93ED007A 		vldr.32	s14, [r3]
 3550 0170 37EE877A 		vadd.f32	s14, s15, s14
 3551              		.loc 1 632 0
 3552 0174 B4EEE67A 		vcmpe.f32	s14, s13
 3553 0178 F1EE10FA 		vmrs	APSR_nzcv, FPSCR
 3554 017c 40F3AA80 		ble	.L341
 3555              		.loc 1 633 0
 3556 0180 C3ED006A 		vstr.32	s13, [r3]
 3557              	.L325:
 3558              	.LVL339:
 3559              		.loc 1 638 0
 3560 0184 9FED687A 		vldr.32	s14, .L346+56
 3561 0188 67EE877A 		vmul.f32	s15, s15, s14
 3562              	.LVL340:
 3563              		.loc 1 640 0
 3564 018c FDEEE77A 		vcvt.s32.f32	s15, s15
 3565              	.LVL341:
 3566 0190 17EE903A 		vmov	r3, s15	@ int
 3567 0194 1BB2     		sxth	r3, r3
 3568 0196 0393     		str	r3, [sp, #12]
 3569 0198 1E46     		mov	r6, r3
 3570              	.LVL342:
 3571              	.L322:
 3572              	.LBE512:
 3573              	.LBE511:
 3574              	.LBB515:
 3575              	.LBB516:
 3576              		.loc 1 599 0
 3577 019a 644B     		ldr	r3, .L346+60
 3578              	.LBE516:
 3579              	.LBE515:
 3580              	.LBB518:
 3581              		.loc 1 709 0
 3582 019c DFF898B1 		ldr	fp, .L346+72
 3583              	.LBE518:
 3584              	.LBB519:
 3585              	.LBB517:
 3586              		.loc 1 599 0
 3587 01a0 1B68     		ldr	r3, [r3]
 3588              	.LBE517:
 3589              	.LBE519:
 3590              		.loc 1 686 0
 3591 01a2 B42B     		cmp	r3, #180
ARM GAS  C:\Users\JEANCO~1\AppData\Local\Temp\ccxhVNGN.s 			page 64


 3592              		.loc 1 687 0
 3593 01a4 C8BF     		it	gt
 3594 01a6 A3F5B473 		subgt	r3, r3, #360
 3595              	.LVL343:
 3596              		.loc 1 688 0
 3597 01aa 0FFA83FA 		sxth	r10, r3
 3598              	.LVL344:
 3599              		.loc 1 702 0
 3600 01ae CAEBCA08 		rsb	r8, r10, r10, lsl #3
 3601 01b2 4FF6F973 		movw	r3, #65529
 3602              	.LVL345:
 3603 01b6 1AFB036A 		smlabb	r10, r10, r3, r6
 3604              	.LVL346:
 3605 01ba 4644     		add	r6, r6, r8
 3606 01bc 3146     		mov	r1, r6
 3607 01be 5046     		mov	r0, r10
 3608 01c0 FFF7FEFF 		bl	calcul_direction
 3609              	.LVL347:
 3610 01c4 8146     		mov	r9, r0
 3611              	.LVL348:
 3612              		.loc 1 704 0
 3613 01c6 FFF7FEFF 		bl	m_a_j_coeff_catpeurs
 3614              	.LVL349:
 3615              		.loc 1 707 0
 3616 01ca FFF7FEFF 		bl	get_proxy_buffer_ptr
 3617              	.LVL350:
 3618 01ce DFF86CC1 		ldr	ip, .L346+76
 3619 01d2 00F1200E 		add	lr, r0, #32
 3620 01d6 0146     		mov	r1, r0
 3621              	.LVL351:
 3622              	.L328:
 3623              	.LBB520:
 3624              		.loc 1 709 0 discriminator 3
 3625 01d8 1CF8013F 		ldrb	r3, [ip, #1]!	@ zero_extendqisi2
 3626              	.LVL352:
 3627 01dc 0A68     		ldr	r2, [r1]
 3628 01de ABFB0353 		umull	r5, r3, fp, r3
 3629 01e2 5B09     		lsrs	r3, r3, #5
 3630 01e4 03FB02F3 		mul	r3, r3, r2
 3631 01e8 41F8043B 		str	r3, [r1], #4
 3632              	.LVL353:
 3633              		.loc 1 708 0 discriminator 3
 3634 01ec 8E45     		cmp	lr, r1
 3635 01ee F3D1     		bne	.L328
 3636              	.LBE520:
 3637              		.loc 1 712 0
 3638 01f0 40F2DC53 		movw	r3, #1500
 3639 01f4 9C42     		cmp	r4, r3
 3640 01f6 0EDC     		bgt	.L345
 3641              		.loc 1 765 0
 3642 01f8 0020     		movs	r0, #0
 3643 01fa FFF7FEFF 		bl	left_motor_set_speed
 3644              	.LVL354:
 3645              		.loc 1 766 0
 3646 01fe 0020     		movs	r0, #0
 3647 0200 FFF7FEFF 		bl	right_motor_set_speed
 3648              	.LVL355:
ARM GAS  C:\Users\JEANCO~1\AppData\Local\Temp\ccxhVNGN.s 			page 65


 3649              	.L331:
 3650              		.loc 1 770 0
 3651 0204 0198     		ldr	r0, [sp, #4]
 3652 0206 00F10A01 		add	r1, r0, #10
 3653 020a FFF7FEFF 		bl	chThdSleepUntilWindowed
 3654              	.LVL356:
 3655              	.LBE530:
 3656              		.loc 1 660 0
 3657 020e 0AE7     		b	.L333
 3658              	.LVL357:
 3659              	.L336:
 3660              	.LBB531:
 3661              	.LBB521:
 3662              	.LBB513:
 3663              		.loc 1 625 0
 3664 0210 0026     		movs	r6, #0
 3665              		.loc 1 626 0
 3666 0212 0396     		str	r6, [sp, #12]
 3667 0214 C1E7     		b	.L322
 3668              	.LVL358:
 3669              	.L345:
 3670              	.LBE513:
 3671              	.LBE521:
 3672              		.loc 1 712 0 discriminator 1
 3673 0216 B9F1060F 		cmp	r9, #6
 3674 021a 3BD0     		beq	.L343
 3675              	.LBB522:
 3676              		.loc 1 722 0
 3677 021c 0023     		movs	r3, #0
 3678              	.L330:
 3679              	.LVL359:
 3680 021e 50F8042B 		ldr	r2, [r0], #4
 3681 0222 9342     		cmp	r3, r2
 3682 0224 B8BF     		it	lt
 3683 0226 1346     		movlt	r3, r2
 3684              	.LVL360:
 3685              	.LBB523:
 3686              		.loc 1 725 0
 3687 0228 8142     		cmp	r1, r0
 3688 022a F8D1     		bne	.L330
 3689              	.LBE523:
 3690              		.loc 1 731 0
 3691 022c C72B     		cmp	r3, #199
 3692 022e 31DD     		ble	.L343
 3693              	.LBB524:
 3694              		.loc 1 737 0
 3695 0230 3F4A     		ldr	r2, .L346+64
 3696 0232 C83B     		subs	r3, r3, #200
 3697              	.LVL361:
 3698 0234 A2FB0323 		umull	r2, r3, r2, r3
 3699              	.LVL362:
 3700 0238 1B0A     		lsrs	r3, r3, #8
 3701 023a 0133     		adds	r3, r3, #1
 3702 023c 07EE903A 		vmov	s15, r3	@ int
 3703 0240 B8EEE78A 		vcvt.f32.s32	s16, s15
 3704              	.LVL363:
 3705              		.loc 1 759 0
ARM GAS  C:\Users\JEANCO~1\AppData\Local\Temp\ccxhVNGN.s 			page 66


 3706 0244 DDED037A 		vldr.32	s15, [sp, #12]	@ int
 3707 0248 B8EEE79A 		vcvt.f32.s32	s18, s15
 3708 024c 07EE908A 		vmov	s15, r8	@ int
 3709 0250 F8EEE78A 		vcvt.f32.s32	s17, s15
 3710 0254 F0EE497A 		vmov.f32	s15, s18
 3711 0258 E8EEC87A 		vfms.f32	s15, s17, s16
 3712 025c FDEEE77A 		vcvt.s32.f32	s15, s15
 3713 0260 17EE900A 		vmov	r0, s15	@ int
 3714 0264 FFF7FEFF 		bl	right_motor_set_speed
 3715              	.LVL364:
 3716              		.loc 1 760 0
 3717 0268 A8EE889A 		vfma.f32	s18, s17, s16
 3718 026c FDEEC97A 		vcvt.s32.f32	s15, s18
 3719 0270 17EE900A 		vmov	r0, s15	@ int
 3720 0274 FFF7FEFF 		bl	left_motor_set_speed
 3721              	.LVL365:
 3722 0278 C4E7     		b	.L331
 3723              	.LVL366:
 3724              	.L319:
 3725              	.LBE524:
 3726              	.LBE522:
 3727              		.loc 1 668 0
 3728 027a 3FF448AF 		beq	.L320
 3729 027e 0B46     		mov	r3, r1
 3730 0280 0246     		mov	r2, r0
 3731 0282 0021     		movs	r1, #0
 3732 0284 0020     		movs	r0, #0
 3733 0286 FFF7FEFF 		bl	__aeabi_ddiv
 3734              	.LVL367:
 3735              		.loc 1 669 0
 3736 028a 0023     		movs	r3, #0
 3737 028c 8046     		mov	r8, r0
 3738 028e 8946     		mov	r9, r1
 3739 0290 0293     		str	r3, [sp, #8]
 3740              	.LVL368:
 3741 0292 49E7     		b	.L321
 3742              	.LVL369:
 3743              	.L343:
 3744              	.LBB525:
 3745              		.loc 1 732 0
 3746 0294 5046     		mov	r0, r10
 3747 0296 FFF7FEFF 		bl	right_motor_set_speed
 3748              	.LVL370:
 3749              		.loc 1 733 0
 3750 029a 3046     		mov	r0, r6
 3751 029c FFF7FEFF 		bl	left_motor_set_speed
 3752              	.LVL371:
 3753 02a0 B0E7     		b	.L331
 3754              	.LVL372:
 3755              	.L344:
 3756 02a2 0022     		movs	r2, #0
 3757 02a4 0023     		movs	r3, #0
 3758 02a6 FFF7FEFF 		bl	__aeabi_dcmpun
 3759              	.LVL373:
 3760 02aa 0028     		cmp	r0, #0
 3761 02ac 7FF43CAF 		bne	.L321
 3762 02b0 0022     		movs	r2, #0
ARM GAS  C:\Users\JEANCO~1\AppData\Local\Temp\ccxhVNGN.s 			page 67


 3763 02b2 0023     		movs	r3, #0
 3764 02b4 4046     		mov	r0, r8
 3765 02b6 4946     		mov	r1, r9
 3766 02b8 FFF7FEFF 		bl	__aeabi_dcmpge
 3767              	.LVL374:
 3768 02bc 0028     		cmp	r0, #0
 3769 02be 7FF433AF 		bne	.L321
 3770              	.LBE525:
 3771              		.loc 1 673 0
 3772 02c2 49EC108B 		vmov	d0, r8, r9
 3773 02c6 FFF7FEFF 		bl	sqrt
 3774              	.LVL375:
 3775              	.LBB526:
 3776              	.LBB527:
 3777              		.loc 1 271 0
 3778 02ca 49EC108B 		vmov	d0, r8, r9
 3779 02ce FFF7FEFF 		bl	sqrt
 3780              	.LVL376:
 3781 02d2 29E7     		b	.L321
 3782              	.LVL377:
 3783              	.L341:
 3784              	.LBE527:
 3785              	.LBE526:
 3786              	.LBB528:
 3787              	.LBB514:
 3788              		.loc 1 634 0
 3789 02d4 DFED176A 		vldr.32	s13, .L346+68
 3790              		.loc 1 629 0
 3791 02d8 114B     		ldr	r3, .L346+48
 3792 02da B4EEE67A 		vcmpe.f32	s14, s13
 3793 02de F1EE10FA 		vmrs	APSR_nzcv, FPSCR
 3794 02e2 48BF     		it	mi
 3795 02e4 B0EE667A 		vmovmi.f32	s14, s13
 3796 02e8 83ED007A 		vstr.32	s14, [r3]
 3797 02ec 4AE7     		b	.L325
 3798              	.L347:
 3799 02ee 00BF     		.align	3
 3800              	.L346:
 3801 02f0 000000C0 		.word	-1073741824
 3802 02f4 CA210940 		.word	1074340298
 3803 02f8 00000000 		.word	__stack_chk_guard
 3804 02fc 00000000 		.word	ch
 3805 0300 00000000 		.word	.LANCHOR10
 3806 0304 00000000 		.word	.LANCHOR1
 3807 0308 DB0F4940 		.word	1078530011
 3808 030c 295C8F3D 		.word	1032805417
 3809 0310 00000000 		.word	.LANCHOR6
 3810 0314 56555555 		.word	1431655766
 3811 0318 00001040 		.word	1074790400
 3812 031c 0AD7233C 		.word	1008981770
 3813 0320 00000000 		.word	.LANCHOR7
 3814 0324 00005C43 		.word	1130102784
 3815 0328 00409C46 		.word	1184645120
 3816 032c 00000000 		.word	.LANCHOR0
 3817 0330 030B2CB0 		.word	-1339290877
 3818 0334 00005CC3 		.word	-1017380864
 3819 0338 1F85EB51 		.word	1374389535
ARM GAS  C:\Users\JEANCO~1\AppData\Local\Temp\ccxhVNGN.s 			page 68


 3820 033c FFFFFFFF 		.word	.LANCHOR9-1
 3821              	.LBE514:
 3822              	.LBE528:
 3823              	.LBE531:
 3824              		.cfi_endproc
 3825              	.LFE306:
 3826              		.size	PiRegulator, .-PiRegulator
 3827              		.section	.bss.angle,"aw",%nobits
 3828              		.align	2
 3829              		.set	.LANCHOR0,. + 0
 3830              		.type	angle, %object
 3831              		.size	angle, 4
 3832              	angle:
 3833 0000 00000000 		.space	4
 3834              		.section	.bss.coeff_capteur,"aw",%nobits
 3835              		.align	2
 3836              		.set	.LANCHOR9,. + 0
 3837              		.type	coeff_capteur, %object
 3838              		.size	coeff_capteur, 8
 3839              	coeff_capteur:
 3840 0000 00000000 		.space	8
 3840      00000000 
 3841              		.section	.bss.micBack_cmplx_input,"aw",%nobits
 3842              		.align	2
 3843              		.type	micBack_cmplx_input, %object
 3844              		.size	micBack_cmplx_input, 8192
 3845              	micBack_cmplx_input:
 3846 0000 00000000 		.space	8192
 3846      00000000 
 3846      00000000 
 3846      00000000 
 3846      00000000 
 3847              		.section	.bss.micBack_output,"aw",%nobits
 3848              		.align	2
 3849              		.type	micBack_output, %object
 3850              		.size	micBack_output, 4096
 3851              	micBack_output:
 3852 0000 00000000 		.space	4096
 3852      00000000 
 3852      00000000 
 3852      00000000 
 3852      00000000 
 3853              		.section	.bss.micFront_cmplx_input,"aw",%nobits
 3854              		.align	2
 3855              		.type	micFront_cmplx_input, %object
 3856              		.size	micFront_cmplx_input, 8192
 3857              	micFront_cmplx_input:
 3858 0000 00000000 		.space	8192
 3858      00000000 
 3858      00000000 
 3858      00000000 
 3858      00000000 
 3859              		.section	.bss.micFront_output,"aw",%nobits
 3860              		.align	2
 3861              		.type	micFront_output, %object
 3862              		.size	micFront_output, 4096
 3863              	micFront_output:
ARM GAS  C:\Users\JEANCO~1\AppData\Local\Temp\ccxhVNGN.s 			page 69


 3864 0000 00000000 		.space	4096
 3864      00000000 
 3864      00000000 
 3864      00000000 
 3864      00000000 
 3865              		.section	.bss.micLeft_cmplx_input,"aw",%nobits
 3866              		.align	2
 3867              		.type	micLeft_cmplx_input, %object
 3868              		.size	micLeft_cmplx_input, 8192
 3869              	micLeft_cmplx_input:
 3870 0000 00000000 		.space	8192
 3870      00000000 
 3870      00000000 
 3870      00000000 
 3870      00000000 
 3871              		.section	.bss.micLeft_output,"aw",%nobits
 3872              		.align	2
 3873              		.type	micLeft_output, %object
 3874              		.size	micLeft_output, 4096
 3875              	micLeft_output:
 3876 0000 00000000 		.space	4096
 3876      00000000 
 3876      00000000 
 3876      00000000 
 3876      00000000 
 3877              		.section	.bss.micRight_cmplx_input,"aw",%nobits
 3878              		.align	2
 3879              		.type	micRight_cmplx_input, %object
 3880              		.size	micRight_cmplx_input, 8192
 3881              	micRight_cmplx_input:
 3882 0000 00000000 		.space	8192
 3882      00000000 
 3882      00000000 
 3882      00000000 
 3882      00000000 
 3883              		.section	.bss.micRight_output,"aw",%nobits
 3884              		.align	2
 3885              		.type	micRight_output, %object
 3886              		.size	micRight_output, 4096
 3887              	micRight_output:
 3888 0000 00000000 		.space	4096
 3888      00000000 
 3888      00000000 
 3888      00000000 
 3888      00000000 
 3889              		.section	.bss.moyenne,"aw",%nobits
 3890              		.align	2
 3891              		.set	.LANCHOR1,. + 0
 3892              		.type	moyenne, %object
 3893              		.size	moyenne, 64
 3894              	moyenne:
 3895 0000 00000000 		.space	64
 3895      00000000 
 3895      00000000 
 3895      00000000 
 3895      00000000 
 3896              		.section	.bss.mustSend.14270,"aw",%nobits
ARM GAS  C:\Users\JEANCO~1\AppData\Local\Temp\ccxhVNGN.s 			page 70


 3897              		.set	.LANCHOR4,. + 0
 3898              		.type	mustSend.14270, %object
 3899              		.size	mustSend.14270, 1
 3900              	mustSend.14270:
 3901 0000 00       		.space	1
 3902              		.section	.bss.nb_samples.14269,"aw",%nobits
 3903              		.align	1
 3904              		.set	.LANCHOR3,. + 0
 3905              		.type	nb_samples.14269, %object
 3906              		.size	nb_samples.14269, 2
 3907              	nb_samples.14269:
 3908 0000 0000     		.space	2
 3909              		.section	.bss.nbr_passage,"aw",%nobits
 3910              		.align	2
 3911              		.set	.LANCHOR5,. + 0
 3912              		.type	nbr_passage, %object
 3913              		.size	nbr_passage, 4
 3914              	nbr_passage:
 3915 0000 00000000 		.space	4
 3916              		.section	.bss.sum_error.14360,"aw",%nobits
 3917              		.align	2
 3918              		.set	.LANCHOR7,. + 0
 3919              		.type	sum_error.14360, %object
 3920              		.size	sum_error.14360, 4
 3921              	sum_error.14360:
 3922 0000 00000000 		.space	4
 3923              		.section	.bss.waPiRegulator,"aw",%nobits
 3924              		.align	3
 3925              		.set	.LANCHOR8,. + 0
 3926              		.type	waPiRegulator, %object
 3927              		.size	waPiRegulator, 632
 3928              	waPiRegulator:
 3929 0000 00000000 		.space	632
 3929      00000000 
 3929      00000000 
 3929      00000000 
 3929      00000000 
 3930              		.section	.data.sendToComputer_sem,"aw",%progbits
 3931              		.align	2
 3932              		.set	.LANCHOR2,. + 0
 3933              		.type	sendToComputer_sem, %object
 3934              		.size	sendToComputer_sem, 12
 3935              	sendToComputer_sem:
 3936 0000 00000000 		.word	sendToComputer_sem
 3937 0004 00000000 		.word	sendToComputer_sem
 3938 0008 00000000 		.word	0
 3939              		.section	.rodata.__FUNCTION__.14365,"a",%progbits
 3940              		.align	2
 3941              		.set	.LANCHOR10,. + 0
 3942              		.type	__FUNCTION__.14365, %object
 3943              		.size	__FUNCTION__.14365, 12
 3944              	__FUNCTION__.14365:
 3945 0000 50695265 		.ascii	"PiRegulator\000"
 3945      67756C61 
 3945      746F7200 
 3946              		.section	.rodata.__func__.7153,"a",%progbits
 3947              		.align	2
ARM GAS  C:\Users\JEANCO~1\AppData\Local\Temp\ccxhVNGN.s 			page 71


 3948              		.set	.LANCHOR6,. + 0
 3949              		.type	__func__.7153, %object
 3950              		.size	__func__.7153, 12
 3951              	__func__.7153:
 3952 0000 63685379 		.ascii	"chSysUnlock\000"
 3952      73556E6C 
 3952      6F636B00 
 3953              		.text
 3954              	.Letext0:
 3955              		.file 7 "c:\\robotique\\eclipse_e-puck2\\tools\\gcc-arm-none-eabi-7-2017-q4-major-win32\\lib\\gcc\
 3956              		.file 8 "c:\\robotique\\eclipse_e-puck2\\tools\\gcc-arm-none-eabi-7-2017-q4-major-win32\\arm-none-
 3957              		.file 9 "c:\\robotique\\eclipse_e-puck2\\tools\\gcc-arm-none-eabi-7-2017-q4-major-win32\\arm-none-
 3958              		.file 10 "../lib/e-puck2_main-processor/ChibiOS//os/rt/ports/ARMCMx/compilers/GCC/chtypes.h"
 3959              		.file 11 "../lib/e-puck2_main-processor/ChibiOS//os/rt/include/chsystypes.h"
 3960              		.file 12 "../lib/e-puck2_main-processor/ChibiOS//os/rt/include/chschd.h"
 3961              		.file 13 "../lib/e-puck2_main-processor/ChibiOS//os/ext/CMSIS/include/core_cm4.h"
 3962              		.file 14 "../lib/e-puck2_main-processor/ChibiOS//os/ext/CMSIS/ST/system_stm32f4xx.h"
 3963              		.file 15 "../lib/e-puck2_main-processor/ChibiOS//os/ext/CMSIS/ST/stm32f407xx.h"
 3964              		.file 16 "../lib/e-puck2_main-processor/ChibiOS//os/rt/ports/ARMCMx/chcore.h"
 3965              		.file 17 "../lib/e-puck2_main-processor/ChibiOS//os/rt/ports/ARMCMx/chcore_v7m.h"
 3966              		.file 18 "../lib/e-puck2_main-processor/ChibiOS//os/rt/include/chdebug.h"
 3967              		.file 19 "../lib/e-puck2_main-processor/ChibiOS//os/rt/include/chtm.h"
 3968              		.file 20 "../lib/e-puck2_main-processor/ChibiOS//os/rt/include/chstats.h"
 3969              		.file 21 "../lib/e-puck2_main-processor/ChibiOS//os/rt/include/chsem.h"
 3970              		.file 22 "../lib/e-puck2_main-processor/ChibiOS//os/rt/include/chmtx.h"
 3971              		.file 23 "../lib/e-puck2_main-processor/ChibiOS//os/rt/include/chevents.h"
 3972              		.file 24 "../lib/e-puck2_main-processor/ChibiOS//os/rt/include/chqueues.h"
 3973              		.file 25 "../lib/e-puck2_main-processor/ChibiOS//os/rt/include/chstreams.h"
 3974              		.file 26 "../lib/e-puck2_main-processor/ChibiOS//os/hal/ports/STM32/STM32F4xx/stm32_dma.h"
 3975              		.file 27 "../lib/e-puck2_main-processor/ChibiOS//os/hal/include/hal_ioblock.h"
 3976              		.file 28 "../lib/e-puck2_main-processor/ChibiOS//os/hal/ports/STM32/LLD/GPIOv2/pal_lld.h"
 3977              		.file 29 "../lib/e-puck2_main-processor/ChibiOS//os/hal/include/adc.h"
 3978              		.file 30 "../lib/e-puck2_main-processor/ChibiOS//os/hal/ports/STM32/STM32F4xx/adc_lld.h"
 3979              		.file 31 "../lib/e-puck2_main-processor/ChibiOS//os/hal/include/can.h"
 3980              		.file 32 "../lib/e-puck2_main-processor/ChibiOS//os/hal/ports/STM32/LLD/can_lld.h"
 3981              		.file 33 "../lib/e-puck2_main-processor/ChibiOS//os/hal/include/dac.h"
 3982              		.file 34 "../lib/e-puck2_main-processor/ChibiOS//os/hal/ports/STM32/LLD/DACv1/dac_lld.h"
 3983              		.file 35 "../lib/e-puck2_main-processor/ChibiOS//os/hal/include/ext.h"
 3984              		.file 36 "../lib/e-puck2_main-processor/ChibiOS//os/hal/ports/STM32/LLD/ext_lld.h"
 3985              		.file 37 "../lib/e-puck2_main-processor/ChibiOS//os/hal/include/gpt.h"
 3986              		.file 38 "../lib/e-puck2_main-processor/ChibiOS//os/hal/ports/STM32/LLD/TIMv1/gpt_lld.h"
 3987              		.file 39 "../lib/e-puck2_main-processor/ChibiOS//os/hal/ports/STM32/LLD/TIMv1/stm32_tim.h"
 3988              		.file 40 "../lib/e-puck2_main-processor/ChibiOS//os/hal/include/i2c.h"
 3989              		.file 41 "../lib/e-puck2_main-processor/ChibiOS//os/hal/ports/STM32/LLD/I2Cv1/i2c_lld.h"
 3990              		.file 42 "../lib/e-puck2_main-processor/ChibiOS//os/hal/include/i2s.h"
 3991              		.file 43 "../lib/e-puck2_main-processor/ChibiOS//os/hal/ports/STM32/LLD/SPIv1/i2s_lld.h"
 3992              		.file 44 "../lib/e-puck2_main-processor/ChibiOS//os/hal/include/pwm.h"
 3993              		.file 45 "../lib/e-puck2_main-processor/ChibiOS//os/hal/ports/STM32/LLD/TIMv1/pwm_lld.h"
 3994              		.file 46 "../lib/e-puck2_main-processor/ChibiOS//os/hal/include/serial.h"
 3995              		.file 47 "../lib/e-puck2_main-processor/ChibiOS//os/hal/ports/STM32/LLD/USARTv1/serial_lld.h"
 3996              		.file 48 "../lib/e-puck2_main-processor/ChibiOS//os/hal/include/sdc.h"
 3997              		.file 49 "../lib/e-puck2_main-processor/ChibiOS//os/hal/ports/STM32/LLD/sdc_lld.h"
 3998              		.file 50 "../lib/e-puck2_main-processor/ChibiOS//os/hal/include/spi.h"
 3999              		.file 51 "../lib/e-puck2_main-processor/ChibiOS//os/hal/ports/STM32/LLD/SPIv1/spi_lld.h"
 4000              		.file 52 "../lib/e-puck2_main-processor/ChibiOS//os/hal/include/usb.h"
 4001              		.file 53 "../lib/e-puck2_main-processor/ChibiOS//os/hal/ports/STM32/LLD/OTGv1/usb_lld.h"
 4002              		.file 54 "../lib/e-puck2_main-processor/ChibiOS//os/hal/ports/STM32/LLD/OTGv1/stm32_otg.h"
ARM GAS  C:\Users\JEANCO~1\AppData\Local\Temp\ccxhVNGN.s 			page 72


 4003              		.file 55 "../lib/e-puck2_main-processor/ChibiOS//os/hal/include/serial_usb.h"
 4004              		.file 56 "c:\\robotique\\lib\\e-puck2_main-processor\\chibios_ext\\os\\hal\\ports\\stm32\\stm32f4x
 4005              		.file 57 "c:\\robotique\\eclipse_e-puck2\\tools\\gcc-arm-none-eabi-7-2017-q4-major-win32\\arm-none
 4006              		.file 58 "c:\\robotique\\eclipse_e-puck2\\tools\\gcc-arm-none-eabi-7-2017-q4-major-win32\\arm-none
 4007              		.file 59 "c:\\robotique\\eclipse_e-puck2\\tools\\gcc-arm-none-eabi-7-2017-q4-major-win32\\arm-none
 4008              		.file 60 "../lib/e-puck2_main-processor/src/msgbus/messagebus.h"
 4009              		.file 61 "c:\\robotique\\eclipse_e-puck2\\tools\\gcc-arm-none-eabi-7-2017-q4-major-win32\\arm-none
 4010              		.file 62 "c:\\robotique\\eclipse_e-puck2\\tools\\gcc-arm-none-eabi-7-2017-q4-major-win32\\arm-none
 4011              		.file 63 "../lib/e-puck2_main-processor/src/parameter/parameter.h"
 4012              		.file 64 "./main.h"
 4013              		.file 65 "../lib/e-puck2_main-processor/src/usbcfg.h"
 4014              		.file 66 "./audio_processing.h"
 4015              		.file 67 "c:\\robotique\\eclipse_e-puck2\\tools\\gcc-arm-none-eabi-7-2017-q4-major-win32\\arm-none
 4016              		.file 68 "../lib/e-puck2_main-processor/src/leds.h"
 4017              		.file 69 "../lib/e-puck2_main-processor/ChibiOS//os/rt/include/chthreads.h"
 4018              		.file 70 "../lib/e-puck2_main-processor/src/motors.h"
 4019              		.file 71 "./fft.h"
 4020              		.file 72 "../lib/e-puck2_main-processor/ChibiOS//os/ext/CMSIS/include/arm_math.h"
 4021              		.section	.debug_info,"",%progbits
 4022              	.Ldebug_info0:
 4023 0000 8C5D0000 		.4byte	0x5d8c
 4024 0004 0400     		.2byte	0x4
 4025 0006 00000000 		.4byte	.Ldebug_abbrev0
 4026 000a 04       		.byte	0x4
 4027 000b 01       		.uleb128 0x1
 4028 000c 4B110000 		.4byte	.LASF1057
 4029 0010 0C       		.byte	0xc
 4030 0011 D80B0000 		.4byte	.LASF1058
 4031 0015 091F0000 		.4byte	.LASF1059
 4032 0019 08060000 		.4byte	.Ldebug_ranges0+0x608
 4033 001d 00000000 		.4byte	0
 4034 0021 00000000 		.4byte	.Ldebug_line0
 4035 0025 02       		.uleb128 0x2
 4036 0026 04       		.byte	0x4
 4037 0027 04       		.byte	0x4
 4038 0028 410B0000 		.4byte	.LASF0
 4039 002c 03       		.uleb128 0x3
 4040 002d 04       		.byte	0x4
 4041 002e 05       		.byte	0x5
 4042 002f 696E7400 		.ascii	"int\000"
 4043 0033 02       		.uleb128 0x2
 4044 0034 08       		.byte	0x8
 4045 0035 04       		.byte	0x4
 4046 0036 03220000 		.4byte	.LASF1
 4047 003a 04       		.uleb128 0x4
 4048 003b D20E0000 		.4byte	.LASF6
 4049 003f 07       		.byte	0x7
 4050 0040 D8       		.byte	0xd8
 4051 0041 45000000 		.4byte	0x45
 4052 0045 02       		.uleb128 0x2
 4053 0046 04       		.byte	0x4
 4054 0047 07       		.byte	0x7
 4055 0048 F02A0000 		.4byte	.LASF2
 4056 004c 02       		.uleb128 0x2
 4057 004d 08       		.byte	0x8
 4058 004e 05       		.byte	0x5
 4059 004f E8270000 		.4byte	.LASF3
ARM GAS  C:\Users\JEANCO~1\AppData\Local\Temp\ccxhVNGN.s 			page 73


 4060 0053 02       		.uleb128 0x2
 4061 0054 08       		.byte	0x8
 4062 0055 04       		.byte	0x4
 4063 0056 ED1C0000 		.4byte	.LASF4
 4064 005a 02       		.uleb128 0x2
 4065 005b 01       		.byte	0x1
 4066 005c 06       		.byte	0x6
 4067 005d 19180000 		.4byte	.LASF5
 4068 0061 04       		.uleb128 0x4
 4069 0062 02010000 		.4byte	.LASF7
 4070 0066 08       		.byte	0x8
 4071 0067 2B       		.byte	0x2b
 4072 0068 6C000000 		.4byte	0x6c
 4073 006c 02       		.uleb128 0x2
 4074 006d 01       		.byte	0x1
 4075 006e 08       		.byte	0x8
 4076 006f A90A0000 		.4byte	.LASF8
 4077 0073 04       		.uleb128 0x4
 4078 0074 D4080000 		.4byte	.LASF9
 4079 0078 08       		.byte	0x8
 4080 0079 37       		.byte	0x37
 4081 007a 7E000000 		.4byte	0x7e
 4082 007e 02       		.uleb128 0x2
 4083 007f 02       		.byte	0x2
 4084 0080 05       		.byte	0x5
 4085 0081 952B0000 		.4byte	.LASF10
 4086 0085 04       		.uleb128 0x4
 4087 0086 DE080000 		.4byte	.LASF11
 4088 008a 08       		.byte	0x8
 4089 008b 39       		.byte	0x39
 4090 008c 90000000 		.4byte	0x90
 4091 0090 02       		.uleb128 0x2
 4092 0091 02       		.byte	0x2
 4093 0092 07       		.byte	0x7
 4094 0093 FE170000 		.4byte	.LASF12
 4095 0097 04       		.uleb128 0x4
 4096 0098 CE220000 		.4byte	.LASF13
 4097 009c 08       		.byte	0x8
 4098 009d 4D       		.byte	0x4d
 4099 009e A2000000 		.4byte	0xa2
 4100 00a2 02       		.uleb128 0x2
 4101 00a3 04       		.byte	0x4
 4102 00a4 05       		.byte	0x5
 4103 00a5 631B0000 		.4byte	.LASF14
 4104 00a9 04       		.uleb128 0x4
 4105 00aa D8220000 		.4byte	.LASF15
 4106 00ae 08       		.byte	0x8
 4107 00af 4F       		.byte	0x4f
 4108 00b0 B4000000 		.4byte	0xb4
 4109 00b4 02       		.uleb128 0x2
 4110 00b5 04       		.byte	0x4
 4111 00b6 07       		.byte	0x7
 4112 00b7 451D0000 		.4byte	.LASF16
 4113 00bb 04       		.uleb128 0x4
 4114 00bc B0130000 		.4byte	.LASF17
 4115 00c0 08       		.byte	0x8
 4116 00c1 69       		.byte	0x69
ARM GAS  C:\Users\JEANCO~1\AppData\Local\Temp\ccxhVNGN.s 			page 74


 4117 00c2 C6000000 		.4byte	0xc6
 4118 00c6 02       		.uleb128 0x2
 4119 00c7 08       		.byte	0x8
 4120 00c8 07       		.byte	0x7
 4121 00c9 03250000 		.4byte	.LASF18
 4122 00cd 04       		.uleb128 0x4
 4123 00ce 060F0000 		.4byte	.LASF19
 4124 00d2 09       		.byte	0x9
 4125 00d3 18       		.byte	0x18
 4126 00d4 61000000 		.4byte	0x61
 4127 00d8 05       		.uleb128 0x5
 4128 00d9 CD000000 		.4byte	0xcd
 4129 00dd 04       		.uleb128 0x4
 4130 00de E1170000 		.4byte	.LASF20
 4131 00e2 09       		.byte	0x9
 4132 00e3 20       		.byte	0x20
 4133 00e4 73000000 		.4byte	0x73
 4134 00e8 04       		.uleb128 0x4
 4135 00e9 49020000 		.4byte	.LASF21
 4136 00ed 09       		.byte	0x9
 4137 00ee 24       		.byte	0x24
 4138 00ef 85000000 		.4byte	0x85
 4139 00f3 04       		.uleb128 0x4
 4140 00f4 49040000 		.4byte	.LASF22
 4141 00f8 09       		.byte	0x9
 4142 00f9 2C       		.byte	0x2c
 4143 00fa 97000000 		.4byte	0x97
 4144 00fe 06       		.uleb128 0x6
 4145 00ff F3000000 		.4byte	0xf3
 4146 0103 04       		.uleb128 0x4
 4147 0104 961C0000 		.4byte	.LASF23
 4148 0108 09       		.byte	0x9
 4149 0109 30       		.byte	0x30
 4150 010a A9000000 		.4byte	0xa9
 4151 010e 06       		.uleb128 0x6
 4152 010f 03010000 		.4byte	0x103
 4153 0113 05       		.uleb128 0x5
 4154 0114 0E010000 		.4byte	0x10e
 4155 0118 04       		.uleb128 0x4
 4156 0119 3E0C0000 		.4byte	.LASF24
 4157 011d 09       		.byte	0x9
 4158 011e 3C       		.byte	0x3c
 4159 011f BB000000 		.4byte	0xbb
 4160 0123 04       		.uleb128 0x4
 4161 0124 2A0E0000 		.4byte	.LASF25
 4162 0128 0A       		.byte	0xa
 4163 0129 45       		.byte	0x45
 4164 012a 03010000 		.4byte	0x103
 4165 012e 04       		.uleb128 0x4
 4166 012f AE060000 		.4byte	.LASF26
 4167 0133 0A       		.byte	0xa
 4168 0134 46       		.byte	0x46
 4169 0135 18010000 		.4byte	0x118
 4170 0139 04       		.uleb128 0x4
 4171 013a 81150000 		.4byte	.LASF27
 4172 013e 0A       		.byte	0xa
 4173 013f 48       		.byte	0x48
ARM GAS  C:\Users\JEANCO~1\AppData\Local\Temp\ccxhVNGN.s 			page 75


 4174 0140 CD000000 		.4byte	0xcd
 4175 0144 04       		.uleb128 0x4
 4176 0145 31260000 		.4byte	.LASF28
 4177 0149 0A       		.byte	0xa
 4178 014a 49       		.byte	0x49
 4179 014b CD000000 		.4byte	0xcd
 4180 014f 04       		.uleb128 0x4
 4181 0150 F4140000 		.4byte	.LASF29
 4182 0154 0A       		.byte	0xa
 4183 0155 4A       		.byte	0x4a
 4184 0156 CD000000 		.4byte	0xcd
 4185 015a 04       		.uleb128 0x4
 4186 015b 4B170000 		.4byte	.LASF30
 4187 015f 0A       		.byte	0xa
 4188 0160 4B       		.byte	0x4b
 4189 0161 CD000000 		.4byte	0xcd
 4190 0165 04       		.uleb128 0x4
 4191 0166 8B070000 		.4byte	.LASF31
 4192 016a 0A       		.byte	0xa
 4193 016b 4C       		.byte	0x4c
 4194 016c 03010000 		.4byte	0x103
 4195 0170 04       		.uleb128 0x4
 4196 0171 97000000 		.4byte	.LASF32
 4197 0175 0A       		.byte	0xa
 4198 0176 4D       		.byte	0x4d
 4199 0177 F3000000 		.4byte	0xf3
 4200 017b 04       		.uleb128 0x4
 4201 017c 021D0000 		.4byte	.LASF33
 4202 0180 0A       		.byte	0xa
 4203 0181 4F       		.byte	0x4f
 4204 0182 03010000 		.4byte	0x103
 4205 0186 04       		.uleb128 0x4
 4206 0187 9B280000 		.4byte	.LASF34
 4207 018b 0A       		.byte	0xa
 4208 018c 50       		.byte	0x50
 4209 018d 03010000 		.4byte	0x103
 4210 0191 04       		.uleb128 0x4
 4211 0192 5C200000 		.4byte	.LASF35
 4212 0196 0A       		.byte	0xa
 4213 0197 51       		.byte	0x51
 4214 0198 F3000000 		.4byte	0xf3
 4215 019c 04       		.uleb128 0x4
 4216 019d 44180000 		.4byte	.LASF36
 4217 01a1 0A       		.byte	0xa
 4218 01a2 52       		.byte	0x52
 4219 01a3 03010000 		.4byte	0x103
 4220 01a7 04       		.uleb128 0x4
 4221 01a8 74040000 		.4byte	.LASF37
 4222 01ac 0B       		.byte	0xb
 4223 01ad 33       		.byte	0x33
 4224 01ae 03010000 		.4byte	0x103
 4225 01b2 06       		.uleb128 0x6
 4226 01b3 A7010000 		.4byte	0x1a7
 4227 01b7 04       		.uleb128 0x4
 4228 01b8 E7030000 		.4byte	.LASF38
 4229 01bc 0B       		.byte	0xb
 4230 01bd 3F       		.byte	0x3f
ARM GAS  C:\Users\JEANCO~1\AppData\Local\Temp\ccxhVNGN.s 			page 76


 4231 01be C2010000 		.4byte	0x1c2
 4232 01c2 07       		.uleb128 0x7
 4233 01c3 FD0A0000 		.4byte	.LASF62
 4234 01c7 68       		.byte	0x68
 4235 01c8 0C       		.byte	0xc
 4236 01c9 C2       		.byte	0xc2
 4237 01ca E0020000 		.4byte	0x2e0
 4238 01ce 08       		.uleb128 0x8
 4239 01cf 8F140000 		.4byte	.LASF39
 4240 01d3 0C       		.byte	0xc
 4241 01d4 C3       		.byte	0xc3
 4242 01d5 EB020000 		.4byte	0x2eb
 4243 01d9 00       		.byte	0
 4244 01da 08       		.uleb128 0x8
 4245 01db 260F0000 		.4byte	.LASF40
 4246 01df 0C       		.byte	0xc
 4247 01e0 C5       		.byte	0xc5
 4248 01e1 EB020000 		.4byte	0x2eb
 4249 01e5 04       		.byte	0x4
 4250 01e6 08       		.uleb128 0x8
 4251 01e7 7C130000 		.4byte	.LASF41
 4252 01eb 0C       		.byte	0xc
 4253 01ec C7       		.byte	0xc7
 4254 01ed 65010000 		.4byte	0x165
 4255 01f1 08       		.byte	0x8
 4256 01f2 08       		.uleb128 0x8
 4257 01f3 A90B0000 		.4byte	.LASF42
 4258 01f7 0C       		.byte	0xc
 4259 01f8 C8       		.byte	0xc8
 4260 01f9 970D0000 		.4byte	0xd97
 4261 01fd 0C       		.byte	0xc
 4262 01fe 08       		.uleb128 0x8
 4263 01ff 02030000 		.4byte	.LASF43
 4264 0203 0C       		.byte	0xc
 4265 0204 CA       		.byte	0xca
 4266 0205 EB020000 		.4byte	0x2eb
 4267 0209 10       		.byte	0x10
 4268 020a 08       		.uleb128 0x8
 4269 020b 46290000 		.4byte	.LASF44
 4270 020f 0C       		.byte	0xc
 4271 0210 CB       		.byte	0xcb
 4272 0211 EB020000 		.4byte	0x2eb
 4273 0215 14       		.byte	0x14
 4274 0216 08       		.uleb128 0x8
 4275 0217 B1260000 		.4byte	.LASF45
 4276 021b 0C       		.byte	0xc
 4277 021c D2       		.byte	0xd2
 4278 021d 0D110000 		.4byte	0x110d
 4279 0221 18       		.byte	0x18
 4280 0222 08       		.uleb128 0x8
 4281 0223 51200000 		.4byte	.LASF46
 4282 0227 0C       		.byte	0xc
 4283 0228 D8       		.byte	0xd8
 4284 0229 24110000 		.4byte	0x1124
 4285 022d 1C       		.byte	0x1c
 4286 022e 08       		.uleb128 0x8
 4287 022f 5F2C0000 		.4byte	.LASF47
ARM GAS  C:\Users\JEANCO~1\AppData\Local\Temp\ccxhVNGN.s 			page 77


 4288 0233 0C       		.byte	0xc
 4289 0234 DD       		.byte	0xdd
 4290 0235 44010000 		.4byte	0x144
 4291 0239 20       		.byte	0x20
 4292 023a 08       		.uleb128 0x8
 4293 023b C7250000 		.4byte	.LASF48
 4294 023f 0C       		.byte	0xc
 4295 0240 E1       		.byte	0xe1
 4296 0241 39010000 		.4byte	0x139
 4297 0245 21       		.byte	0x21
 4298 0246 08       		.uleb128 0x8
 4299 0247 251B0000 		.4byte	.LASF49
 4300 024b 0C       		.byte	0xc
 4301 024c E6       		.byte	0xe6
 4302 024d 4F010000 		.4byte	0x14f
 4303 0251 22       		.byte	0x22
 4304 0252 08       		.uleb128 0x8
 4305 0253 3A180000 		.4byte	.LASF50
 4306 0257 0C       		.byte	0xc
 4307 0258 EC       		.byte	0xec
 4308 0259 5A010000 		.4byte	0x15a
 4309 025d 23       		.byte	0x23
 4310 025e 08       		.uleb128 0x8
 4311 025f 1E1B0000 		.4byte	.LASF51
 4312 0263 0C       		.byte	0xc
 4313 0264 F3       		.byte	0xf3
 4314 0265 B2010000 		.4byte	0x1b2
 4315 0269 24       		.byte	0x24
 4316 026a 09       		.uleb128 0x9
 4317 026b 705F7500 		.ascii	"p_u\000"
 4318 026f 0C       		.byte	0xc
 4319 0270 3101     		.2byte	0x131
 4320 0272 3C100000 		.4byte	0x103c
 4321 0276 28       		.byte	0x28
 4322 0277 0A       		.uleb128 0xa
 4323 0278 02060000 		.4byte	.LASF52
 4324 027c 0C       		.byte	0xc
 4325 027d 3601     		.2byte	0x136
 4326 027f F1020000 		.4byte	0x2f1
 4327 0283 2C       		.byte	0x2c
 4328 0284 0A       		.uleb128 0xa
 4329 0285 CD180000 		.4byte	.LASF53
 4330 0289 0C       		.byte	0xc
 4331 028a 3C01     		.2byte	0x13c
 4332 028c 15030000 		.4byte	0x315
 4333 0290 30       		.byte	0x30
 4334 0291 0A       		.uleb128 0xa
 4335 0292 01090000 		.4byte	.LASF54
 4336 0296 0C       		.byte	0xc
 4337 0297 4001     		.2byte	0x140
 4338 0299 70010000 		.4byte	0x170
 4339 029d 38       		.byte	0x38
 4340 029e 0A       		.uleb128 0xa
 4341 029f A9230000 		.4byte	.LASF55
 4342 02a3 0C       		.byte	0xc
 4343 02a4 4601     		.2byte	0x146
 4344 02a6 7B010000 		.4byte	0x17b
ARM GAS  C:\Users\JEANCO~1\AppData\Local\Temp\ccxhVNGN.s 			page 78


 4345 02aa 3C       		.byte	0x3c
 4346 02ab 0A       		.uleb128 0xa
 4347 02ac 1C260000 		.4byte	.LASF56
 4348 02b0 0C       		.byte	0xc
 4349 02b1 4D01     		.2byte	0x14d
 4350 02b3 07110000 		.4byte	0x1107
 4351 02b7 40       		.byte	0x40
 4352 02b8 0A       		.uleb128 0xa
 4353 02b9 C7210000 		.4byte	.LASF57
 4354 02bd 0C       		.byte	0xc
 4355 02be 5101     		.2byte	0x151
 4356 02c0 65010000 		.4byte	0x165
 4357 02c4 44       		.byte	0x44
 4358 02c5 0A       		.uleb128 0xa
 4359 02c6 FC140000 		.4byte	.LASF58
 4360 02ca 0C       		.byte	0xc
 4361 02cb 5801     		.2byte	0x158
 4362 02cd C8030000 		.4byte	0x3c8
 4363 02d1 48       		.byte	0x48
 4364 02d2 0A       		.uleb128 0xa
 4365 02d3 9A2C0000 		.4byte	.LASF59
 4366 02d7 0C       		.byte	0xc
 4367 02d8 5E01     		.2byte	0x15e
 4368 02da ED0F0000 		.4byte	0xfed
 4369 02de 50       		.byte	0x50
 4370 02df 00       		.byte	0
 4371 02e0 04       		.uleb128 0x4
 4372 02e1 CC290000 		.4byte	.LASF60
 4373 02e5 0B       		.byte	0xb
 4374 02e6 44       		.byte	0x44
 4375 02e7 EB020000 		.4byte	0x2eb
 4376 02eb 0B       		.uleb128 0xb
 4377 02ec 04       		.byte	0x4
 4378 02ed B7010000 		.4byte	0x1b7
 4379 02f1 04       		.uleb128 0x4
 4380 02f2 41060000 		.4byte	.LASF61
 4381 02f6 0B       		.byte	0xb
 4382 02f7 49       		.byte	0x49
 4383 02f8 FC020000 		.4byte	0x2fc
 4384 02fc 07       		.uleb128 0x7
 4385 02fd 792C0000 		.4byte	.LASF63
 4386 0301 04       		.byte	0x4
 4387 0302 0C       		.byte	0xc
 4388 0303 B0       		.byte	0xb0
 4389 0304 15030000 		.4byte	0x315
 4390 0308 08       		.uleb128 0x8
 4391 0309 8F140000 		.4byte	.LASF39
 4392 030d 0C       		.byte	0xc
 4393 030e B1       		.byte	0xb1
 4394 030f EB020000 		.4byte	0x2eb
 4395 0313 00       		.byte	0
 4396 0314 00       		.byte	0
 4397 0315 04       		.uleb128 0x4
 4398 0316 E81A0000 		.4byte	.LASF64
 4399 031a 0B       		.byte	0xb
 4400 031b 50       		.byte	0x50
 4401 031c 20030000 		.4byte	0x320
ARM GAS  C:\Users\JEANCO~1\AppData\Local\Temp\ccxhVNGN.s 			page 79


 4402 0320 07       		.uleb128 0x7
 4403 0321 D9020000 		.4byte	.LASF65
 4404 0325 08       		.byte	0x8
 4405 0326 0C       		.byte	0xc
 4406 0327 B7       		.byte	0xb7
 4407 0328 45030000 		.4byte	0x345
 4408 032c 08       		.uleb128 0x8
 4409 032d 8F140000 		.4byte	.LASF39
 4410 0331 0C       		.byte	0xc
 4411 0332 B8       		.byte	0xb8
 4412 0333 EB020000 		.4byte	0x2eb
 4413 0337 00       		.byte	0
 4414 0338 08       		.uleb128 0x8
 4415 0339 260F0000 		.4byte	.LASF40
 4416 033d 0C       		.byte	0xc
 4417 033e B9       		.byte	0xb9
 4418 033f EB020000 		.4byte	0x2eb
 4419 0343 04       		.byte	0x4
 4420 0344 00       		.byte	0
 4421 0345 04       		.uleb128 0x4
 4422 0346 F00A0000 		.4byte	.LASF66
 4423 034a 0B       		.byte	0xb
 4424 034b 57       		.byte	0x57
 4425 034c 50030000 		.4byte	0x350
 4426 0350 0C       		.uleb128 0xc
 4427 0351 B4220000 		.4byte	.LASF67
 4428 0355 1C       		.byte	0x1c
 4429 0356 0C       		.byte	0xc
 4430 0357 9001     		.2byte	0x190
 4431 0359 AC030000 		.4byte	0x3ac
 4432 035d 0A       		.uleb128 0xa
 4433 035e 421E0000 		.4byte	.LASF68
 4434 0362 0C       		.byte	0xc
 4435 0363 9101     		.2byte	0x191
 4436 0365 15030000 		.4byte	0x315
 4437 0369 00       		.byte	0
 4438 036a 0A       		.uleb128 0xa
 4439 036b DA240000 		.4byte	.LASF69
 4440 036f 0C       		.byte	0xc
 4441 0370 9201     		.2byte	0x192
 4442 0372 65010000 		.4byte	0x165
 4443 0376 08       		.byte	0x8
 4444 0377 0A       		.uleb128 0xa
 4445 0378 F60D0000 		.4byte	.LASF70
 4446 037c 0C       		.byte	0xc
 4447 037d 9401     		.2byte	0x194
 4448 037f 970D0000 		.4byte	0xd97
 4449 0383 0C       		.byte	0xc
 4450 0384 0A       		.uleb128 0xa
 4451 0385 DB160000 		.4byte	.LASF71
 4452 0389 0C       		.byte	0xc
 4453 038a 9701     		.2byte	0x197
 4454 038c EB020000 		.4byte	0x2eb
 4455 0390 10       		.byte	0x10
 4456 0391 0A       		.uleb128 0xa
 4457 0392 1E0F0000 		.4byte	.LASF72
 4458 0396 0C       		.byte	0xc
ARM GAS  C:\Users\JEANCO~1\AppData\Local\Temp\ccxhVNGN.s 			page 80


 4459 0397 9801     		.2byte	0x198
 4460 0399 EB020000 		.4byte	0x2eb
 4461 039d 14       		.byte	0x14
 4462 039e 0A       		.uleb128 0xa
 4463 039f CE0B0000 		.4byte	.LASF73
 4464 03a3 0C       		.byte	0xc
 4465 03a4 9B01     		.2byte	0x19b
 4466 03a6 EB020000 		.4byte	0x2eb
 4467 03aa 18       		.byte	0x18
 4468 03ab 00       		.byte	0
 4469 03ac 04       		.uleb128 0x4
 4470 03ad 70210000 		.4byte	.LASF74
 4471 03b1 0B       		.byte	0xb
 4472 03b2 5C       		.byte	0x5c
 4473 03b3 B7030000 		.4byte	0x3b7
 4474 03b7 0B       		.uleb128 0xb
 4475 03b8 04       		.byte	0x4
 4476 03b9 BD030000 		.4byte	0x3bd
 4477 03bd 0D       		.uleb128 0xd
 4478 03be C8030000 		.4byte	0x3c8
 4479 03c2 0E       		.uleb128 0xe
 4480 03c3 C8030000 		.4byte	0x3c8
 4481 03c7 00       		.byte	0
 4482 03c8 0F       		.uleb128 0xf
 4483 03c9 04       		.byte	0x4
 4484 03ca 04       		.uleb128 0x4
 4485 03cb DA0D0000 		.4byte	.LASF75
 4486 03cf 0B       		.byte	0xb
 4487 03d0 61       		.byte	0x61
 4488 03d1 D5030000 		.4byte	0x3d5
 4489 03d5 0C       		.uleb128 0xc
 4490 03d6 B6250000 		.4byte	.LASF76
 4491 03da 14       		.byte	0x14
 4492 03db 0C       		.byte	0xc
 4493 03dc 6B01     		.2byte	0x16b
 4494 03de 24040000 		.4byte	0x424
 4495 03e2 0A       		.uleb128 0xa
 4496 03e3 FC0D0000 		.4byte	.LASF77
 4497 03e7 0C       		.byte	0xc
 4498 03e8 6C01     		.2byte	0x16c
 4499 03ea 2A110000 		.4byte	0x112a
 4500 03ee 00       		.byte	0
 4501 03ef 0A       		.uleb128 0xa
 4502 03f0 750A0000 		.4byte	.LASF78
 4503 03f4 0C       		.byte	0xc
 4504 03f5 6D01     		.2byte	0x16d
 4505 03f7 2A110000 		.4byte	0x112a
 4506 03fb 04       		.byte	0x4
 4507 03fc 0A       		.uleb128 0xa
 4508 03fd AB170000 		.4byte	.LASF79
 4509 0401 0C       		.byte	0xc
 4510 0402 6E01     		.2byte	0x16e
 4511 0404 A7010000 		.4byte	0x1a7
 4512 0408 08       		.byte	0x8
 4513 0409 0A       		.uleb128 0xa
 4514 040a 9B250000 		.4byte	.LASF80
 4515 040e 0C       		.byte	0xc
ARM GAS  C:\Users\JEANCO~1\AppData\Local\Temp\ccxhVNGN.s 			page 81


 4516 040f 6F01     		.2byte	0x16f
 4517 0411 AC030000 		.4byte	0x3ac
 4518 0415 0C       		.byte	0xc
 4519 0416 0A       		.uleb128 0xa
 4520 0417 AF0B0000 		.4byte	.LASF81
 4521 041b 0C       		.byte	0xc
 4522 041c 7101     		.2byte	0x171
 4523 041e C8030000 		.4byte	0x3c8
 4524 0422 10       		.byte	0x10
 4525 0423 00       		.byte	0
 4526 0424 04       		.uleb128 0x4
 4527 0425 24270000 		.4byte	.LASF82
 4528 0429 0B       		.byte	0xb
 4529 042a 66       		.byte	0x66
 4530 042b 2F040000 		.4byte	0x42f
 4531 042f 0C       		.uleb128 0xc
 4532 0430 11040000 		.4byte	.LASF83
 4533 0434 10       		.byte	0x10
 4534 0435 0C       		.byte	0xc
 4535 0436 7B01     		.2byte	0x17b
 4536 0438 71040000 		.4byte	0x471
 4537 043c 0A       		.uleb128 0xa
 4538 043d FC0D0000 		.4byte	.LASF77
 4539 0441 0C       		.byte	0xc
 4540 0442 7C01     		.2byte	0x17c
 4541 0444 2A110000 		.4byte	0x112a
 4542 0448 00       		.byte	0
 4543 0449 0A       		.uleb128 0xa
 4544 044a 750A0000 		.4byte	.LASF78
 4545 044e 0C       		.byte	0xc
 4546 044f 7E01     		.2byte	0x17e
 4547 0451 2A110000 		.4byte	0x112a
 4548 0455 04       		.byte	0x4
 4549 0456 0A       		.uleb128 0xa
 4550 0457 AB170000 		.4byte	.LASF79
 4551 045b 0C       		.byte	0xc
 4552 045c 8001     		.2byte	0x180
 4553 045e A7010000 		.4byte	0x1a7
 4554 0462 08       		.byte	0x8
 4555 0463 0A       		.uleb128 0xa
 4556 0464 9A010000 		.4byte	.LASF84
 4557 0468 0C       		.byte	0xc
 4558 0469 8201     		.2byte	0x182
 4559 046b B2010000 		.4byte	0x1b2
 4560 046f 0C       		.byte	0xc
 4561 0470 00       		.byte	0
 4562 0471 04       		.uleb128 0x4
 4563 0472 820B0000 		.4byte	.LASF85
 4564 0476 0B       		.byte	0xb
 4565 0477 6B       		.byte	0x6b
 4566 0478 7C040000 		.4byte	0x47c
 4567 047c 10       		.uleb128 0x10
 4568 047d F0220000 		.4byte	.LASF86
 4569 0481 1404     		.2byte	0x414
 4570 0483 0C       		.byte	0xc
 4571 0484 A201     		.2byte	0x1a2
 4572 0486 BF040000 		.4byte	0x4bf
ARM GAS  C:\Users\JEANCO~1\AppData\Local\Temp\ccxhVNGN.s 			page 82


 4573 048a 0A       		.uleb128 0xa
 4574 048b B2160000 		.4byte	.LASF87
 4575 048f 0C       		.byte	0xc
 4576 0490 AA01     		.2byte	0x1aa
 4577 0492 13110000 		.4byte	0x1113
 4578 0496 00       		.byte	0
 4579 0497 0A       		.uleb128 0xa
 4580 0498 76160000 		.4byte	.LASF88
 4581 049c 0C       		.byte	0xc
 4582 049d AF01     		.2byte	0x1af
 4583 049f 91010000 		.4byte	0x191
 4584 04a3 04       		.byte	0x4
 4585 04a4 0A       		.uleb128 0xa
 4586 04a5 D0020000 		.4byte	.LASF89
 4587 04a9 0C       		.byte	0xc
 4588 04aa B301     		.2byte	0x1b3
 4589 04ac 91010000 		.4byte	0x191
 4590 04b0 08       		.byte	0x8
 4591 04b1 0A       		.uleb128 0xa
 4592 04b2 E9190000 		.4byte	.LASF90
 4593 04b6 0C       		.byte	0xc
 4594 04b7 B901     		.2byte	0x1b9
 4595 04b9 7F0F0000 		.4byte	0xf7f
 4596 04bd 0C       		.byte	0xc
 4597 04be 00       		.byte	0
 4598 04bf 04       		.uleb128 0x4
 4599 04c0 F6000000 		.4byte	.LASF91
 4600 04c4 0B       		.byte	0xb
 4601 04c5 70       		.byte	0x70
 4602 04c6 CA040000 		.4byte	0x4ca
 4603 04ca 10       		.uleb128 0x10
 4604 04cb D2190000 		.4byte	.LASF92
 4605 04cf 7006     		.2byte	0x670
 4606 04d1 0C       		.byte	0xc
 4607 04d2 C201     		.2byte	0x1c2
 4608 04d4 37050000 		.4byte	0x537
 4609 04d8 0A       		.uleb128 0xa
 4610 04d9 3B060000 		.4byte	.LASF93
 4611 04dd 0C       		.byte	0xc
 4612 04de C601     		.2byte	0x1c6
 4613 04e0 45030000 		.4byte	0x345
 4614 04e4 00       		.byte	0
 4615 04e5 0A       		.uleb128 0xa
 4616 04e6 EC050000 		.4byte	.LASF94
 4617 04ea 0C       		.byte	0xc
 4618 04eb CA01     		.2byte	0x1ca
 4619 04ed 24040000 		.4byte	0x424
 4620 04f1 1C       		.byte	0x1c
 4621 04f2 09       		.uleb128 0x9
 4622 04f3 64626700 		.ascii	"dbg\000"
 4623 04f7 0C       		.byte	0xc
 4624 04f8 CE01     		.2byte	0x1ce
 4625 04fa 71040000 		.4byte	0x471
 4626 04fe 2C       		.byte	0x2c
 4627 04ff 11       		.uleb128 0x11
 4628 0500 6C1B0000 		.4byte	.LASF95
 4629 0504 0C       		.byte	0xc
ARM GAS  C:\Users\JEANCO~1\AppData\Local\Temp\ccxhVNGN.s 			page 83


 4630 0505 D201     		.2byte	0x1d2
 4631 0507 B7010000 		.4byte	0x1b7
 4632 050b 4004     		.2byte	0x440
 4633 050d 12       		.uleb128 0x12
 4634 050e 746D00   		.ascii	"tm\000"
 4635 0511 0C       		.byte	0xc
 4636 0512 D701     		.2byte	0x1d7
 4637 0514 9F0F0000 		.4byte	0xf9f
 4638 0518 A804     		.2byte	0x4a8
 4639 051a 11       		.uleb128 0x11
 4640 051b D90E0000 		.4byte	.LASF96
 4641 051f 0C       		.byte	0xc
 4642 0520 DD01     		.2byte	0x1dd
 4643 0522 31100000 		.4byte	0x1031
 4644 0526 B004     		.2byte	0x4b0
 4645 0528 11       		.uleb128 0x11
 4646 0529 78250000 		.4byte	.LASF97
 4647 052d 0C       		.byte	0xc
 4648 052e E301     		.2byte	0x1e3
 4649 0530 30110000 		.4byte	0x1130
 4650 0534 E804     		.2byte	0x4e8
 4651 0536 00       		.byte	0
 4652 0537 13       		.uleb128 0x13
 4653 0538 03010000 		.4byte	0x103
 4654 053c 47050000 		.4byte	0x547
 4655 0540 14       		.uleb128 0x14
 4656 0541 45000000 		.4byte	0x45
 4657 0545 01       		.byte	0x1
 4658 0546 00       		.byte	0
 4659 0547 13       		.uleb128 0x13
 4660 0548 03010000 		.4byte	0x103
 4661 054c 57050000 		.4byte	0x557
 4662 0550 14       		.uleb128 0x14
 4663 0551 45000000 		.4byte	0x45
 4664 0555 07       		.byte	0x7
 4665 0556 00       		.byte	0
 4666 0557 15       		.uleb128 0x15
 4667 0558 E6240000 		.4byte	.LASF98
 4668 055c 0D       		.byte	0xd
 4669 055d A706     		.2byte	0x6a7
 4670 055f FE000000 		.4byte	0xfe
 4671 0563 16       		.uleb128 0x16
 4672 0564 2D190000 		.4byte	.LASF99
 4673 0568 0E       		.byte	0xe
 4674 0569 4C       		.byte	0x4c
 4675 056a 03010000 		.4byte	0x103
 4676 056e 17       		.uleb128 0x17
 4677 056f 50       		.byte	0x50
 4678 0570 0F       		.byte	0xf
 4679 0571 C4       		.byte	0xc4
 4680 0572 65060000 		.4byte	0x665
 4681 0576 18       		.uleb128 0x18
 4682 0577 535200   		.ascii	"SR\000"
 4683 057a 0F       		.byte	0xf
 4684 057b C6       		.byte	0xc6
 4685 057c 0E010000 		.4byte	0x10e
 4686 0580 00       		.byte	0
ARM GAS  C:\Users\JEANCO~1\AppData\Local\Temp\ccxhVNGN.s 			page 84


 4687 0581 18       		.uleb128 0x18
 4688 0582 43523100 		.ascii	"CR1\000"
 4689 0586 0F       		.byte	0xf
 4690 0587 C7       		.byte	0xc7
 4691 0588 0E010000 		.4byte	0x10e
 4692 058c 04       		.byte	0x4
 4693 058d 18       		.uleb128 0x18
 4694 058e 43523200 		.ascii	"CR2\000"
 4695 0592 0F       		.byte	0xf
 4696 0593 C8       		.byte	0xc8
 4697 0594 0E010000 		.4byte	0x10e
 4698 0598 08       		.byte	0x8
 4699 0599 08       		.uleb128 0x8
 4700 059a 15030000 		.4byte	.LASF100
 4701 059e 0F       		.byte	0xf
 4702 059f C9       		.byte	0xc9
 4703 05a0 0E010000 		.4byte	0x10e
 4704 05a4 0C       		.byte	0xc
 4705 05a5 08       		.uleb128 0x8
 4706 05a6 1B030000 		.4byte	.LASF101
 4707 05aa 0F       		.byte	0xf
 4708 05ab CA       		.byte	0xca
 4709 05ac 0E010000 		.4byte	0x10e
 4710 05b0 10       		.byte	0x10
 4711 05b1 08       		.uleb128 0x8
 4712 05b2 B60B0000 		.4byte	.LASF102
 4713 05b6 0F       		.byte	0xf
 4714 05b7 CB       		.byte	0xcb
 4715 05b8 0E010000 		.4byte	0x10e
 4716 05bc 14       		.byte	0x14
 4717 05bd 08       		.uleb128 0x8
 4718 05be BC0B0000 		.4byte	.LASF103
 4719 05c2 0F       		.byte	0xf
 4720 05c3 CC       		.byte	0xcc
 4721 05c4 0E010000 		.4byte	0x10e
 4722 05c8 18       		.byte	0x18
 4723 05c9 08       		.uleb128 0x8
 4724 05ca C20B0000 		.4byte	.LASF104
 4725 05ce 0F       		.byte	0xf
 4726 05cf CD       		.byte	0xcd
 4727 05d0 0E010000 		.4byte	0x10e
 4728 05d4 1C       		.byte	0x1c
 4729 05d5 08       		.uleb128 0x8
 4730 05d6 C80B0000 		.4byte	.LASF105
 4731 05da 0F       		.byte	0xf
 4732 05db CE       		.byte	0xce
 4733 05dc 0E010000 		.4byte	0x10e
 4734 05e0 20       		.byte	0x20
 4735 05e1 18       		.uleb128 0x18
 4736 05e2 48545200 		.ascii	"HTR\000"
 4737 05e6 0F       		.byte	0xf
 4738 05e7 CF       		.byte	0xcf
 4739 05e8 0E010000 		.4byte	0x10e
 4740 05ec 24       		.byte	0x24
 4741 05ed 18       		.uleb128 0x18
 4742 05ee 4C545200 		.ascii	"LTR\000"
 4743 05f2 0F       		.byte	0xf
ARM GAS  C:\Users\JEANCO~1\AppData\Local\Temp\ccxhVNGN.s 			page 85


 4744 05f3 D0       		.byte	0xd0
 4745 05f4 0E010000 		.4byte	0x10e
 4746 05f8 28       		.byte	0x28
 4747 05f9 08       		.uleb128 0x8
 4748 05fa A5150000 		.4byte	.LASF106
 4749 05fe 0F       		.byte	0xf
 4750 05ff D1       		.byte	0xd1
 4751 0600 0E010000 		.4byte	0x10e
 4752 0604 2C       		.byte	0x2c
 4753 0605 08       		.uleb128 0x8
 4754 0606 AA150000 		.4byte	.LASF107
 4755 060a 0F       		.byte	0xf
 4756 060b D2       		.byte	0xd2
 4757 060c 0E010000 		.4byte	0x10e
 4758 0610 30       		.byte	0x30
 4759 0611 08       		.uleb128 0x8
 4760 0612 AF150000 		.4byte	.LASF108
 4761 0616 0F       		.byte	0xf
 4762 0617 D3       		.byte	0xd3
 4763 0618 0E010000 		.4byte	0x10e
 4764 061c 34       		.byte	0x34
 4765 061d 08       		.uleb128 0x8
 4766 061e B30D0000 		.4byte	.LASF109
 4767 0622 0F       		.byte	0xf
 4768 0623 D4       		.byte	0xd4
 4769 0624 0E010000 		.4byte	0x10e
 4770 0628 38       		.byte	0x38
 4771 0629 08       		.uleb128 0x8
 4772 062a D0260000 		.4byte	.LASF110
 4773 062e 0F       		.byte	0xf
 4774 062f D5       		.byte	0xd5
 4775 0630 0E010000 		.4byte	0x10e
 4776 0634 3C       		.byte	0x3c
 4777 0635 08       		.uleb128 0x8
 4778 0636 D5260000 		.4byte	.LASF111
 4779 063a 0F       		.byte	0xf
 4780 063b D6       		.byte	0xd6
 4781 063c 0E010000 		.4byte	0x10e
 4782 0640 40       		.byte	0x40
 4783 0641 08       		.uleb128 0x8
 4784 0642 DA260000 		.4byte	.LASF112
 4785 0646 0F       		.byte	0xf
 4786 0647 D7       		.byte	0xd7
 4787 0648 0E010000 		.4byte	0x10e
 4788 064c 44       		.byte	0x44
 4789 064d 08       		.uleb128 0x8
 4790 064e DF260000 		.4byte	.LASF113
 4791 0652 0F       		.byte	0xf
 4792 0653 D8       		.byte	0xd8
 4793 0654 0E010000 		.4byte	0x10e
 4794 0658 48       		.byte	0x48
 4795 0659 18       		.uleb128 0x18
 4796 065a 445200   		.ascii	"DR\000"
 4797 065d 0F       		.byte	0xf
 4798 065e D9       		.byte	0xd9
 4799 065f 0E010000 		.4byte	0x10e
 4800 0663 4C       		.byte	0x4c
ARM GAS  C:\Users\JEANCO~1\AppData\Local\Temp\ccxhVNGN.s 			page 86


 4801 0664 00       		.byte	0
 4802 0665 04       		.uleb128 0x4
 4803 0666 F2170000 		.4byte	.LASF114
 4804 066a 0F       		.byte	0xf
 4805 066b DA       		.byte	0xda
 4806 066c 6E050000 		.4byte	0x56e
 4807 0670 17       		.uleb128 0x17
 4808 0671 10       		.byte	0x10
 4809 0672 0F       		.byte	0xf
 4810 0673 E9       		.byte	0xe9
 4811 0674 A9060000 		.4byte	0x6a9
 4812 0678 18       		.uleb128 0x18
 4813 0679 54495200 		.ascii	"TIR\000"
 4814 067d 0F       		.byte	0xf
 4815 067e EB       		.byte	0xeb
 4816 067f 0E010000 		.4byte	0x10e
 4817 0683 00       		.byte	0
 4818 0684 08       		.uleb128 0x8
 4819 0685 1F130000 		.4byte	.LASF115
 4820 0689 0F       		.byte	0xf
 4821 068a EC       		.byte	0xec
 4822 068b 0E010000 		.4byte	0x10e
 4823 068f 04       		.byte	0x4
 4824 0690 08       		.uleb128 0x8
 4825 0691 5E1B0000 		.4byte	.LASF116
 4826 0695 0F       		.byte	0xf
 4827 0696 ED       		.byte	0xed
 4828 0697 0E010000 		.4byte	0x10e
 4829 069b 08       		.byte	0x8
 4830 069c 08       		.uleb128 0x8
 4831 069d 4B180000 		.4byte	.LASF117
 4832 06a1 0F       		.byte	0xf
 4833 06a2 EE       		.byte	0xee
 4834 06a3 0E010000 		.4byte	0x10e
 4835 06a7 0C       		.byte	0xc
 4836 06a8 00       		.byte	0
 4837 06a9 04       		.uleb128 0x4
 4838 06aa 25060000 		.4byte	.LASF118
 4839 06ae 0F       		.byte	0xf
 4840 06af EF       		.byte	0xef
 4841 06b0 70060000 		.4byte	0x670
 4842 06b4 17       		.uleb128 0x17
 4843 06b5 10       		.byte	0x10
 4844 06b6 0F       		.byte	0xf
 4845 06b7 F5       		.byte	0xf5
 4846 06b8 ED060000 		.4byte	0x6ed
 4847 06bc 18       		.uleb128 0x18
 4848 06bd 52495200 		.ascii	"RIR\000"
 4849 06c1 0F       		.byte	0xf
 4850 06c2 F7       		.byte	0xf7
 4851 06c3 0E010000 		.4byte	0x10e
 4852 06c7 00       		.byte	0
 4853 06c8 08       		.uleb128 0x8
 4854 06c9 82220000 		.4byte	.LASF119
 4855 06cd 0F       		.byte	0xf
 4856 06ce F8       		.byte	0xf8
 4857 06cf 0E010000 		.4byte	0x10e
ARM GAS  C:\Users\JEANCO~1\AppData\Local\Temp\ccxhVNGN.s 			page 87


 4858 06d3 04       		.byte	0x4
 4859 06d4 08       		.uleb128 0x8
 4860 06d5 BE1C0000 		.4byte	.LASF120
 4861 06d9 0F       		.byte	0xf
 4862 06da F9       		.byte	0xf9
 4863 06db 0E010000 		.4byte	0x10e
 4864 06df 08       		.byte	0x8
 4865 06e0 08       		.uleb128 0x8
 4866 06e1 B3190000 		.4byte	.LASF121
 4867 06e5 0F       		.byte	0xf
 4868 06e6 FA       		.byte	0xfa
 4869 06e7 0E010000 		.4byte	0x10e
 4870 06eb 0C       		.byte	0xc
 4871 06ec 00       		.byte	0
 4872 06ed 04       		.uleb128 0x4
 4873 06ee 79210000 		.4byte	.LASF122
 4874 06f2 0F       		.byte	0xf
 4875 06f3 FB       		.byte	0xfb
 4876 06f4 B4060000 		.4byte	0x6b4
 4877 06f8 19       		.uleb128 0x19
 4878 06f9 08       		.byte	0x8
 4879 06fa 0F       		.byte	0xf
 4880 06fb 0101     		.2byte	0x101
 4881 06fd 1C070000 		.4byte	0x71c
 4882 0701 09       		.uleb128 0x9
 4883 0702 46523100 		.ascii	"FR1\000"
 4884 0706 0F       		.byte	0xf
 4885 0707 0301     		.2byte	0x103
 4886 0709 0E010000 		.4byte	0x10e
 4887 070d 00       		.byte	0
 4888 070e 09       		.uleb128 0x9
 4889 070f 46523200 		.ascii	"FR2\000"
 4890 0713 0F       		.byte	0xf
 4891 0714 0401     		.2byte	0x104
 4892 0716 0E010000 		.4byte	0x10e
 4893 071a 04       		.byte	0x4
 4894 071b 00       		.byte	0
 4895 071c 1A       		.uleb128 0x1a
 4896 071d 2D130000 		.4byte	.LASF123
 4897 0721 0F       		.byte	0xf
 4898 0722 0501     		.2byte	0x105
 4899 0724 F8060000 		.4byte	0x6f8
 4900 0728 1B       		.uleb128 0x1b
 4901 0729 2003     		.2byte	0x320
 4902 072b 0F       		.byte	0xf
 4903 072c 0B01     		.2byte	0x10b
 4904 072e 5E080000 		.4byte	0x85e
 4905 0732 09       		.uleb128 0x9
 4906 0733 4D435200 		.ascii	"MCR\000"
 4907 0737 0F       		.byte	0xf
 4908 0738 0D01     		.2byte	0x10d
 4909 073a 0E010000 		.4byte	0x10e
 4910 073e 00       		.byte	0
 4911 073f 09       		.uleb128 0x9
 4912 0740 4D535200 		.ascii	"MSR\000"
 4913 0744 0F       		.byte	0xf
 4914 0745 0E01     		.2byte	0x10e
ARM GAS  C:\Users\JEANCO~1\AppData\Local\Temp\ccxhVNGN.s 			page 88


 4915 0747 0E010000 		.4byte	0x10e
 4916 074b 04       		.byte	0x4
 4917 074c 09       		.uleb128 0x9
 4918 074d 54535200 		.ascii	"TSR\000"
 4919 0751 0F       		.byte	0xf
 4920 0752 0F01     		.2byte	0x10f
 4921 0754 0E010000 		.4byte	0x10e
 4922 0758 08       		.byte	0x8
 4923 0759 0A       		.uleb128 0xa
 4924 075a 01100000 		.4byte	.LASF124
 4925 075e 0F       		.byte	0xf
 4926 075f 1001     		.2byte	0x110
 4927 0761 0E010000 		.4byte	0x10e
 4928 0765 0C       		.byte	0xc
 4929 0766 0A       		.uleb128 0xa
 4930 0767 E5100000 		.4byte	.LASF125
 4931 076b 0F       		.byte	0xf
 4932 076c 1101     		.2byte	0x111
 4933 076e 0E010000 		.4byte	0x10e
 4934 0772 10       		.byte	0x10
 4935 0773 09       		.uleb128 0x9
 4936 0774 49455200 		.ascii	"IER\000"
 4937 0778 0F       		.byte	0xf
 4938 0779 1201     		.2byte	0x112
 4939 077b 0E010000 		.4byte	0x10e
 4940 077f 14       		.byte	0x14
 4941 0780 09       		.uleb128 0x9
 4942 0781 45535200 		.ascii	"ESR\000"
 4943 0785 0F       		.byte	0xf
 4944 0786 1301     		.2byte	0x113
 4945 0788 0E010000 		.4byte	0x10e
 4946 078c 18       		.byte	0x18
 4947 078d 09       		.uleb128 0x9
 4948 078e 42545200 		.ascii	"BTR\000"
 4949 0792 0F       		.byte	0xf
 4950 0793 1401     		.2byte	0x114
 4951 0795 0E010000 		.4byte	0x10e
 4952 0799 1C       		.byte	0x1c
 4953 079a 0A       		.uleb128 0xa
 4954 079b E6230000 		.4byte	.LASF126
 4955 079f 0F       		.byte	0xf
 4956 07a0 1501     		.2byte	0x115
 4957 07a2 5E080000 		.4byte	0x85e
 4958 07a6 20       		.byte	0x20
 4959 07a7 11       		.uleb128 0x11
 4960 07a8 61140000 		.4byte	.LASF127
 4961 07ac 0F       		.byte	0xf
 4962 07ad 1601     		.2byte	0x116
 4963 07af 6E080000 		.4byte	0x86e
 4964 07b3 8001     		.2byte	0x180
 4965 07b5 11       		.uleb128 0x11
 4966 07b6 BE280000 		.4byte	.LASF128
 4967 07ba 0F       		.byte	0xf
 4968 07bb 1701     		.2byte	0x117
 4969 07bd 7E080000 		.4byte	0x87e
 4970 07c1 B001     		.2byte	0x1b0
 4971 07c3 11       		.uleb128 0x11
ARM GAS  C:\Users\JEANCO~1\AppData\Local\Temp\ccxhVNGN.s 			page 89


 4972 07c4 F0230000 		.4byte	.LASF129
 4973 07c8 0F       		.byte	0xf
 4974 07c9 1801     		.2byte	0x118
 4975 07cb 8E080000 		.4byte	0x88e
 4976 07cf D001     		.2byte	0x1d0
 4977 07d1 12       		.uleb128 0x12
 4978 07d2 464D5200 		.ascii	"FMR\000"
 4979 07d6 0F       		.byte	0xf
 4980 07d7 1901     		.2byte	0x119
 4981 07d9 0E010000 		.4byte	0x10e
 4982 07dd 0002     		.2byte	0x200
 4983 07df 11       		.uleb128 0x11
 4984 07e0 720C0000 		.4byte	.LASF130
 4985 07e4 0F       		.byte	0xf
 4986 07e5 1A01     		.2byte	0x11a
 4987 07e7 0E010000 		.4byte	0x10e
 4988 07eb 0402     		.2byte	0x204
 4989 07ed 11       		.uleb128 0x11
 4990 07ee FA230000 		.4byte	.LASF131
 4991 07f2 0F       		.byte	0xf
 4992 07f3 1B01     		.2byte	0x11b
 4993 07f5 03010000 		.4byte	0x103
 4994 07f9 0802     		.2byte	0x208
 4995 07fb 11       		.uleb128 0x11
 4996 07fc 2C260000 		.4byte	.LASF132
 4997 0800 0F       		.byte	0xf
 4998 0801 1C01     		.2byte	0x11c
 4999 0803 0E010000 		.4byte	0x10e
 5000 0807 0C02     		.2byte	0x20c
 5001 0809 11       		.uleb128 0x11
 5002 080a 04240000 		.4byte	.LASF133
 5003 080e 0F       		.byte	0xf
 5004 080f 1D01     		.2byte	0x11d
 5005 0811 03010000 		.4byte	0x103
 5006 0815 1002     		.2byte	0x210
 5007 0817 11       		.uleb128 0x11
 5008 0818 211D0000 		.4byte	.LASF134
 5009 081c 0F       		.byte	0xf
 5010 081d 1E01     		.2byte	0x11e
 5011 081f 0E010000 		.4byte	0x10e
 5012 0823 1402     		.2byte	0x214
 5013 0825 11       		.uleb128 0x11
 5014 0826 0E240000 		.4byte	.LASF135
 5015 082a 0F       		.byte	0xf
 5016 082b 1F01     		.2byte	0x11f
 5017 082d 03010000 		.4byte	0x103
 5018 0831 1802     		.2byte	0x218
 5019 0833 11       		.uleb128 0x11
 5020 0834 D4040000 		.4byte	.LASF136
 5021 0838 0F       		.byte	0xf
 5022 0839 2001     		.2byte	0x120
 5023 083b 0E010000 		.4byte	0x10e
 5024 083f 1C02     		.2byte	0x21c
 5025 0841 11       		.uleb128 0x11
 5026 0842 18240000 		.4byte	.LASF137
 5027 0846 0F       		.byte	0xf
 5028 0847 2101     		.2byte	0x121
ARM GAS  C:\Users\JEANCO~1\AppData\Local\Temp\ccxhVNGN.s 			page 90


 5029 0849 47050000 		.4byte	0x547
 5030 084d 2002     		.2byte	0x220
 5031 084f 11       		.uleb128 0x11
 5032 0850 E1060000 		.4byte	.LASF138
 5033 0854 0F       		.byte	0xf
 5034 0855 2201     		.2byte	0x122
 5035 0857 9E080000 		.4byte	0x89e
 5036 085b 4002     		.2byte	0x240
 5037 085d 00       		.byte	0
 5038 085e 13       		.uleb128 0x13
 5039 085f 03010000 		.4byte	0x103
 5040 0863 6E080000 		.4byte	0x86e
 5041 0867 14       		.uleb128 0x14
 5042 0868 45000000 		.4byte	0x45
 5043 086c 57       		.byte	0x57
 5044 086d 00       		.byte	0
 5045 086e 13       		.uleb128 0x13
 5046 086f A9060000 		.4byte	0x6a9
 5047 0873 7E080000 		.4byte	0x87e
 5048 0877 14       		.uleb128 0x14
 5049 0878 45000000 		.4byte	0x45
 5050 087c 02       		.byte	0x2
 5051 087d 00       		.byte	0
 5052 087e 13       		.uleb128 0x13
 5053 087f ED060000 		.4byte	0x6ed
 5054 0883 8E080000 		.4byte	0x88e
 5055 0887 14       		.uleb128 0x14
 5056 0888 45000000 		.4byte	0x45
 5057 088c 01       		.byte	0x1
 5058 088d 00       		.byte	0
 5059 088e 13       		.uleb128 0x13
 5060 088f 03010000 		.4byte	0x103
 5061 0893 9E080000 		.4byte	0x89e
 5062 0897 14       		.uleb128 0x14
 5063 0898 45000000 		.4byte	0x45
 5064 089c 0B       		.byte	0xb
 5065 089d 00       		.byte	0
 5066 089e 13       		.uleb128 0x13
 5067 089f 1C070000 		.4byte	0x71c
 5068 08a3 AE080000 		.4byte	0x8ae
 5069 08a7 14       		.uleb128 0x14
 5070 08a8 45000000 		.4byte	0x45
 5071 08ac 1B       		.byte	0x1b
 5072 08ad 00       		.byte	0
 5073 08ae 1A       		.uleb128 0x1a
 5074 08af A10E0000 		.4byte	.LASF139
 5075 08b3 0F       		.byte	0xf
 5076 08b4 2301     		.2byte	0x123
 5077 08b6 28070000 		.4byte	0x728
 5078 08ba 19       		.uleb128 0x19
 5079 08bb 38       		.byte	0x38
 5080 08bc 0F       		.byte	0xf
 5081 08bd 3601     		.2byte	0x136
 5082 08bf 78090000 		.4byte	0x978
 5083 08c3 09       		.uleb128 0x9
 5084 08c4 435200   		.ascii	"CR\000"
 5085 08c7 0F       		.byte	0xf
ARM GAS  C:\Users\JEANCO~1\AppData\Local\Temp\ccxhVNGN.s 			page 91


 5086 08c8 3801     		.2byte	0x138
 5087 08ca 0E010000 		.4byte	0x10e
 5088 08ce 00       		.byte	0
 5089 08cf 0A       		.uleb128 0xa
 5090 08d0 78190000 		.4byte	.LASF140
 5091 08d4 0F       		.byte	0xf
 5092 08d5 3901     		.2byte	0x139
 5093 08d7 0E010000 		.4byte	0x10e
 5094 08db 04       		.byte	0x4
 5095 08dc 0A       		.uleb128 0xa
 5096 08dd 34240000 		.4byte	.LASF141
 5097 08e1 0F       		.byte	0xf
 5098 08e2 3A01     		.2byte	0x13a
 5099 08e4 0E010000 		.4byte	0x10e
 5100 08e8 08       		.byte	0x8
 5101 08e9 0A       		.uleb128 0xa
 5102 08ea E21F0000 		.4byte	.LASF142
 5103 08ee 0F       		.byte	0xf
 5104 08ef 3B01     		.2byte	0x13b
 5105 08f1 0E010000 		.4byte	0x10e
 5106 08f5 0C       		.byte	0xc
 5107 08f6 0A       		.uleb128 0xa
 5108 08f7 910B0000 		.4byte	.LASF143
 5109 08fb 0F       		.byte	0xf
 5110 08fc 3C01     		.2byte	0x13c
 5111 08fe 0E010000 		.4byte	0x10e
 5112 0902 10       		.byte	0x10
 5113 0903 0A       		.uleb128 0xa
 5114 0904 3C240000 		.4byte	.LASF144
 5115 0908 0F       		.byte	0xf
 5116 0909 3D01     		.2byte	0x13d
 5117 090b 0E010000 		.4byte	0x10e
 5118 090f 14       		.byte	0x14
 5119 0910 0A       		.uleb128 0xa
 5120 0911 EA1F0000 		.4byte	.LASF145
 5121 0915 0F       		.byte	0xf
 5122 0916 3E01     		.2byte	0x13e
 5123 0918 0E010000 		.4byte	0x10e
 5124 091c 18       		.byte	0x18
 5125 091d 0A       		.uleb128 0xa
 5126 091e 980B0000 		.4byte	.LASF146
 5127 0922 0F       		.byte	0xf
 5128 0923 3F01     		.2byte	0x13f
 5129 0925 0E010000 		.4byte	0x10e
 5130 0929 1C       		.byte	0x1c
 5131 092a 0A       		.uleb128 0xa
 5132 092b 9C240000 		.4byte	.LASF147
 5133 092f 0F       		.byte	0xf
 5134 0930 4001     		.2byte	0x140
 5135 0932 0E010000 		.4byte	0x10e
 5136 0936 20       		.byte	0x20
 5137 0937 0A       		.uleb128 0xa
 5138 0938 23200000 		.4byte	.LASF148
 5139 093c 0F       		.byte	0xf
 5140 093d 4101     		.2byte	0x141
 5141 093f 0E010000 		.4byte	0x10e
 5142 0943 24       		.byte	0x24
ARM GAS  C:\Users\JEANCO~1\AppData\Local\Temp\ccxhVNGN.s 			page 92


 5143 0944 0A       		.uleb128 0xa
 5144 0945 E5280000 		.4byte	.LASF149
 5145 0949 0F       		.byte	0xf
 5146 094a 4201     		.2byte	0x142
 5147 094c 0E010000 		.4byte	0x10e
 5148 0950 28       		.byte	0x28
 5149 0951 0A       		.uleb128 0xa
 5150 0952 A5010000 		.4byte	.LASF150
 5151 0956 0F       		.byte	0xf
 5152 0957 4301     		.2byte	0x143
 5153 0959 0E010000 		.4byte	0x10e
 5154 095d 2C       		.byte	0x2c
 5155 095e 0A       		.uleb128 0xa
 5156 095f AA010000 		.4byte	.LASF151
 5157 0963 0F       		.byte	0xf
 5158 0964 4401     		.2byte	0x144
 5159 0966 0E010000 		.4byte	0x10e
 5160 096a 30       		.byte	0x30
 5161 096b 09       		.uleb128 0x9
 5162 096c 535200   		.ascii	"SR\000"
 5163 096f 0F       		.byte	0xf
 5164 0970 4501     		.2byte	0x145
 5165 0972 0E010000 		.4byte	0x10e
 5166 0976 34       		.byte	0x34
 5167 0977 00       		.byte	0
 5168 0978 1A       		.uleb128 0x1a
 5169 0979 91210000 		.4byte	.LASF152
 5170 097d 0F       		.byte	0xf
 5171 097e 4601     		.2byte	0x146
 5172 0980 BA080000 		.4byte	0x8ba
 5173 0984 19       		.uleb128 0x19
 5174 0985 2C       		.byte	0x2c
 5175 0986 0F       		.byte	0xf
 5176 0987 5801     		.2byte	0x158
 5177 0989 1A0A0000 		.4byte	0xa1a
 5178 098d 09       		.uleb128 0x9
 5179 098e 435200   		.ascii	"CR\000"
 5180 0991 0F       		.byte	0xf
 5181 0992 5A01     		.2byte	0x15a
 5182 0994 0E010000 		.4byte	0x10e
 5183 0998 00       		.byte	0
 5184 0999 09       		.uleb128 0x9
 5185 099a 535200   		.ascii	"SR\000"
 5186 099d 0F       		.byte	0xf
 5187 099e 5B01     		.2byte	0x15b
 5188 09a0 0E010000 		.4byte	0x10e
 5189 09a4 04       		.byte	0x4
 5190 09a5 0A       		.uleb128 0xa
 5191 09a6 E50A0000 		.4byte	.LASF153
 5192 09aa 0F       		.byte	0xf
 5193 09ab 5C01     		.2byte	0x15c
 5194 09ad 0E010000 		.4byte	0x10e
 5195 09b1 08       		.byte	0x8
 5196 09b2 09       		.uleb128 0x9
 5197 09b3 49455200 		.ascii	"IER\000"
 5198 09b7 0F       		.byte	0xf
 5199 09b8 5D01     		.2byte	0x15d
ARM GAS  C:\Users\JEANCO~1\AppData\Local\Temp\ccxhVNGN.s 			page 93


 5200 09ba 0E010000 		.4byte	0x10e
 5201 09be 0C       		.byte	0xc
 5202 09bf 0A       		.uleb128 0xa
 5203 09c0 E1240000 		.4byte	.LASF154
 5204 09c4 0F       		.byte	0xf
 5205 09c5 5E01     		.2byte	0x15e
 5206 09c7 0E010000 		.4byte	0x10e
 5207 09cb 10       		.byte	0x10
 5208 09cc 09       		.uleb128 0x9
 5209 09cd 49435200 		.ascii	"ICR\000"
 5210 09d1 0F       		.byte	0xf
 5211 09d2 5F01     		.2byte	0x15f
 5212 09d4 0E010000 		.4byte	0x10e
 5213 09d8 14       		.byte	0x14
 5214 09d9 0A       		.uleb128 0xa
 5215 09da 2C1E0000 		.4byte	.LASF155
 5216 09de 0F       		.byte	0xf
 5217 09df 6001     		.2byte	0x160
 5218 09e1 0E010000 		.4byte	0x10e
 5219 09e5 18       		.byte	0x18
 5220 09e6 0A       		.uleb128 0xa
 5221 09e7 7B2B0000 		.4byte	.LASF156
 5222 09eb 0F       		.byte	0xf
 5223 09ec 6101     		.2byte	0x161
 5224 09ee 0E010000 		.4byte	0x10e
 5225 09f2 1C       		.byte	0x1c
 5226 09f3 0A       		.uleb128 0xa
 5227 09f4 1D150000 		.4byte	.LASF157
 5228 09f8 0F       		.byte	0xf
 5229 09f9 6201     		.2byte	0x162
 5230 09fb 0E010000 		.4byte	0x10e
 5231 09ff 20       		.byte	0x20
 5232 0a00 0A       		.uleb128 0xa
 5233 0a01 B31E0000 		.4byte	.LASF158
 5234 0a05 0F       		.byte	0xf
 5235 0a06 6301     		.2byte	0x163
 5236 0a08 0E010000 		.4byte	0x10e
 5237 0a0c 24       		.byte	0x24
 5238 0a0d 09       		.uleb128 0x9
 5239 0a0e 445200   		.ascii	"DR\000"
 5240 0a11 0F       		.byte	0xf
 5241 0a12 6401     		.2byte	0x164
 5242 0a14 0E010000 		.4byte	0x10e
 5243 0a18 28       		.byte	0x28
 5244 0a19 00       		.byte	0
 5245 0a1a 1A       		.uleb128 0x1a
 5246 0a1b D9040000 		.4byte	.LASF159
 5247 0a1f 0F       		.byte	0xf
 5248 0a20 6501     		.2byte	0x165
 5249 0a22 84090000 		.4byte	0x984
 5250 0a26 19       		.uleb128 0x19
 5251 0a27 18       		.byte	0x18
 5252 0a28 0F       		.byte	0xf
 5253 0a29 6B01     		.2byte	0x16b
 5254 0a2b 7D0A0000 		.4byte	0xa7d
 5255 0a2f 09       		.uleb128 0x9
 5256 0a30 435200   		.ascii	"CR\000"
ARM GAS  C:\Users\JEANCO~1\AppData\Local\Temp\ccxhVNGN.s 			page 94


 5257 0a33 0F       		.byte	0xf
 5258 0a34 6D01     		.2byte	0x16d
 5259 0a36 0E010000 		.4byte	0x10e
 5260 0a3a 00       		.byte	0
 5261 0a3b 0A       		.uleb128 0xa
 5262 0a3c 54250000 		.4byte	.LASF160
 5263 0a40 0F       		.byte	0xf
 5264 0a41 6E01     		.2byte	0x16e
 5265 0a43 0E010000 		.4byte	0x10e
 5266 0a47 04       		.byte	0x4
 5267 0a48 09       		.uleb128 0x9
 5268 0a49 50415200 		.ascii	"PAR\000"
 5269 0a4d 0F       		.byte	0xf
 5270 0a4e 6F01     		.2byte	0x16f
 5271 0a50 0E010000 		.4byte	0x10e
 5272 0a54 08       		.byte	0x8
 5273 0a55 0A       		.uleb128 0xa
 5274 0a56 A6040000 		.4byte	.LASF161
 5275 0a5a 0F       		.byte	0xf
 5276 0a5b 7001     		.2byte	0x170
 5277 0a5d 0E010000 		.4byte	0x10e
 5278 0a61 0C       		.byte	0xc
 5279 0a62 0A       		.uleb128 0xa
 5280 0a63 40090000 		.4byte	.LASF162
 5281 0a67 0F       		.byte	0xf
 5282 0a68 7101     		.2byte	0x171
 5283 0a6a 0E010000 		.4byte	0x10e
 5284 0a6e 10       		.byte	0x10
 5285 0a6f 09       		.uleb128 0x9
 5286 0a70 46435200 		.ascii	"FCR\000"
 5287 0a74 0F       		.byte	0xf
 5288 0a75 7201     		.2byte	0x172
 5289 0a77 0E010000 		.4byte	0x10e
 5290 0a7b 14       		.byte	0x14
 5291 0a7c 00       		.byte	0
 5292 0a7d 1A       		.uleb128 0x1a
 5293 0a7e 4A090000 		.4byte	.LASF163
 5294 0a82 0F       		.byte	0xf
 5295 0a83 7301     		.2byte	0x173
 5296 0a85 260A0000 		.4byte	0xa26
 5297 0a89 13       		.uleb128 0x13
 5298 0a8a 0E010000 		.4byte	0x10e
 5299 0a8e 990A0000 		.4byte	0xa99
 5300 0a92 14       		.uleb128 0x14
 5301 0a93 45000000 		.4byte	0x45
 5302 0a97 01       		.byte	0x1
 5303 0a98 00       		.byte	0
 5304 0a99 06       		.uleb128 0x6
 5305 0a9a 890A0000 		.4byte	0xa89
 5306 0a9e 13       		.uleb128 0x13
 5307 0a9f 0E010000 		.4byte	0x10e
 5308 0aa3 AE0A0000 		.4byte	0xaae
 5309 0aa7 14       		.uleb128 0x14
 5310 0aa8 45000000 		.4byte	0x45
 5311 0aac 03       		.byte	0x3
 5312 0aad 00       		.byte	0
 5313 0aae 06       		.uleb128 0x6
ARM GAS  C:\Users\JEANCO~1\AppData\Local\Temp\ccxhVNGN.s 			page 95


 5314 0aaf 9E0A0000 		.4byte	0xa9e
 5315 0ab3 19       		.uleb128 0x19
 5316 0ab4 28       		.byte	0x28
 5317 0ab5 0F       		.byte	0xf
 5318 0ab6 3F02     		.2byte	0x23f
 5319 0ab8 3E0B0000 		.4byte	0xb3e
 5320 0abc 09       		.uleb128 0x9
 5321 0abd 43523100 		.ascii	"CR1\000"
 5322 0ac1 0F       		.byte	0xf
 5323 0ac2 4102     		.2byte	0x241
 5324 0ac4 0E010000 		.4byte	0x10e
 5325 0ac8 00       		.byte	0
 5326 0ac9 09       		.uleb128 0x9
 5327 0aca 43523200 		.ascii	"CR2\000"
 5328 0ace 0F       		.byte	0xf
 5329 0acf 4202     		.2byte	0x242
 5330 0ad1 0E010000 		.4byte	0x10e
 5331 0ad5 04       		.byte	0x4
 5332 0ad6 0A       		.uleb128 0xa
 5333 0ad7 902C0000 		.4byte	.LASF164
 5334 0adb 0F       		.byte	0xf
 5335 0adc 4302     		.2byte	0x243
 5336 0ade 0E010000 		.4byte	0x10e
 5337 0ae2 08       		.byte	0x8
 5338 0ae3 0A       		.uleb128 0xa
 5339 0ae4 952C0000 		.4byte	.LASF165
 5340 0ae8 0F       		.byte	0xf
 5341 0ae9 4402     		.2byte	0x244
 5342 0aeb 0E010000 		.4byte	0x10e
 5343 0aef 0C       		.byte	0xc
 5344 0af0 09       		.uleb128 0x9
 5345 0af1 445200   		.ascii	"DR\000"
 5346 0af4 0F       		.byte	0xf
 5347 0af5 4502     		.2byte	0x245
 5348 0af7 0E010000 		.4byte	0x10e
 5349 0afb 10       		.byte	0x10
 5350 0afc 09       		.uleb128 0x9
 5351 0afd 53523100 		.ascii	"SR1\000"
 5352 0b01 0F       		.byte	0xf
 5353 0b02 4602     		.2byte	0x246
 5354 0b04 0E010000 		.4byte	0x10e
 5355 0b08 14       		.byte	0x14
 5356 0b09 09       		.uleb128 0x9
 5357 0b0a 53523200 		.ascii	"SR2\000"
 5358 0b0e 0F       		.byte	0xf
 5359 0b0f 4702     		.2byte	0x247
 5360 0b11 0E010000 		.4byte	0x10e
 5361 0b15 18       		.byte	0x18
 5362 0b16 09       		.uleb128 0x9
 5363 0b17 43435200 		.ascii	"CCR\000"
 5364 0b1b 0F       		.byte	0xf
 5365 0b1c 4802     		.2byte	0x248
 5366 0b1e 0E010000 		.4byte	0x10e
 5367 0b22 1C       		.byte	0x1c
 5368 0b23 0A       		.uleb128 0xa
 5369 0b24 F3050000 		.4byte	.LASF166
 5370 0b28 0F       		.byte	0xf
ARM GAS  C:\Users\JEANCO~1\AppData\Local\Temp\ccxhVNGN.s 			page 96


 5371 0b29 4902     		.2byte	0x249
 5372 0b2b 0E010000 		.4byte	0x10e
 5373 0b2f 20       		.byte	0x20
 5374 0b30 0A       		.uleb128 0xa
 5375 0b31 B92A0000 		.4byte	.LASF167
 5376 0b35 0F       		.byte	0xf
 5377 0b36 4A02     		.2byte	0x24a
 5378 0b38 0E010000 		.4byte	0x10e
 5379 0b3c 24       		.byte	0x24
 5380 0b3d 00       		.byte	0
 5381 0b3e 1A       		.uleb128 0x1a
 5382 0b3f 94190000 		.4byte	.LASF168
 5383 0b43 0F       		.byte	0xf
 5384 0b44 4B02     		.2byte	0x24b
 5385 0b46 B30A0000 		.4byte	0xab3
 5386 0b4a 19       		.uleb128 0x19
 5387 0b4b 84       		.byte	0x84
 5388 0b4c 0F       		.byte	0xf
 5389 0b4d BF02     		.2byte	0x2bf
 5390 0b4f 580C0000 		.4byte	0xc58
 5391 0b53 0A       		.uleb128 0xa
 5392 0b54 DC190000 		.4byte	.LASF169
 5393 0b58 0F       		.byte	0xf
 5394 0b59 C102     		.2byte	0x2c1
 5395 0b5b 0E010000 		.4byte	0x10e
 5396 0b5f 00       		.byte	0
 5397 0b60 0A       		.uleb128 0xa
 5398 0b61 A1260000 		.4byte	.LASF170
 5399 0b65 0F       		.byte	0xf
 5400 0b66 C202     		.2byte	0x2c2
 5401 0b68 0E010000 		.4byte	0x10e
 5402 0b6c 04       		.byte	0x4
 5403 0b6d 09       		.uleb128 0x9
 5404 0b6e 41524700 		.ascii	"ARG\000"
 5405 0b72 0F       		.byte	0xf
 5406 0b73 C302     		.2byte	0x2c3
 5407 0b75 0E010000 		.4byte	0x10e
 5408 0b79 08       		.byte	0x8
 5409 0b7a 09       		.uleb128 0x9
 5410 0b7b 434D4400 		.ascii	"CMD\000"
 5411 0b7f 0F       		.byte	0xf
 5412 0b80 C402     		.2byte	0x2c4
 5413 0b82 0E010000 		.4byte	0x10e
 5414 0b86 0C       		.byte	0xc
 5415 0b87 0A       		.uleb128 0xa
 5416 0b88 E41D0000 		.4byte	.LASF171
 5417 0b8c 0F       		.byte	0xf
 5418 0b8d C502     		.2byte	0x2c5
 5419 0b8f 13010000 		.4byte	0x113
 5420 0b93 10       		.byte	0x10
 5421 0b94 0A       		.uleb128 0xa
 5422 0b95 10070000 		.4byte	.LASF172
 5423 0b99 0F       		.byte	0xf
 5424 0b9a C602     		.2byte	0x2c6
 5425 0b9c 13010000 		.4byte	0x113
 5426 0ba0 14       		.byte	0x14
 5427 0ba1 0A       		.uleb128 0xa
ARM GAS  C:\Users\JEANCO~1\AppData\Local\Temp\ccxhVNGN.s 			page 97


 5428 0ba2 16070000 		.4byte	.LASF173
 5429 0ba6 0F       		.byte	0xf
 5430 0ba7 C702     		.2byte	0x2c7
 5431 0ba9 13010000 		.4byte	0x113
 5432 0bad 18       		.byte	0x18
 5433 0bae 0A       		.uleb128 0xa
 5434 0baf 1C070000 		.4byte	.LASF174
 5435 0bb3 0F       		.byte	0xf
 5436 0bb4 C802     		.2byte	0x2c8
 5437 0bb6 13010000 		.4byte	0x113
 5438 0bba 1C       		.byte	0x1c
 5439 0bbb 0A       		.uleb128 0xa
 5440 0bbc 22070000 		.4byte	.LASF175
 5441 0bc0 0F       		.byte	0xf
 5442 0bc1 C902     		.2byte	0x2c9
 5443 0bc3 13010000 		.4byte	0x113
 5444 0bc7 20       		.byte	0x20
 5445 0bc8 0A       		.uleb128 0xa
 5446 0bc9 D4160000 		.4byte	.LASF176
 5447 0bcd 0F       		.byte	0xf
 5448 0bce CA02     		.2byte	0x2ca
 5449 0bd0 0E010000 		.4byte	0x10e
 5450 0bd4 24       		.byte	0x24
 5451 0bd5 0A       		.uleb128 0xa
 5452 0bd6 83180000 		.4byte	.LASF177
 5453 0bda 0F       		.byte	0xf
 5454 0bdb CB02     		.2byte	0x2cb
 5455 0bdd 0E010000 		.4byte	0x10e
 5456 0be1 28       		.byte	0x28
 5457 0be2 0A       		.uleb128 0xa
 5458 0be3 A52A0000 		.4byte	.LASF178
 5459 0be7 0F       		.byte	0xf
 5460 0be8 CC02     		.2byte	0x2cc
 5461 0bea 0E010000 		.4byte	0x10e
 5462 0bee 2C       		.byte	0x2c
 5463 0bef 0A       		.uleb128 0xa
 5464 0bf0 892C0000 		.4byte	.LASF179
 5465 0bf4 0F       		.byte	0xf
 5466 0bf5 CD02     		.2byte	0x2cd
 5467 0bf7 13010000 		.4byte	0x113
 5468 0bfb 30       		.byte	0x30
 5469 0bfc 09       		.uleb128 0x9
 5470 0bfd 53544100 		.ascii	"STA\000"
 5471 0c01 0F       		.byte	0xf
 5472 0c02 CE02     		.2byte	0x2ce
 5473 0c04 13010000 		.4byte	0x113
 5474 0c08 34       		.byte	0x34
 5475 0c09 09       		.uleb128 0x9
 5476 0c0a 49435200 		.ascii	"ICR\000"
 5477 0c0e 0F       		.byte	0xf
 5478 0c0f CF02     		.2byte	0x2cf
 5479 0c11 0E010000 		.4byte	0x10e
 5480 0c15 38       		.byte	0x38
 5481 0c16 0A       		.uleb128 0xa
 5482 0c17 08020000 		.4byte	.LASF180
 5483 0c1b 0F       		.byte	0xf
 5484 0c1c D002     		.2byte	0x2d0
ARM GAS  C:\Users\JEANCO~1\AppData\Local\Temp\ccxhVNGN.s 			page 98


 5485 0c1e 0E010000 		.4byte	0x10e
 5486 0c22 3C       		.byte	0x3c
 5487 0c23 0A       		.uleb128 0xa
 5488 0c24 E6230000 		.4byte	.LASF126
 5489 0c28 0F       		.byte	0xf
 5490 0c29 D102     		.2byte	0x2d1
 5491 0c2b 37050000 		.4byte	0x537
 5492 0c2f 40       		.byte	0x40
 5493 0c30 0A       		.uleb128 0xa
 5494 0c31 8B170000 		.4byte	.LASF181
 5495 0c35 0F       		.byte	0xf
 5496 0c36 D202     		.2byte	0x2d2
 5497 0c38 13010000 		.4byte	0x113
 5498 0c3c 48       		.byte	0x48
 5499 0c3d 0A       		.uleb128 0xa
 5500 0c3e F0230000 		.4byte	.LASF129
 5501 0c42 0F       		.byte	0xf
 5502 0c43 D302     		.2byte	0x2d3
 5503 0c45 580C0000 		.4byte	0xc58
 5504 0c49 4C       		.byte	0x4c
 5505 0c4a 0A       		.uleb128 0xa
 5506 0c4b BF0A0000 		.4byte	.LASF182
 5507 0c4f 0F       		.byte	0xf
 5508 0c50 D402     		.2byte	0x2d4
 5509 0c52 0E010000 		.4byte	0x10e
 5510 0c56 80       		.byte	0x80
 5511 0c57 00       		.byte	0
 5512 0c58 13       		.uleb128 0x13
 5513 0c59 03010000 		.4byte	0x103
 5514 0c5d 680C0000 		.4byte	0xc68
 5515 0c61 14       		.uleb128 0x14
 5516 0c62 45000000 		.4byte	0x45
 5517 0c66 0C       		.byte	0xc
 5518 0c67 00       		.byte	0
 5519 0c68 1A       		.uleb128 0x1a
 5520 0c69 1A250000 		.4byte	.LASF183
 5521 0c6d 0F       		.byte	0xf
 5522 0c6e D502     		.2byte	0x2d5
 5523 0c70 4A0B0000 		.4byte	0xb4a
 5524 0c74 19       		.uleb128 0x19
 5525 0c75 24       		.byte	0x24
 5526 0c76 0F       		.byte	0xf
 5527 0c77 DB02     		.2byte	0x2db
 5528 0c79 F10C0000 		.4byte	0xcf1
 5529 0c7d 09       		.uleb128 0x9
 5530 0c7e 43523100 		.ascii	"CR1\000"
 5531 0c82 0F       		.byte	0xf
 5532 0c83 DD02     		.2byte	0x2dd
 5533 0c85 0E010000 		.4byte	0x10e
 5534 0c89 00       		.byte	0
 5535 0c8a 09       		.uleb128 0x9
 5536 0c8b 43523200 		.ascii	"CR2\000"
 5537 0c8f 0F       		.byte	0xf
 5538 0c90 DE02     		.2byte	0x2de
 5539 0c92 0E010000 		.4byte	0x10e
 5540 0c96 04       		.byte	0x4
 5541 0c97 09       		.uleb128 0x9
ARM GAS  C:\Users\JEANCO~1\AppData\Local\Temp\ccxhVNGN.s 			page 99


 5542 0c98 535200   		.ascii	"SR\000"
 5543 0c9b 0F       		.byte	0xf
 5544 0c9c DF02     		.2byte	0x2df
 5545 0c9e 0E010000 		.4byte	0x10e
 5546 0ca2 08       		.byte	0x8
 5547 0ca3 09       		.uleb128 0x9
 5548 0ca4 445200   		.ascii	"DR\000"
 5549 0ca7 0F       		.byte	0xf
 5550 0ca8 E002     		.2byte	0x2e0
 5551 0caa 0E010000 		.4byte	0x10e
 5552 0cae 0C       		.byte	0xc
 5553 0caf 0A       		.uleb128 0xa
 5554 0cb0 AE080000 		.4byte	.LASF184
 5555 0cb4 0F       		.byte	0xf
 5556 0cb5 E102     		.2byte	0x2e1
 5557 0cb7 0E010000 		.4byte	0x10e
 5558 0cbb 10       		.byte	0x10
 5559 0cbc 0A       		.uleb128 0xa
 5560 0cbd FF0C0000 		.4byte	.LASF185
 5561 0cc1 0F       		.byte	0xf
 5562 0cc2 E202     		.2byte	0x2e2
 5563 0cc4 0E010000 		.4byte	0x10e
 5564 0cc8 14       		.byte	0x14
 5565 0cc9 0A       		.uleb128 0xa
 5566 0cca F20B0000 		.4byte	.LASF186
 5567 0cce 0F       		.byte	0xf
 5568 0ccf E302     		.2byte	0x2e3
 5569 0cd1 0E010000 		.4byte	0x10e
 5570 0cd5 18       		.byte	0x18
 5571 0cd6 0A       		.uleb128 0xa
 5572 0cd7 B1270000 		.4byte	.LASF187
 5573 0cdb 0F       		.byte	0xf
 5574 0cdc E402     		.2byte	0x2e4
 5575 0cde 0E010000 		.4byte	0x10e
 5576 0ce2 1C       		.byte	0x1c
 5577 0ce3 0A       		.uleb128 0xa
 5578 0ce4 62080000 		.4byte	.LASF188
 5579 0ce8 0F       		.byte	0xf
 5580 0ce9 E502     		.2byte	0x2e5
 5581 0ceb 0E010000 		.4byte	0x10e
 5582 0cef 20       		.byte	0x20
 5583 0cf0 00       		.byte	0
 5584 0cf1 1A       		.uleb128 0x1a
 5585 0cf2 8F250000 		.4byte	.LASF189
 5586 0cf6 0F       		.byte	0xf
 5587 0cf7 E602     		.2byte	0x2e6
 5588 0cf9 740C0000 		.4byte	0xc74
 5589 0cfd 19       		.uleb128 0x19
 5590 0cfe 1C       		.byte	0x1c
 5591 0cff 0F       		.byte	0xf
 5592 0d00 0903     		.2byte	0x309
 5593 0d02 600D0000 		.4byte	0xd60
 5594 0d06 09       		.uleb128 0x9
 5595 0d07 535200   		.ascii	"SR\000"
 5596 0d0a 0F       		.byte	0xf
 5597 0d0b 0B03     		.2byte	0x30b
 5598 0d0d 0E010000 		.4byte	0x10e
ARM GAS  C:\Users\JEANCO~1\AppData\Local\Temp\ccxhVNGN.s 			page 100


 5599 0d11 00       		.byte	0
 5600 0d12 09       		.uleb128 0x9
 5601 0d13 445200   		.ascii	"DR\000"
 5602 0d16 0F       		.byte	0xf
 5603 0d17 0C03     		.2byte	0x30c
 5604 0d19 0E010000 		.4byte	0x10e
 5605 0d1d 04       		.byte	0x4
 5606 0d1e 09       		.uleb128 0x9
 5607 0d1f 42525200 		.ascii	"BRR\000"
 5608 0d23 0F       		.byte	0xf
 5609 0d24 0D03     		.2byte	0x30d
 5610 0d26 0E010000 		.4byte	0x10e
 5611 0d2a 08       		.byte	0x8
 5612 0d2b 09       		.uleb128 0x9
 5613 0d2c 43523100 		.ascii	"CR1\000"
 5614 0d30 0F       		.byte	0xf
 5615 0d31 0E03     		.2byte	0x30e
 5616 0d33 0E010000 		.4byte	0x10e
 5617 0d37 0C       		.byte	0xc
 5618 0d38 09       		.uleb128 0x9
 5619 0d39 43523200 		.ascii	"CR2\000"
 5620 0d3d 0F       		.byte	0xf
 5621 0d3e 0F03     		.2byte	0x30f
 5622 0d40 0E010000 		.4byte	0x10e
 5623 0d44 10       		.byte	0x10
 5624 0d45 09       		.uleb128 0x9
 5625 0d46 43523300 		.ascii	"CR3\000"
 5626 0d4a 0F       		.byte	0xf
 5627 0d4b 1003     		.2byte	0x310
 5628 0d4d 0E010000 		.4byte	0x10e
 5629 0d51 14       		.byte	0x14
 5630 0d52 0A       		.uleb128 0xa
 5631 0d53 7C2A0000 		.4byte	.LASF190
 5632 0d57 0F       		.byte	0xf
 5633 0d58 1103     		.2byte	0x311
 5634 0d5a 0E010000 		.4byte	0x10e
 5635 0d5e 18       		.byte	0x18
 5636 0d5f 00       		.byte	0
 5637 0d60 1A       		.uleb128 0x1a
 5638 0d61 C02B0000 		.4byte	.LASF191
 5639 0d65 0F       		.byte	0xf
 5640 0d66 1203     		.2byte	0x312
 5641 0d68 FD0C0000 		.4byte	0xcfd
 5642 0d6c 13       		.uleb128 0x13
 5643 0d6d 0E010000 		.4byte	0x10e
 5644 0d71 7C0D0000 		.4byte	0xd7c
 5645 0d75 14       		.uleb128 0x14
 5646 0d76 45000000 		.4byte	0x45
 5647 0d7a 0E       		.byte	0xe
 5648 0d7b 00       		.byte	0
 5649 0d7c 06       		.uleb128 0x6
 5650 0d7d 6C0D0000 		.4byte	0xd6c
 5651 0d81 04       		.uleb128 0x4
 5652 0d82 F91C0000 		.4byte	.LASF192
 5653 0d86 10       		.byte	0x10
 5654 0d87 65       		.byte	0x65
 5655 0d88 C8030000 		.4byte	0x3c8
ARM GAS  C:\Users\JEANCO~1\AppData\Local\Temp\ccxhVNGN.s 			page 101


 5656 0d8c 04       		.uleb128 0x4
 5657 0d8d 410A0000 		.4byte	.LASF193
 5658 0d91 10       		.byte	0x10
 5659 0d92 6D       		.byte	0x6d
 5660 0d93 18010000 		.4byte	0x118
 5661 0d97 07       		.uleb128 0x7
 5662 0d98 541C0000 		.4byte	.LASF194
 5663 0d9c 04       		.byte	0x4
 5664 0d9d 10       		.byte	0x10
 5665 0d9e 89       		.byte	0x89
 5666 0d9f B00D0000 		.4byte	0xdb0
 5667 0da3 18       		.uleb128 0x18
 5668 0da4 72313300 		.ascii	"r13\000"
 5669 0da8 10       		.byte	0x10
 5670 0da9 8A       		.byte	0x8a
 5671 0daa F10E0000 		.4byte	0xef1
 5672 0dae 00       		.byte	0
 5673 0daf 00       		.byte	0
 5674 0db0 07       		.uleb128 0x7
 5675 0db1 09000000 		.4byte	.LASF195
 5676 0db5 64       		.byte	0x64
 5677 0db6 11       		.byte	0x11
 5678 0db7 F4       		.byte	0xf4
 5679 0db8 F10E0000 		.4byte	0xef1
 5680 0dbc 18       		.uleb128 0x18
 5681 0dbd 73313600 		.ascii	"s16\000"
 5682 0dc1 11       		.byte	0x11
 5683 0dc2 F6       		.byte	0xf6
 5684 0dc3 810D0000 		.4byte	0xd81
 5685 0dc7 00       		.byte	0
 5686 0dc8 18       		.uleb128 0x18
 5687 0dc9 73313700 		.ascii	"s17\000"
 5688 0dcd 11       		.byte	0x11
 5689 0dce F7       		.byte	0xf7
 5690 0dcf 810D0000 		.4byte	0xd81
 5691 0dd3 04       		.byte	0x4
 5692 0dd4 18       		.uleb128 0x18
 5693 0dd5 73313800 		.ascii	"s18\000"
 5694 0dd9 11       		.byte	0x11
 5695 0dda F8       		.byte	0xf8
 5696 0ddb 810D0000 		.4byte	0xd81
 5697 0ddf 08       		.byte	0x8
 5698 0de0 18       		.uleb128 0x18
 5699 0de1 73313900 		.ascii	"s19\000"
 5700 0de5 11       		.byte	0x11
 5701 0de6 F9       		.byte	0xf9
 5702 0de7 810D0000 		.4byte	0xd81
 5703 0deb 0C       		.byte	0xc
 5704 0dec 18       		.uleb128 0x18
 5705 0ded 73323000 		.ascii	"s20\000"
 5706 0df1 11       		.byte	0x11
 5707 0df2 FA       		.byte	0xfa
 5708 0df3 810D0000 		.4byte	0xd81
 5709 0df7 10       		.byte	0x10
 5710 0df8 18       		.uleb128 0x18
 5711 0df9 73323100 		.ascii	"s21\000"
 5712 0dfd 11       		.byte	0x11
ARM GAS  C:\Users\JEANCO~1\AppData\Local\Temp\ccxhVNGN.s 			page 102


 5713 0dfe FB       		.byte	0xfb
 5714 0dff 810D0000 		.4byte	0xd81
 5715 0e03 14       		.byte	0x14
 5716 0e04 18       		.uleb128 0x18
 5717 0e05 73323200 		.ascii	"s22\000"
 5718 0e09 11       		.byte	0x11
 5719 0e0a FC       		.byte	0xfc
 5720 0e0b 810D0000 		.4byte	0xd81
 5721 0e0f 18       		.byte	0x18
 5722 0e10 18       		.uleb128 0x18
 5723 0e11 73323300 		.ascii	"s23\000"
 5724 0e15 11       		.byte	0x11
 5725 0e16 FD       		.byte	0xfd
 5726 0e17 810D0000 		.4byte	0xd81
 5727 0e1b 1C       		.byte	0x1c
 5728 0e1c 18       		.uleb128 0x18
 5729 0e1d 73323400 		.ascii	"s24\000"
 5730 0e21 11       		.byte	0x11
 5731 0e22 FE       		.byte	0xfe
 5732 0e23 810D0000 		.4byte	0xd81
 5733 0e27 20       		.byte	0x20
 5734 0e28 18       		.uleb128 0x18
 5735 0e29 73323500 		.ascii	"s25\000"
 5736 0e2d 11       		.byte	0x11
 5737 0e2e FF       		.byte	0xff
 5738 0e2f 810D0000 		.4byte	0xd81
 5739 0e33 24       		.byte	0x24
 5740 0e34 09       		.uleb128 0x9
 5741 0e35 73323600 		.ascii	"s26\000"
 5742 0e39 11       		.byte	0x11
 5743 0e3a 0001     		.2byte	0x100
 5744 0e3c 810D0000 		.4byte	0xd81
 5745 0e40 28       		.byte	0x28
 5746 0e41 09       		.uleb128 0x9
 5747 0e42 73323700 		.ascii	"s27\000"
 5748 0e46 11       		.byte	0x11
 5749 0e47 0101     		.2byte	0x101
 5750 0e49 810D0000 		.4byte	0xd81
 5751 0e4d 2C       		.byte	0x2c
 5752 0e4e 09       		.uleb128 0x9
 5753 0e4f 73323800 		.ascii	"s28\000"
 5754 0e53 11       		.byte	0x11
 5755 0e54 0201     		.2byte	0x102
 5756 0e56 810D0000 		.4byte	0xd81
 5757 0e5a 30       		.byte	0x30
 5758 0e5b 09       		.uleb128 0x9
 5759 0e5c 73323900 		.ascii	"s29\000"
 5760 0e60 11       		.byte	0x11
 5761 0e61 0301     		.2byte	0x103
 5762 0e63 810D0000 		.4byte	0xd81
 5763 0e67 34       		.byte	0x34
 5764 0e68 09       		.uleb128 0x9
 5765 0e69 73333000 		.ascii	"s30\000"
 5766 0e6d 11       		.byte	0x11
 5767 0e6e 0401     		.2byte	0x104
 5768 0e70 810D0000 		.4byte	0xd81
 5769 0e74 38       		.byte	0x38
ARM GAS  C:\Users\JEANCO~1\AppData\Local\Temp\ccxhVNGN.s 			page 103


 5770 0e75 09       		.uleb128 0x9
 5771 0e76 73333100 		.ascii	"s31\000"
 5772 0e7a 11       		.byte	0x11
 5773 0e7b 0501     		.2byte	0x105
 5774 0e7d 810D0000 		.4byte	0xd81
 5775 0e81 3C       		.byte	0x3c
 5776 0e82 09       		.uleb128 0x9
 5777 0e83 723400   		.ascii	"r4\000"
 5778 0e86 11       		.byte	0x11
 5779 0e87 0701     		.2byte	0x107
 5780 0e89 810D0000 		.4byte	0xd81
 5781 0e8d 40       		.byte	0x40
 5782 0e8e 09       		.uleb128 0x9
 5783 0e8f 723500   		.ascii	"r5\000"
 5784 0e92 11       		.byte	0x11
 5785 0e93 0801     		.2byte	0x108
 5786 0e95 810D0000 		.4byte	0xd81
 5787 0e99 44       		.byte	0x44
 5788 0e9a 09       		.uleb128 0x9
 5789 0e9b 723600   		.ascii	"r6\000"
 5790 0e9e 11       		.byte	0x11
 5791 0e9f 0901     		.2byte	0x109
 5792 0ea1 810D0000 		.4byte	0xd81
 5793 0ea5 48       		.byte	0x48
 5794 0ea6 09       		.uleb128 0x9
 5795 0ea7 723700   		.ascii	"r7\000"
 5796 0eaa 11       		.byte	0x11
 5797 0eab 0A01     		.2byte	0x10a
 5798 0ead 810D0000 		.4byte	0xd81
 5799 0eb1 4C       		.byte	0x4c
 5800 0eb2 09       		.uleb128 0x9
 5801 0eb3 723800   		.ascii	"r8\000"
 5802 0eb6 11       		.byte	0x11
 5803 0eb7 0B01     		.2byte	0x10b
 5804 0eb9 810D0000 		.4byte	0xd81
 5805 0ebd 50       		.byte	0x50
 5806 0ebe 09       		.uleb128 0x9
 5807 0ebf 723900   		.ascii	"r9\000"
 5808 0ec2 11       		.byte	0x11
 5809 0ec3 0C01     		.2byte	0x10c
 5810 0ec5 810D0000 		.4byte	0xd81
 5811 0ec9 54       		.byte	0x54
 5812 0eca 09       		.uleb128 0x9
 5813 0ecb 72313000 		.ascii	"r10\000"
 5814 0ecf 11       		.byte	0x11
 5815 0ed0 0D01     		.2byte	0x10d
 5816 0ed2 810D0000 		.4byte	0xd81
 5817 0ed6 58       		.byte	0x58
 5818 0ed7 09       		.uleb128 0x9
 5819 0ed8 72313100 		.ascii	"r11\000"
 5820 0edc 11       		.byte	0x11
 5821 0edd 0E01     		.2byte	0x10e
 5822 0edf 810D0000 		.4byte	0xd81
 5823 0ee3 5C       		.byte	0x5c
 5824 0ee4 09       		.uleb128 0x9
 5825 0ee5 6C7200   		.ascii	"lr\000"
 5826 0ee8 11       		.byte	0x11
ARM GAS  C:\Users\JEANCO~1\AppData\Local\Temp\ccxhVNGN.s 			page 104


 5827 0ee9 0F01     		.2byte	0x10f
 5828 0eeb 810D0000 		.4byte	0xd81
 5829 0eef 60       		.byte	0x60
 5830 0ef0 00       		.byte	0
 5831 0ef1 0B       		.uleb128 0xb
 5832 0ef2 04       		.byte	0x4
 5833 0ef3 B00D0000 		.4byte	0xdb0
 5834 0ef7 17       		.uleb128 0x17
 5835 0ef8 10       		.byte	0x10
 5836 0ef9 12       		.byte	0x12
 5837 0efa 51       		.byte	0x51
 5838 0efb 300F0000 		.4byte	0xf30
 5839 0eff 08       		.uleb128 0x8
 5840 0f00 5A240000 		.4byte	.LASF196
 5841 0f04 12       		.byte	0x12
 5842 0f05 55       		.byte	0x55
 5843 0f06 A7010000 		.4byte	0x1a7
 5844 0f0a 00       		.byte	0
 5845 0f0b 08       		.uleb128 0x8
 5846 0f0c 8B1D0000 		.4byte	.LASF197
 5847 0f10 12       		.byte	0x12
 5848 0f11 59       		.byte	0x59
 5849 0f12 EB020000 		.4byte	0x2eb
 5850 0f16 04       		.byte	0x4
 5851 0f17 08       		.uleb128 0x8
 5852 0f18 A90D0000 		.4byte	.LASF198
 5853 0f1c 12       		.byte	0x12
 5854 0f1d 5D       		.byte	0x5d
 5855 0f1e C8030000 		.4byte	0x3c8
 5856 0f22 08       		.byte	0x8
 5857 0f23 08       		.uleb128 0x8
 5858 0f24 680B0000 		.4byte	.LASF199
 5859 0f28 12       		.byte	0x12
 5860 0f29 61       		.byte	0x61
 5861 0f2a CD000000 		.4byte	0xcd
 5862 0f2e 0C       		.byte	0xc
 5863 0f2f 00       		.byte	0
 5864 0f30 04       		.uleb128 0x4
 5865 0f31 B40E0000 		.4byte	.LASF200
 5866 0f35 12       		.byte	0x12
 5867 0f36 62       		.byte	0x62
 5868 0f37 F70E0000 		.4byte	0xef7
 5869 0f3b 1C       		.uleb128 0x1c
 5870 0f3c 0804     		.2byte	0x408
 5871 0f3e 12       		.byte	0x12
 5872 0f3f 67       		.byte	0x67
 5873 0f40 690F0000 		.4byte	0xf69
 5874 0f44 08       		.uleb128 0x8
 5875 0f45 960F0000 		.4byte	.LASF201
 5876 0f49 12       		.byte	0x12
 5877 0f4a 6B       		.byte	0x6b
 5878 0f4b 45000000 		.4byte	0x45
 5879 0f4f 00       		.byte	0
 5880 0f50 08       		.uleb128 0x8
 5881 0f51 BA170000 		.4byte	.LASF202
 5882 0f55 12       		.byte	0x12
 5883 0f56 6F       		.byte	0x6f
ARM GAS  C:\Users\JEANCO~1\AppData\Local\Temp\ccxhVNGN.s 			page 105


 5884 0f57 690F0000 		.4byte	0xf69
 5885 0f5b 04       		.byte	0x4
 5886 0f5c 08       		.uleb128 0x8
 5887 0f5d D30A0000 		.4byte	.LASF203
 5888 0f61 12       		.byte	0x12
 5889 0f62 73       		.byte	0x73
 5890 0f63 6F0F0000 		.4byte	0xf6f
 5891 0f67 08       		.byte	0x8
 5892 0f68 00       		.byte	0
 5893 0f69 0B       		.uleb128 0xb
 5894 0f6a 04       		.byte	0x4
 5895 0f6b 300F0000 		.4byte	0xf30
 5896 0f6f 13       		.uleb128 0x13
 5897 0f70 300F0000 		.4byte	0xf30
 5898 0f74 7F0F0000 		.4byte	0xf7f
 5899 0f78 14       		.uleb128 0x14
 5900 0f79 45000000 		.4byte	0x45
 5901 0f7d 3F       		.byte	0x3f
 5902 0f7e 00       		.byte	0
 5903 0f7f 04       		.uleb128 0x4
 5904 0f80 15000000 		.4byte	.LASF204
 5905 0f84 12       		.byte	0x12
 5906 0f85 74       		.byte	0x74
 5907 0f86 3B0F0000 		.4byte	0xf3b
 5908 0f8a 17       		.uleb128 0x17
 5909 0f8b 04       		.byte	0x4
 5910 0f8c 13       		.byte	0x13
 5911 0f8d 38       		.byte	0x38
 5912 0f8e 9F0F0000 		.4byte	0xf9f
 5913 0f92 08       		.uleb128 0x8
 5914 0f93 27250000 		.4byte	.LASF205
 5915 0f97 13       		.byte	0x13
 5916 0f98 3C       		.byte	0x3c
 5917 0f99 23010000 		.4byte	0x123
 5918 0f9d 00       		.byte	0
 5919 0f9e 00       		.byte	0
 5920 0f9f 04       		.uleb128 0x4
 5921 0fa0 622A0000 		.4byte	.LASF206
 5922 0fa4 13       		.byte	0x13
 5923 0fa5 3D       		.byte	0x3d
 5924 0fa6 8A0F0000 		.4byte	0xf8a
 5925 0faa 17       		.uleb128 0x17
 5926 0fab 18       		.byte	0x18
 5927 0fac 13       		.byte	0x13
 5928 0fad 48       		.byte	0x48
 5929 0fae ED0F0000 		.4byte	0xfed
 5930 0fb2 08       		.uleb128 0x8
 5931 0fb3 73080000 		.4byte	.LASF207
 5932 0fb7 13       		.byte	0x13
 5933 0fb8 49       		.byte	0x49
 5934 0fb9 23010000 		.4byte	0x123
 5935 0fbd 00       		.byte	0
 5936 0fbe 08       		.uleb128 0x8
 5937 0fbf 94010000 		.4byte	.LASF208
 5938 0fc3 13       		.byte	0x13
 5939 0fc4 4A       		.byte	0x4a
 5940 0fc5 23010000 		.4byte	0x123
ARM GAS  C:\Users\JEANCO~1\AppData\Local\Temp\ccxhVNGN.s 			page 106


 5941 0fc9 04       		.byte	0x4
 5942 0fca 08       		.uleb128 0x8
 5943 0fcb 821C0000 		.4byte	.LASF209
 5944 0fcf 13       		.byte	0x13
 5945 0fd0 4B       		.byte	0x4b
 5946 0fd1 23010000 		.4byte	0x123
 5947 0fd5 08       		.byte	0x8
 5948 0fd6 18       		.uleb128 0x18
 5949 0fd7 6E00     		.ascii	"n\000"
 5950 0fd9 13       		.byte	0x13
 5951 0fda 4C       		.byte	0x4c
 5952 0fdb 9C010000 		.4byte	0x19c
 5953 0fdf 0C       		.byte	0xc
 5954 0fe0 08       		.uleb128 0x8
 5955 0fe1 181C0000 		.4byte	.LASF210
 5956 0fe5 13       		.byte	0x13
 5957 0fe6 4D       		.byte	0x4d
 5958 0fe7 2E010000 		.4byte	0x12e
 5959 0feb 10       		.byte	0x10
 5960 0fec 00       		.byte	0
 5961 0fed 04       		.uleb128 0x4
 5962 0fee 3D280000 		.4byte	.LASF211
 5963 0ff2 13       		.byte	0x13
 5964 0ff3 4E       		.byte	0x4e
 5965 0ff4 AA0F0000 		.4byte	0xfaa
 5966 0ff8 17       		.uleb128 0x17
 5967 0ff9 38       		.byte	0x38
 5968 0ffa 14       		.byte	0x14
 5969 0ffb 38       		.byte	0x38
 5970 0ffc 31100000 		.4byte	0x1031
 5971 1000 08       		.uleb128 0x8
 5972 1001 93070000 		.4byte	.LASF212
 5973 1005 14       		.byte	0x14
 5974 1006 39       		.byte	0x39
 5975 1007 9C010000 		.4byte	0x19c
 5976 100b 00       		.byte	0
 5977 100c 08       		.uleb128 0x8
 5978 100d 470C0000 		.4byte	.LASF213
 5979 1011 14       		.byte	0x14
 5980 1012 3A       		.byte	0x3a
 5981 1013 9C010000 		.4byte	0x19c
 5982 1017 04       		.byte	0x4
 5983 1018 08       		.uleb128 0x8
 5984 1019 94270000 		.4byte	.LASF214
 5985 101d 14       		.byte	0x14
 5986 101e 3B       		.byte	0x3b
 5987 101f ED0F0000 		.4byte	0xfed
 5988 1023 08       		.byte	0x8
 5989 1024 08       		.uleb128 0x8
 5990 1025 B6000000 		.4byte	.LASF215
 5991 1029 14       		.byte	0x14
 5992 102a 3D       		.byte	0x3d
 5993 102b ED0F0000 		.4byte	0xfed
 5994 102f 20       		.byte	0x20
 5995 1030 00       		.byte	0
 5996 1031 04       		.uleb128 0x4
 5997 1032 0C060000 		.4byte	.LASF216
ARM GAS  C:\Users\JEANCO~1\AppData\Local\Temp\ccxhVNGN.s 			page 107


 5998 1036 14       		.byte	0x14
 5999 1037 3F       		.byte	0x3f
 6000 1038 F80F0000 		.4byte	0xff8
 6001 103c 1D       		.uleb128 0x1d
 6002 103d 04       		.byte	0x4
 6003 103e 0C       		.byte	0xc
 6004 103f FA       		.byte	0xfa
 6005 1040 99100000 		.4byte	0x1099
 6006 1044 1E       		.uleb128 0x1e
 6007 1045 06130000 		.4byte	.LASF217
 6008 1049 0C       		.byte	0xc
 6009 104a 0101     		.2byte	0x101
 6010 104c 70010000 		.4byte	0x170
 6011 1050 1E       		.uleb128 0x1e
 6012 1051 37090000 		.4byte	.LASF218
 6013 1055 0C       		.byte	0xc
 6014 1056 0801     		.2byte	0x108
 6015 1058 70010000 		.4byte	0x170
 6016 105c 1E       		.uleb128 0x1e
 6017 105d 9D210000 		.4byte	.LASF219
 6018 1061 0C       		.byte	0xc
 6019 1062 0F01     		.2byte	0x10f
 6020 1064 C8030000 		.4byte	0x3c8
 6021 1068 1E       		.uleb128 0x1e
 6022 1069 461C0000 		.4byte	.LASF220
 6023 106d 0C       		.byte	0xc
 6024 106e 1601     		.2byte	0x116
 6025 1070 99100000 		.4byte	0x1099
 6026 1074 1E       		.uleb128 0x1e
 6027 1075 0C010000 		.4byte	.LASF221
 6028 1079 0C       		.byte	0xc
 6029 107a 1E01     		.2byte	0x11e
 6030 107c C4100000 		.4byte	0x10c4
 6031 1080 1E       		.uleb128 0x1e
 6032 1081 F4210000 		.4byte	.LASF222
 6033 1085 0C       		.byte	0xc
 6034 1086 2701     		.2byte	0x127
 6035 1088 07110000 		.4byte	0x1107
 6036 108c 1E       		.uleb128 0x1e
 6037 108d D5250000 		.4byte	.LASF223
 6038 1091 0C       		.byte	0xc
 6039 1092 2F01     		.2byte	0x12f
 6040 1094 7B010000 		.4byte	0x17b
 6041 1098 00       		.byte	0
 6042 1099 0B       		.uleb128 0xb
 6043 109a 04       		.byte	0x4
 6044 109b E0020000 		.4byte	0x2e0
 6045 109f 07       		.uleb128 0x7
 6046 10a0 3A1A0000 		.4byte	.LASF224
 6047 10a4 0C       		.byte	0xc
 6048 10a5 15       		.byte	0x15
 6049 10a6 34       		.byte	0x34
 6050 10a7 C4100000 		.4byte	0x10c4
 6051 10ab 08       		.uleb128 0x8
 6052 10ac 8C270000 		.4byte	.LASF225
 6053 10b0 15       		.byte	0x15
 6054 10b1 35       		.byte	0x35
ARM GAS  C:\Users\JEANCO~1\AppData\Local\Temp\ccxhVNGN.s 			page 108


 6055 10b2 15030000 		.4byte	0x315
 6056 10b6 00       		.byte	0
 6057 10b7 08       		.uleb128 0x8
 6058 10b8 EA0A0000 		.4byte	.LASF226
 6059 10bc 15       		.byte	0x15
 6060 10bd 37       		.byte	0x37
 6061 10be 91010000 		.4byte	0x191
 6062 10c2 08       		.byte	0x8
 6063 10c3 00       		.byte	0
 6064 10c4 0B       		.uleb128 0xb
 6065 10c5 04       		.byte	0x4
 6066 10c6 9F100000 		.4byte	0x109f
 6067 10ca 07       		.uleb128 0x7
 6068 10cb 140D0000 		.4byte	.LASF227
 6069 10cf 14       		.byte	0x14
 6070 10d0 16       		.byte	0x16
 6071 10d1 39       		.byte	0x39
 6072 10d2 07110000 		.4byte	0x1107
 6073 10d6 08       		.uleb128 0x8
 6074 10d7 AC1B0000 		.4byte	.LASF228
 6075 10db 16       		.byte	0x16
 6076 10dc 3A       		.byte	0x3a
 6077 10dd 15030000 		.4byte	0x315
 6078 10e1 00       		.byte	0
 6079 10e2 08       		.uleb128 0x8
 6080 10e3 FC180000 		.4byte	.LASF229
 6081 10e7 16       		.byte	0x16
 6082 10e8 3C       		.byte	0x3c
 6083 10e9 EB020000 		.4byte	0x2eb
 6084 10ed 08       		.byte	0x8
 6085 10ee 08       		.uleb128 0x8
 6086 10ef E3010000 		.4byte	.LASF230
 6087 10f3 16       		.byte	0x16
 6088 10f4 3E       		.byte	0x3e
 6089 10f5 8D120000 		.4byte	0x128d
 6090 10f9 0C       		.byte	0xc
 6091 10fa 08       		.uleb128 0x8
 6092 10fb BD090000 		.4byte	.LASF231
 6093 10ff 16       		.byte	0x16
 6094 1100 41       		.byte	0x41
 6095 1101 91010000 		.4byte	0x191
 6096 1105 10       		.byte	0x10
 6097 1106 00       		.byte	0
 6098 1107 0B       		.uleb128 0xb
 6099 1108 04       		.byte	0x4
 6100 1109 CA100000 		.4byte	0x10ca
 6101 110d 0B       		.uleb128 0xb
 6102 110e 04       		.byte	0x4
 6103 110f 1F110000 		.4byte	0x111f
 6104 1113 06       		.uleb128 0x6
 6105 1114 0D110000 		.4byte	0x110d
 6106 1118 02       		.uleb128 0x2
 6107 1119 01       		.byte	0x1
 6108 111a 08       		.byte	0x8
 6109 111b 0B1E0000 		.4byte	.LASF232
 6110 111f 05       		.uleb128 0x5
 6111 1120 18110000 		.4byte	0x1118
ARM GAS  C:\Users\JEANCO~1\AppData\Local\Temp\ccxhVNGN.s 			page 109


 6112 1124 0B       		.uleb128 0xb
 6113 1125 04       		.byte	0x4
 6114 1126 8C0D0000 		.4byte	0xd8c
 6115 112a 0B       		.uleb128 0xb
 6116 112b 04       		.byte	0x4
 6117 112c CA030000 		.4byte	0x3ca
 6118 1130 13       		.uleb128 0x13
 6119 1131 8C0D0000 		.4byte	0xd8c
 6120 1135 40110000 		.4byte	0x1140
 6121 1139 14       		.uleb128 0x14
 6122 113a 45000000 		.4byte	0x45
 6123 113e 30       		.byte	0x30
 6124 113f 00       		.byte	0
 6125 1140 1F       		.uleb128 0x1f
 6126 1141 636800   		.ascii	"ch\000"
 6127 1144 0C       		.byte	0xc
 6128 1145 0902     		.2byte	0x209
 6129 1147 BF040000 		.4byte	0x4bf
 6130 114b 17       		.uleb128 0x17
 6131 114c 16       		.byte	0x16
 6132 114d 05       		.byte	0x5
 6133 114e 34       		.byte	0x34
 6134 114f 2C120000 		.4byte	0x122c
 6135 1153 08       		.uleb128 0x8
 6136 1154 C5270000 		.4byte	.LASF233
 6137 1158 05       		.byte	0x5
 6138 1159 35       		.byte	0x35
 6139 115a 2C120000 		.4byte	0x122c
 6140 115e 00       		.byte	0
 6141 115f 08       		.uleb128 0x8
 6142 1160 8B2A0000 		.4byte	.LASF234
 6143 1164 05       		.byte	0x5
 6144 1165 36       		.byte	0x36
 6145 1166 CD000000 		.4byte	0xcd
 6146 116a 04       		.byte	0x4
 6147 116b 08       		.uleb128 0x8
 6148 116c 6B030000 		.4byte	.LASF235
 6149 1170 05       		.byte	0x5
 6150 1171 37       		.byte	0x37
 6151 1172 CD000000 		.4byte	0xcd
 6152 1176 05       		.byte	0x5
 6153 1177 08       		.uleb128 0x8
 6154 1178 61190000 		.4byte	.LASF236
 6155 117c 05       		.byte	0x5
 6156 117d 38       		.byte	0x38
 6157 117e E8000000 		.4byte	0xe8
 6158 1182 06       		.byte	0x6
 6159 1183 08       		.uleb128 0x8
 6160 1184 27000000 		.4byte	.LASF237
 6161 1188 05       		.byte	0x5
 6162 1189 39       		.byte	0x39
 6163 118a CD000000 		.4byte	0xcd
 6164 118e 08       		.byte	0x8
 6165 118f 08       		.uleb128 0x8
 6166 1190 62170000 		.4byte	.LASF238
 6167 1194 05       		.byte	0x5
 6168 1195 3A       		.byte	0x3a
ARM GAS  C:\Users\JEANCO~1\AppData\Local\Temp\ccxhVNGN.s 			page 110


 6169 1196 CD000000 		.4byte	0xcd
 6170 119a 09       		.byte	0x9
 6171 119b 08       		.uleb128 0x8
 6172 119c AB2A0000 		.4byte	.LASF239
 6173 11a0 05       		.byte	0x5
 6174 11a1 3B       		.byte	0x3b
 6175 11a2 CD000000 		.4byte	0xcd
 6176 11a6 0A       		.byte	0xa
 6177 11a7 08       		.uleb128 0x8
 6178 11a8 14280000 		.4byte	.LASF240
 6179 11ac 05       		.byte	0x5
 6180 11ad 3C       		.byte	0x3c
 6181 11ae CD000000 		.4byte	0xcd
 6182 11b2 0B       		.byte	0xb
 6183 11b3 08       		.uleb128 0x8
 6184 11b4 50060000 		.4byte	.LASF241
 6185 11b8 05       		.byte	0x5
 6186 11b9 3D       		.byte	0x3d
 6187 11ba CD000000 		.4byte	0xcd
 6188 11be 0C       		.byte	0xc
 6189 11bf 08       		.uleb128 0x8
 6190 11c0 710D0000 		.4byte	.LASF242
 6191 11c4 05       		.byte	0x5
 6192 11c5 3E       		.byte	0x3e
 6193 11c6 CD000000 		.4byte	0xcd
 6194 11ca 0D       		.byte	0xd
 6195 11cb 08       		.uleb128 0x8
 6196 11cc A1060000 		.4byte	.LASF243
 6197 11d0 05       		.byte	0x5
 6198 11d1 3F       		.byte	0x3f
 6199 11d2 CD000000 		.4byte	0xcd
 6200 11d6 0E       		.byte	0xe
 6201 11d7 08       		.uleb128 0x8
 6202 11d8 2D0F0000 		.4byte	.LASF244
 6203 11dc 05       		.byte	0x5
 6204 11dd 40       		.byte	0x40
 6205 11de CD000000 		.4byte	0xcd
 6206 11e2 0F       		.byte	0xf
 6207 11e3 08       		.uleb128 0x8
 6208 11e4 96040000 		.4byte	.LASF245
 6209 11e8 05       		.byte	0x5
 6210 11e9 41       		.byte	0x41
 6211 11ea CD000000 		.4byte	0xcd
 6212 11ee 10       		.byte	0x10
 6213 11ef 08       		.uleb128 0x8
 6214 11f0 CD090000 		.4byte	.LASF246
 6215 11f4 05       		.byte	0x5
 6216 11f5 43       		.byte	0x43
 6217 11f6 CD000000 		.4byte	0xcd
 6218 11fa 11       		.byte	0x11
 6219 11fb 08       		.uleb128 0x8
 6220 11fc 21030000 		.4byte	.LASF247
 6221 1200 05       		.byte	0x5
 6222 1201 44       		.byte	0x44
 6223 1202 CD000000 		.4byte	0xcd
 6224 1206 12       		.byte	0x12
 6225 1207 08       		.uleb128 0x8
ARM GAS  C:\Users\JEANCO~1\AppData\Local\Temp\ccxhVNGN.s 			page 111


 6226 1208 D8180000 		.4byte	.LASF248
 6227 120c 05       		.byte	0x5
 6228 120d 45       		.byte	0x45
 6229 120e CD000000 		.4byte	0xcd
 6230 1212 13       		.byte	0x13
 6231 1213 08       		.uleb128 0x8
 6232 1214 BB200000 		.4byte	.LASF249
 6233 1218 05       		.byte	0x5
 6234 1219 46       		.byte	0x46
 6235 121a CD000000 		.4byte	0xcd
 6236 121e 14       		.byte	0x14
 6237 121f 08       		.uleb128 0x8
 6238 1220 EA000000 		.4byte	.LASF250
 6239 1224 05       		.byte	0x5
 6240 1225 48       		.byte	0x48
 6241 1226 CD000000 		.4byte	0xcd
 6242 122a 15       		.byte	0x15
 6243 122b 00       		.byte	0
 6244 122c 13       		.uleb128 0x13
 6245 122d 18110000 		.4byte	0x1118
 6246 1231 3C120000 		.4byte	0x123c
 6247 1235 14       		.uleb128 0x14
 6248 1236 45000000 		.4byte	0x45
 6249 123a 03       		.byte	0x3
 6250 123b 00       		.byte	0
 6251 123c 04       		.uleb128 0x4
 6252 123d F5160000 		.4byte	.LASF251
 6253 1241 05       		.byte	0x5
 6254 1242 49       		.byte	0x49
 6255 1243 4B110000 		.4byte	0x114b
 6256 1247 05       		.uleb128 0x5
 6257 1248 3C120000 		.4byte	0x123c
 6258 124c 16       		.uleb128 0x16
 6259 124d 5F0C0000 		.4byte	.LASF252
 6260 1251 05       		.byte	0x5
 6261 1252 6E       		.byte	0x6e
 6262 1253 47120000 		.4byte	0x1247
 6263 1257 04       		.uleb128 0x4
 6264 1258 B2280000 		.4byte	.LASF253
 6265 125c 15       		.byte	0x15
 6266 125d 38       		.byte	0x38
 6267 125e 9F100000 		.4byte	0x109f
 6268 1262 17       		.uleb128 0x17
 6269 1263 0C       		.byte	0xc
 6270 1264 02       		.byte	0x2
 6271 1265 4B       		.byte	0x4b
 6272 1266 77120000 		.4byte	0x1277
 6273 126a 08       		.uleb128 0x8
 6274 126b 742B0000 		.4byte	.LASF254
 6275 126f 02       		.byte	0x2
 6276 1270 4C       		.byte	0x4c
 6277 1271 57120000 		.4byte	0x1257
 6278 1275 00       		.byte	0
 6279 1276 00       		.byte	0
 6280 1277 04       		.uleb128 0x4
 6281 1278 FC260000 		.4byte	.LASF255
 6282 127c 02       		.byte	0x2
ARM GAS  C:\Users\JEANCO~1\AppData\Local\Temp\ccxhVNGN.s 			page 112


 6283 127d 4D       		.byte	0x4d
 6284 127e 62120000 		.4byte	0x1262
 6285 1282 04       		.uleb128 0x4
 6286 1283 9C230000 		.4byte	.LASF256
 6287 1287 16       		.byte	0x16
 6288 1288 34       		.byte	0x34
 6289 1289 CA100000 		.4byte	0x10ca
 6290 128d 0B       		.uleb128 0xb
 6291 128e 04       		.byte	0x4
 6292 128f 82120000 		.4byte	0x1282
 6293 1293 04       		.uleb128 0x4
 6294 1294 BC0C0000 		.4byte	.LASF257
 6295 1298 17       		.byte	0x17
 6296 1299 34       		.byte	0x34
 6297 129a 9E120000 		.4byte	0x129e
 6298 129e 07       		.uleb128 0x7
 6299 129f 802B0000 		.4byte	.LASF258
 6300 12a3 14       		.byte	0x14
 6301 12a4 17       		.byte	0x17
 6302 12a5 39       		.byte	0x39
 6303 12a6 E7120000 		.4byte	0x12e7
 6304 12aa 08       		.uleb128 0x8
 6305 12ab 9F020000 		.4byte	.LASF259
 6306 12af 17       		.byte	0x17
 6307 12b0 3A       		.byte	0x3a
 6308 12b1 E7120000 		.4byte	0x12e7
 6309 12b5 00       		.byte	0
 6310 12b6 08       		.uleb128 0x8
 6311 12b7 A4240000 		.4byte	.LASF260
 6312 12bb 17       		.byte	0x17
 6313 12bc 3D       		.byte	0x3d
 6314 12bd EB020000 		.4byte	0x2eb
 6315 12c1 04       		.byte	0x4
 6316 12c2 08       		.uleb128 0x8
 6317 12c3 F0030000 		.4byte	.LASF261
 6318 12c7 17       		.byte	0x17
 6319 12c8 3F       		.byte	0x3f
 6320 12c9 7B010000 		.4byte	0x17b
 6321 12cd 08       		.byte	0x8
 6322 12ce 08       		.uleb128 0x8
 6323 12cf DC250000 		.4byte	.LASF262
 6324 12d3 17       		.byte	0x17
 6325 12d4 41       		.byte	0x41
 6326 12d5 86010000 		.4byte	0x186
 6327 12d9 0C       		.byte	0xc
 6328 12da 08       		.uleb128 0x8
 6329 12db 820F0000 		.4byte	.LASF263
 6330 12df 17       		.byte	0x17
 6331 12e0 43       		.byte	0x43
 6332 12e1 86010000 		.4byte	0x186
 6333 12e5 10       		.byte	0x10
 6334 12e6 00       		.byte	0
 6335 12e7 0B       		.uleb128 0xb
 6336 12e8 04       		.byte	0x4
 6337 12e9 93120000 		.4byte	0x1293
 6338 12ed 07       		.uleb128 0x7
 6339 12ee 0F260000 		.4byte	.LASF264
ARM GAS  C:\Users\JEANCO~1\AppData\Local\Temp\ccxhVNGN.s 			page 113


 6340 12f2 04       		.byte	0x4
 6341 12f3 17       		.byte	0x17
 6342 12f4 4A       		.byte	0x4a
 6343 12f5 06130000 		.4byte	0x1306
 6344 12f9 08       		.uleb128 0x8
 6345 12fa 59250000 		.4byte	.LASF265
 6346 12fe 17       		.byte	0x17
 6347 12ff 4B       		.byte	0x4b
 6348 1300 E7120000 		.4byte	0x12e7
 6349 1304 00       		.byte	0
 6350 1305 00       		.byte	0
 6351 1306 04       		.uleb128 0x4
 6352 1307 93170000 		.4byte	.LASF266
 6353 130b 17       		.byte	0x17
 6354 130c 4E       		.byte	0x4e
 6355 130d ED120000 		.4byte	0x12ed
 6356 1311 04       		.uleb128 0x4
 6357 1312 C20F0000 		.4byte	.LASF267
 6358 1316 18       		.byte	0x18
 6359 1317 3F       		.byte	0x3f
 6360 1318 1C130000 		.4byte	0x131c
 6361 131c 07       		.uleb128 0x7
 6362 131d 8B130000 		.4byte	.LASF268
 6363 1321 24       		.byte	0x24
 6364 1322 18       		.byte	0x18
 6365 1323 4D       		.byte	0x4d
 6366 1324 89130000 		.4byte	0x1389
 6367 1328 08       		.uleb128 0x8
 6368 1329 1B060000 		.4byte	.LASF269
 6369 132d 18       		.byte	0x18
 6370 132e 4E       		.byte	0x4e
 6371 132f 15030000 		.4byte	0x315
 6372 1333 00       		.byte	0
 6373 1334 08       		.uleb128 0x8
 6374 1335 41230000 		.4byte	.LASF270
 6375 1339 18       		.byte	0x18
 6376 133a 4F       		.byte	0x4f
 6377 133b 3A000000 		.4byte	0x3a
 6378 133f 08       		.byte	0x8
 6379 1340 08       		.uleb128 0x8
 6380 1341 86140000 		.4byte	.LASF271
 6381 1345 18       		.byte	0x18
 6382 1346 50       		.byte	0x50
 6383 1347 AB130000 		.4byte	0x13ab
 6384 134b 0C       		.byte	0xc
 6385 134c 08       		.uleb128 0x8
 6386 134d 3C050000 		.4byte	.LASF272
 6387 1351 18       		.byte	0x18
 6388 1352 51       		.byte	0x51
 6389 1353 AB130000 		.4byte	0x13ab
 6390 1357 10       		.byte	0x10
 6391 1358 08       		.uleb128 0x8
 6392 1359 A31D0000 		.4byte	.LASF273
 6393 135d 18       		.byte	0x18
 6394 135e 53       		.byte	0x53
 6395 135f AB130000 		.4byte	0x13ab
 6396 1363 14       		.byte	0x14
ARM GAS  C:\Users\JEANCO~1\AppData\Local\Temp\ccxhVNGN.s 			page 114


 6397 1364 08       		.uleb128 0x8
 6398 1365 4C1C0000 		.4byte	.LASF274
 6399 1369 18       		.byte	0x18
 6400 136a 54       		.byte	0x54
 6401 136b AB130000 		.4byte	0x13ab
 6402 136f 18       		.byte	0x18
 6403 1370 08       		.uleb128 0x8
 6404 1371 EB210000 		.4byte	.LASF275
 6405 1375 18       		.byte	0x18
 6406 1376 55       		.byte	0x55
 6407 1377 89130000 		.4byte	0x1389
 6408 137b 1C       		.byte	0x1c
 6409 137c 08       		.uleb128 0x8
 6410 137d C51E0000 		.4byte	.LASF276
 6411 1381 18       		.byte	0x18
 6412 1382 56       		.byte	0x56
 6413 1383 C8030000 		.4byte	0x3c8
 6414 1387 20       		.byte	0x20
 6415 1388 00       		.byte	0
 6416 1389 04       		.uleb128 0x4
 6417 138a F3040000 		.4byte	.LASF277
 6418 138e 18       		.byte	0x18
 6419 138f 42       		.byte	0x42
 6420 1390 94130000 		.4byte	0x1394
 6421 1394 0B       		.uleb128 0xb
 6422 1395 04       		.byte	0x4
 6423 1396 9A130000 		.4byte	0x139a
 6424 139a 0D       		.uleb128 0xd
 6425 139b A5130000 		.4byte	0x13a5
 6426 139f 0E       		.uleb128 0xe
 6427 13a0 A5130000 		.4byte	0x13a5
 6428 13a4 00       		.byte	0
 6429 13a5 0B       		.uleb128 0xb
 6430 13a6 04       		.byte	0x4
 6431 13a7 11130000 		.4byte	0x1311
 6432 13ab 0B       		.uleb128 0xb
 6433 13ac 04       		.byte	0x4
 6434 13ad CD000000 		.4byte	0xcd
 6435 13b1 04       		.uleb128 0x4
 6436 13b2 5B060000 		.4byte	.LASF278
 6437 13b6 18       		.byte	0x18
 6438 13b7 64       		.byte	0x64
 6439 13b8 11130000 		.4byte	0x1311
 6440 13bc 04       		.uleb128 0x4
 6441 13bd CE2B0000 		.4byte	.LASF279
 6442 13c1 18       		.byte	0x18
 6443 13c2 71       		.byte	0x71
 6444 13c3 11130000 		.4byte	0x1311
 6445 13c7 07       		.uleb128 0x7
 6446 13c8 B4290000 		.4byte	.LASF280
 6447 13cc 10       		.byte	0x10
 6448 13cd 19       		.byte	0x19
 6449 13ce 40       		.byte	0x40
 6450 13cf 04140000 		.4byte	0x1404
 6451 13d3 08       		.uleb128 0x8
 6452 13d4 5C1C0000 		.4byte	.LASF281
 6453 13d8 19       		.byte	0x19
ARM GAS  C:\Users\JEANCO~1\AppData\Local\Temp\ccxhVNGN.s 			page 115


 6454 13d9 41       		.byte	0x41
 6455 13da 28140000 		.4byte	0x1428
 6456 13de 00       		.byte	0
 6457 13df 08       		.uleb128 0x8
 6458 13e0 6D050000 		.4byte	.LASF282
 6459 13e4 19       		.byte	0x19
 6460 13e5 41       		.byte	0x41
 6461 13e6 47140000 		.4byte	0x1447
 6462 13ea 04       		.byte	0x4
 6463 13eb 18       		.uleb128 0x18
 6464 13ec 70757400 		.ascii	"put\000"
 6465 13f0 19       		.byte	0x19
 6466 13f1 41       		.byte	0x41
 6467 13f2 61140000 		.4byte	0x1461
 6468 13f6 08       		.byte	0x8
 6469 13f7 18       		.uleb128 0x18
 6470 13f8 67657400 		.ascii	"get\000"
 6471 13fc 19       		.byte	0x19
 6472 13fd 41       		.byte	0x41
 6473 13fe 76140000 		.4byte	0x1476
 6474 1402 0C       		.byte	0xc
 6475 1403 00       		.byte	0
 6476 1404 05       		.uleb128 0x5
 6477 1405 C7130000 		.4byte	0x13c7
 6478 1409 20       		.uleb128 0x20
 6479 140a 3A000000 		.4byte	0x3a
 6480 140e 22140000 		.4byte	0x1422
 6481 1412 0E       		.uleb128 0xe
 6482 1413 C8030000 		.4byte	0x3c8
 6483 1417 0E       		.uleb128 0xe
 6484 1418 22140000 		.4byte	0x1422
 6485 141c 0E       		.uleb128 0xe
 6486 141d 3A000000 		.4byte	0x3a
 6487 1421 00       		.byte	0
 6488 1422 0B       		.uleb128 0xb
 6489 1423 04       		.byte	0x4
 6490 1424 D8000000 		.4byte	0xd8
 6491 1428 0B       		.uleb128 0xb
 6492 1429 04       		.byte	0x4
 6493 142a 09140000 		.4byte	0x1409
 6494 142e 20       		.uleb128 0x20
 6495 142f 3A000000 		.4byte	0x3a
 6496 1433 47140000 		.4byte	0x1447
 6497 1437 0E       		.uleb128 0xe
 6498 1438 C8030000 		.4byte	0x3c8
 6499 143c 0E       		.uleb128 0xe
 6500 143d AB130000 		.4byte	0x13ab
 6501 1441 0E       		.uleb128 0xe
 6502 1442 3A000000 		.4byte	0x3a
 6503 1446 00       		.byte	0
 6504 1447 0B       		.uleb128 0xb
 6505 1448 04       		.byte	0x4
 6506 1449 2E140000 		.4byte	0x142e
 6507 144d 20       		.uleb128 0x20
 6508 144e 70010000 		.4byte	0x170
 6509 1452 61140000 		.4byte	0x1461
 6510 1456 0E       		.uleb128 0xe
ARM GAS  C:\Users\JEANCO~1\AppData\Local\Temp\ccxhVNGN.s 			page 116


 6511 1457 C8030000 		.4byte	0x3c8
 6512 145b 0E       		.uleb128 0xe
 6513 145c CD000000 		.4byte	0xcd
 6514 1460 00       		.byte	0
 6515 1461 0B       		.uleb128 0xb
 6516 1462 04       		.byte	0x4
 6517 1463 4D140000 		.4byte	0x144d
 6518 1467 20       		.uleb128 0x20
 6519 1468 70010000 		.4byte	0x170
 6520 146c 76140000 		.4byte	0x1476
 6521 1470 0E       		.uleb128 0xe
 6522 1471 C8030000 		.4byte	0x3c8
 6523 1475 00       		.byte	0
 6524 1476 0B       		.uleb128 0xb
 6525 1477 04       		.byte	0x4
 6526 1478 67140000 		.4byte	0x1467
 6527 147c 17       		.uleb128 0x17
 6528 147d 04       		.byte	0x4
 6529 147e 19       		.byte	0x19
 6530 147f 49       		.byte	0x49
 6531 1480 91140000 		.4byte	0x1491
 6532 1484 18       		.uleb128 0x18
 6533 1485 766D7400 		.ascii	"vmt\000"
 6534 1489 19       		.byte	0x19
 6535 148a 4B       		.byte	0x4b
 6536 148b 91140000 		.4byte	0x1491
 6537 148f 00       		.byte	0
 6538 1490 00       		.byte	0
 6539 1491 0B       		.uleb128 0xb
 6540 1492 04       		.byte	0x4
 6541 1493 04140000 		.4byte	0x1404
 6542 1497 04       		.uleb128 0x4
 6543 1498 43030000 		.4byte	.LASF283
 6544 149c 19       		.byte	0x19
 6545 149d 4D       		.byte	0x4d
 6546 149e 7C140000 		.4byte	0x147c
 6547 14a2 17       		.uleb128 0x17
 6548 14a3 0C       		.byte	0xc
 6549 14a4 1A       		.byte	0x1a
 6550 14a5 DA       		.byte	0xda
 6551 14a6 E7140000 		.4byte	0x14e7
 6552 14aa 08       		.uleb128 0x8
 6553 14ab 402B0000 		.4byte	.LASF284
 6554 14af 1A       		.byte	0x1a
 6555 14b0 DB       		.byte	0xdb
 6556 14b1 E7140000 		.4byte	0x14e7
 6557 14b5 00       		.byte	0
 6558 14b6 08       		.uleb128 0x8
 6559 14b7 E1120000 		.4byte	.LASF285
 6560 14bb 1A       		.byte	0x1a
 6561 14bc DC       		.byte	0xdc
 6562 14bd ED140000 		.4byte	0x14ed
 6563 14c1 04       		.byte	0x4
 6564 14c2 08       		.uleb128 0x8
 6565 14c3 1E050000 		.4byte	.LASF286
 6566 14c7 1A       		.byte	0x1a
 6567 14c8 DD       		.byte	0xdd
ARM GAS  C:\Users\JEANCO~1\AppData\Local\Temp\ccxhVNGN.s 			page 117


 6568 14c9 CD000000 		.4byte	0xcd
 6569 14cd 08       		.byte	0x8
 6570 14ce 08       		.uleb128 0x8
 6571 14cf 92230000 		.4byte	.LASF287
 6572 14d3 1A       		.byte	0x1a
 6573 14d4 DF       		.byte	0xdf
 6574 14d5 CD000000 		.4byte	0xcd
 6575 14d9 09       		.byte	0x9
 6576 14da 08       		.uleb128 0x8
 6577 14db 28040000 		.4byte	.LASF288
 6578 14df 1A       		.byte	0x1a
 6579 14e0 E0       		.byte	0xe0
 6580 14e1 CD000000 		.4byte	0xcd
 6581 14e5 0A       		.byte	0xa
 6582 14e6 00       		.byte	0
 6583 14e7 0B       		.uleb128 0xb
 6584 14e8 04       		.byte	0x4
 6585 14e9 7D0A0000 		.4byte	0xa7d
 6586 14ed 0B       		.uleb128 0xb
 6587 14ee 04       		.byte	0x4
 6588 14ef 0E010000 		.4byte	0x10e
 6589 14f3 04       		.uleb128 0x4
 6590 14f4 B9150000 		.4byte	.LASF289
 6591 14f8 1A       		.byte	0x1a
 6592 14f9 E1       		.byte	0xe1
 6593 14fa A2140000 		.4byte	0x14a2
 6594 14fe 05       		.uleb128 0x5
 6595 14ff F3140000 		.4byte	0x14f3
 6596 1503 13       		.uleb128 0x13
 6597 1504 FE140000 		.4byte	0x14fe
 6598 1508 13150000 		.4byte	0x1513
 6599 150c 14       		.uleb128 0x14
 6600 150d 45000000 		.4byte	0x45
 6601 1511 0F       		.byte	0xf
 6602 1512 00       		.byte	0
 6603 1513 05       		.uleb128 0x5
 6604 1514 03150000 		.4byte	0x1503
 6605 1518 15       		.uleb128 0x15
 6606 1519 CF1F0000 		.4byte	.LASF290
 6607 151d 1A       		.byte	0x1a
 6608 151e BB01     		.2byte	0x1bb
 6609 1520 13150000 		.4byte	0x1513
 6610 1524 20       		.uleb128 0x20
 6611 1525 70010000 		.4byte	0x170
 6612 1529 3D150000 		.4byte	0x153d
 6613 152d 0E       		.uleb128 0xe
 6614 152e C8030000 		.4byte	0x3c8
 6615 1532 0E       		.uleb128 0xe
 6616 1533 CD000000 		.4byte	0xcd
 6617 1537 0E       		.uleb128 0xe
 6618 1538 A7010000 		.4byte	0x1a7
 6619 153c 00       		.byte	0
 6620 153d 0B       		.uleb128 0xb
 6621 153e 04       		.byte	0x4
 6622 153f 24150000 		.4byte	0x1524
 6623 1543 20       		.uleb128 0x20
 6624 1544 70010000 		.4byte	0x170
ARM GAS  C:\Users\JEANCO~1\AppData\Local\Temp\ccxhVNGN.s 			page 118


 6625 1548 57150000 		.4byte	0x1557
 6626 154c 0E       		.uleb128 0xe
 6627 154d C8030000 		.4byte	0x3c8
 6628 1551 0E       		.uleb128 0xe
 6629 1552 A7010000 		.4byte	0x1a7
 6630 1556 00       		.byte	0
 6631 1557 0B       		.uleb128 0xb
 6632 1558 04       		.byte	0x4
 6633 1559 43150000 		.4byte	0x1543
 6634 155d 20       		.uleb128 0x20
 6635 155e 3A000000 		.4byte	0x3a
 6636 1562 7B150000 		.4byte	0x157b
 6637 1566 0E       		.uleb128 0xe
 6638 1567 C8030000 		.4byte	0x3c8
 6639 156b 0E       		.uleb128 0xe
 6640 156c 22140000 		.4byte	0x1422
 6641 1570 0E       		.uleb128 0xe
 6642 1571 3A000000 		.4byte	0x3a
 6643 1575 0E       		.uleb128 0xe
 6644 1576 A7010000 		.4byte	0x1a7
 6645 157a 00       		.byte	0
 6646 157b 0B       		.uleb128 0xb
 6647 157c 04       		.byte	0x4
 6648 157d 5D150000 		.4byte	0x155d
 6649 1581 20       		.uleb128 0x20
 6650 1582 3A000000 		.4byte	0x3a
 6651 1586 9F150000 		.4byte	0x159f
 6652 158a 0E       		.uleb128 0xe
 6653 158b C8030000 		.4byte	0x3c8
 6654 158f 0E       		.uleb128 0xe
 6655 1590 AB130000 		.4byte	0x13ab
 6656 1594 0E       		.uleb128 0xe
 6657 1595 3A000000 		.4byte	0x3a
 6658 1599 0E       		.uleb128 0xe
 6659 159a A7010000 		.4byte	0x1a7
 6660 159e 00       		.byte	0
 6661 159f 0B       		.uleb128 0xb
 6662 15a0 04       		.byte	0x4
 6663 15a1 81150000 		.4byte	0x1581
 6664 15a5 21       		.uleb128 0x21
 6665 15a6 07       		.byte	0x7
 6666 15a7 01       		.byte	0x1
 6667 15a8 6C000000 		.4byte	0x6c
 6668 15ac 1B       		.byte	0x1b
 6669 15ad 28       		.byte	0x28
 6670 15ae E9150000 		.4byte	0x15e9
 6671 15b2 22       		.uleb128 0x22
 6672 15b3 6F010000 		.4byte	.LASF291
 6673 15b7 00       		.byte	0
 6674 15b8 22       		.uleb128 0x22
 6675 15b9 7B100000 		.4byte	.LASF292
 6676 15bd 01       		.byte	0x1
 6677 15be 22       		.uleb128 0x22
 6678 15bf A70C0000 		.4byte	.LASF293
 6679 15c3 02       		.byte	0x2
 6680 15c4 22       		.uleb128 0x22
 6681 15c5 34210000 		.4byte	.LASF294
ARM GAS  C:\Users\JEANCO~1\AppData\Local\Temp\ccxhVNGN.s 			page 119


 6682 15c9 03       		.byte	0x3
 6683 15ca 22       		.uleb128 0x22
 6684 15cb 93290000 		.4byte	.LASF295
 6685 15cf 04       		.byte	0x4
 6686 15d0 22       		.uleb128 0x22
 6687 15d1 CA080000 		.4byte	.LASF296
 6688 15d5 05       		.byte	0x5
 6689 15d6 22       		.uleb128 0x22
 6690 15d7 69230000 		.4byte	.LASF297
 6691 15db 06       		.byte	0x6
 6692 15dc 22       		.uleb128 0x22
 6693 15dd B21C0000 		.4byte	.LASF298
 6694 15e1 07       		.byte	0x7
 6695 15e2 22       		.uleb128 0x22
 6696 15e3 4E290000 		.4byte	.LASF299
 6697 15e7 08       		.byte	0x8
 6698 15e8 00       		.byte	0
 6699 15e9 04       		.uleb128 0x4
 6700 15ea F81A0000 		.4byte	.LASF300
 6701 15ee 1B       		.byte	0x1b
 6702 15ef 32       		.byte	0x32
 6703 15f0 A5150000 		.4byte	0x15a5
 6704 15f4 17       		.uleb128 0x17
 6705 15f5 08       		.byte	0x8
 6706 15f6 1B       		.byte	0x1b
 6707 15f7 37       		.byte	0x37
 6708 15f8 15160000 		.4byte	0x1615
 6709 15fc 08       		.uleb128 0x8
 6710 15fd 31080000 		.4byte	.LASF301
 6711 1601 1B       		.byte	0x1b
 6712 1602 38       		.byte	0x38
 6713 1603 03010000 		.4byte	0x103
 6714 1607 00       		.byte	0
 6715 1608 08       		.uleb128 0x8
 6716 1609 87220000 		.4byte	.LASF302
 6717 160d 1B       		.byte	0x1b
 6718 160e 39       		.byte	0x39
 6719 160f 03010000 		.4byte	0x103
 6720 1613 04       		.byte	0x4
 6721 1614 00       		.byte	0
 6722 1615 04       		.uleb128 0x4
 6723 1616 F3240000 		.4byte	.LASF303
 6724 161a 1B       		.byte	0x1b
 6725 161b 3A       		.byte	0x3a
 6726 161c F4150000 		.4byte	0x15f4
 6727 1620 20       		.uleb128 0x20
 6728 1621 2F160000 		.4byte	0x162f
 6729 1625 2F160000 		.4byte	0x162f
 6730 1629 0E       		.uleb128 0xe
 6731 162a C8030000 		.4byte	0x3c8
 6732 162e 00       		.byte	0
 6733 162f 02       		.uleb128 0x2
 6734 1630 01       		.byte	0x1
 6735 1631 02       		.byte	0x2
 6736 1632 13010000 		.4byte	.LASF304
 6737 1636 0B       		.uleb128 0xb
 6738 1637 04       		.byte	0x4
ARM GAS  C:\Users\JEANCO~1\AppData\Local\Temp\ccxhVNGN.s 			page 120


 6739 1638 20160000 		.4byte	0x1620
 6740 163c 20       		.uleb128 0x20
 6741 163d 2F160000 		.4byte	0x162f
 6742 1641 5A160000 		.4byte	0x165a
 6743 1645 0E       		.uleb128 0xe
 6744 1646 C8030000 		.4byte	0x3c8
 6745 164a 0E       		.uleb128 0xe
 6746 164b 03010000 		.4byte	0x103
 6747 164f 0E       		.uleb128 0xe
 6748 1650 AB130000 		.4byte	0x13ab
 6749 1654 0E       		.uleb128 0xe
 6750 1655 03010000 		.4byte	0x103
 6751 1659 00       		.byte	0
 6752 165a 0B       		.uleb128 0xb
 6753 165b 04       		.byte	0x4
 6754 165c 3C160000 		.4byte	0x163c
 6755 1660 20       		.uleb128 0x20
 6756 1661 2F160000 		.4byte	0x162f
 6757 1665 7E160000 		.4byte	0x167e
 6758 1669 0E       		.uleb128 0xe
 6759 166a C8030000 		.4byte	0x3c8
 6760 166e 0E       		.uleb128 0xe
 6761 166f 03010000 		.4byte	0x103
 6762 1673 0E       		.uleb128 0xe
 6763 1674 22140000 		.4byte	0x1422
 6764 1678 0E       		.uleb128 0xe
 6765 1679 03010000 		.4byte	0x103
 6766 167d 00       		.byte	0
 6767 167e 0B       		.uleb128 0xb
 6768 167f 04       		.byte	0x4
 6769 1680 60160000 		.4byte	0x1660
 6770 1684 20       		.uleb128 0x20
 6771 1685 2F160000 		.4byte	0x162f
 6772 1689 98160000 		.4byte	0x1698
 6773 168d 0E       		.uleb128 0xe
 6774 168e C8030000 		.4byte	0x3c8
 6775 1692 0E       		.uleb128 0xe
 6776 1693 98160000 		.4byte	0x1698
 6777 1697 00       		.byte	0
 6778 1698 0B       		.uleb128 0xb
 6779 1699 04       		.byte	0x4
 6780 169a 15160000 		.4byte	0x1615
 6781 169e 0B       		.uleb128 0xb
 6782 169f 04       		.byte	0x4
 6783 16a0 84160000 		.4byte	0x1684
 6784 16a4 13       		.uleb128 0x13
 6785 16a5 03010000 		.4byte	0x103
 6786 16a9 B4160000 		.4byte	0x16b4
 6787 16ad 14       		.uleb128 0x14
 6788 16ae 45000000 		.4byte	0x45
 6789 16b2 03       		.byte	0x3
 6790 16b3 00       		.byte	0
 6791 16b4 17       		.uleb128 0x17
 6792 16b5 04       		.byte	0x4
 6793 16b6 1C       		.byte	0x1c
 6794 16b7 B3       		.byte	0xb3
 6795 16b8 D5160000 		.4byte	0x16d5
ARM GAS  C:\Users\JEANCO~1\AppData\Local\Temp\ccxhVNGN.s 			page 121


 6796 16bc 18       		.uleb128 0x18
 6797 16bd 73657400 		.ascii	"set\000"
 6798 16c1 1C       		.byte	0x1c
 6799 16c2 B4       		.byte	0xb4
 6800 16c3 E8000000 		.4byte	0xe8
 6801 16c7 00       		.byte	0
 6802 16c8 08       		.uleb128 0x8
 6803 16c9 800E0000 		.4byte	.LASF305
 6804 16cd 1C       		.byte	0x1c
 6805 16ce B5       		.byte	0xb5
 6806 16cf E8000000 		.4byte	0xe8
 6807 16d3 02       		.byte	0x2
 6808 16d4 00       		.byte	0
 6809 16d5 1D       		.uleb128 0x1d
 6810 16d6 04       		.byte	0x4
 6811 16d7 1C       		.byte	0x1c
 6812 16d8 B1       		.byte	0xb1
 6813 16d9 F0160000 		.4byte	0x16f0
 6814 16dd 23       		.uleb128 0x23
 6815 16de 5700     		.ascii	"W\000"
 6816 16e0 1C       		.byte	0x1c
 6817 16e1 B2       		.byte	0xb2
 6818 16e2 03010000 		.4byte	0x103
 6819 16e6 23       		.uleb128 0x23
 6820 16e7 4800     		.ascii	"H\000"
 6821 16e9 1C       		.byte	0x1c
 6822 16ea B6       		.byte	0xb6
 6823 16eb B4160000 		.4byte	0x16b4
 6824 16ef 00       		.byte	0
 6825 16f0 06       		.uleb128 0x6
 6826 16f1 D5160000 		.4byte	0x16d5
 6827 16f5 17       		.uleb128 0x17
 6828 16f6 2C       		.byte	0x2c
 6829 16f7 1C       		.byte	0x1c
 6830 16f8 A9       		.byte	0xa9
 6831 16f9 82170000 		.4byte	0x1782
 6832 16fd 08       		.uleb128 0x8
 6833 16fe B4230000 		.4byte	.LASF306
 6834 1702 1C       		.byte	0x1c
 6835 1703 AB       		.byte	0xab
 6836 1704 0E010000 		.4byte	0x10e
 6837 1708 00       		.byte	0
 6838 1709 08       		.uleb128 0x8
 6839 170a 99030000 		.4byte	.LASF307
 6840 170e 1C       		.byte	0x1c
 6841 170f AC       		.byte	0xac
 6842 1710 0E010000 		.4byte	0x10e
 6843 1714 04       		.byte	0x4
 6844 1715 08       		.uleb128 0x8
 6845 1716 3D100000 		.4byte	.LASF308
 6846 171a 1C       		.byte	0x1c
 6847 171b AD       		.byte	0xad
 6848 171c 0E010000 		.4byte	0x10e
 6849 1720 08       		.byte	0x8
 6850 1721 08       		.uleb128 0x8
 6851 1722 C8220000 		.4byte	.LASF309
 6852 1726 1C       		.byte	0x1c
ARM GAS  C:\Users\JEANCO~1\AppData\Local\Temp\ccxhVNGN.s 			page 122


 6853 1727 AE       		.byte	0xae
 6854 1728 0E010000 		.4byte	0x10e
 6855 172c 0C       		.byte	0xc
 6856 172d 18       		.uleb128 0x18
 6857 172e 49445200 		.ascii	"IDR\000"
 6858 1732 1C       		.byte	0x1c
 6859 1733 AF       		.byte	0xaf
 6860 1734 0E010000 		.4byte	0x10e
 6861 1738 10       		.byte	0x10
 6862 1739 18       		.uleb128 0x18
 6863 173a 4F445200 		.ascii	"ODR\000"
 6864 173e 1C       		.byte	0x1c
 6865 173f B0       		.byte	0xb0
 6866 1740 0E010000 		.4byte	0x10e
 6867 1744 14       		.byte	0x14
 6868 1745 08       		.uleb128 0x8
 6869 1746 B4150000 		.4byte	.LASF310
 6870 174a 1C       		.byte	0x1c
 6871 174b B7       		.byte	0xb7
 6872 174c F0160000 		.4byte	0x16f0
 6873 1750 18       		.byte	0x18
 6874 1751 08       		.uleb128 0x8
 6875 1752 871C0000 		.4byte	.LASF311
 6876 1756 1C       		.byte	0x1c
 6877 1757 B8       		.byte	0xb8
 6878 1758 0E010000 		.4byte	0x10e
 6879 175c 1C       		.byte	0x1c
 6880 175d 08       		.uleb128 0x8
 6881 175e AA200000 		.4byte	.LASF312
 6882 1762 1C       		.byte	0x1c
 6883 1763 B9       		.byte	0xb9
 6884 1764 0E010000 		.4byte	0x10e
 6885 1768 20       		.byte	0x20
 6886 1769 08       		.uleb128 0x8
 6887 176a 9E200000 		.4byte	.LASF313
 6888 176e 1C       		.byte	0x1c
 6889 176f BA       		.byte	0xba
 6890 1770 0E010000 		.4byte	0x10e
 6891 1774 24       		.byte	0x24
 6892 1775 18       		.uleb128 0x18
 6893 1776 42525200 		.ascii	"BRR\000"
 6894 177a 1C       		.byte	0x1c
 6895 177b BB       		.byte	0xbb
 6896 177c 0E010000 		.4byte	0x10e
 6897 1780 28       		.byte	0x28
 6898 1781 00       		.byte	0
 6899 1782 04       		.uleb128 0x4
 6900 1783 F9120000 		.4byte	.LASF314
 6901 1787 1C       		.byte	0x1c
 6902 1788 BC       		.byte	0xbc
 6903 1789 F5160000 		.4byte	0x16f5
 6904 178d 17       		.uleb128 0x17
 6905 178e 1C       		.byte	0x1c
 6906 178f 1C       		.byte	0x1c
 6907 1790 C1       		.byte	0xc1
 6908 1791 EA170000 		.4byte	0x17ea
 6909 1795 08       		.uleb128 0x8
ARM GAS  C:\Users\JEANCO~1\AppData\Local\Temp\ccxhVNGN.s 			page 123


 6910 1796 74270000 		.4byte	.LASF315
 6911 179a 1C       		.byte	0x1c
 6912 179b C3       		.byte	0xc3
 6913 179c 03010000 		.4byte	0x103
 6914 17a0 00       		.byte	0
 6915 17a1 08       		.uleb128 0x8
 6916 17a2 92030000 		.4byte	.LASF316
 6917 17a6 1C       		.byte	0x1c
 6918 17a7 C5       		.byte	0xc5
 6919 17a8 03010000 		.4byte	0x103
 6920 17ac 04       		.byte	0x4
 6921 17ad 08       		.uleb128 0x8
 6922 17ae 8F020000 		.4byte	.LASF317
 6923 17b2 1C       		.byte	0x1c
 6924 17b3 C7       		.byte	0xc7
 6925 17b4 03010000 		.4byte	0x103
 6926 17b8 08       		.byte	0x8
 6927 17b9 08       		.uleb128 0x8
 6928 17ba 6D260000 		.4byte	.LASF318
 6929 17be 1C       		.byte	0x1c
 6930 17bf C9       		.byte	0xc9
 6931 17c0 03010000 		.4byte	0x103
 6932 17c4 0C       		.byte	0xc
 6933 17c5 18       		.uleb128 0x18
 6934 17c6 6F647200 		.ascii	"odr\000"
 6935 17ca 1C       		.byte	0x1c
 6936 17cb CB       		.byte	0xcb
 6937 17cc 03010000 		.4byte	0x103
 6938 17d0 10       		.byte	0x10
 6939 17d1 08       		.uleb128 0x8
 6940 17d2 75230000 		.4byte	.LASF319
 6941 17d6 1C       		.byte	0x1c
 6942 17d7 CD       		.byte	0xcd
 6943 17d8 03010000 		.4byte	0x103
 6944 17dc 14       		.byte	0x14
 6945 17dd 08       		.uleb128 0x8
 6946 17de 9D000000 		.4byte	.LASF320
 6947 17e2 1C       		.byte	0x1c
 6948 17e3 CF       		.byte	0xcf
 6949 17e4 03010000 		.4byte	0x103
 6950 17e8 18       		.byte	0x18
 6951 17e9 00       		.byte	0
 6952 17ea 04       		.uleb128 0x4
 6953 17eb 8A1F0000 		.4byte	.LASF321
 6954 17ef 1C       		.byte	0x1c
 6955 17f0 D0       		.byte	0xd0
 6956 17f1 8D170000 		.4byte	0x178d
 6957 17f5 17       		.uleb128 0x17
 6958 17f6 FC       		.byte	0xfc
 6959 17f7 1C       		.byte	0x1c
 6960 17f8 D9       		.byte	0xd9
 6961 17f9 6A180000 		.4byte	0x186a
 6962 17fd 08       		.uleb128 0x8
 6963 17fe A9130000 		.4byte	.LASF322
 6964 1802 1C       		.byte	0x1c
 6965 1803 DC       		.byte	0xdc
 6966 1804 EA170000 		.4byte	0x17ea
ARM GAS  C:\Users\JEANCO~1\AppData\Local\Temp\ccxhVNGN.s 			page 124


 6967 1808 00       		.byte	0
 6968 1809 08       		.uleb128 0x8
 6969 180a 64030000 		.4byte	.LASF323
 6970 180e 1C       		.byte	0x1c
 6971 180f E0       		.byte	0xe0
 6972 1810 EA170000 		.4byte	0x17ea
 6973 1814 1C       		.byte	0x1c
 6974 1815 08       		.uleb128 0x8
 6975 1816 EA010000 		.4byte	.LASF324
 6976 181a 1C       		.byte	0x1c
 6977 181b E4       		.byte	0xe4
 6978 181c EA170000 		.4byte	0x17ea
 6979 1820 38       		.byte	0x38
 6980 1821 08       		.uleb128 0x8
 6981 1822 9E0F0000 		.4byte	.LASF325
 6982 1826 1C       		.byte	0x1c
 6983 1827 E8       		.byte	0xe8
 6984 1828 EA170000 		.4byte	0x17ea
 6985 182c 54       		.byte	0x54
 6986 182d 08       		.uleb128 0x8
 6987 182e 3B1E0000 		.4byte	.LASF326
 6988 1832 1C       		.byte	0x1c
 6989 1833 EC       		.byte	0xec
 6990 1834 EA170000 		.4byte	0x17ea
 6991 1838 70       		.byte	0x70
 6992 1839 08       		.uleb128 0x8
 6993 183a 4F2C0000 		.4byte	.LASF327
 6994 183e 1C       		.byte	0x1c
 6995 183f F0       		.byte	0xf0
 6996 1840 EA170000 		.4byte	0x17ea
 6997 1844 8C       		.byte	0x8c
 6998 1845 08       		.uleb128 0x8
 6999 1846 400D0000 		.4byte	.LASF328
 7000 184a 1C       		.byte	0x1c
 7001 184b F4       		.byte	0xf4
 7002 184c EA170000 		.4byte	0x17ea
 7003 1850 A8       		.byte	0xa8
 7004 1851 08       		.uleb128 0x8
 7005 1852 D41B0000 		.4byte	.LASF329
 7006 1856 1C       		.byte	0x1c
 7007 1857 F8       		.byte	0xf8
 7008 1858 EA170000 		.4byte	0x17ea
 7009 185c C4       		.byte	0xc4
 7010 185d 08       		.uleb128 0x8
 7011 185e 5A290000 		.4byte	.LASF330
 7012 1862 1C       		.byte	0x1c
 7013 1863 FC       		.byte	0xfc
 7014 1864 EA170000 		.4byte	0x17ea
 7015 1868 E0       		.byte	0xe0
 7016 1869 00       		.byte	0
 7017 186a 04       		.uleb128 0x4
 7018 186b 800C0000 		.4byte	.LASF331
 7019 186f 1C       		.byte	0x1c
 7020 1870 FE       		.byte	0xfe
 7021 1871 F5170000 		.4byte	0x17f5
 7022 1875 05       		.uleb128 0x5
 7023 1876 6A180000 		.4byte	0x186a
ARM GAS  C:\Users\JEANCO~1\AppData\Local\Temp\ccxhVNGN.s 			page 125


 7024 187a 1A       		.uleb128 0x1a
 7025 187b DB1B0000 		.4byte	.LASF332
 7026 187f 1C       		.byte	0x1c
 7027 1880 1B01     		.2byte	0x11b
 7028 1882 86180000 		.4byte	0x1886
 7029 1886 0B       		.uleb128 0xb
 7030 1887 04       		.byte	0x4
 7031 1888 82170000 		.4byte	0x1782
 7032 188c 15       		.uleb128 0x15
 7033 188d 6B240000 		.4byte	.LASF333
 7034 1891 1C       		.byte	0x1c
 7035 1892 DA01     		.2byte	0x1da
 7036 1894 75180000 		.4byte	0x1875
 7037 1898 21       		.uleb128 0x21
 7038 1899 07       		.byte	0x7
 7039 189a 01       		.byte	0x1
 7040 189b 6C000000 		.4byte	0x6c
 7041 189f 1D       		.byte	0x1d
 7042 18a0 46       		.byte	0x46
 7043 18a1 CA180000 		.4byte	0x18ca
 7044 18a5 22       		.uleb128 0x22
 7045 18a6 89090000 		.4byte	.LASF334
 7046 18aa 00       		.byte	0
 7047 18ab 22       		.uleb128 0x22
 7048 18ac 50180000 		.4byte	.LASF335
 7049 18b0 01       		.byte	0x1
 7050 18b1 22       		.uleb128 0x22
 7051 18b2 ED260000 		.4byte	.LASF336
 7052 18b6 02       		.byte	0x2
 7053 18b7 22       		.uleb128 0x22
 7054 18b8 94150000 		.4byte	.LASF337
 7055 18bc 03       		.byte	0x3
 7056 18bd 22       		.uleb128 0x22
 7057 18be 51070000 		.4byte	.LASF338
 7058 18c2 04       		.byte	0x4
 7059 18c3 22       		.uleb128 0x22
 7060 18c4 3C150000 		.4byte	.LASF339
 7061 18c8 05       		.byte	0x5
 7062 18c9 00       		.byte	0
 7063 18ca 04       		.uleb128 0x4
 7064 18cb FD040000 		.4byte	.LASF340
 7065 18cf 1D       		.byte	0x1d
 7066 18d0 4D       		.byte	0x4d
 7067 18d1 98180000 		.4byte	0x1898
 7068 18d5 1A       		.uleb128 0x1a
 7069 18d6 6C140000 		.4byte	.LASF341
 7070 18da 1E       		.byte	0x1e
 7071 18db 2701     		.2byte	0x127
 7072 18dd E8000000 		.4byte	0xe8
 7073 18e1 1A       		.uleb128 0x1a
 7074 18e2 5D210000 		.4byte	.LASF342
 7075 18e6 1E       		.byte	0x1e
 7076 18e7 2C01     		.2byte	0x12c
 7077 18e9 E8000000 		.4byte	0xe8
 7078 18ed 24       		.uleb128 0x24
 7079 18ee 07       		.byte	0x7
 7080 18ef 01       		.byte	0x1
ARM GAS  C:\Users\JEANCO~1\AppData\Local\Temp\ccxhVNGN.s 			page 126


 7081 18f0 6C000000 		.4byte	0x6c
 7082 18f4 1E       		.byte	0x1e
 7083 18f5 3301     		.2byte	0x133
 7084 18f7 08190000 		.4byte	0x1908
 7085 18fb 22       		.uleb128 0x22
 7086 18fc 06100000 		.4byte	.LASF343
 7087 1900 00       		.byte	0
 7088 1901 22       		.uleb128 0x22
 7089 1902 A7020000 		.4byte	.LASF344
 7090 1906 01       		.byte	0x1
 7091 1907 00       		.byte	0
 7092 1908 1A       		.uleb128 0x1a
 7093 1909 6B280000 		.4byte	.LASF345
 7094 190d 1E       		.byte	0x1e
 7095 190e 3601     		.2byte	0x136
 7096 1910 ED180000 		.4byte	0x18ed
 7097 1914 1A       		.uleb128 0x1a
 7098 1915 EA100000 		.4byte	.LASF346
 7099 1919 1E       		.byte	0x1e
 7100 191a 3B01     		.2byte	0x13b
 7101 191c 20190000 		.4byte	0x1920
 7102 1920 0C       		.uleb128 0xc
 7103 1921 EA100000 		.4byte	.LASF346
 7104 1925 38       		.byte	0x38
 7105 1926 1E       		.byte	0x1e
 7106 1927 9F01     		.2byte	0x19f
 7107 1929 B0190000 		.4byte	0x19b0
 7108 192d 0A       		.uleb128 0xa
 7109 192e 5B190000 		.4byte	.LASF347
 7110 1932 1E       		.byte	0x1e
 7111 1933 A301     		.2byte	0x1a3
 7112 1935 CA180000 		.4byte	0x18ca
 7113 1939 00       		.byte	0
 7114 193a 0A       		.uleb128 0xa
 7115 193b F6200000 		.4byte	.LASF348
 7116 193f 1E       		.byte	0x1e
 7117 1940 A701     		.2byte	0x1a7
 7118 1942 D71A0000 		.4byte	0x1ad7
 7119 1946 04       		.byte	0x4
 7120 1947 0A       		.uleb128 0xa
 7121 1948 0D020000 		.4byte	.LASF349
 7122 194c 1E       		.byte	0x1e
 7123 194d AB01     		.2byte	0x1ab
 7124 194f DD190000 		.4byte	0x19dd
 7125 1953 08       		.byte	0x8
 7126 1954 0A       		.uleb128 0xa
 7127 1955 1B1D0000 		.4byte	.LASF350
 7128 1959 1E       		.byte	0x1e
 7129 195a AF01     		.2byte	0x1af
 7130 195c 3A000000 		.4byte	0x3a
 7131 1960 0C       		.byte	0xc
 7132 1961 0A       		.uleb128 0xa
 7133 1962 97240000 		.4byte	.LASF351
 7134 1966 1E       		.byte	0x1e
 7135 1967 B301     		.2byte	0x1b3
 7136 1969 DD1A0000 		.4byte	0x1add
 7137 196d 10       		.byte	0x10
ARM GAS  C:\Users\JEANCO~1\AppData\Local\Temp\ccxhVNGN.s 			page 127


 7138 196e 0A       		.uleb128 0xa
 7139 196f 08080000 		.4byte	.LASF352
 7140 1973 1E       		.byte	0x1e
 7141 1974 B801     		.2byte	0x1b8
 7142 1976 E0020000 		.4byte	0x2e0
 7143 197a 14       		.byte	0x14
 7144 197b 0A       		.uleb128 0xa
 7145 197c 320E0000 		.4byte	.LASF353
 7146 1980 1E       		.byte	0x1e
 7147 1981 BE01     		.2byte	0x1be
 7148 1983 82120000 		.4byte	0x1282
 7149 1987 18       		.byte	0x18
 7150 1988 09       		.uleb128 0x9
 7151 1989 61646300 		.ascii	"adc\000"
 7152 198d 1E       		.byte	0x1e
 7153 198e C701     		.2byte	0x1c7
 7154 1990 E31A0000 		.4byte	0x1ae3
 7155 1994 2C       		.byte	0x2c
 7156 1995 0A       		.uleb128 0xa
 7157 1996 0C0C0000 		.4byte	.LASF354
 7158 199a 1E       		.byte	0x1e
 7159 199b CB01     		.2byte	0x1cb
 7160 199d E91A0000 		.4byte	0x1ae9
 7161 19a1 30       		.byte	0x30
 7162 19a2 0A       		.uleb128 0xa
 7163 19a3 101C0000 		.4byte	.LASF355
 7164 19a7 1E       		.byte	0x1e
 7165 19a8 CF01     		.2byte	0x1cf
 7166 19aa 03010000 		.4byte	0x103
 7167 19ae 34       		.byte	0x34
 7168 19af 00       		.byte	0
 7169 19b0 1A       		.uleb128 0x1a
 7170 19b1 2B200000 		.4byte	.LASF356
 7171 19b5 1E       		.byte	0x1e
 7172 19b6 4501     		.2byte	0x145
 7173 19b8 BC190000 		.4byte	0x19bc
 7174 19bc 0B       		.uleb128 0xb
 7175 19bd 04       		.byte	0x4
 7176 19be C2190000 		.4byte	0x19c2
 7177 19c2 0D       		.uleb128 0xd
 7178 19c3 D7190000 		.4byte	0x19d7
 7179 19c7 0E       		.uleb128 0xe
 7180 19c8 D7190000 		.4byte	0x19d7
 7181 19cc 0E       		.uleb128 0xe
 7182 19cd DD190000 		.4byte	0x19dd
 7183 19d1 0E       		.uleb128 0xe
 7184 19d2 3A000000 		.4byte	0x3a
 7185 19d6 00       		.byte	0
 7186 19d7 0B       		.uleb128 0xb
 7187 19d8 04       		.byte	0x4
 7188 19d9 14190000 		.4byte	0x1914
 7189 19dd 0B       		.uleb128 0xb
 7190 19de 04       		.byte	0x4
 7191 19df D5180000 		.4byte	0x18d5
 7192 19e3 1A       		.uleb128 0x1a
 7193 19e4 3D190000 		.4byte	.LASF357
 7194 19e8 1E       		.byte	0x1e
ARM GAS  C:\Users\JEANCO~1\AppData\Local\Temp\ccxhVNGN.s 			page 128


 7195 19e9 4E01     		.2byte	0x14e
 7196 19eb EF190000 		.4byte	0x19ef
 7197 19ef 0B       		.uleb128 0xb
 7198 19f0 04       		.byte	0x4
 7199 19f1 F5190000 		.4byte	0x19f5
 7200 19f5 0D       		.uleb128 0xd
 7201 19f6 051A0000 		.4byte	0x1a05
 7202 19fa 0E       		.uleb128 0xe
 7203 19fb D7190000 		.4byte	0x19d7
 7204 19ff 0E       		.uleb128 0xe
 7205 1a00 08190000 		.4byte	0x1908
 7206 1a04 00       		.byte	0
 7207 1a05 19       		.uleb128 0x19
 7208 1a06 28       		.byte	0x28
 7209 1a07 1E       		.byte	0x1e
 7210 1a08 5801     		.2byte	0x158
 7211 1a0a 9E1A0000 		.4byte	0x1a9e
 7212 1a0e 0A       		.uleb128 0xa
 7213 1a0f 60270000 		.4byte	.LASF358
 7214 1a13 1E       		.byte	0x1e
 7215 1a14 5C01     		.2byte	0x15c
 7216 1a16 2F160000 		.4byte	0x162f
 7217 1a1a 00       		.byte	0
 7218 1a1b 0A       		.uleb128 0xa
 7219 1a1c 54130000 		.4byte	.LASF359
 7220 1a20 1E       		.byte	0x1e
 7221 1a21 6001     		.2byte	0x160
 7222 1a23 E1180000 		.4byte	0x18e1
 7223 1a27 02       		.byte	0x2
 7224 1a28 0A       		.uleb128 0xa
 7225 1a29 870A0000 		.4byte	.LASF360
 7226 1a2d 1E       		.byte	0x1e
 7227 1a2e 6401     		.2byte	0x164
 7228 1a30 B0190000 		.4byte	0x19b0
 7229 1a34 04       		.byte	0x4
 7230 1a35 0A       		.uleb128 0xa
 7231 1a36 85290000 		.4byte	.LASF361
 7232 1a3a 1E       		.byte	0x1e
 7233 1a3b 6801     		.2byte	0x168
 7234 1a3d E3190000 		.4byte	0x19e3
 7235 1a41 08       		.byte	0x8
 7236 1a42 09       		.uleb128 0x9
 7237 1a43 63723100 		.ascii	"cr1\000"
 7238 1a47 1E       		.byte	0x1e
 7239 1a48 6F01     		.2byte	0x16f
 7240 1a4a 03010000 		.4byte	0x103
 7241 1a4e 0C       		.byte	0xc
 7242 1a4f 09       		.uleb128 0x9
 7243 1a50 63723200 		.ascii	"cr2\000"
 7244 1a54 1E       		.byte	0x1e
 7245 1a55 7601     		.2byte	0x176
 7246 1a57 03010000 		.4byte	0x103
 7247 1a5b 10       		.byte	0x10
 7248 1a5c 0A       		.uleb128 0xa
 7249 1a5d BC1A0000 		.4byte	.LASF362
 7250 1a61 1E       		.byte	0x1e
 7251 1a62 7C01     		.2byte	0x17c
ARM GAS  C:\Users\JEANCO~1\AppData\Local\Temp\ccxhVNGN.s 			page 129


 7252 1a64 03010000 		.4byte	0x103
 7253 1a68 14       		.byte	0x14
 7254 1a69 0A       		.uleb128 0xa
 7255 1a6a C21A0000 		.4byte	.LASF363
 7256 1a6e 1E       		.byte	0x1e
 7257 1a6f 8201     		.2byte	0x182
 7258 1a71 03010000 		.4byte	0x103
 7259 1a75 18       		.byte	0x18
 7260 1a76 0A       		.uleb128 0xa
 7261 1a77 60010000 		.4byte	.LASF364
 7262 1a7b 1E       		.byte	0x1e
 7263 1a7c 8701     		.2byte	0x187
 7264 1a7e 03010000 		.4byte	0x103
 7265 1a82 1C       		.byte	0x1c
 7266 1a83 0A       		.uleb128 0xa
 7267 1a84 FD2A0000 		.4byte	.LASF365
 7268 1a88 1E       		.byte	0x1e
 7269 1a89 8C01     		.2byte	0x18c
 7270 1a8b 03010000 		.4byte	0x103
 7271 1a8f 20       		.byte	0x20
 7272 1a90 0A       		.uleb128 0xa
 7273 1a91 022B0000 		.4byte	.LASF366
 7274 1a95 1E       		.byte	0x1e
 7275 1a96 9101     		.2byte	0x191
 7276 1a98 03010000 		.4byte	0x103
 7277 1a9c 24       		.byte	0x24
 7278 1a9d 00       		.byte	0
 7279 1a9e 1A       		.uleb128 0x1a
 7280 1a9f 69060000 		.4byte	.LASF367
 7281 1aa3 1E       		.byte	0x1e
 7282 1aa4 9201     		.2byte	0x192
 7283 1aa6 051A0000 		.4byte	0x1a05
 7284 1aaa 05       		.uleb128 0x5
 7285 1aab 9E1A0000 		.4byte	0x1a9e
 7286 1aaf 19       		.uleb128 0x19
 7287 1ab0 04       		.byte	0x4
 7288 1ab1 1E       		.byte	0x1e
 7289 1ab2 9801     		.2byte	0x198
 7290 1ab4 C61A0000 		.4byte	0x1ac6
 7291 1ab8 0A       		.uleb128 0xa
 7292 1ab9 472B0000 		.4byte	.LASF368
 7293 1abd 1E       		.byte	0x1e
 7294 1abe 9901     		.2byte	0x199
 7295 1ac0 03010000 		.4byte	0x103
 7296 1ac4 00       		.byte	0
 7297 1ac5 00       		.byte	0
 7298 1ac6 1A       		.uleb128 0x1a
 7299 1ac7 02110000 		.4byte	.LASF369
 7300 1acb 1E       		.byte	0x1e
 7301 1acc 9A01     		.2byte	0x19a
 7302 1ace AF1A0000 		.4byte	0x1aaf
 7303 1ad2 05       		.uleb128 0x5
 7304 1ad3 C61A0000 		.4byte	0x1ac6
 7305 1ad7 0B       		.uleb128 0xb
 7306 1ad8 04       		.byte	0x4
 7307 1ad9 D21A0000 		.4byte	0x1ad2
 7308 1add 0B       		.uleb128 0xb
ARM GAS  C:\Users\JEANCO~1\AppData\Local\Temp\ccxhVNGN.s 			page 130


 7309 1ade 04       		.byte	0x4
 7310 1adf AA1A0000 		.4byte	0x1aaa
 7311 1ae3 0B       		.uleb128 0xb
 7312 1ae4 04       		.byte	0x4
 7313 1ae5 65060000 		.4byte	0x665
 7314 1ae9 0B       		.uleb128 0xb
 7315 1aea 04       		.byte	0x4
 7316 1aeb FE140000 		.4byte	0x14fe
 7317 1aef 15       		.uleb128 0x15
 7318 1af0 F91B0000 		.4byte	.LASF370
 7319 1af4 1E       		.byte	0x1e
 7320 1af5 1402     		.2byte	0x214
 7321 1af7 14190000 		.4byte	0x1914
 7322 1afb 15       		.uleb128 0x15
 7323 1afc FF1B0000 		.4byte	.LASF371
 7324 1b00 1E       		.byte	0x1e
 7325 1b01 1802     		.2byte	0x218
 7326 1b03 14190000 		.4byte	0x1914
 7327 1b07 15       		.uleb128 0x15
 7328 1b08 051C0000 		.4byte	.LASF372
 7329 1b0c 1E       		.byte	0x1e
 7330 1b0d 1C02     		.2byte	0x21c
 7331 1b0f 14190000 		.4byte	0x1914
 7332 1b13 21       		.uleb128 0x21
 7333 1b14 07       		.byte	0x7
 7334 1b15 01       		.byte	0x1
 7335 1b16 6C000000 		.4byte	0x6c
 7336 1b1a 1F       		.byte	0x1f
 7337 1b1b 5F       		.byte	0x5f
 7338 1b1c 3F1B0000 		.4byte	0x1b3f
 7339 1b20 22       		.uleb128 0x22
 7340 1b21 710B0000 		.4byte	.LASF373
 7341 1b25 00       		.byte	0
 7342 1b26 22       		.uleb128 0x22
 7343 1b27 E1000000 		.4byte	.LASF374
 7344 1b2b 01       		.byte	0x1
 7345 1b2c 22       		.uleb128 0x22
 7346 1b2d 5C000000 		.4byte	.LASF375
 7347 1b31 02       		.byte	0x2
 7348 1b32 22       		.uleb128 0x22
 7349 1b33 97060000 		.4byte	.LASF376
 7350 1b37 03       		.byte	0x3
 7351 1b38 22       		.uleb128 0x22
 7352 1b39 520B0000 		.4byte	.LASF377
 7353 1b3d 04       		.byte	0x4
 7354 1b3e 00       		.byte	0
 7355 1b3f 04       		.uleb128 0x4
 7356 1b40 D6060000 		.4byte	.LASF378
 7357 1b44 1F       		.byte	0x1f
 7358 1b45 65       		.byte	0x65
 7359 1b46 131B0000 		.4byte	0x1b13
 7360 1b4a 13       		.uleb128 0x13
 7361 1b4b CD000000 		.4byte	0xcd
 7362 1b4f 5A1B0000 		.4byte	0x1b5a
 7363 1b53 14       		.uleb128 0x14
 7364 1b54 45000000 		.4byte	0x45
 7365 1b58 07       		.byte	0x7
ARM GAS  C:\Users\JEANCO~1\AppData\Local\Temp\ccxhVNGN.s 			page 131


 7366 1b59 00       		.byte	0
 7367 1b5a 17       		.uleb128 0x17
 7368 1b5b 08       		.byte	0x8
 7369 1b5c 20       		.byte	0x20
 7370 1b5d F4       		.byte	0xf4
 7371 1b5e 7C1B0000 		.4byte	0x1b7c
 7372 1b62 18       		.uleb128 0x18
 7373 1b63 6D637200 		.ascii	"mcr\000"
 7374 1b67 20       		.byte	0x20
 7375 1b68 FA       		.byte	0xfa
 7376 1b69 03010000 		.4byte	0x103
 7377 1b6d 00       		.byte	0
 7378 1b6e 09       		.uleb128 0x9
 7379 1b6f 62747200 		.ascii	"btr\000"
 7380 1b73 20       		.byte	0x20
 7381 1b74 0001     		.2byte	0x100
 7382 1b76 03010000 		.4byte	0x103
 7383 1b7a 04       		.byte	0x4
 7384 1b7b 00       		.byte	0
 7385 1b7c 1A       		.uleb128 0x1a
 7386 1b7d 311E0000 		.4byte	.LASF379
 7387 1b81 20       		.byte	0x20
 7388 1b82 0101     		.2byte	0x101
 7389 1b84 5A1B0000 		.4byte	0x1b5a
 7390 1b88 05       		.uleb128 0x5
 7391 1b89 7C1B0000 		.4byte	0x1b7c
 7392 1b8d 19       		.uleb128 0x19
 7393 1b8e 30       		.byte	0x30
 7394 1b8f 20       		.byte	0x20
 7395 1b90 0601     		.2byte	0x106
 7396 1b92 191C0000 		.4byte	0x1c19
 7397 1b96 0A       		.uleb128 0xa
 7398 1b97 5B190000 		.4byte	.LASF347
 7399 1b9b 20       		.byte	0x20
 7400 1b9c 0A01     		.2byte	0x10a
 7401 1b9e 3F1B0000 		.4byte	0x1b3f
 7402 1ba2 00       		.byte	0
 7403 1ba3 0A       		.uleb128 0xa
 7404 1ba4 F6200000 		.4byte	.LASF348
 7405 1ba8 20       		.byte	0x20
 7406 1ba9 0E01     		.2byte	0x10e
 7407 1bab 191C0000 		.4byte	0x1c19
 7408 1baf 04       		.byte	0x4
 7409 1bb0 0A       		.uleb128 0xa
 7410 1bb1 DD0A0000 		.4byte	.LASF380
 7411 1bb5 20       		.byte	0x20
 7412 1bb6 1201     		.2byte	0x112
 7413 1bb8 15030000 		.4byte	0x315
 7414 1bbc 08       		.byte	0x8
 7415 1bbd 0A       		.uleb128 0xa
 7416 1bbe 52240000 		.4byte	.LASF381
 7417 1bc2 20       		.byte	0x20
 7418 1bc3 1601     		.2byte	0x116
 7419 1bc5 15030000 		.4byte	0x315
 7420 1bc9 10       		.byte	0x10
 7421 1bca 0A       		.uleb128 0xa
 7422 1bcb EC1D0000 		.4byte	.LASF382
ARM GAS  C:\Users\JEANCO~1\AppData\Local\Temp\ccxhVNGN.s 			page 132


 7423 1bcf 20       		.byte	0x20
 7424 1bd0 2301     		.2byte	0x123
 7425 1bd2 06130000 		.4byte	0x1306
 7426 1bd6 18       		.byte	0x18
 7427 1bd7 0A       		.uleb128 0xa
 7428 1bd8 1D0D0000 		.4byte	.LASF383
 7429 1bdc 20       		.byte	0x20
 7430 1bdd 2A01     		.2byte	0x12a
 7431 1bdf 06130000 		.4byte	0x1306
 7432 1be3 1C       		.byte	0x1c
 7433 1be4 0A       		.uleb128 0xa
 7434 1be5 48130000 		.4byte	.LASF384
 7435 1be9 20       		.byte	0x20
 7436 1bea 3001     		.2byte	0x130
 7437 1bec 06130000 		.4byte	0x1306
 7438 1bf0 20       		.byte	0x20
 7439 1bf1 0A       		.uleb128 0xa
 7440 1bf2 05040000 		.4byte	.LASF385
 7441 1bf6 20       		.byte	0x20
 7442 1bf7 3501     		.2byte	0x135
 7443 1bf9 06130000 		.4byte	0x1306
 7444 1bfd 24       		.byte	0x24
 7445 1bfe 0A       		.uleb128 0xa
 7446 1bff 5E0A0000 		.4byte	.LASF386
 7447 1c03 20       		.byte	0x20
 7448 1c04 3901     		.2byte	0x139
 7449 1c06 06130000 		.4byte	0x1306
 7450 1c0a 28       		.byte	0x28
 7451 1c0b 09       		.uleb128 0x9
 7452 1c0c 63616E00 		.ascii	"can\000"
 7453 1c10 20       		.byte	0x20
 7454 1c11 3F01     		.2byte	0x13f
 7455 1c13 1F1C0000 		.4byte	0x1c1f
 7456 1c17 2C       		.byte	0x2c
 7457 1c18 00       		.byte	0
 7458 1c19 0B       		.uleb128 0xb
 7459 1c1a 04       		.byte	0x4
 7460 1c1b 881B0000 		.4byte	0x1b88
 7461 1c1f 0B       		.uleb128 0xb
 7462 1c20 04       		.byte	0x4
 7463 1c21 AE080000 		.4byte	0x8ae
 7464 1c25 1A       		.uleb128 0x1a
 7465 1c26 8C040000 		.4byte	.LASF387
 7466 1c2a 20       		.byte	0x20
 7467 1c2b 4001     		.2byte	0x140
 7468 1c2d 8D1B0000 		.4byte	0x1b8d
 7469 1c31 15       		.uleb128 0x15
 7470 1c32 26260000 		.4byte	.LASF388
 7471 1c36 20       		.byte	0x20
 7472 1c37 4B01     		.2byte	0x14b
 7473 1c39 251C0000 		.4byte	0x1c25
 7474 1c3d 21       		.uleb128 0x21
 7475 1c3e 07       		.byte	0x7
 7476 1c3f 01       		.byte	0x1
 7477 1c40 6C000000 		.4byte	0x6c
 7478 1c44 21       		.byte	0x21
 7479 1c45 46       		.byte	0x46
ARM GAS  C:\Users\JEANCO~1\AppData\Local\Temp\ccxhVNGN.s 			page 133


 7480 1c46 6F1C0000 		.4byte	0x1c6f
 7481 1c4a 22       		.uleb128 0x22
 7482 1c4b 52210000 		.4byte	.LASF389
 7483 1c4f 00       		.byte	0
 7484 1c50 22       		.uleb128 0x22
 7485 1c51 9F270000 		.4byte	.LASF390
 7486 1c55 01       		.byte	0x1
 7487 1c56 22       		.uleb128 0x22
 7488 1c57 45100000 		.4byte	.LASF391
 7489 1c5b 02       		.byte	0x2
 7490 1c5c 22       		.uleb128 0x22
 7491 1c5d 50190000 		.4byte	.LASF392
 7492 1c61 03       		.byte	0x3
 7493 1c62 22       		.uleb128 0x22
 7494 1c63 D2200000 		.4byte	.LASF393
 7495 1c67 04       		.byte	0x4
 7496 1c68 22       		.uleb128 0x22
 7497 1c69 9B120000 		.4byte	.LASF394
 7498 1c6d 05       		.byte	0x5
 7499 1c6e 00       		.byte	0
 7500 1c6f 04       		.uleb128 0x4
 7501 1c70 731D0000 		.4byte	.LASF395
 7502 1c74 21       		.byte	0x21
 7503 1c75 4D       		.byte	0x4d
 7504 1c76 3D1C0000 		.4byte	0x1c3d
 7505 1c7a 17       		.uleb128 0x17
 7506 1c7b 1C       		.byte	0x1c
 7507 1c7c 22       		.byte	0x22
 7508 1c7d F9       		.byte	0xf9
 7509 1c7e DD1C0000 		.4byte	0x1cdd
 7510 1c82 18       		.uleb128 0x18
 7511 1c83 64616300 		.ascii	"dac\000"
 7512 1c87 22       		.byte	0x22
 7513 1c88 FD       		.byte	0xfd
 7514 1c89 DD1C0000 		.4byte	0x1cdd
 7515 1c8d 00       		.byte	0
 7516 1c8e 0A       		.uleb128 0xa
 7517 1c8f 9F1C0000 		.4byte	.LASF396
 7518 1c93 22       		.byte	0x22
 7519 1c94 0101     		.2byte	0x101
 7520 1c96 03010000 		.4byte	0x103
 7521 1c9a 04       		.byte	0x4
 7522 1c9b 0A       		.uleb128 0xa
 7523 1c9c 0F080000 		.4byte	.LASF397
 7524 1ca0 22       		.byte	0x22
 7525 1ca1 0501     		.2byte	0x105
 7526 1ca3 03010000 		.4byte	0x103
 7527 1ca7 08       		.byte	0x8
 7528 1ca8 0A       		.uleb128 0xa
 7529 1ca9 2B020000 		.4byte	.LASF398
 7530 1cad 22       		.byte	0x22
 7531 1cae 0901     		.2byte	0x109
 7532 1cb0 03010000 		.4byte	0x103
 7533 1cb4 0C       		.byte	0xc
 7534 1cb5 09       		.uleb128 0x9
 7535 1cb6 646D6100 		.ascii	"dma\000"
 7536 1cba 22       		.byte	0x22
ARM GAS  C:\Users\JEANCO~1\AppData\Local\Temp\ccxhVNGN.s 			page 134


 7537 1cbb 0D01     		.2byte	0x10d
 7538 1cbd E91A0000 		.4byte	0x1ae9
 7539 1cc1 10       		.byte	0x10
 7540 1cc2 0A       		.uleb128 0xa
 7541 1cc3 101C0000 		.4byte	.LASF355
 7542 1cc7 22       		.byte	0x22
 7543 1cc8 1101     		.2byte	0x111
 7544 1cca 03010000 		.4byte	0x103
 7545 1cce 14       		.byte	0x14
 7546 1ccf 0A       		.uleb128 0xa
 7547 1cd0 B41B0000 		.4byte	.LASF399
 7548 1cd4 22       		.byte	0x22
 7549 1cd5 1501     		.2byte	0x115
 7550 1cd7 03010000 		.4byte	0x103
 7551 1cdb 18       		.byte	0x18
 7552 1cdc 00       		.byte	0
 7553 1cdd 0B       		.uleb128 0xb
 7554 1cde 04       		.byte	0x4
 7555 1cdf 78090000 		.4byte	0x978
 7556 1ce3 1A       		.uleb128 0x1a
 7557 1ce4 AC030000 		.4byte	.LASF400
 7558 1ce8 22       		.byte	0x22
 7559 1ce9 1601     		.2byte	0x116
 7560 1ceb 7A1C0000 		.4byte	0x1c7a
 7561 1cef 05       		.uleb128 0x5
 7562 1cf0 E31C0000 		.4byte	0x1ce3
 7563 1cf4 1A       		.uleb128 0x1a
 7564 1cf5 5C0E0000 		.4byte	.LASF401
 7565 1cf9 22       		.byte	0x22
 7566 1cfa 1B01     		.2byte	0x11b
 7567 1cfc 001D0000 		.4byte	0x1d00
 7568 1d00 0C       		.uleb128 0xc
 7569 1d01 5C0E0000 		.4byte	.LASF401
 7570 1d05 30       		.byte	0x30
 7571 1d06 22       		.byte	0x22
 7572 1d07 7B01     		.2byte	0x17b
 7573 1d09 761D0000 		.4byte	0x1d76
 7574 1d0d 0A       		.uleb128 0xa
 7575 1d0e 5B190000 		.4byte	.LASF347
 7576 1d12 22       		.byte	0x22
 7577 1d13 7F01     		.2byte	0x17f
 7578 1d15 6F1C0000 		.4byte	0x1c6f
 7579 1d19 00       		.byte	0
 7580 1d1a 0A       		.uleb128 0xa
 7581 1d1b 97240000 		.4byte	.LASF351
 7582 1d1f 22       		.byte	0x22
 7583 1d20 8301     		.2byte	0x183
 7584 1d22 B41E0000 		.4byte	0x1eb4
 7585 1d26 04       		.byte	0x4
 7586 1d27 0A       		.uleb128 0xa
 7587 1d28 0D020000 		.4byte	.LASF349
 7588 1d2c 22       		.byte	0x22
 7589 1d2d 8701     		.2byte	0x187
 7590 1d2f DB1D0000 		.4byte	0x1ddb
 7591 1d33 08       		.byte	0x8
 7592 1d34 0A       		.uleb128 0xa
 7593 1d35 1B1D0000 		.4byte	.LASF350
ARM GAS  C:\Users\JEANCO~1\AppData\Local\Temp\ccxhVNGN.s 			page 135


 7594 1d39 22       		.byte	0x22
 7595 1d3a 8B01     		.2byte	0x18b
 7596 1d3c E8000000 		.4byte	0xe8
 7597 1d40 0C       		.byte	0xc
 7598 1d41 0A       		.uleb128 0xa
 7599 1d42 F6200000 		.4byte	.LASF348
 7600 1d46 22       		.byte	0x22
 7601 1d47 8F01     		.2byte	0x18f
 7602 1d49 BA1E0000 		.4byte	0x1eba
 7603 1d4d 10       		.byte	0x10
 7604 1d4e 0A       		.uleb128 0xa
 7605 1d4f 08080000 		.4byte	.LASF352
 7606 1d53 22       		.byte	0x22
 7607 1d54 9401     		.2byte	0x194
 7608 1d56 E0020000 		.4byte	0x2e0
 7609 1d5a 14       		.byte	0x14
 7610 1d5b 0A       		.uleb128 0xa
 7611 1d5c 320E0000 		.4byte	.LASF353
 7612 1d60 22       		.byte	0x22
 7613 1d61 9A01     		.2byte	0x19a
 7614 1d63 82120000 		.4byte	0x1282
 7615 1d67 18       		.byte	0x18
 7616 1d68 0A       		.uleb128 0xa
 7617 1d69 F1130000 		.4byte	.LASF402
 7618 1d6d 22       		.byte	0x22
 7619 1d6e A301     		.2byte	0x1a3
 7620 1d70 C01E0000 		.4byte	0x1ec0
 7621 1d74 2C       		.byte	0x2c
 7622 1d75 00       		.byte	0
 7623 1d76 1A       		.uleb128 0x1a
 7624 1d77 AB1D0000 		.4byte	.LASF403
 7625 1d7b 22       		.byte	0x22
 7626 1d7c 2001     		.2byte	0x120
 7627 1d7e E8000000 		.4byte	0xe8
 7628 1d82 05       		.uleb128 0x5
 7629 1d83 761D0000 		.4byte	0x1d76
 7630 1d87 24       		.uleb128 0x24
 7631 1d88 07       		.byte	0x7
 7632 1d89 01       		.byte	0x1
 7633 1d8a 6C000000 		.4byte	0x6c
 7634 1d8e 22       		.byte	0x22
 7635 1d8f 2701     		.2byte	0x127
 7636 1d91 A21D0000 		.4byte	0x1da2
 7637 1d95 22       		.uleb128 0x22
 7638 1d96 701E0000 		.4byte	.LASF404
 7639 1d9a 00       		.byte	0
 7640 1d9b 22       		.uleb128 0x22
 7641 1d9c 4C0A0000 		.4byte	.LASF405
 7642 1da0 01       		.byte	0x1
 7643 1da1 00       		.byte	0
 7644 1da2 1A       		.uleb128 0x1a
 7645 1da3 56140000 		.4byte	.LASF406
 7646 1da7 22       		.byte	0x22
 7647 1da8 2A01     		.2byte	0x12a
 7648 1daa 871D0000 		.4byte	0x1d87
 7649 1dae 1A       		.uleb128 0x1a
 7650 1daf 85080000 		.4byte	.LASF407
ARM GAS  C:\Users\JEANCO~1\AppData\Local\Temp\ccxhVNGN.s 			page 136


 7651 1db3 22       		.byte	0x22
 7652 1db4 3401     		.2byte	0x134
 7653 1db6 BA1D0000 		.4byte	0x1dba
 7654 1dba 0B       		.uleb128 0xb
 7655 1dbb 04       		.byte	0x4
 7656 1dbc C01D0000 		.4byte	0x1dc0
 7657 1dc0 0D       		.uleb128 0xd
 7658 1dc1 D51D0000 		.4byte	0x1dd5
 7659 1dc5 0E       		.uleb128 0xe
 7660 1dc6 D51D0000 		.4byte	0x1dd5
 7661 1dca 0E       		.uleb128 0xe
 7662 1dcb DB1D0000 		.4byte	0x1ddb
 7663 1dcf 0E       		.uleb128 0xe
 7664 1dd0 3A000000 		.4byte	0x3a
 7665 1dd4 00       		.byte	0
 7666 1dd5 0B       		.uleb128 0xb
 7667 1dd6 04       		.byte	0x4
 7668 1dd7 F41C0000 		.4byte	0x1cf4
 7669 1ddb 0B       		.uleb128 0xb
 7670 1ddc 04       		.byte	0x4
 7671 1ddd 821D0000 		.4byte	0x1d82
 7672 1de1 1A       		.uleb128 0x1a
 7673 1de2 73260000 		.4byte	.LASF408
 7674 1de6 22       		.byte	0x22
 7675 1de7 3F01     		.2byte	0x13f
 7676 1de9 ED1D0000 		.4byte	0x1ded
 7677 1ded 0B       		.uleb128 0xb
 7678 1dee 04       		.byte	0x4
 7679 1def F31D0000 		.4byte	0x1df3
 7680 1df3 0D       		.uleb128 0xd
 7681 1df4 031E0000 		.4byte	0x1e03
 7682 1df8 0E       		.uleb128 0xe
 7683 1df9 D51D0000 		.4byte	0x1dd5
 7684 1dfd 0E       		.uleb128 0xe
 7685 1dfe A21D0000 		.4byte	0x1da2
 7686 1e02 00       		.byte	0
 7687 1e03 24       		.uleb128 0x24
 7688 1e04 07       		.byte	0x7
 7689 1e05 01       		.byte	0x1
 7690 1e06 6C000000 		.4byte	0x6c
 7691 1e0a 22       		.byte	0x22
 7692 1e0b 4401     		.2byte	0x144
 7693 1e0d 241E0000 		.4byte	0x1e24
 7694 1e11 22       		.uleb128 0x22
 7695 1e12 AC210000 		.4byte	.LASF409
 7696 1e16 00       		.byte	0
 7697 1e17 22       		.uleb128 0x22
 7698 1e18 1E160000 		.4byte	.LASF410
 7699 1e1c 01       		.byte	0x1
 7700 1e1d 22       		.uleb128 0x22
 7701 1e1e 0D1A0000 		.4byte	.LASF411
 7702 1e22 02       		.byte	0x2
 7703 1e23 00       		.byte	0
 7704 1e24 1A       		.uleb128 0x1a
 7705 1e25 F90B0000 		.4byte	.LASF412
 7706 1e29 22       		.byte	0x22
 7707 1e2a 4D01     		.2byte	0x14d
ARM GAS  C:\Users\JEANCO~1\AppData\Local\Temp\ccxhVNGN.s 			page 137


 7708 1e2c 031E0000 		.4byte	0x1e03
 7709 1e30 19       		.uleb128 0x19
 7710 1e31 10       		.byte	0x10
 7711 1e32 22       		.byte	0x22
 7712 1e33 5201     		.2byte	0x152
 7713 1e35 6E1E0000 		.4byte	0x1e6e
 7714 1e39 0A       		.uleb128 0xa
 7715 1e3a 54130000 		.4byte	.LASF359
 7716 1e3e 22       		.byte	0x22
 7717 1e3f 5601     		.2byte	0x156
 7718 1e41 03010000 		.4byte	0x103
 7719 1e45 00       		.byte	0
 7720 1e46 0A       		.uleb128 0xa
 7721 1e47 870A0000 		.4byte	.LASF360
 7722 1e4b 22       		.byte	0x22
 7723 1e4c 5A01     		.2byte	0x15a
 7724 1e4e AE1D0000 		.4byte	0x1dae
 7725 1e52 04       		.byte	0x4
 7726 1e53 0A       		.uleb128 0xa
 7727 1e54 85290000 		.4byte	.LASF361
 7728 1e58 22       		.byte	0x22
 7729 1e59 5E01     		.2byte	0x15e
 7730 1e5b E11D0000 		.4byte	0x1de1
 7731 1e5f 08       		.byte	0x8
 7732 1e60 0A       		.uleb128 0xa
 7733 1e61 C1170000 		.4byte	.LASF413
 7734 1e65 22       		.byte	0x22
 7735 1e66 6601     		.2byte	0x166
 7736 1e68 03010000 		.4byte	0x103
 7737 1e6c 0C       		.byte	0xc
 7738 1e6d 00       		.byte	0
 7739 1e6e 1A       		.uleb128 0x1a
 7740 1e6f 0A150000 		.4byte	.LASF414
 7741 1e73 22       		.byte	0x22
 7742 1e74 6701     		.2byte	0x167
 7743 1e76 301E0000 		.4byte	0x1e30
 7744 1e7a 05       		.uleb128 0x5
 7745 1e7b 6E1E0000 		.4byte	0x1e6e
 7746 1e7f 19       		.uleb128 0x19
 7747 1e80 04       		.byte	0x4
 7748 1e81 22       		.byte	0x22
 7749 1e82 6C01     		.2byte	0x16c
 7750 1e84 A31E0000 		.4byte	0x1ea3
 7751 1e88 0A       		.uleb128 0xa
 7752 1e89 6D0C0000 		.4byte	.LASF415
 7753 1e8d 22       		.byte	0x22
 7754 1e8e 7101     		.2byte	0x171
 7755 1e90 761D0000 		.4byte	0x1d76
 7756 1e94 00       		.byte	0
 7757 1e95 0A       		.uleb128 0xa
 7758 1e96 19010000 		.4byte	.LASF416
 7759 1e9a 22       		.byte	0x22
 7760 1e9b 7501     		.2byte	0x175
 7761 1e9d 241E0000 		.4byte	0x1e24
 7762 1ea1 02       		.byte	0x2
 7763 1ea2 00       		.byte	0
 7764 1ea3 1A       		.uleb128 0x1a
ARM GAS  C:\Users\JEANCO~1\AppData\Local\Temp\ccxhVNGN.s 			page 138


 7765 1ea4 660E0000 		.4byte	.LASF417
 7766 1ea8 22       		.byte	0x22
 7767 1ea9 7601     		.2byte	0x176
 7768 1eab 7F1E0000 		.4byte	0x1e7f
 7769 1eaf 05       		.uleb128 0x5
 7770 1eb0 A31E0000 		.4byte	0x1ea3
 7771 1eb4 0B       		.uleb128 0xb
 7772 1eb5 04       		.byte	0x4
 7773 1eb6 7A1E0000 		.4byte	0x1e7a
 7774 1eba 0B       		.uleb128 0xb
 7775 1ebb 04       		.byte	0x4
 7776 1ebc AF1E0000 		.4byte	0x1eaf
 7777 1ec0 0B       		.uleb128 0xb
 7778 1ec1 04       		.byte	0x4
 7779 1ec2 EF1C0000 		.4byte	0x1cef
 7780 1ec6 15       		.uleb128 0x15
 7781 1ec7 86040000 		.4byte	.LASF418
 7782 1ecb 22       		.byte	0x22
 7783 1ecc B301     		.2byte	0x1b3
 7784 1ece F41C0000 		.4byte	0x1cf4
 7785 1ed2 21       		.uleb128 0x21
 7786 1ed3 07       		.byte	0x7
 7787 1ed4 01       		.byte	0x1
 7788 1ed5 6C000000 		.4byte	0x6c
 7789 1ed9 23       		.byte	0x23
 7790 1eda 3F       		.byte	0x3f
 7791 1edb F21E0000 		.4byte	0x1ef2
 7792 1edf 22       		.uleb128 0x22
 7793 1ee0 470B0000 		.4byte	.LASF419
 7794 1ee4 00       		.byte	0
 7795 1ee5 22       		.uleb128 0x22
 7796 1ee6 562C0000 		.4byte	.LASF420
 7797 1eea 01       		.byte	0x1
 7798 1eeb 22       		.uleb128 0x22
 7799 1eec 78020000 		.4byte	.LASF421
 7800 1ef0 02       		.byte	0x2
 7801 1ef1 00       		.byte	0
 7802 1ef2 04       		.uleb128 0x4
 7803 1ef3 62200000 		.4byte	.LASF422
 7804 1ef7 23       		.byte	0x23
 7805 1ef8 43       		.byte	0x43
 7806 1ef9 D21E0000 		.4byte	0x1ed2
 7807 1efd 04       		.uleb128 0x4
 7808 1efe C3090000 		.4byte	.LASF423
 7809 1f02 23       		.byte	0x23
 7810 1f03 48       		.byte	0x48
 7811 1f04 081F0000 		.4byte	0x1f08
 7812 1f08 07       		.uleb128 0x7
 7813 1f09 C3090000 		.4byte	.LASF423
 7814 1f0d 08       		.byte	0x8
 7815 1f0e 24       		.byte	0x24
 7816 1f0f 71       		.byte	0x71
 7817 1f10 2D1F0000 		.4byte	0x1f2d
 7818 1f14 08       		.uleb128 0x8
 7819 1f15 5B190000 		.4byte	.LASF347
 7820 1f19 24       		.byte	0x24
 7821 1f1a 75       		.byte	0x75
ARM GAS  C:\Users\JEANCO~1\AppData\Local\Temp\ccxhVNGN.s 			page 139


 7822 1f1b F21E0000 		.4byte	0x1ef2
 7823 1f1f 00       		.byte	0
 7824 1f20 08       		.uleb128 0x8
 7825 1f21 F6200000 		.4byte	.LASF348
 7826 1f25 24       		.byte	0x24
 7827 1f26 79       		.byte	0x79
 7828 1f27 BF1F0000 		.4byte	0x1fbf
 7829 1f2b 04       		.byte	0x4
 7830 1f2c 00       		.byte	0
 7831 1f2d 04       		.uleb128 0x4
 7832 1f2e EB290000 		.4byte	.LASF424
 7833 1f32 24       		.byte	0x24
 7834 1f33 47       		.byte	0x47
 7835 1f34 03010000 		.4byte	0x103
 7836 1f38 04       		.uleb128 0x4
 7837 1f39 44240000 		.4byte	.LASF425
 7838 1f3d 24       		.byte	0x24
 7839 1f3e 4F       		.byte	0x4f
 7840 1f3f 431F0000 		.4byte	0x1f43
 7841 1f43 0B       		.uleb128 0xb
 7842 1f44 04       		.byte	0x4
 7843 1f45 491F0000 		.4byte	0x1f49
 7844 1f49 0D       		.uleb128 0xd
 7845 1f4a 591F0000 		.4byte	0x1f59
 7846 1f4e 0E       		.uleb128 0xe
 7847 1f4f 591F0000 		.4byte	0x1f59
 7848 1f53 0E       		.uleb128 0xe
 7849 1f54 2D1F0000 		.4byte	0x1f2d
 7850 1f58 00       		.byte	0
 7851 1f59 0B       		.uleb128 0xb
 7852 1f5a 04       		.byte	0x4
 7853 1f5b FD1E0000 		.4byte	0x1efd
 7854 1f5f 17       		.uleb128 0x17
 7855 1f60 08       		.byte	0x8
 7856 1f61 24       		.byte	0x24
 7857 1f62 54       		.byte	0x54
 7858 1f63 7F1F0000 		.4byte	0x1f7f
 7859 1f67 08       		.uleb128 0x8
 7860 1f68 A8090000 		.4byte	.LASF426
 7861 1f6c 24       		.byte	0x24
 7862 1f6d 58       		.byte	0x58
 7863 1f6e 03010000 		.4byte	0x103
 7864 1f72 00       		.byte	0
 7865 1f73 18       		.uleb128 0x18
 7866 1f74 636200   		.ascii	"cb\000"
 7867 1f77 24       		.byte	0x24
 7868 1f78 5F       		.byte	0x5f
 7869 1f79 381F0000 		.4byte	0x1f38
 7870 1f7d 04       		.byte	0x4
 7871 1f7e 00       		.byte	0
 7872 1f7f 04       		.uleb128 0x4
 7873 1f80 2C100000 		.4byte	.LASF427
 7874 1f84 24       		.byte	0x24
 7875 1f85 60       		.byte	0x60
 7876 1f86 5F1F0000 		.4byte	0x1f5f
 7877 1f8a 17       		.uleb128 0x17
 7878 1f8b B8       		.byte	0xb8
ARM GAS  C:\Users\JEANCO~1\AppData\Local\Temp\ccxhVNGN.s 			page 140


 7879 1f8c 24       		.byte	0x24
 7880 1f8d 66       		.byte	0x66
 7881 1f8e 9F1F0000 		.4byte	0x1f9f
 7882 1f92 08       		.uleb128 0x8
 7883 1f93 98260000 		.4byte	.LASF428
 7884 1f97 24       		.byte	0x24
 7885 1f98 6A       		.byte	0x6a
 7886 1f99 9F1F0000 		.4byte	0x1f9f
 7887 1f9d 00       		.byte	0
 7888 1f9e 00       		.byte	0
 7889 1f9f 13       		.uleb128 0x13
 7890 1fa0 7F1F0000 		.4byte	0x1f7f
 7891 1fa4 AF1F0000 		.4byte	0x1faf
 7892 1fa8 14       		.uleb128 0x14
 7893 1fa9 45000000 		.4byte	0x45
 7894 1fad 16       		.byte	0x16
 7895 1fae 00       		.byte	0
 7896 1faf 04       		.uleb128 0x4
 7897 1fb0 21230000 		.4byte	.LASF429
 7898 1fb4 24       		.byte	0x24
 7899 1fb5 6C       		.byte	0x6c
 7900 1fb6 8A1F0000 		.4byte	0x1f8a
 7901 1fba 05       		.uleb128 0x5
 7902 1fbb AF1F0000 		.4byte	0x1faf
 7903 1fbf 0B       		.uleb128 0xb
 7904 1fc0 04       		.byte	0x4
 7905 1fc1 BA1F0000 		.4byte	0x1fba
 7906 1fc5 16       		.uleb128 0x16
 7907 1fc6 B7060000 		.4byte	.LASF430
 7908 1fca 24       		.byte	0x24
 7909 1fcb 86       		.byte	0x86
 7910 1fcc FD1E0000 		.4byte	0x1efd
 7911 1fd0 21       		.uleb128 0x21
 7912 1fd1 07       		.byte	0x7
 7913 1fd2 01       		.byte	0x1
 7914 1fd3 6C000000 		.4byte	0x6c
 7915 1fd7 25       		.byte	0x25
 7916 1fd8 31       		.byte	0x31
 7917 1fd9 FC1F0000 		.4byte	0x1ffc
 7918 1fdd 22       		.uleb128 0x22
 7919 1fde 211A0000 		.4byte	.LASF431
 7920 1fe2 00       		.byte	0
 7921 1fe3 22       		.uleb128 0x22
 7922 1fe4 E9170000 		.4byte	.LASF432
 7923 1fe8 01       		.byte	0x1
 7924 1fe9 22       		.uleb128 0x22
 7925 1fea 691D0000 		.4byte	.LASF433
 7926 1fee 02       		.byte	0x2
 7927 1fef 22       		.uleb128 0x22
 7928 1ff0 E9080000 		.4byte	.LASF434
 7929 1ff4 03       		.byte	0x3
 7930 1ff5 22       		.uleb128 0x22
 7931 1ff6 30050000 		.4byte	.LASF435
 7932 1ffa 04       		.byte	0x4
 7933 1ffb 00       		.byte	0
 7934 1ffc 04       		.uleb128 0x4
 7935 1ffd 9F160000 		.4byte	.LASF436
ARM GAS  C:\Users\JEANCO~1\AppData\Local\Temp\ccxhVNGN.s 			page 141


 7936 2001 25       		.byte	0x25
 7937 2002 37       		.byte	0x37
 7938 2003 D01F0000 		.4byte	0x1fd0
 7939 2007 04       		.uleb128 0x4
 7940 2008 BF1B0000 		.4byte	.LASF437
 7941 200c 25       		.byte	0x25
 7942 200d 3C       		.byte	0x3c
 7943 200e 12200000 		.4byte	0x2012
 7944 2012 0C       		.uleb128 0xc
 7945 2013 BF1B0000 		.4byte	.LASF437
 7946 2017 10       		.byte	0x10
 7947 2018 26       		.byte	0x26
 7948 2019 9701     		.2byte	0x197
 7949 201b 54200000 		.4byte	0x2054
 7950 201f 0A       		.uleb128 0xa
 7951 2020 5B190000 		.4byte	.LASF347
 7952 2024 26       		.byte	0x26
 7953 2025 9B01     		.2byte	0x19b
 7954 2027 FC1F0000 		.4byte	0x1ffc
 7955 202b 00       		.byte	0
 7956 202c 0A       		.uleb128 0xa
 7957 202d F6200000 		.4byte	.LASF348
 7958 2031 26       		.byte	0x26
 7959 2032 9F01     		.2byte	0x19f
 7960 2034 E9210000 		.4byte	0x21e9
 7961 2038 04       		.byte	0x4
 7962 2039 0A       		.uleb128 0xa
 7963 203a 7A0E0000 		.4byte	.LASF438
 7964 203e 26       		.byte	0x26
 7965 203f A701     		.2byte	0x1a7
 7966 2041 03010000 		.4byte	0x103
 7967 2045 08       		.byte	0x8
 7968 2046 09       		.uleb128 0x9
 7969 2047 74696D00 		.ascii	"tim\000"
 7970 204b 26       		.byte	0x26
 7971 204c AB01     		.2byte	0x1ab
 7972 204e EF210000 		.4byte	0x21ef
 7973 2052 0C       		.byte	0xc
 7974 2053 00       		.byte	0
 7975 2054 04       		.uleb128 0x4
 7976 2055 78140000 		.4byte	.LASF439
 7977 2059 25       		.byte	0x25
 7978 205a 43       		.byte	0x43
 7979 205b 5F200000 		.4byte	0x205f
 7980 205f 0B       		.uleb128 0xb
 7981 2060 04       		.byte	0x4
 7982 2061 65200000 		.4byte	0x2065
 7983 2065 0D       		.uleb128 0xd
 7984 2066 70200000 		.4byte	0x2070
 7985 206a 0E       		.uleb128 0xe
 7986 206b 70200000 		.4byte	0x2070
 7987 206f 00       		.byte	0
 7988 2070 0B       		.uleb128 0xb
 7989 2071 04       		.byte	0x4
 7990 2072 07200000 		.4byte	0x2007
 7991 2076 19       		.uleb128 0x19
 7992 2077 60       		.byte	0x60
ARM GAS  C:\Users\JEANCO~1\AppData\Local\Temp\ccxhVNGN.s 			page 142


 7993 2078 27       		.byte	0x27
 7994 2079 9E01     		.2byte	0x19e
 7995 207b 82210000 		.4byte	0x2182
 7996 207f 09       		.uleb128 0x9
 7997 2080 43523100 		.ascii	"CR1\000"
 7998 2084 27       		.byte	0x27
 7999 2085 9F01     		.2byte	0x19f
 8000 2087 0E010000 		.4byte	0x10e
 8001 208b 00       		.byte	0
 8002 208c 09       		.uleb128 0x9
 8003 208d 43523200 		.ascii	"CR2\000"
 8004 2091 27       		.byte	0x27
 8005 2092 A001     		.2byte	0x1a0
 8006 2094 0E010000 		.4byte	0x10e
 8007 2098 04       		.byte	0x4
 8008 2099 0A       		.uleb128 0xa
 8009 209a A3250000 		.4byte	.LASF440
 8010 209e 27       		.byte	0x27
 8011 209f A101     		.2byte	0x1a1
 8012 20a1 0E010000 		.4byte	0x10e
 8013 20a5 08       		.byte	0x8
 8014 20a6 0A       		.uleb128 0xa
 8015 20a7 9F0B0000 		.4byte	.LASF441
 8016 20ab 27       		.byte	0x27
 8017 20ac A201     		.2byte	0x1a2
 8018 20ae 0E010000 		.4byte	0x10e
 8019 20b2 0C       		.byte	0xc
 8020 20b3 09       		.uleb128 0x9
 8021 20b4 535200   		.ascii	"SR\000"
 8022 20b7 27       		.byte	0x27
 8023 20b8 A301     		.2byte	0x1a3
 8024 20ba 0E010000 		.4byte	0x10e
 8025 20be 10       		.byte	0x10
 8026 20bf 09       		.uleb128 0x9
 8027 20c0 45475200 		.ascii	"EGR\000"
 8028 20c4 27       		.byte	0x27
 8029 20c5 A401     		.2byte	0x1a4
 8030 20c7 0E010000 		.4byte	0x10e
 8031 20cb 14       		.byte	0x14
 8032 20cc 0A       		.uleb128 0xa
 8033 20cd DE2A0000 		.4byte	.LASF442
 8034 20d1 27       		.byte	0x27
 8035 20d2 A501     		.2byte	0x1a5
 8036 20d4 0E010000 		.4byte	0x10e
 8037 20d8 18       		.byte	0x18
 8038 20d9 0A       		.uleb128 0xa
 8039 20da E42A0000 		.4byte	.LASF443
 8040 20de 27       		.byte	0x27
 8041 20df A601     		.2byte	0x1a6
 8042 20e1 0E010000 		.4byte	0x10e
 8043 20e5 1C       		.byte	0x1c
 8044 20e6 0A       		.uleb128 0xa
 8045 20e7 5D080000 		.4byte	.LASF444
 8046 20eb 27       		.byte	0x27
 8047 20ec A701     		.2byte	0x1a7
 8048 20ee 0E010000 		.4byte	0x10e
 8049 20f2 20       		.byte	0x20
ARM GAS  C:\Users\JEANCO~1\AppData\Local\Temp\ccxhVNGN.s 			page 143


 8050 20f3 09       		.uleb128 0x9
 8051 20f4 434E5400 		.ascii	"CNT\000"
 8052 20f8 27       		.byte	0x27
 8053 20f9 A801     		.2byte	0x1a8
 8054 20fb 0E010000 		.4byte	0x10e
 8055 20ff 24       		.byte	0x24
 8056 2100 09       		.uleb128 0x9
 8057 2101 50534300 		.ascii	"PSC\000"
 8058 2105 27       		.byte	0x27
 8059 2106 A901     		.2byte	0x1a9
 8060 2108 0E010000 		.4byte	0x10e
 8061 210c 28       		.byte	0x28
 8062 210d 09       		.uleb128 0x9
 8063 210e 41525200 		.ascii	"ARR\000"
 8064 2112 27       		.byte	0x27
 8065 2113 AA01     		.2byte	0x1aa
 8066 2115 0E010000 		.4byte	0x10e
 8067 2119 2C       		.byte	0x2c
 8068 211a 09       		.uleb128 0x9
 8069 211b 52435200 		.ascii	"RCR\000"
 8070 211f 27       		.byte	0x27
 8071 2120 AB01     		.2byte	0x1ab
 8072 2122 0E010000 		.4byte	0x10e
 8073 2126 30       		.byte	0x30
 8074 2127 09       		.uleb128 0x9
 8075 2128 43435200 		.ascii	"CCR\000"
 8076 212c 27       		.byte	0x27
 8077 212d AC01     		.2byte	0x1ac
 8078 212f AE0A0000 		.4byte	0xaae
 8079 2133 34       		.byte	0x34
 8080 2134 0A       		.uleb128 0xa
 8081 2135 26020000 		.4byte	.LASF445
 8082 2139 27       		.byte	0x27
 8083 213a AD01     		.2byte	0x1ad
 8084 213c 0E010000 		.4byte	0x10e
 8085 2140 44       		.byte	0x44
 8086 2141 09       		.uleb128 0x9
 8087 2142 44435200 		.ascii	"DCR\000"
 8088 2146 27       		.byte	0x27
 8089 2147 AE01     		.2byte	0x1ae
 8090 2149 0E010000 		.4byte	0x10e
 8091 214d 48       		.byte	0x48
 8092 214e 0A       		.uleb128 0xa
 8093 214f C4190000 		.4byte	.LASF446
 8094 2153 27       		.byte	0x27
 8095 2154 AF01     		.2byte	0x1af
 8096 2156 0E010000 		.4byte	0x10e
 8097 215a 4C       		.byte	0x4c
 8098 215b 09       		.uleb128 0x9
 8099 215c 4F5200   		.ascii	"OR\000"
 8100 215f 27       		.byte	0x27
 8101 2160 B001     		.2byte	0x1b0
 8102 2162 0E010000 		.4byte	0x10e
 8103 2166 50       		.byte	0x50
 8104 2167 0A       		.uleb128 0xa
 8105 2168 EA2A0000 		.4byte	.LASF447
 8106 216c 27       		.byte	0x27
ARM GAS  C:\Users\JEANCO~1\AppData\Local\Temp\ccxhVNGN.s 			page 144


 8107 216d B101     		.2byte	0x1b1
 8108 216f 0E010000 		.4byte	0x10e
 8109 2173 54       		.byte	0x54
 8110 2174 0A       		.uleb128 0xa
 8111 2175 860E0000 		.4byte	.LASF448
 8112 2179 27       		.byte	0x27
 8113 217a B201     		.2byte	0x1b2
 8114 217c 990A0000 		.4byte	0xa99
 8115 2180 58       		.byte	0x58
 8116 2181 00       		.byte	0
 8117 2182 1A       		.uleb128 0x1a
 8118 2183 CE240000 		.4byte	.LASF449
 8119 2187 27       		.byte	0x27
 8120 2188 B301     		.2byte	0x1b3
 8121 218a 76200000 		.4byte	0x2076
 8122 218e 1A       		.uleb128 0x1a
 8123 218f 000A0000 		.4byte	.LASF450
 8124 2193 26       		.byte	0x26
 8125 2194 6D01     		.2byte	0x16d
 8126 2196 03010000 		.4byte	0x103
 8127 219a 19       		.uleb128 0x19
 8128 219b 10       		.byte	0x10
 8129 219c 26       		.byte	0x26
 8130 219d 7801     		.2byte	0x178
 8131 219f D8210000 		.4byte	0x21d8
 8132 21a3 0A       		.uleb128 0xa
 8133 21a4 3A2A0000 		.4byte	.LASF451
 8134 21a8 26       		.byte	0x26
 8135 21a9 7E01     		.2byte	0x17e
 8136 21ab 8E210000 		.4byte	0x218e
 8137 21af 00       		.byte	0
 8138 21b0 0A       		.uleb128 0xa
 8139 21b1 C9190000 		.4byte	.LASF452
 8140 21b5 26       		.byte	0x26
 8141 21b6 8501     		.2byte	0x185
 8142 21b8 54200000 		.4byte	0x2054
 8143 21bc 04       		.byte	0x4
 8144 21bd 09       		.uleb128 0x9
 8145 21be 63723200 		.ascii	"cr2\000"
 8146 21c2 26       		.byte	0x26
 8147 21c3 8B01     		.2byte	0x18b
 8148 21c5 03010000 		.4byte	0x103
 8149 21c9 08       		.byte	0x8
 8150 21ca 0A       		.uleb128 0xa
 8151 21cb C80D0000 		.4byte	.LASF453
 8152 21cf 26       		.byte	0x26
 8153 21d0 9101     		.2byte	0x191
 8154 21d2 03010000 		.4byte	0x103
 8155 21d6 0C       		.byte	0xc
 8156 21d7 00       		.byte	0
 8157 21d8 1A       		.uleb128 0x1a
 8158 21d9 6B070000 		.4byte	.LASF454
 8159 21dd 26       		.byte	0x26
 8160 21de 9201     		.2byte	0x192
 8161 21e0 9A210000 		.4byte	0x219a
 8162 21e4 05       		.uleb128 0x5
 8163 21e5 D8210000 		.4byte	0x21d8
ARM GAS  C:\Users\JEANCO~1\AppData\Local\Temp\ccxhVNGN.s 			page 145


 8164 21e9 0B       		.uleb128 0xb
 8165 21ea 04       		.byte	0x4
 8166 21eb E4210000 		.4byte	0x21e4
 8167 21ef 0B       		.uleb128 0xb
 8168 21f0 04       		.byte	0x4
 8169 21f1 82210000 		.4byte	0x2182
 8170 21f5 15       		.uleb128 0x15
 8171 21f6 6B290000 		.4byte	.LASF455
 8172 21fa 26       		.byte	0x26
 8173 21fb F201     		.2byte	0x1f2
 8174 21fd 07200000 		.4byte	0x2007
 8175 2201 15       		.uleb128 0x15
 8176 2202 FD200000 		.4byte	.LASF456
 8177 2206 26       		.byte	0x26
 8178 2207 0202     		.2byte	0x202
 8179 2209 07200000 		.4byte	0x2007
 8180 220d 15       		.uleb128 0x15
 8181 220e 04210000 		.4byte	.LASF457
 8182 2212 26       		.byte	0x26
 8183 2213 0602     		.2byte	0x206
 8184 2215 07200000 		.4byte	0x2007
 8185 2219 21       		.uleb128 0x21
 8186 221a 07       		.byte	0x7
 8187 221b 01       		.byte	0x1
 8188 221c 6C000000 		.4byte	0x6c
 8189 2220 28       		.byte	0x28
 8190 2221 4C       		.byte	0x4c
 8191 2222 4B220000 		.4byte	0x224b
 8192 2226 22       		.uleb128 0x22
 8193 2227 36070000 		.4byte	.LASF458
 8194 222b 00       		.byte	0
 8195 222c 22       		.uleb128 0x22
 8196 222d E30F0000 		.4byte	.LASF459
 8197 2231 01       		.byte	0x1
 8198 2232 22       		.uleb128 0x22
 8199 2233 BA070000 		.4byte	.LASF460
 8200 2237 02       		.byte	0x2
 8201 2238 22       		.uleb128 0x22
 8202 2239 5F050000 		.4byte	.LASF461
 8203 223d 03       		.byte	0x3
 8204 223e 22       		.uleb128 0x22
 8205 223f D9030000 		.4byte	.LASF462
 8206 2243 04       		.byte	0x4
 8207 2244 22       		.uleb128 0x22
 8208 2245 5D160000 		.4byte	.LASF463
 8209 2249 05       		.byte	0x5
 8210 224a 00       		.byte	0
 8211 224b 04       		.uleb128 0x4
 8212 224c 1F140000 		.4byte	.LASF464
 8213 2250 28       		.byte	0x28
 8214 2251 53       		.byte	0x53
 8215 2252 19220000 		.4byte	0x2219
 8216 2256 1A       		.uleb128 0x1a
 8217 2257 E2050000 		.4byte	.LASF465
 8218 225b 29       		.byte	0x29
 8219 225c 6A01     		.2byte	0x16a
 8220 225e E8000000 		.4byte	0xe8
ARM GAS  C:\Users\JEANCO~1\AppData\Local\Temp\ccxhVNGN.s 			page 146


 8221 2262 1A       		.uleb128 0x1a
 8222 2263 B3040000 		.4byte	.LASF466
 8223 2267 29       		.byte	0x29
 8224 2268 6F01     		.2byte	0x16f
 8225 226a 03010000 		.4byte	0x103
 8226 226e 24       		.uleb128 0x24
 8227 226f 07       		.byte	0x7
 8228 2270 01       		.byte	0x1
 8229 2271 6C000000 		.4byte	0x6c
 8230 2275 29       		.byte	0x29
 8231 2276 7401     		.2byte	0x174
 8232 2278 8F220000 		.4byte	0x228f
 8233 227c 22       		.uleb128 0x22
 8234 227d 72050000 		.4byte	.LASF467
 8235 2281 01       		.byte	0x1
 8236 2282 22       		.uleb128 0x22
 8237 2283 A2000000 		.4byte	.LASF468
 8238 2287 02       		.byte	0x2
 8239 2288 22       		.uleb128 0x22
 8240 2289 070B0000 		.4byte	.LASF469
 8241 228d 03       		.byte	0x3
 8242 228e 00       		.byte	0
 8243 228f 1A       		.uleb128 0x1a
 8244 2290 4D2B0000 		.4byte	.LASF470
 8245 2294 29       		.byte	0x29
 8246 2295 7801     		.2byte	0x178
 8247 2297 6E220000 		.4byte	0x226e
 8248 229b 24       		.uleb128 0x24
 8249 229c 07       		.byte	0x7
 8250 229d 01       		.byte	0x1
 8251 229e 6C000000 		.4byte	0x6c
 8252 22a2 29       		.byte	0x29
 8253 22a3 7D01     		.2byte	0x17d
 8254 22a5 BC220000 		.4byte	0x22bc
 8255 22a9 22       		.uleb128 0x22
 8256 22aa 88060000 		.4byte	.LASF471
 8257 22ae 01       		.byte	0x1
 8258 22af 22       		.uleb128 0x22
 8259 22b0 932A0000 		.4byte	.LASF472
 8260 22b4 02       		.byte	0x2
 8261 22b5 22       		.uleb128 0x22
 8262 22b6 230C0000 		.4byte	.LASF473
 8263 22ba 03       		.byte	0x3
 8264 22bb 00       		.byte	0
 8265 22bc 1A       		.uleb128 0x1a
 8266 22bd DE070000 		.4byte	.LASF474
 8267 22c1 29       		.byte	0x29
 8268 22c2 8101     		.2byte	0x181
 8269 22c4 9B220000 		.4byte	0x229b
 8270 22c8 19       		.uleb128 0x19
 8271 22c9 0C       		.byte	0xc
 8272 22ca 29       		.byte	0x29
 8273 22cb 8601     		.2byte	0x186
 8274 22cd F9220000 		.4byte	0x22f9
 8275 22d1 0A       		.uleb128 0xa
 8276 22d2 11180000 		.4byte	.LASF475
 8277 22d6 29       		.byte	0x29
ARM GAS  C:\Users\JEANCO~1\AppData\Local\Temp\ccxhVNGN.s 			page 147


 8278 22d7 8801     		.2byte	0x188
 8279 22d9 8F220000 		.4byte	0x228f
 8280 22dd 00       		.byte	0
 8281 22de 0A       		.uleb128 0xa
 8282 22df 68040000 		.4byte	.LASF476
 8283 22e3 29       		.byte	0x29
 8284 22e4 8901     		.2byte	0x189
 8285 22e6 03010000 		.4byte	0x103
 8286 22ea 04       		.byte	0x4
 8287 22eb 0A       		.uleb128 0xa
 8288 22ec 062C0000 		.4byte	.LASF477
 8289 22f0 29       		.byte	0x29
 8290 22f1 8C01     		.2byte	0x18c
 8291 22f3 BC220000 		.4byte	0x22bc
 8292 22f7 08       		.byte	0x8
 8293 22f8 00       		.byte	0
 8294 22f9 1A       		.uleb128 0x1a
 8295 22fa 3F020000 		.4byte	.LASF478
 8296 22fe 29       		.byte	0x29
 8297 22ff 8E01     		.2byte	0x18e
 8298 2301 C8220000 		.4byte	0x22c8
 8299 2305 05       		.uleb128 0x5
 8300 2306 F9220000 		.4byte	0x22f9
 8301 230a 1A       		.uleb128 0x1a
 8302 230b 55050000 		.4byte	.LASF479
 8303 230f 29       		.byte	0x29
 8304 2310 9301     		.2byte	0x193
 8305 2312 16230000 		.4byte	0x2316
 8306 2316 0C       		.uleb128 0xc
 8307 2317 55050000 		.4byte	.LASF479
 8308 231b 3C       		.byte	0x3c
 8309 231c 29       		.byte	0x29
 8310 231d 9801     		.2byte	0x198
 8311 231f B3230000 		.4byte	0x23b3
 8312 2323 0A       		.uleb128 0xa
 8313 2324 5B190000 		.4byte	.LASF347
 8314 2328 29       		.byte	0x29
 8315 2329 9C01     		.2byte	0x19c
 8316 232b 4B220000 		.4byte	0x224b
 8317 232f 00       		.byte	0
 8318 2330 0A       		.uleb128 0xa
 8319 2331 F6200000 		.4byte	.LASF348
 8320 2335 29       		.byte	0x29
 8321 2336 A001     		.2byte	0x1a0
 8322 2338 B3230000 		.4byte	0x23b3
 8323 233c 04       		.byte	0x4
 8324 233d 0A       		.uleb128 0xa
 8325 233e 84010000 		.4byte	.LASF480
 8326 2342 29       		.byte	0x29
 8327 2343 A401     		.2byte	0x1a4
 8328 2345 62220000 		.4byte	0x2262
 8329 2349 08       		.byte	0x8
 8330 234a 0A       		.uleb128 0xa
 8331 234b 320E0000 		.4byte	.LASF353
 8332 234f 29       		.byte	0x29
 8333 2350 A901     		.2byte	0x1a9
 8334 2352 82120000 		.4byte	0x1282
ARM GAS  C:\Users\JEANCO~1\AppData\Local\Temp\ccxhVNGN.s 			page 148


 8335 2356 0C       		.byte	0xc
 8336 2357 0A       		.uleb128 0xa
 8337 2358 08080000 		.4byte	.LASF352
 8338 235c 29       		.byte	0x29
 8339 235d B201     		.2byte	0x1b2
 8340 235f E0020000 		.4byte	0x2e0
 8341 2363 20       		.byte	0x20
 8342 2364 0A       		.uleb128 0xa
 8343 2365 FC0F0000 		.4byte	.LASF481
 8344 2369 29       		.byte	0x29
 8345 236a B601     		.2byte	0x1b6
 8346 236c 56220000 		.4byte	0x2256
 8347 2370 24       		.byte	0x24
 8348 2371 0A       		.uleb128 0xa
 8349 2372 94090000 		.4byte	.LASF482
 8350 2376 29       		.byte	0x29
 8351 2377 BA01     		.2byte	0x1ba
 8352 2379 03010000 		.4byte	0x103
 8353 237d 28       		.byte	0x28
 8354 237e 0A       		.uleb128 0xa
 8355 237f EE090000 		.4byte	.LASF483
 8356 2383 29       		.byte	0x29
 8357 2384 BE01     		.2byte	0x1be
 8358 2386 03010000 		.4byte	0x103
 8359 238a 2C       		.byte	0x2c
 8360 238b 0A       		.uleb128 0xa
 8361 238c 22010000 		.4byte	.LASF484
 8362 2390 29       		.byte	0x29
 8363 2391 C201     		.2byte	0x1c2
 8364 2393 E91A0000 		.4byte	0x1ae9
 8365 2397 30       		.byte	0x30
 8366 2398 0A       		.uleb128 0xa
 8367 2399 52020000 		.4byte	.LASF485
 8368 239d 29       		.byte	0x29
 8369 239e C601     		.2byte	0x1c6
 8370 23a0 E91A0000 		.4byte	0x1ae9
 8371 23a4 34       		.byte	0x34
 8372 23a5 09       		.uleb128 0x9
 8373 23a6 69326300 		.ascii	"i2c\000"
 8374 23aa 29       		.byte	0x29
 8375 23ab CA01     		.2byte	0x1ca
 8376 23ad B9230000 		.4byte	0x23b9
 8377 23b1 38       		.byte	0x38
 8378 23b2 00       		.byte	0
 8379 23b3 0B       		.uleb128 0xb
 8380 23b4 04       		.byte	0x4
 8381 23b5 05230000 		.4byte	0x2305
 8382 23b9 0B       		.uleb128 0xb
 8383 23ba 04       		.byte	0x4
 8384 23bb 3E0B0000 		.4byte	0xb3e
 8385 23bf 15       		.uleb128 0x15
 8386 23c0 96140000 		.4byte	.LASF486
 8387 23c4 29       		.byte	0x29
 8388 23c5 E001     		.2byte	0x1e0
 8389 23c7 0A230000 		.4byte	0x230a
 8390 23cb 21       		.uleb128 0x21
 8391 23cc 07       		.byte	0x7
ARM GAS  C:\Users\JEANCO~1\AppData\Local\Temp\ccxhVNGN.s 			page 149


 8392 23cd 01       		.byte	0x1
 8393 23ce 6C000000 		.4byte	0x6c
 8394 23d2 2A       		.byte	0x2a
 8395 23d3 39       		.byte	0x39
 8396 23d4 F7230000 		.4byte	0x23f7
 8397 23d8 22       		.uleb128 0x22
 8398 23d9 E6120000 		.4byte	.LASF487
 8399 23dd 00       		.byte	0
 8400 23de 22       		.uleb128 0x22
 8401 23df 040E0000 		.4byte	.LASF488
 8402 23e3 01       		.byte	0x1
 8403 23e4 22       		.uleb128 0x22
 8404 23e5 38010000 		.4byte	.LASF489
 8405 23e9 02       		.byte	0x2
 8406 23ea 22       		.uleb128 0x22
 8407 23eb 5E1D0000 		.4byte	.LASF490
 8408 23ef 03       		.byte	0x3
 8409 23f0 22       		.uleb128 0x22
 8410 23f1 D0230000 		.4byte	.LASF491
 8411 23f5 04       		.byte	0x4
 8412 23f6 00       		.byte	0
 8413 23f7 04       		.uleb128 0x4
 8414 23f8 69270000 		.4byte	.LASF492
 8415 23fc 2A       		.byte	0x2a
 8416 23fd 3F       		.byte	0x3f
 8417 23fe CB230000 		.4byte	0x23cb
 8418 2402 04       		.uleb128 0x4
 8419 2403 FC2B0000 		.4byte	.LASF493
 8420 2407 2B       		.byte	0x2b
 8421 2408 E2       		.byte	0xe2
 8422 2409 0D240000 		.4byte	0x240d
 8423 240d 0C       		.uleb128 0xc
 8424 240e FC2B0000 		.4byte	.LASF493
 8425 2412 20       		.byte	0x20
 8426 2413 2B       		.byte	0x2b
 8427 2414 1B01     		.2byte	0x11b
 8428 2416 83240000 		.4byte	0x2483
 8429 241a 0A       		.uleb128 0xa
 8430 241b 5B190000 		.4byte	.LASF347
 8431 241f 2B       		.byte	0x2b
 8432 2420 1F01     		.2byte	0x11f
 8433 2422 F7230000 		.4byte	0x23f7
 8434 2426 00       		.byte	0
 8435 2427 0A       		.uleb128 0xa
 8436 2428 F6200000 		.4byte	.LASF348
 8437 242c 2B       		.byte	0x2b
 8438 242d 2301     		.2byte	0x123
 8439 242f 1B250000 		.4byte	0x251b
 8440 2433 04       		.byte	0x4
 8441 2434 09       		.uleb128 0x9
 8442 2435 73706900 		.ascii	"spi\000"
 8443 2439 2B       		.byte	0x2b
 8444 243a 2801     		.2byte	0x128
 8445 243c 21250000 		.4byte	0x2521
 8446 2440 08       		.byte	0x8
 8447 2441 09       		.uleb128 0x9
 8448 2442 63666700 		.ascii	"cfg\000"
ARM GAS  C:\Users\JEANCO~1\AppData\Local\Temp\ccxhVNGN.s 			page 150


 8449 2446 2B       		.byte	0x2b
 8450 2447 2C01     		.2byte	0x12c
 8451 2449 E8000000 		.4byte	0xe8
 8452 244d 0C       		.byte	0xc
 8453 244e 0A       		.uleb128 0xa
 8454 244f 22010000 		.4byte	.LASF484
 8455 2453 2B       		.byte	0x2b
 8456 2454 3001     		.2byte	0x130
 8457 2456 E91A0000 		.4byte	0x1ae9
 8458 245a 10       		.byte	0x10
 8459 245b 0A       		.uleb128 0xa
 8460 245c 52020000 		.4byte	.LASF485
 8461 2460 2B       		.byte	0x2b
 8462 2461 3401     		.2byte	0x134
 8463 2463 E91A0000 		.4byte	0x1ae9
 8464 2467 14       		.byte	0x14
 8465 2468 0A       		.uleb128 0xa
 8466 2469 94090000 		.4byte	.LASF482
 8467 246d 2B       		.byte	0x2b
 8468 246e 3801     		.2byte	0x138
 8469 2470 03010000 		.4byte	0x103
 8470 2474 18       		.byte	0x18
 8471 2475 0A       		.uleb128 0xa
 8472 2476 EE090000 		.4byte	.LASF483
 8473 247a 2B       		.byte	0x2b
 8474 247b 3C01     		.2byte	0x13c
 8475 247d 03010000 		.4byte	0x103
 8476 2481 1C       		.byte	0x1c
 8477 2482 00       		.byte	0
 8478 2483 04       		.uleb128 0x4
 8479 2484 DA090000 		.4byte	.LASF494
 8480 2488 2B       		.byte	0x2b
 8481 2489 EB       		.byte	0xeb
 8482 248a 8E240000 		.4byte	0x248e
 8483 248e 0B       		.uleb128 0xb
 8484 248f 04       		.byte	0x4
 8485 2490 94240000 		.4byte	0x2494
 8486 2494 0D       		.uleb128 0xd
 8487 2495 A9240000 		.4byte	0x24a9
 8488 2499 0E       		.uleb128 0xe
 8489 249a A9240000 		.4byte	0x24a9
 8490 249e 0E       		.uleb128 0xe
 8491 249f 3A000000 		.4byte	0x3a
 8492 24a3 0E       		.uleb128 0xe
 8493 24a4 3A000000 		.4byte	0x3a
 8494 24a8 00       		.byte	0
 8495 24a9 0B       		.uleb128 0xb
 8496 24aa 04       		.byte	0x4
 8497 24ab 02240000 		.4byte	0x2402
 8498 24af 17       		.uleb128 0x17
 8499 24b0 14       		.byte	0x14
 8500 24b1 2B       		.byte	0x2b
 8501 24b2 F1       		.byte	0xf1
 8502 24b3 03250000 		.4byte	0x2503
 8503 24b7 08       		.uleb128 0x8
 8504 24b8 AF010000 		.4byte	.LASF495
 8505 24bc 2B       		.byte	0x2b
ARM GAS  C:\Users\JEANCO~1\AppData\Local\Temp\ccxhVNGN.s 			page 151


 8506 24bd F6       		.byte	0xf6
 8507 24be 03250000 		.4byte	0x2503
 8508 24c2 00       		.byte	0
 8509 24c3 08       		.uleb128 0x8
 8510 24c4 7A010000 		.4byte	.LASF496
 8511 24c8 2B       		.byte	0x2b
 8512 24c9 FB       		.byte	0xfb
 8513 24ca C8030000 		.4byte	0x3c8
 8514 24ce 04       		.byte	0x4
 8515 24cf 08       		.uleb128 0x8
 8516 24d0 380E0000 		.4byte	.LASF497
 8517 24d4 2B       		.byte	0x2b
 8518 24d5 FF       		.byte	0xff
 8519 24d6 3A000000 		.4byte	0x3a
 8520 24da 08       		.byte	0x8
 8521 24db 0A       		.uleb128 0xa
 8522 24dc 870A0000 		.4byte	.LASF360
 8523 24e0 2B       		.byte	0x2b
 8524 24e1 0301     		.2byte	0x103
 8525 24e3 83240000 		.4byte	0x2483
 8526 24e7 0C       		.byte	0xc
 8527 24e8 0A       		.uleb128 0xa
 8528 24e9 D31D0000 		.4byte	.LASF498
 8529 24ed 2B       		.byte	0x2b
 8530 24ee 0F01     		.2byte	0x10f
 8531 24f0 DD000000 		.4byte	0xdd
 8532 24f4 10       		.byte	0x10
 8533 24f5 0A       		.uleb128 0xa
 8534 24f6 A1070000 		.4byte	.LASF499
 8535 24fa 2B       		.byte	0x2b
 8536 24fb 1501     		.2byte	0x115
 8537 24fd DD000000 		.4byte	0xdd
 8538 2501 12       		.byte	0x12
 8539 2502 00       		.byte	0
 8540 2503 0B       		.uleb128 0xb
 8541 2504 04       		.byte	0x4
 8542 2505 09250000 		.4byte	0x2509
 8543 2509 25       		.uleb128 0x25
 8544 250a 1A       		.uleb128 0x1a
 8545 250b 112C0000 		.4byte	.LASF500
 8546 250f 2B       		.byte	0x2b
 8547 2510 1601     		.2byte	0x116
 8548 2512 AF240000 		.4byte	0x24af
 8549 2516 05       		.uleb128 0x5
 8550 2517 0A250000 		.4byte	0x250a
 8551 251b 0B       		.uleb128 0xb
 8552 251c 04       		.byte	0x4
 8553 251d 16250000 		.4byte	0x2516
 8554 2521 0B       		.uleb128 0xb
 8555 2522 04       		.byte	0x4
 8556 2523 F10C0000 		.4byte	0xcf1
 8557 2527 15       		.uleb128 0x15
 8558 2528 672C0000 		.4byte	.LASF501
 8559 252c 2B       		.byte	0x2b
 8560 252d 4801     		.2byte	0x148
 8561 252f 02240000 		.4byte	0x2402
 8562 2533 21       		.uleb128 0x21
ARM GAS  C:\Users\JEANCO~1\AppData\Local\Temp\ccxhVNGN.s 			page 152


 8563 2534 07       		.byte	0x7
 8564 2535 01       		.byte	0x1
 8565 2536 6C000000 		.4byte	0x6c
 8566 253a 2C       		.byte	0x2c
 8567 253b 4A       		.byte	0x4a
 8568 253c 53250000 		.4byte	0x2553
 8569 2540 22       		.uleb128 0x22
 8570 2541 68080000 		.4byte	.LASF502
 8571 2545 00       		.byte	0
 8572 2546 22       		.uleb128 0x22
 8573 2547 0D0E0000 		.4byte	.LASF503
 8574 254b 01       		.byte	0x1
 8575 254c 22       		.uleb128 0x22
 8576 254d 15130000 		.4byte	.LASF504
 8577 2551 02       		.byte	0x2
 8578 2552 00       		.byte	0
 8579 2553 04       		.uleb128 0x4
 8580 2554 FA030000 		.4byte	.LASF505
 8581 2558 2C       		.byte	0x2c
 8582 2559 4E       		.byte	0x4e
 8583 255a 33250000 		.4byte	0x2533
 8584 255e 04       		.uleb128 0x4
 8585 255f 360D0000 		.4byte	.LASF506
 8586 2563 2C       		.byte	0x2c
 8587 2564 53       		.byte	0x53
 8588 2565 69250000 		.4byte	0x2569
 8589 2569 0C       		.uleb128 0xc
 8590 256a 360D0000 		.4byte	.LASF506
 8591 256e 1C       		.byte	0x1c
 8592 256f 2D       		.byte	0x2d
 8593 2570 7901     		.2byte	0x179
 8594 2572 D2250000 		.4byte	0x25d2
 8595 2576 0A       		.uleb128 0xa
 8596 2577 5B190000 		.4byte	.LASF347
 8597 257b 2D       		.byte	0x2d
 8598 257c 7D01     		.2byte	0x17d
 8599 257e 53250000 		.4byte	0x2553
 8600 2582 00       		.byte	0
 8601 2583 0A       		.uleb128 0xa
 8602 2584 F6200000 		.4byte	.LASF348
 8603 2588 2D       		.byte	0x2d
 8604 2589 8101     		.2byte	0x181
 8605 258b CD260000 		.4byte	0x26cd
 8606 258f 04       		.byte	0x4
 8607 2590 0A       		.uleb128 0xa
 8608 2591 43160000 		.4byte	.LASF507
 8609 2595 2D       		.byte	0x2d
 8610 2596 8501     		.2byte	0x185
 8611 2598 18260000 		.4byte	0x2618
 8612 259c 08       		.byte	0x8
 8613 259d 0A       		.uleb128 0xa
 8614 259e 681E0000 		.4byte	.LASF508
 8615 25a2 2D       		.byte	0x2d
 8616 25a3 8901     		.2byte	0x189
 8617 25a5 0C260000 		.4byte	0x260c
 8618 25a9 0C       		.byte	0xc
 8619 25aa 0A       		.uleb128 0xa
ARM GAS  C:\Users\JEANCO~1\AppData\Local\Temp\ccxhVNGN.s 			page 153


 8620 25ab 98260000 		.4byte	.LASF428
 8621 25af 2D       		.byte	0x2d
 8622 25b0 8D01     		.2byte	0x18d
 8623 25b2 00260000 		.4byte	0x2600
 8624 25b6 10       		.byte	0x10
 8625 25b7 0A       		.uleb128 0xa
 8626 25b8 7A0E0000 		.4byte	.LASF438
 8627 25bc 2D       		.byte	0x2d
 8628 25bd 9501     		.2byte	0x195
 8629 25bf 03010000 		.4byte	0x103
 8630 25c3 14       		.byte	0x14
 8631 25c4 09       		.uleb128 0x9
 8632 25c5 74696D00 		.ascii	"tim\000"
 8633 25c9 2D       		.byte	0x2d
 8634 25ca 9901     		.2byte	0x199
 8635 25cc EF210000 		.4byte	0x21ef
 8636 25d0 18       		.byte	0x18
 8637 25d1 00       		.byte	0
 8638 25d2 04       		.uleb128 0x4
 8639 25d3 DB130000 		.4byte	.LASF509
 8640 25d7 2C       		.byte	0x2c
 8641 25d8 5A       		.byte	0x5a
 8642 25d9 DD250000 		.4byte	0x25dd
 8643 25dd 0B       		.uleb128 0xb
 8644 25de 04       		.byte	0x4
 8645 25df E3250000 		.4byte	0x25e3
 8646 25e3 0D       		.uleb128 0xd
 8647 25e4 EE250000 		.4byte	0x25ee
 8648 25e8 0E       		.uleb128 0xe
 8649 25e9 EE250000 		.4byte	0x25ee
 8650 25ed 00       		.byte	0
 8651 25ee 0B       		.uleb128 0xb
 8652 25ef 04       		.byte	0x4
 8653 25f0 5E250000 		.4byte	0x255e
 8654 25f4 1A       		.uleb128 0x1a
 8655 25f5 72180000 		.4byte	.LASF510
 8656 25f9 2D       		.byte	0x2d
 8657 25fa 2501     		.2byte	0x125
 8658 25fc 03010000 		.4byte	0x103
 8659 2600 1A       		.uleb128 0x1a
 8660 2601 341B0000 		.4byte	.LASF511
 8661 2605 2D       		.byte	0x2d
 8662 2606 2A01     		.2byte	0x12a
 8663 2608 CD000000 		.4byte	0xcd
 8664 260c 1A       		.uleb128 0x1a
 8665 260d 58030000 		.4byte	.LASF512
 8666 2611 2D       		.byte	0x2d
 8667 2612 2F01     		.2byte	0x12f
 8668 2614 03010000 		.4byte	0x103
 8669 2618 1A       		.uleb128 0x1a
 8670 2619 4A0F0000 		.4byte	.LASF513
 8671 261d 2D       		.byte	0x2d
 8672 261e 3401     		.2byte	0x134
 8673 2620 03010000 		.4byte	0x103
 8674 2624 19       		.uleb128 0x19
 8675 2625 08       		.byte	0x8
 8676 2626 2D       		.byte	0x2d
ARM GAS  C:\Users\JEANCO~1\AppData\Local\Temp\ccxhVNGN.s 			page 154


 8677 2627 3901     		.2byte	0x139
 8678 2629 48260000 		.4byte	0x2648
 8679 262d 0A       		.uleb128 0xa
 8680 262e A8090000 		.4byte	.LASF426
 8681 2632 2D       		.byte	0x2d
 8682 2633 3D01     		.2byte	0x13d
 8683 2635 F4250000 		.4byte	0x25f4
 8684 2639 00       		.byte	0
 8685 263a 0A       		.uleb128 0xa
 8686 263b C9190000 		.4byte	.LASF452
 8687 263f 2D       		.byte	0x2d
 8688 2640 4301     		.2byte	0x143
 8689 2642 D2250000 		.4byte	0x25d2
 8690 2646 04       		.byte	0x4
 8691 2647 00       		.byte	0
 8692 2648 1A       		.uleb128 0x1a
 8693 2649 390F0000 		.4byte	.LASF514
 8694 264d 2D       		.byte	0x2d
 8695 264e 4501     		.2byte	0x145
 8696 2650 24260000 		.4byte	0x2624
 8697 2654 19       		.uleb128 0x19
 8698 2655 34       		.byte	0x34
 8699 2656 2D       		.byte	0x2d
 8700 2657 4A01     		.2byte	0x14a
 8701 2659 AC260000 		.4byte	0x26ac
 8702 265d 0A       		.uleb128 0xa
 8703 265e 3A2A0000 		.4byte	.LASF451
 8704 2662 2D       		.byte	0x2d
 8705 2663 5001     		.2byte	0x150
 8706 2665 03010000 		.4byte	0x103
 8707 2669 00       		.byte	0
 8708 266a 0A       		.uleb128 0xa
 8709 266b 43160000 		.4byte	.LASF507
 8710 266f 2D       		.byte	0x2d
 8711 2670 5601     		.2byte	0x156
 8712 2672 18260000 		.4byte	0x2618
 8713 2676 04       		.byte	0x4
 8714 2677 0A       		.uleb128 0xa
 8715 2678 C9190000 		.4byte	.LASF452
 8716 267c 2D       		.byte	0x2d
 8717 267d 5C01     		.2byte	0x15c
 8718 267f D2250000 		.4byte	0x25d2
 8719 2683 08       		.byte	0x8
 8720 2684 0A       		.uleb128 0xa
 8721 2685 98260000 		.4byte	.LASF428
 8722 2689 2D       		.byte	0x2d
 8723 268a 6001     		.2byte	0x160
 8724 268c AC260000 		.4byte	0x26ac
 8725 2690 0C       		.byte	0xc
 8726 2691 09       		.uleb128 0x9
 8727 2692 63723200 		.ascii	"cr2\000"
 8728 2696 2D       		.byte	0x2d
 8729 2697 6601     		.2byte	0x166
 8730 2699 03010000 		.4byte	0x103
 8731 269d 2C       		.byte	0x2c
 8732 269e 0A       		.uleb128 0xa
 8733 269f C80D0000 		.4byte	.LASF453
ARM GAS  C:\Users\JEANCO~1\AppData\Local\Temp\ccxhVNGN.s 			page 155


 8734 26a3 2D       		.byte	0x2d
 8735 26a4 7301     		.2byte	0x173
 8736 26a6 03010000 		.4byte	0x103
 8737 26aa 30       		.byte	0x30
 8738 26ab 00       		.byte	0
 8739 26ac 13       		.uleb128 0x13
 8740 26ad 48260000 		.4byte	0x2648
 8741 26b1 BC260000 		.4byte	0x26bc
 8742 26b5 14       		.uleb128 0x14
 8743 26b6 45000000 		.4byte	0x45
 8744 26ba 03       		.byte	0x3
 8745 26bb 00       		.byte	0
 8746 26bc 1A       		.uleb128 0x1a
 8747 26bd 4E0D0000 		.4byte	.LASF515
 8748 26c1 2D       		.byte	0x2d
 8749 26c2 7401     		.2byte	0x174
 8750 26c4 54260000 		.4byte	0x2654
 8751 26c8 05       		.uleb128 0x5
 8752 26c9 BC260000 		.4byte	0x26bc
 8753 26cd 0B       		.uleb128 0xb
 8754 26ce 04       		.byte	0x4
 8755 26cf C8260000 		.4byte	0x26c8
 8756 26d3 15       		.uleb128 0x15
 8757 26d4 C7140000 		.4byte	.LASF516
 8758 26d8 2D       		.byte	0x2d
 8759 26d9 BC01     		.2byte	0x1bc
 8760 26db 5E250000 		.4byte	0x255e
 8761 26df 15       		.uleb128 0x15
 8762 26e0 CD140000 		.4byte	.LASF517
 8763 26e4 2D       		.byte	0x2d
 8764 26e5 C001     		.2byte	0x1c0
 8765 26e7 5E250000 		.4byte	0x255e
 8766 26eb 15       		.uleb128 0x15
 8767 26ec D3140000 		.4byte	.LASF518
 8768 26f0 2D       		.byte	0x2d
 8769 26f1 C401     		.2byte	0x1c4
 8770 26f3 5E250000 		.4byte	0x255e
 8771 26f7 15       		.uleb128 0x15
 8772 26f8 D9140000 		.4byte	.LASF519
 8773 26fc 2D       		.byte	0x2d
 8774 26fd C801     		.2byte	0x1c8
 8775 26ff 5E250000 		.4byte	0x255e
 8776 2703 21       		.uleb128 0x21
 8777 2704 07       		.byte	0x7
 8778 2705 01       		.byte	0x1
 8779 2706 6C000000 		.4byte	0x6c
 8780 270a 2E       		.byte	0x2e
 8781 270b 55       		.byte	0x55
 8782 270c 23270000 		.4byte	0x2723
 8783 2710 22       		.uleb128 0x22
 8784 2711 75070000 		.4byte	.LASF520
 8785 2715 00       		.byte	0
 8786 2716 22       		.uleb128 0x22
 8787 2717 C30E0000 		.4byte	.LASF521
 8788 271b 01       		.byte	0x1
 8789 271c 22       		.uleb128 0x22
 8790 271d 2F110000 		.4byte	.LASF522
ARM GAS  C:\Users\JEANCO~1\AppData\Local\Temp\ccxhVNGN.s 			page 156


 8791 2721 02       		.byte	0x2
 8792 2722 00       		.byte	0
 8793 2723 04       		.uleb128 0x4
 8794 2724 8C1C0000 		.4byte	.LASF523
 8795 2728 2E       		.byte	0x2e
 8796 2729 59       		.byte	0x59
 8797 272a 03270000 		.4byte	0x2703
 8798 272e 04       		.uleb128 0x4
 8799 272f C3260000 		.4byte	.LASF524
 8800 2733 2E       		.byte	0x2e
 8801 2734 5E       		.byte	0x5e
 8802 2735 39270000 		.4byte	0x2739
 8803 2739 07       		.uleb128 0x7
 8804 273a C3260000 		.4byte	.LASF524
 8805 273e 78       		.byte	0x78
 8806 273f 2E       		.byte	0x2e
 8807 2740 78       		.byte	0x78
 8808 2741 A4270000 		.4byte	0x27a4
 8809 2745 18       		.uleb128 0x18
 8810 2746 766D7400 		.ascii	"vmt\000"
 8811 274a 2E       		.byte	0x2e
 8812 274b 7A       		.byte	0x7a
 8813 274c 22280000 		.4byte	0x2822
 8814 2750 00       		.byte	0
 8815 2751 08       		.uleb128 0x8
 8816 2752 47000000 		.4byte	.LASF525
 8817 2756 2E       		.byte	0x2e
 8818 2757 7B       		.byte	0x7b
 8819 2758 06130000 		.4byte	0x1306
 8820 275c 04       		.byte	0x4
 8821 275d 08       		.uleb128 0x8
 8822 275e 5B190000 		.4byte	.LASF347
 8823 2762 2E       		.byte	0x2e
 8824 2763 7B       		.byte	0x7b
 8825 2764 23270000 		.4byte	0x2723
 8826 2768 08       		.byte	0x8
 8827 2769 08       		.uleb128 0x8
 8828 276a 6D1C0000 		.4byte	.LASF526
 8829 276e 2E       		.byte	0x2e
 8830 276f 7B       		.byte	0x7b
 8831 2770 B1130000 		.4byte	0x13b1
 8832 2774 0C       		.byte	0xc
 8833 2775 08       		.uleb128 0x8
 8834 2776 ED140000 		.4byte	.LASF527
 8835 277a 2E       		.byte	0x2e
 8836 277b 7B       		.byte	0x7b
 8837 277c BC130000 		.4byte	0x13bc
 8838 2780 30       		.byte	0x30
 8839 2781 18       		.uleb128 0x18
 8840 2782 696200   		.ascii	"ib\000"
 8841 2785 2E       		.byte	0x2e
 8842 2786 7B       		.byte	0x7b
 8843 2787 28280000 		.4byte	0x2828
 8844 278b 54       		.byte	0x54
 8845 278c 18       		.uleb128 0x18
 8846 278d 6F6200   		.ascii	"ob\000"
 8847 2790 2E       		.byte	0x2e
ARM GAS  C:\Users\JEANCO~1\AppData\Local\Temp\ccxhVNGN.s 			page 157


 8848 2791 7B       		.byte	0x7b
 8849 2792 28280000 		.4byte	0x2828
 8850 2796 64       		.byte	0x64
 8851 2797 08       		.uleb128 0x8
 8852 2798 901E0000 		.4byte	.LASF528
 8853 279c 2E       		.byte	0x2e
 8854 279d 7B       		.byte	0x7b
 8855 279e 38280000 		.4byte	0x2838
 8856 27a2 74       		.byte	0x74
 8857 27a3 00       		.byte	0
 8858 27a4 1F       		.uleb128 0x1f
 8859 27a5 53443300 		.ascii	"SD3\000"
 8860 27a9 2F       		.byte	0x2f
 8861 27aa 1501     		.2byte	0x115
 8862 27ac 2E270000 		.4byte	0x272e
 8863 27b0 07       		.uleb128 0x7
 8864 27b1 84100000 		.4byte	.LASF529
 8865 27b5 20       		.byte	0x20
 8866 27b6 2E       		.byte	0x2e
 8867 27b7 6D       		.byte	0x6d
 8868 27b8 1D280000 		.4byte	0x281d
 8869 27bc 08       		.uleb128 0x8
 8870 27bd 5C1C0000 		.4byte	.LASF281
 8871 27c1 2E       		.byte	0x2e
 8872 27c2 6E       		.byte	0x6e
 8873 27c3 28140000 		.4byte	0x1428
 8874 27c7 00       		.byte	0
 8875 27c8 08       		.uleb128 0x8
 8876 27c9 6D050000 		.4byte	.LASF282
 8877 27cd 2E       		.byte	0x2e
 8878 27ce 6E       		.byte	0x6e
 8879 27cf 47140000 		.4byte	0x1447
 8880 27d3 04       		.byte	0x4
 8881 27d4 18       		.uleb128 0x18
 8882 27d5 70757400 		.ascii	"put\000"
 8883 27d9 2E       		.byte	0x2e
 8884 27da 6E       		.byte	0x6e
 8885 27db 61140000 		.4byte	0x1461
 8886 27df 08       		.byte	0x8
 8887 27e0 18       		.uleb128 0x18
 8888 27e1 67657400 		.ascii	"get\000"
 8889 27e5 2E       		.byte	0x2e
 8890 27e6 6E       		.byte	0x6e
 8891 27e7 76140000 		.4byte	0x1476
 8892 27eb 0C       		.byte	0xc
 8893 27ec 08       		.uleb128 0x8
 8894 27ed 46170000 		.4byte	.LASF530
 8895 27f1 2E       		.byte	0x2e
 8896 27f2 6E       		.byte	0x6e
 8897 27f3 3D150000 		.4byte	0x153d
 8898 27f7 10       		.byte	0x10
 8899 27f8 08       		.uleb128 0x8
 8900 27f9 2F1C0000 		.4byte	.LASF531
 8901 27fd 2E       		.byte	0x2e
 8902 27fe 6E       		.byte	0x6e
 8903 27ff 57150000 		.4byte	0x1557
 8904 2803 14       		.byte	0x14
ARM GAS  C:\Users\JEANCO~1\AppData\Local\Temp\ccxhVNGN.s 			page 158


 8905 2804 08       		.uleb128 0x8
 8906 2805 D3270000 		.4byte	.LASF532
 8907 2809 2E       		.byte	0x2e
 8908 280a 6E       		.byte	0x6e
 8909 280b 7B150000 		.4byte	0x157b
 8910 280f 18       		.byte	0x18
 8911 2810 08       		.uleb128 0x8
 8912 2811 88160000 		.4byte	.LASF533
 8913 2815 2E       		.byte	0x2e
 8914 2816 6E       		.byte	0x6e
 8915 2817 9F150000 		.4byte	0x159f
 8916 281b 1C       		.byte	0x1c
 8917 281c 00       		.byte	0
 8918 281d 05       		.uleb128 0x5
 8919 281e B0270000 		.4byte	0x27b0
 8920 2822 0B       		.uleb128 0xb
 8921 2823 04       		.byte	0x4
 8922 2824 1D280000 		.4byte	0x281d
 8923 2828 13       		.uleb128 0x13
 8924 2829 CD000000 		.4byte	0xcd
 8925 282d 38280000 		.4byte	0x2838
 8926 2831 14       		.uleb128 0x14
 8927 2832 45000000 		.4byte	0x45
 8928 2836 0F       		.byte	0xf
 8929 2837 00       		.byte	0
 8930 2838 0B       		.uleb128 0xb
 8931 2839 04       		.byte	0x4
 8932 283a 600D0000 		.4byte	0xd60
 8933 283e 21       		.uleb128 0x21
 8934 283f 07       		.byte	0x7
 8935 2840 01       		.byte	0x1
 8936 2841 6C000000 		.4byte	0x6c
 8937 2845 30       		.byte	0x30
 8938 2846 6C       		.byte	0x6c
 8939 2847 5E280000 		.4byte	0x285e
 8940 284b 22       		.uleb128 0x22
 8941 284c B8030000 		.4byte	.LASF534
 8942 2850 00       		.byte	0
 8943 2851 22       		.uleb128 0x22
 8944 2852 88180000 		.4byte	.LASF535
 8945 2856 01       		.byte	0x1
 8946 2857 22       		.uleb128 0x22
 8947 2858 EC150000 		.4byte	.LASF536
 8948 285c 02       		.byte	0x2
 8949 285d 00       		.byte	0
 8950 285e 04       		.uleb128 0x4
 8951 285f 11200000 		.4byte	.LASF537
 8952 2863 30       		.byte	0x30
 8953 2864 70       		.byte	0x70
 8954 2865 3E280000 		.4byte	0x283e
 8955 2869 04       		.uleb128 0x4
 8956 286a BB1E0000 		.4byte	.LASF538
 8957 286e 31       		.byte	0x31
 8958 286f BF       		.byte	0xbf
 8959 2870 03010000 		.4byte	0x103
 8960 2874 04       		.uleb128 0x4
 8961 2875 C91B0000 		.4byte	.LASF539
ARM GAS  C:\Users\JEANCO~1\AppData\Local\Temp\ccxhVNGN.s 			page 159


 8962 2879 31       		.byte	0x31
 8963 287a C4       		.byte	0xc4
 8964 287b 03010000 		.4byte	0x103
 8965 287f 04       		.uleb128 0x4
 8966 2880 A7260000 		.4byte	.LASF540
 8967 2884 31       		.byte	0x31
 8968 2885 C9       		.byte	0xc9
 8969 2886 8A280000 		.4byte	0x288a
 8970 288a 07       		.uleb128 0x7
 8971 288b A7260000 		.4byte	.LASF540
 8972 288f 4C       		.byte	0x4c
 8973 2890 31       		.byte	0x31
 8974 2891 F2       		.byte	0xf2
 8975 2892 39290000 		.4byte	0x2939
 8976 2896 18       		.uleb128 0x18
 8977 2897 766D7400 		.ascii	"vmt\000"
 8978 289b 31       		.byte	0x31
 8979 289c F6       		.byte	0xf6
 8980 289d DC290000 		.4byte	0x29dc
 8981 28a1 00       		.byte	0
 8982 28a2 08       		.uleb128 0x8
 8983 28a3 5B190000 		.4byte	.LASF347
 8984 28a7 31       		.byte	0x31
 8985 28a8 F7       		.byte	0xf7
 8986 28a9 E9150000 		.4byte	0x15e9
 8987 28ad 04       		.byte	0x4
 8988 28ae 18       		.uleb128 0x18
 8989 28af 63696400 		.ascii	"cid\000"
 8990 28b3 31       		.byte	0x31
 8991 28b4 F7       		.byte	0xf7
 8992 28b5 A4160000 		.4byte	0x16a4
 8993 28b9 08       		.byte	0x8
 8994 28ba 18       		.uleb128 0x18
 8995 28bb 63736400 		.ascii	"csd\000"
 8996 28bf 31       		.byte	0x31
 8997 28c0 F7       		.byte	0xf7
 8998 28c1 A4160000 		.4byte	0x16a4
 8999 28c5 18       		.byte	0x18
 9000 28c6 08       		.uleb128 0x8
 9001 28c7 D2210000 		.4byte	.LASF541
 9002 28cb 31       		.byte	0x31
 9003 28cc F7       		.byte	0xf7
 9004 28cd 03010000 		.4byte	0x103
 9005 28d1 28       		.byte	0x28
 9006 28d2 08       		.uleb128 0x8
 9007 28d3 F6200000 		.4byte	.LASF348
 9008 28d7 31       		.byte	0x31
 9009 28d8 FB       		.byte	0xfb
 9010 28d9 E2290000 		.4byte	0x29e2
 9011 28dd 2C       		.byte	0x2c
 9012 28de 08       		.uleb128 0x8
 9013 28df 31180000 		.4byte	.LASF542
 9014 28e3 31       		.byte	0x31
 9015 28e4 FF       		.byte	0xff
 9016 28e5 69280000 		.4byte	0x2869
 9017 28e9 30       		.byte	0x30
 9018 28ea 0A       		.uleb128 0xa
ARM GAS  C:\Users\JEANCO~1\AppData\Local\Temp\ccxhVNGN.s 			page 160


 9019 28eb 84010000 		.4byte	.LASF480
 9020 28ef 31       		.byte	0x31
 9021 28f0 0301     		.2byte	0x103
 9022 28f2 74280000 		.4byte	0x2874
 9023 28f6 34       		.byte	0x34
 9024 28f7 09       		.uleb128 0x9
 9025 28f8 72636100 		.ascii	"rca\000"
 9026 28fc 31       		.byte	0x31
 9027 28fd 0701     		.2byte	0x107
 9028 28ff 03010000 		.4byte	0x103
 9029 2903 38       		.byte	0x38
 9030 2904 0A       		.uleb128 0xa
 9031 2905 08080000 		.4byte	.LASF352
 9032 2909 31       		.byte	0x31
 9033 290a 0C01     		.2byte	0x10c
 9034 290c E0020000 		.4byte	0x2e0
 9035 2910 3C       		.byte	0x3c
 9036 2911 0A       		.uleb128 0xa
 9037 2912 101C0000 		.4byte	.LASF355
 9038 2916 31       		.byte	0x31
 9039 2917 1001     		.2byte	0x110
 9040 2919 03010000 		.4byte	0x103
 9041 291d 40       		.byte	0x40
 9042 291e 09       		.uleb128 0x9
 9043 291f 646D6100 		.ascii	"dma\000"
 9044 2923 31       		.byte	0x31
 9045 2924 1401     		.2byte	0x114
 9046 2926 E91A0000 		.4byte	0x1ae9
 9047 292a 44       		.byte	0x44
 9048 292b 0A       		.uleb128 0xa
 9049 292c 73190000 		.4byte	.LASF543
 9050 2930 31       		.byte	0x31
 9051 2931 1901     		.2byte	0x119
 9052 2933 E8290000 		.4byte	0x29e8
 9053 2937 48       		.byte	0x48
 9054 2938 00       		.byte	0
 9055 2939 17       		.uleb128 0x17
 9056 293a 08       		.byte	0x8
 9057 293b 31       		.byte	0x31
 9058 293c CF       		.byte	0xcf
 9059 293d 5A290000 		.4byte	0x295a
 9060 2941 08       		.uleb128 0x8
 9061 2942 A50F0000 		.4byte	.LASF544
 9062 2946 31       		.byte	0x31
 9063 2947 D8       		.byte	0xd8
 9064 2948 AB130000 		.4byte	0x13ab
 9065 294c 00       		.byte	0
 9066 294d 08       		.uleb128 0x8
 9067 294e CB280000 		.4byte	.LASF545
 9068 2952 31       		.byte	0x31
 9069 2953 DC       		.byte	0xdc
 9070 2954 5E280000 		.4byte	0x285e
 9071 2958 04       		.byte	0x4
 9072 2959 00       		.byte	0
 9073 295a 04       		.uleb128 0x4
 9074 295b F2180000 		.4byte	.LASF546
 9075 295f 31       		.byte	0x31
ARM GAS  C:\Users\JEANCO~1\AppData\Local\Temp\ccxhVNGN.s 			page 161


 9076 2960 DE       		.byte	0xde
 9077 2961 39290000 		.4byte	0x2939
 9078 2965 05       		.uleb128 0x5
 9079 2966 5A290000 		.4byte	0x295a
 9080 296a 07       		.uleb128 0x7
 9081 296b F1280000 		.4byte	.LASF547
 9082 296f 20       		.byte	0x20
 9083 2970 31       		.byte	0x31
 9084 2971 EB       		.byte	0xeb
 9085 2972 D7290000 		.4byte	0x29d7
 9086 2976 08       		.uleb128 0x8
 9087 2977 6D2C0000 		.4byte	.LASF548
 9088 297b 31       		.byte	0x31
 9089 297c EC       		.byte	0xec
 9090 297d 36160000 		.4byte	0x1636
 9091 2981 00       		.byte	0
 9092 2982 08       		.uleb128 0x8
 9093 2983 CD0D0000 		.4byte	.LASF549
 9094 2987 31       		.byte	0x31
 9095 2988 EC       		.byte	0xec
 9096 2989 36160000 		.4byte	0x1636
 9097 298d 04       		.byte	0x4
 9098 298e 08       		.uleb128 0x8
 9099 298f DD100000 		.4byte	.LASF550
 9100 2993 31       		.byte	0x31
 9101 2994 EC       		.byte	0xec
 9102 2995 36160000 		.4byte	0x1636
 9103 2999 08       		.byte	0x8
 9104 299a 08       		.uleb128 0x8
 9105 299b 34170000 		.4byte	.LASF551
 9106 299f 31       		.byte	0x31
 9107 29a0 EC       		.byte	0xec
 9108 29a1 36160000 		.4byte	0x1636
 9109 29a5 0C       		.byte	0xc
 9110 29a6 08       		.uleb128 0x8
 9111 29a7 6D050000 		.4byte	.LASF282
 9112 29ab 31       		.byte	0x31
 9113 29ac EC       		.byte	0xec
 9114 29ad 5A160000 		.4byte	0x165a
 9115 29b1 10       		.byte	0x10
 9116 29b2 08       		.uleb128 0x8
 9117 29b3 5C1C0000 		.4byte	.LASF281
 9118 29b7 31       		.byte	0x31
 9119 29b8 EC       		.byte	0xec
 9120 29b9 7E160000 		.4byte	0x167e
 9121 29bd 14       		.byte	0x14
 9122 29be 08       		.uleb128 0x8
 9123 29bf 8B1E0000 		.4byte	.LASF552
 9124 29c3 31       		.byte	0x31
 9125 29c4 EC       		.byte	0xec
 9126 29c5 36160000 		.4byte	0x1636
 9127 29c9 18       		.byte	0x18
 9128 29ca 08       		.uleb128 0x8
 9129 29cb 62280000 		.4byte	.LASF553
 9130 29cf 31       		.byte	0x31
 9131 29d0 EC       		.byte	0xec
 9132 29d1 9E160000 		.4byte	0x169e
ARM GAS  C:\Users\JEANCO~1\AppData\Local\Temp\ccxhVNGN.s 			page 162


 9133 29d5 1C       		.byte	0x1c
 9134 29d6 00       		.byte	0
 9135 29d7 05       		.uleb128 0x5
 9136 29d8 6A290000 		.4byte	0x296a
 9137 29dc 0B       		.uleb128 0xb
 9138 29dd 04       		.byte	0x4
 9139 29de D7290000 		.4byte	0x29d7
 9140 29e2 0B       		.uleb128 0xb
 9141 29e3 04       		.byte	0x4
 9142 29e4 65290000 		.4byte	0x2965
 9143 29e8 0B       		.uleb128 0xb
 9144 29e9 04       		.byte	0x4
 9145 29ea 680C0000 		.4byte	0xc68
 9146 29ee 15       		.uleb128 0x15
 9147 29ef 7C0B0000 		.4byte	.LASF554
 9148 29f3 31       		.byte	0x31
 9149 29f4 2501     		.2byte	0x125
 9150 29f6 7F280000 		.4byte	0x287f
 9151 29fa 21       		.uleb128 0x21
 9152 29fb 07       		.byte	0x7
 9153 29fc 01       		.byte	0x1
 9154 29fd 6C000000 		.4byte	0x6c
 9155 2a01 32       		.byte	0x32
 9156 2a02 46       		.byte	0x46
 9157 2a03 262A0000 		.4byte	0x2a26
 9158 2a07 22       		.uleb128 0x22
 9159 2a08 1E080000 		.4byte	.LASF555
 9160 2a0c 00       		.byte	0
 9161 2a0d 22       		.uleb128 0x22
 9162 2a0e 3A030000 		.4byte	.LASF556
 9163 2a12 01       		.byte	0x1
 9164 2a13 22       		.uleb128 0x22
 9165 2a14 A8280000 		.4byte	.LASF557
 9166 2a18 02       		.byte	0x2
 9167 2a19 22       		.uleb128 0x22
 9168 2a1a 19100000 		.4byte	.LASF558
 9169 2a1e 03       		.byte	0x3
 9170 2a1f 22       		.uleb128 0x22
 9171 2a20 BC160000 		.4byte	.LASF559
 9172 2a24 04       		.byte	0x4
 9173 2a25 00       		.byte	0
 9174 2a26 04       		.uleb128 0x4
 9175 2a27 D80F0000 		.4byte	.LASF560
 9176 2a2b 32       		.byte	0x32
 9177 2a2c 4C       		.byte	0x4c
 9178 2a2d FA290000 		.4byte	0x29fa
 9179 2a31 1A       		.uleb128 0x1a
 9180 2a32 3A260000 		.4byte	.LASF561
 9181 2a36 33       		.byte	0x33
 9182 2a37 9601     		.2byte	0x196
 9183 2a39 3D2A0000 		.4byte	0x2a3d
 9184 2a3d 0C       		.uleb128 0xc
 9185 2a3e 3A260000 		.4byte	.LASF561
 9186 2a42 34       		.byte	0x34
 9187 2a43 33       		.byte	0x33
 9188 2a44 BA01     		.2byte	0x1ba
 9189 2a46 C02A0000 		.4byte	0x2ac0
ARM GAS  C:\Users\JEANCO~1\AppData\Local\Temp\ccxhVNGN.s 			page 163


 9190 2a4a 0A       		.uleb128 0xa
 9191 2a4b 5B190000 		.4byte	.LASF347
 9192 2a4f 33       		.byte	0x33
 9193 2a50 BE01     		.2byte	0x1be
 9194 2a52 262A0000 		.4byte	0x2a26
 9195 2a56 00       		.byte	0
 9196 2a57 0A       		.uleb128 0xa
 9197 2a58 F6200000 		.4byte	.LASF348
 9198 2a5c 33       		.byte	0x33
 9199 2a5d C201     		.2byte	0x1c2
 9200 2a5f 322B0000 		.4byte	0x2b32
 9201 2a63 04       		.byte	0x4
 9202 2a64 0A       		.uleb128 0xa
 9203 2a65 08080000 		.4byte	.LASF352
 9204 2a69 33       		.byte	0x33
 9205 2a6a C701     		.2byte	0x1c7
 9206 2a6c E0020000 		.4byte	0x2e0
 9207 2a70 08       		.byte	0x8
 9208 2a71 0A       		.uleb128 0xa
 9209 2a72 320E0000 		.4byte	.LASF353
 9210 2a76 33       		.byte	0x33
 9211 2a77 CD01     		.2byte	0x1cd
 9212 2a79 82120000 		.4byte	0x1282
 9213 2a7d 0C       		.byte	0xc
 9214 2a7e 09       		.uleb128 0x9
 9215 2a7f 73706900 		.ascii	"spi\000"
 9216 2a83 33       		.byte	0x33
 9217 2a84 D601     		.2byte	0x1d6
 9218 2a86 21250000 		.4byte	0x2521
 9219 2a8a 20       		.byte	0x20
 9220 2a8b 0A       		.uleb128 0xa
 9221 2a8c 22010000 		.4byte	.LASF484
 9222 2a90 33       		.byte	0x33
 9223 2a91 DA01     		.2byte	0x1da
 9224 2a93 E91A0000 		.4byte	0x1ae9
 9225 2a97 24       		.byte	0x24
 9226 2a98 0A       		.uleb128 0xa
 9227 2a99 52020000 		.4byte	.LASF485
 9228 2a9d 33       		.byte	0x33
 9229 2a9e DE01     		.2byte	0x1de
 9230 2aa0 E91A0000 		.4byte	0x1ae9
 9231 2aa4 28       		.byte	0x28
 9232 2aa5 0A       		.uleb128 0xa
 9233 2aa6 94090000 		.4byte	.LASF482
 9234 2aaa 33       		.byte	0x33
 9235 2aab E201     		.2byte	0x1e2
 9236 2aad 03010000 		.4byte	0x103
 9237 2ab1 2C       		.byte	0x2c
 9238 2ab2 0A       		.uleb128 0xa
 9239 2ab3 EE090000 		.4byte	.LASF483
 9240 2ab7 33       		.byte	0x33
 9241 2ab8 E601     		.2byte	0x1e6
 9242 2aba 03010000 		.4byte	0x103
 9243 2abe 30       		.byte	0x30
 9244 2abf 00       		.byte	0
 9245 2ac0 1A       		.uleb128 0x1a
 9246 2ac1 A4180000 		.4byte	.LASF562
ARM GAS  C:\Users\JEANCO~1\AppData\Local\Temp\ccxhVNGN.s 			page 164


 9247 2ac5 33       		.byte	0x33
 9248 2ac6 9E01     		.2byte	0x19e
 9249 2ac8 CC2A0000 		.4byte	0x2acc
 9250 2acc 0B       		.uleb128 0xb
 9251 2acd 04       		.byte	0x4
 9252 2ace D22A0000 		.4byte	0x2ad2
 9253 2ad2 0D       		.uleb128 0xd
 9254 2ad3 DD2A0000 		.4byte	0x2add
 9255 2ad7 0E       		.uleb128 0xe
 9256 2ad8 DD2A0000 		.4byte	0x2add
 9257 2adc 00       		.byte	0
 9258 2add 0B       		.uleb128 0xb
 9259 2ade 04       		.byte	0x4
 9260 2adf 312A0000 		.4byte	0x2a31
 9261 2ae3 19       		.uleb128 0x19
 9262 2ae4 0C       		.byte	0xc
 9263 2ae5 33       		.byte	0x33
 9264 2ae6 A301     		.2byte	0x1a3
 9265 2ae8 212B0000 		.4byte	0x2b21
 9266 2aec 0A       		.uleb128 0xa
 9267 2aed 870A0000 		.4byte	.LASF360
 9268 2af1 33       		.byte	0x33
 9269 2af2 A701     		.2byte	0x1a7
 9270 2af4 C02A0000 		.4byte	0x2ac0
 9271 2af8 00       		.byte	0
 9272 2af9 0A       		.uleb128 0xa
 9273 2afa A5290000 		.4byte	.LASF563
 9274 2afe 33       		.byte	0x33
 9275 2aff AC01     		.2byte	0x1ac
 9276 2b01 7A180000 		.4byte	0x187a
 9277 2b05 04       		.byte	0x4
 9278 2b06 0A       		.uleb128 0xa
 9279 2b07 E8090000 		.4byte	.LASF564
 9280 2b0b 33       		.byte	0x33
 9281 2b0c B001     		.2byte	0x1b0
 9282 2b0e E8000000 		.4byte	0xe8
 9283 2b12 08       		.byte	0x8
 9284 2b13 09       		.uleb128 0x9
 9285 2b14 63723100 		.ascii	"cr1\000"
 9286 2b18 33       		.byte	0x33
 9287 2b19 B401     		.2byte	0x1b4
 9288 2b1b E8000000 		.4byte	0xe8
 9289 2b1f 0A       		.byte	0xa
 9290 2b20 00       		.byte	0
 9291 2b21 1A       		.uleb128 0x1a
 9292 2b22 4A260000 		.4byte	.LASF565
 9293 2b26 33       		.byte	0x33
 9294 2b27 B501     		.2byte	0x1b5
 9295 2b29 E32A0000 		.4byte	0x2ae3
 9296 2b2d 05       		.uleb128 0x5
 9297 2b2e 212B0000 		.4byte	0x2b21
 9298 2b32 0B       		.uleb128 0xb
 9299 2b33 04       		.byte	0x4
 9300 2b34 2D2B0000 		.4byte	0x2b2d
 9301 2b38 15       		.uleb128 0x15
 9302 2b39 291C0000 		.4byte	.LASF566
 9303 2b3d 33       		.byte	0x33
ARM GAS  C:\Users\JEANCO~1\AppData\Local\Temp\ccxhVNGN.s 			page 165


 9304 2b3e F201     		.2byte	0x1f2
 9305 2b40 312A0000 		.4byte	0x2a31
 9306 2b44 04       		.uleb128 0x4
 9307 2b45 A3140000 		.4byte	.LASF567
 9308 2b49 34       		.byte	0x34
 9309 2b4a FA       		.byte	0xfa
 9310 2b4b 4F2B0000 		.4byte	0x2b4f
 9311 2b4f 10       		.uleb128 0x10
 9312 2b50 A3140000 		.4byte	.LASF567
 9313 2b54 6002     		.2byte	0x260
 9314 2b56 35       		.byte	0x35
 9315 2b57 7701     		.2byte	0x177
 9316 2b59 7B2C0000 		.4byte	0x2c7b
 9317 2b5d 0A       		.uleb128 0xa
 9318 2b5e 5B190000 		.4byte	.LASF347
 9319 2b62 35       		.byte	0x35
 9320 2b63 7B01     		.2byte	0x17b
 9321 2b65 B32C0000 		.4byte	0x2cb3
 9322 2b69 00       		.byte	0
 9323 2b6a 0A       		.uleb128 0xa
 9324 2b6b F6200000 		.4byte	.LASF348
 9325 2b6f 35       		.byte	0x35
 9326 2b70 7F01     		.2byte	0x17f
 9327 2b72 D6350000 		.4byte	0x35d6
 9328 2b76 04       		.byte	0x4
 9329 2b77 0A       		.uleb128 0xa
 9330 2b78 8B260000 		.4byte	.LASF568
 9331 2b7c 35       		.byte	0x35
 9332 2b7d 8301     		.2byte	0x183
 9333 2b7f E8000000 		.4byte	0xe8
 9334 2b83 08       		.byte	0x8
 9335 2b84 0A       		.uleb128 0xa
 9336 2b85 022A0000 		.4byte	.LASF569
 9337 2b89 35       		.byte	0x35
 9338 2b8a 8701     		.2byte	0x187
 9339 2b8c E8000000 		.4byte	0xe8
 9340 2b90 0A       		.byte	0xa
 9341 2b91 09       		.uleb128 0x9
 9342 2b92 65706300 		.ascii	"epc\000"
 9343 2b96 35       		.byte	0x35
 9344 2b97 8B01     		.2byte	0x18b
 9345 2b99 DC350000 		.4byte	0x35dc
 9346 2b9d 0C       		.byte	0xc
 9347 2b9e 0A       		.uleb128 0xa
 9348 2b9f 53080000 		.4byte	.LASF570
 9349 2ba3 35       		.byte	0x35
 9350 2ba4 9201     		.2byte	0x192
 9351 2ba6 F2350000 		.4byte	0x35f2
 9352 2baa 1C       		.byte	0x1c
 9353 2bab 0A       		.uleb128 0xa
 9354 2bac 9E0D0000 		.4byte	.LASF571
 9355 2bb0 35       		.byte	0x35
 9356 2bb1 9901     		.2byte	0x199
 9357 2bb3 F2350000 		.4byte	0x35f2
 9358 2bb7 28       		.byte	0x28
 9359 2bb8 0A       		.uleb128 0xa
 9360 2bb9 C4120000 		.4byte	.LASF572
ARM GAS  C:\Users\JEANCO~1\AppData\Local\Temp\ccxhVNGN.s 			page 166


 9361 2bbd 35       		.byte	0x35
 9362 2bbe 9D01     		.2byte	0x19d
 9363 2bc0 F82C0000 		.4byte	0x2cf8
 9364 2bc4 34       		.byte	0x34
 9365 2bc5 0A       		.uleb128 0xa
 9366 2bc6 81200000 		.4byte	.LASF573
 9367 2bca 35       		.byte	0x35
 9368 2bcb A101     		.2byte	0x1a1
 9369 2bcd AB130000 		.4byte	0x13ab
 9370 2bd1 38       		.byte	0x38
 9371 2bd2 0A       		.uleb128 0xa
 9372 2bd3 9E1B0000 		.4byte	.LASF574
 9373 2bd7 35       		.byte	0x35
 9374 2bd8 A501     		.2byte	0x1a5
 9375 2bda 3A000000 		.4byte	0x3a
 9376 2bde 3C       		.byte	0x3c
 9377 2bdf 0A       		.uleb128 0xa
 9378 2be0 80230000 		.4byte	.LASF575
 9379 2be4 35       		.byte	0x35
 9380 2be5 A901     		.2byte	0x1a9
 9381 2be7 782D0000 		.4byte	0x2d78
 9382 2beb 40       		.byte	0x40
 9383 2bec 0A       		.uleb128 0xa
 9384 2bed 18080000 		.4byte	.LASF576
 9385 2bf1 35       		.byte	0x35
 9386 2bf2 AD01     		.2byte	0x1ad
 9387 2bf4 4A1B0000 		.4byte	0x1b4a
 9388 2bf8 44       		.byte	0x44
 9389 2bf9 0A       		.uleb128 0xa
 9390 2bfa 7C180000 		.4byte	.LASF577
 9391 2bfe 35       		.byte	0x35
 9392 2bff B101     		.2byte	0x1b1
 9393 2c01 E8000000 		.4byte	0xe8
 9394 2c05 4C       		.byte	0x4c
 9395 2c06 0A       		.uleb128 0xa
 9396 2c07 C5180000 		.4byte	.LASF578
 9397 2c0b 35       		.byte	0x35
 9398 2c0c B501     		.2byte	0x1b5
 9399 2c0e CD000000 		.4byte	0xcd
 9400 2c12 4E       		.byte	0x4e
 9401 2c13 0A       		.uleb128 0xa
 9402 2c14 491F0000 		.4byte	.LASF579
 9403 2c18 35       		.byte	0x35
 9404 2c19 B901     		.2byte	0x1b9
 9405 2c1b CD000000 		.4byte	0xcd
 9406 2c1f 4F       		.byte	0x4f
 9407 2c20 09       		.uleb128 0x9
 9408 2c21 6F746700 		.ascii	"otg\000"
 9409 2c25 35       		.byte	0x35
 9410 2c26 C101     		.2byte	0x1c1
 9411 2c28 02360000 		.4byte	0x3602
 9412 2c2c 50       		.byte	0x50
 9413 2c2d 0A       		.uleb128 0xa
 9414 2c2e 8C0F0000 		.4byte	.LASF580
 9415 2c32 35       		.byte	0x35
 9416 2c33 C501     		.2byte	0x1c5
 9417 2c35 08360000 		.4byte	0x3608
ARM GAS  C:\Users\JEANCO~1\AppData\Local\Temp\ccxhVNGN.s 			page 167


 9418 2c39 54       		.byte	0x54
 9419 2c3a 0A       		.uleb128 0xa
 9420 2c3b 571D0000 		.4byte	.LASF581
 9421 2c3f 35       		.byte	0x35
 9422 2c40 C901     		.2byte	0x1c9
 9423 2c42 03010000 		.4byte	0x103
 9424 2c46 58       		.byte	0x58
 9425 2c47 0A       		.uleb128 0xa
 9426 2c48 700E0000 		.4byte	.LASF582
 9427 2c4c 35       		.byte	0x35
 9428 2c4d CD01     		.2byte	0x1cd
 9429 2c4f 03010000 		.4byte	0x103
 9430 2c53 5C       		.byte	0x5c
 9431 2c54 0A       		.uleb128 0xa
 9432 2c55 45090000 		.4byte	.LASF583
 9433 2c59 35       		.byte	0x35
 9434 2c5a D101     		.2byte	0x1d1
 9435 2c5c E0020000 		.4byte	0x2e0
 9436 2c60 60       		.byte	0x60
 9437 2c61 09       		.uleb128 0x9
 9438 2c62 747200   		.ascii	"tr\000"
 9439 2c65 35       		.byte	0x35
 9440 2c66 D601     		.2byte	0x1d6
 9441 2c68 E0020000 		.4byte	0x2e0
 9442 2c6c 64       		.byte	0x64
 9443 2c6d 0A       		.uleb128 0xa
 9444 2c6e 83170000 		.4byte	.LASF584
 9445 2c72 35       		.byte	0x35
 9446 2c73 DA01     		.2byte	0x1da
 9447 2c75 0E360000 		.4byte	0x360e
 9448 2c79 68       		.byte	0x68
 9449 2c7a 00       		.byte	0
 9450 2c7b 04       		.uleb128 0x4
 9451 2c7c 340B0000 		.4byte	.LASF585
 9452 2c80 34       		.byte	0x34
 9453 2c81 FF       		.byte	0xff
 9454 2c82 CD000000 		.4byte	0xcd
 9455 2c86 24       		.uleb128 0x24
 9456 2c87 07       		.byte	0x7
 9457 2c88 01       		.byte	0x1
 9458 2c89 6C000000 		.4byte	0x6c
 9459 2c8d 34       		.byte	0x34
 9460 2c8e 0401     		.2byte	0x104
 9461 2c90 B32C0000 		.4byte	0x2cb3
 9462 2c94 22       		.uleb128 0x22
 9463 2c95 352B0000 		.4byte	.LASF586
 9464 2c99 00       		.byte	0
 9465 2c9a 22       		.uleb128 0x22
 9466 2c9b 00000000 		.4byte	.LASF587
 9467 2c9f 01       		.byte	0x1
 9468 2ca0 22       		.uleb128 0x22
 9469 2ca1 7E160000 		.4byte	.LASF588
 9470 2ca5 02       		.byte	0x2
 9471 2ca6 22       		.uleb128 0x22
 9472 2ca7 271D0000 		.4byte	.LASF589
 9473 2cab 03       		.byte	0x3
 9474 2cac 22       		.uleb128 0x22
ARM GAS  C:\Users\JEANCO~1\AppData\Local\Temp\ccxhVNGN.s 			page 168


 9475 2cad 5D090000 		.4byte	.LASF590
 9476 2cb1 04       		.byte	0x4
 9477 2cb2 00       		.byte	0
 9478 2cb3 1A       		.uleb128 0x1a
 9479 2cb4 A22C0000 		.4byte	.LASF591
 9480 2cb8 34       		.byte	0x34
 9481 2cb9 0A01     		.2byte	0x10a
 9482 2cbb 862C0000 		.4byte	0x2c86
 9483 2cbf 24       		.uleb128 0x24
 9484 2cc0 07       		.byte	0x7
 9485 2cc1 01       		.byte	0x1
 9486 2cc2 6C000000 		.4byte	0x6c
 9487 2cc6 34       		.byte	0x34
 9488 2cc7 1801     		.2byte	0x118
 9489 2cc9 F82C0000 		.4byte	0x2cf8
 9490 2ccd 22       		.uleb128 0x22
 9491 2cce 4B230000 		.4byte	.LASF592
 9492 2cd2 00       		.byte	0
 9493 2cd3 22       		.uleb128 0x22
 9494 2cd4 B9120000 		.4byte	.LASF593
 9495 2cd8 01       		.byte	0x1
 9496 2cd9 22       		.uleb128 0x22
 9497 2cda 6D200000 		.4byte	.LASF594
 9498 2cde 02       		.byte	0x2
 9499 2cdf 22       		.uleb128 0x22
 9500 2ce0 80190000 		.4byte	.LASF595
 9501 2ce4 03       		.byte	0x3
 9502 2ce5 22       		.uleb128 0x22
 9503 2ce6 59180000 		.4byte	.LASF596
 9504 2cea 04       		.byte	0x4
 9505 2ceb 22       		.uleb128 0x22
 9506 2cec F8130000 		.4byte	.LASF597
 9507 2cf0 05       		.byte	0x5
 9508 2cf1 22       		.uleb128 0x22
 9509 2cf2 94100000 		.4byte	.LASF598
 9510 2cf6 06       		.byte	0x6
 9511 2cf7 00       		.byte	0
 9512 2cf8 1A       		.uleb128 0x1a
 9513 2cf9 48140000 		.4byte	.LASF599
 9514 2cfd 34       		.byte	0x34
 9515 2cfe 2001     		.2byte	0x120
 9516 2d00 BF2C0000 		.4byte	0x2cbf
 9517 2d04 24       		.uleb128 0x24
 9518 2d05 07       		.byte	0x7
 9519 2d06 01       		.byte	0x1
 9520 2d07 6C000000 		.4byte	0x6c
 9521 2d0b 34       		.byte	0x34
 9522 2d0c 2501     		.2byte	0x125
 9523 2d0e 372D0000 		.4byte	0x2d37
 9524 2d12 22       		.uleb128 0x22
 9525 2d13 8F220000 		.4byte	.LASF600
 9526 2d17 00       		.byte	0
 9527 2d18 22       		.uleb128 0x22
 9528 2d19 C11D0000 		.4byte	.LASF601
 9529 2d1d 01       		.byte	0x1
 9530 2d1e 22       		.uleb128 0x22
 9531 2d1f 1F170000 		.4byte	.LASF602
ARM GAS  C:\Users\JEANCO~1\AppData\Local\Temp\ccxhVNGN.s 			page 169


 9532 2d23 02       		.byte	0x2
 9533 2d24 22       		.uleb128 0x22
 9534 2d25 CF170000 		.4byte	.LASF603
 9535 2d29 03       		.byte	0x3
 9536 2d2a 22       		.uleb128 0x22
 9537 2d2b 14290000 		.4byte	.LASF604
 9538 2d2f 04       		.byte	0x4
 9539 2d30 22       		.uleb128 0x22
 9540 2d31 E3160000 		.4byte	.LASF605
 9541 2d35 05       		.byte	0x5
 9542 2d36 00       		.byte	0
 9543 2d37 1A       		.uleb128 0x1a
 9544 2d38 F91D0000 		.4byte	.LASF606
 9545 2d3c 34       		.byte	0x34
 9546 2d3d 2C01     		.2byte	0x12c
 9547 2d3f 042D0000 		.4byte	0x2d04
 9548 2d43 19       		.uleb128 0x19
 9549 2d44 08       		.byte	0x8
 9550 2d45 34       		.byte	0x34
 9551 2d46 3101     		.2byte	0x131
 9552 2d48 672D0000 		.4byte	0x2d67
 9553 2d4c 0A       		.uleb128 0xa
 9554 2d4d 1B2C0000 		.4byte	.LASF607
 9555 2d51 34       		.byte	0x34
 9556 2d52 3501     		.2byte	0x135
 9557 2d54 3A000000 		.4byte	0x3a
 9558 2d58 00       		.byte	0
 9559 2d59 0A       		.uleb128 0xa
 9560 2d5a 4B050000 		.4byte	.LASF608
 9561 2d5e 34       		.byte	0x34
 9562 2d5f 3901     		.2byte	0x139
 9563 2d61 22140000 		.4byte	0x1422
 9564 2d65 04       		.byte	0x4
 9565 2d66 00       		.byte	0
 9566 2d67 1A       		.uleb128 0x1a
 9567 2d68 96180000 		.4byte	.LASF609
 9568 2d6c 34       		.byte	0x34
 9569 2d6d 3A01     		.2byte	0x13a
 9570 2d6f 432D0000 		.4byte	0x2d43
 9571 2d73 05       		.uleb128 0x5
 9572 2d74 672D0000 		.4byte	0x2d67
 9573 2d78 1A       		.uleb128 0x1a
 9574 2d79 9F2B0000 		.4byte	.LASF610
 9575 2d7d 34       		.byte	0x34
 9576 2d7e 4201     		.2byte	0x142
 9577 2d80 842D0000 		.4byte	0x2d84
 9578 2d84 0B       		.uleb128 0xb
 9579 2d85 04       		.byte	0x4
 9580 2d86 8A2D0000 		.4byte	0x2d8a
 9581 2d8a 0D       		.uleb128 0xd
 9582 2d8b 952D0000 		.4byte	0x2d95
 9583 2d8f 0E       		.uleb128 0xe
 9584 2d90 952D0000 		.4byte	0x2d95
 9585 2d94 00       		.byte	0
 9586 2d95 0B       		.uleb128 0xb
 9587 2d96 04       		.byte	0x4
 9588 2d97 442B0000 		.4byte	0x2b44
ARM GAS  C:\Users\JEANCO~1\AppData\Local\Temp\ccxhVNGN.s 			page 170


 9589 2d9b 1A       		.uleb128 0x1a
 9590 2d9c D2050000 		.4byte	.LASF611
 9591 2da0 34       		.byte	0x34
 9592 2da1 4B01     		.2byte	0x14b
 9593 2da3 A72D0000 		.4byte	0x2da7
 9594 2da7 0B       		.uleb128 0xb
 9595 2da8 04       		.byte	0x4
 9596 2da9 AD2D0000 		.4byte	0x2dad
 9597 2dad 0D       		.uleb128 0xd
 9598 2dae BD2D0000 		.4byte	0x2dbd
 9599 2db2 0E       		.uleb128 0xe
 9600 2db3 952D0000 		.4byte	0x2d95
 9601 2db7 0E       		.uleb128 0xe
 9602 2db8 7B2C0000 		.4byte	0x2c7b
 9603 2dbc 00       		.byte	0
 9604 2dbd 1A       		.uleb128 0x1a
 9605 2dbe 9A0C0000 		.4byte	.LASF612
 9606 2dc2 34       		.byte	0x34
 9607 2dc3 5401     		.2byte	0x154
 9608 2dc5 C92D0000 		.4byte	0x2dc9
 9609 2dc9 0B       		.uleb128 0xb
 9610 2dca 04       		.byte	0x4
 9611 2dcb CF2D0000 		.4byte	0x2dcf
 9612 2dcf 0D       		.uleb128 0xd
 9613 2dd0 DF2D0000 		.4byte	0x2ddf
 9614 2dd4 0E       		.uleb128 0xe
 9615 2dd5 952D0000 		.4byte	0x2d95
 9616 2dd9 0E       		.uleb128 0xe
 9617 2dda 372D0000 		.4byte	0x2d37
 9618 2dde 00       		.byte	0
 9619 2ddf 1A       		.uleb128 0x1a
 9620 2de0 41070000 		.4byte	.LASF613
 9621 2de4 34       		.byte	0x34
 9622 2de5 6001     		.2byte	0x160
 9623 2de7 EB2D0000 		.4byte	0x2deb
 9624 2deb 0B       		.uleb128 0xb
 9625 2dec 04       		.byte	0x4
 9626 2ded F12D0000 		.4byte	0x2df1
 9627 2df1 20       		.uleb128 0x20
 9628 2df2 2F160000 		.4byte	0x162f
 9629 2df6 002E0000 		.4byte	0x2e00
 9630 2dfa 0E       		.uleb128 0xe
 9631 2dfb 952D0000 		.4byte	0x2d95
 9632 2dff 00       		.byte	0
 9633 2e00 1A       		.uleb128 0x1a
 9634 2e01 38110000 		.4byte	.LASF614
 9635 2e05 34       		.byte	0x34
 9636 2e06 6501     		.2byte	0x165
 9637 2e08 0C2E0000 		.4byte	0x2e0c
 9638 2e0c 0B       		.uleb128 0xb
 9639 2e0d 04       		.byte	0x4
 9640 2e0e 122E0000 		.4byte	0x2e12
 9641 2e12 20       		.uleb128 0x20
 9642 2e13 302E0000 		.4byte	0x2e30
 9643 2e17 302E0000 		.4byte	0x2e30
 9644 2e1b 0E       		.uleb128 0xe
 9645 2e1c 952D0000 		.4byte	0x2d95
ARM GAS  C:\Users\JEANCO~1\AppData\Local\Temp\ccxhVNGN.s 			page 171


 9646 2e20 0E       		.uleb128 0xe
 9647 2e21 CD000000 		.4byte	0xcd
 9648 2e25 0E       		.uleb128 0xe
 9649 2e26 CD000000 		.4byte	0xcd
 9650 2e2a 0E       		.uleb128 0xe
 9651 2e2b E8000000 		.4byte	0xe8
 9652 2e2f 00       		.byte	0
 9653 2e30 0B       		.uleb128 0xb
 9654 2e31 04       		.byte	0x4
 9655 2e32 732D0000 		.4byte	0x2d73
 9656 2e36 17       		.uleb128 0x17
 9657 2e37 20       		.byte	0x20
 9658 2e38 36       		.byte	0x36
 9659 2e39 35       		.byte	0x35
 9660 2e3a 9F2E0000 		.4byte	0x2e9f
 9661 2e3e 08       		.uleb128 0x8
 9662 2e3f C6030000 		.4byte	.LASF615
 9663 2e43 36       		.byte	0x36
 9664 2e44 36       		.byte	0x36
 9665 2e45 0E010000 		.4byte	0x10e
 9666 2e49 00       		.byte	0
 9667 2e4a 08       		.uleb128 0x8
 9668 2e4b CB0E0000 		.4byte	.LASF616
 9669 2e4f 36       		.byte	0x36
 9670 2e50 38       		.byte	0x38
 9671 2e51 0E010000 		.4byte	0x10e
 9672 2e55 04       		.byte	0x4
 9673 2e56 08       		.uleb128 0x8
 9674 2e57 0F030000 		.4byte	.LASF617
 9675 2e5b 36       		.byte	0x36
 9676 2e5c 39       		.byte	0x39
 9677 2e5d 0E010000 		.4byte	0x10e
 9678 2e61 08       		.byte	0x8
 9679 2e62 08       		.uleb128 0x8
 9680 2e63 E7200000 		.4byte	.LASF618
 9681 2e67 36       		.byte	0x36
 9682 2e68 3A       		.byte	0x3a
 9683 2e69 0E010000 		.4byte	0x10e
 9684 2e6d 0C       		.byte	0xc
 9685 2e6e 08       		.uleb128 0x8
 9686 2e6f 18170000 		.4byte	.LASF619
 9687 2e73 36       		.byte	0x36
 9688 2e74 3C       		.byte	0x3c
 9689 2e75 0E010000 		.4byte	0x10e
 9690 2e79 10       		.byte	0x10
 9691 2e7a 08       		.uleb128 0x8
 9692 2e7b 0E0F0000 		.4byte	.LASF620
 9693 2e7f 36       		.byte	0x36
 9694 2e80 3E       		.byte	0x3e
 9695 2e81 0E010000 		.4byte	0x10e
 9696 2e85 14       		.byte	0x14
 9697 2e86 08       		.uleb128 0x8
 9698 2e87 160F0000 		.4byte	.LASF621
 9699 2e8b 36       		.byte	0x36
 9700 2e8c 3F       		.byte	0x3f
 9701 2e8d 0E010000 		.4byte	0x10e
 9702 2e91 18       		.byte	0x18
ARM GAS  C:\Users\JEANCO~1\AppData\Local\Temp\ccxhVNGN.s 			page 172


 9703 2e92 08       		.uleb128 0x8
 9704 2e93 AB040000 		.4byte	.LASF622
 9705 2e97 36       		.byte	0x36
 9706 2e98 40       		.byte	0x40
 9707 2e99 0E010000 		.4byte	0x10e
 9708 2e9d 1C       		.byte	0x1c
 9709 2e9e 00       		.byte	0
 9710 2e9f 04       		.uleb128 0x4
 9711 2ea0 89200000 		.4byte	.LASF623
 9712 2ea4 36       		.byte	0x36
 9713 2ea5 41       		.byte	0x41
 9714 2ea6 362E0000 		.4byte	0x2e36
 9715 2eaa 17       		.uleb128 0x17
 9716 2eab 20       		.byte	0x20
 9717 2eac 36       		.byte	0x36
 9718 2ead 46       		.byte	0x46
 9719 2eae 132F0000 		.4byte	0x2f13
 9720 2eb2 08       		.uleb128 0x8
 9721 2eb3 7A0F0000 		.4byte	.LASF624
 9722 2eb7 36       		.byte	0x36
 9723 2eb8 47       		.byte	0x47
 9724 2eb9 0E010000 		.4byte	0x10e
 9725 2ebd 00       		.byte	0
 9726 2ebe 08       		.uleb128 0x8
 9727 2ebf 9C140000 		.4byte	.LASF625
 9728 2ec3 36       		.byte	0x36
 9729 2ec4 49       		.byte	0x49
 9730 2ec5 0E010000 		.4byte	0x10e
 9731 2ec9 04       		.byte	0x4
 9732 2eca 08       		.uleb128 0x8
 9733 2ecb 87250000 		.4byte	.LASF626
 9734 2ecf 36       		.byte	0x36
 9735 2ed0 4A       		.byte	0x4a
 9736 2ed1 0E010000 		.4byte	0x10e
 9737 2ed5 08       		.byte	0x8
 9738 2ed6 08       		.uleb128 0x8
 9739 2ed7 C0140000 		.4byte	.LASF627
 9740 2edb 36       		.byte	0x36
 9741 2edc 4C       		.byte	0x4c
 9742 2edd 0E010000 		.4byte	0x10e
 9743 2ee1 0C       		.byte	0xc
 9744 2ee2 08       		.uleb128 0x8
 9745 2ee3 961A0000 		.4byte	.LASF628
 9746 2ee7 36       		.byte	0x36
 9747 2ee8 4D       		.byte	0x4d
 9748 2ee9 0E010000 		.4byte	0x10e
 9749 2eed 10       		.byte	0x10
 9750 2eee 08       		.uleb128 0x8
 9751 2eef 0E0F0000 		.4byte	.LASF620
 9752 2ef3 36       		.byte	0x36
 9753 2ef4 4F       		.byte	0x4f
 9754 2ef5 0E010000 		.4byte	0x10e
 9755 2ef9 14       		.byte	0x14
 9756 2efa 08       		.uleb128 0x8
 9757 2efb 29080000 		.4byte	.LASF629
 9758 2eff 36       		.byte	0x36
 9759 2f00 50       		.byte	0x50
ARM GAS  C:\Users\JEANCO~1\AppData\Local\Temp\ccxhVNGN.s 			page 173


 9760 2f01 0E010000 		.4byte	0x10e
 9761 2f05 18       		.byte	0x18
 9762 2f06 08       		.uleb128 0x8
 9763 2f07 70250000 		.4byte	.LASF630
 9764 2f0b 36       		.byte	0x36
 9765 2f0c 52       		.byte	0x52
 9766 2f0d 0E010000 		.4byte	0x10e
 9767 2f11 1C       		.byte	0x1c
 9768 2f12 00       		.byte	0
 9769 2f13 04       		.uleb128 0x4
 9770 2f14 71090000 		.4byte	.LASF631
 9771 2f18 36       		.byte	0x36
 9772 2f19 53       		.byte	0x53
 9773 2f1a AA2E0000 		.4byte	0x2eaa
 9774 2f1e 17       		.uleb128 0x17
 9775 2f1f 20       		.byte	0x20
 9776 2f20 36       		.byte	0x36
 9777 2f21 58       		.byte	0x58
 9778 2f22 872F0000 		.4byte	0x2f87
 9779 2f26 08       		.uleb128 0x8
 9780 2f27 DF200000 		.4byte	.LASF632
 9781 2f2b 36       		.byte	0x36
 9782 2f2c 59       		.byte	0x59
 9783 2f2d 0E010000 		.4byte	0x10e
 9784 2f31 00       		.byte	0
 9785 2f32 08       		.uleb128 0x8
 9786 2f33 9C140000 		.4byte	.LASF625
 9787 2f37 36       		.byte	0x36
 9788 2f38 5B       		.byte	0x5b
 9789 2f39 0E010000 		.4byte	0x10e
 9790 2f3d 04       		.byte	0x4
 9791 2f3e 08       		.uleb128 0x8
 9792 2f3f 7A1C0000 		.4byte	.LASF633
 9793 2f43 36       		.byte	0x36
 9794 2f44 5C       		.byte	0x5c
 9795 2f45 0E010000 		.4byte	0x10e
 9796 2f49 08       		.byte	0x8
 9797 2f4a 08       		.uleb128 0x8
 9798 2f4b C0140000 		.4byte	.LASF627
 9799 2f4f 36       		.byte	0x36
 9800 2f50 5E       		.byte	0x5e
 9801 2f51 0E010000 		.4byte	0x10e
 9802 2f55 0C       		.byte	0xc
 9803 2f56 08       		.uleb128 0x8
 9804 2f57 E4260000 		.4byte	.LASF634
 9805 2f5b 36       		.byte	0x36
 9806 2f5c 5F       		.byte	0x5f
 9807 2f5d 0E010000 		.4byte	0x10e
 9808 2f61 10       		.byte	0x10
 9809 2f62 08       		.uleb128 0x8
 9810 2f63 0E0F0000 		.4byte	.LASF620
 9811 2f67 36       		.byte	0x36
 9812 2f68 61       		.byte	0x61
 9813 2f69 0E010000 		.4byte	0x10e
 9814 2f6d 14       		.byte	0x14
 9815 2f6e 08       		.uleb128 0x8
 9816 2f6f 160F0000 		.4byte	.LASF621
ARM GAS  C:\Users\JEANCO~1\AppData\Local\Temp\ccxhVNGN.s 			page 174


 9817 2f73 36       		.byte	0x36
 9818 2f74 62       		.byte	0x62
 9819 2f75 0E010000 		.4byte	0x10e
 9820 2f79 18       		.byte	0x18
 9821 2f7a 08       		.uleb128 0x8
 9822 2f7b 70250000 		.4byte	.LASF630
 9823 2f7f 36       		.byte	0x36
 9824 2f80 63       		.byte	0x63
 9825 2f81 0E010000 		.4byte	0x10e
 9826 2f85 1C       		.byte	0x1c
 9827 2f86 00       		.byte	0
 9828 2f87 04       		.uleb128 0x4
 9829 2f88 14090000 		.4byte	.LASF635
 9830 2f8c 36       		.byte	0x36
 9831 2f8d 64       		.byte	0x64
 9832 2f8e 1E2F0000 		.4byte	0x2f1e
 9833 2f92 26       		.uleb128 0x26
 9834 2f93 00100100 		.4byte	0x11000
 9835 2f97 36       		.byte	0x36
 9836 2f98 69       		.byte	0x69
 9837 2f99 6F320000 		.4byte	0x326f
 9838 2f9d 08       		.uleb128 0x8
 9839 2f9e B1050000 		.4byte	.LASF636
 9840 2fa2 36       		.byte	0x36
 9841 2fa3 6A       		.byte	0x6a
 9842 2fa4 0E010000 		.4byte	0x10e
 9843 2fa8 00       		.byte	0
 9844 2fa9 08       		.uleb128 0x8
 9845 2faa 860D0000 		.4byte	.LASF637
 9846 2fae 36       		.byte	0x36
 9847 2faf 6B       		.byte	0x6b
 9848 2fb0 0E010000 		.4byte	0x10e
 9849 2fb4 04       		.byte	0x4
 9850 2fb5 08       		.uleb128 0x8
 9851 2fb6 7D080000 		.4byte	.LASF638
 9852 2fba 36       		.byte	0x36
 9853 2fbb 6C       		.byte	0x6c
 9854 2fbc 0E010000 		.4byte	0x10e
 9855 2fc0 08       		.byte	0x8
 9856 2fc1 08       		.uleb128 0x8
 9857 2fc2 B82B0000 		.4byte	.LASF639
 9858 2fc6 36       		.byte	0x36
 9859 2fc7 6D       		.byte	0x6d
 9860 2fc8 0E010000 		.4byte	0x10e
 9861 2fcc 0C       		.byte	0xc
 9862 2fcd 08       		.uleb128 0x8
 9863 2fce 97160000 		.4byte	.LASF640
 9864 2fd2 36       		.byte	0x36
 9865 2fd3 6E       		.byte	0x6e
 9866 2fd4 0E010000 		.4byte	0x10e
 9867 2fd8 10       		.byte	0x10
 9868 2fd9 08       		.uleb128 0x8
 9869 2fda 0C0D0000 		.4byte	.LASF641
 9870 2fde 36       		.byte	0x36
 9871 2fdf 6F       		.byte	0x6f
 9872 2fe0 0E010000 		.4byte	0x10e
 9873 2fe4 14       		.byte	0x14
ARM GAS  C:\Users\JEANCO~1\AppData\Local\Temp\ccxhVNGN.s 			page 175


 9874 2fe5 08       		.uleb128 0x8
 9875 2fe6 381F0000 		.4byte	.LASF642
 9876 2fea 36       		.byte	0x36
 9877 2feb 70       		.byte	0x70
 9878 2fec 0E010000 		.4byte	0x10e
 9879 2ff0 18       		.byte	0x18
 9880 2ff1 08       		.uleb128 0x8
 9881 2ff2 2F090000 		.4byte	.LASF643
 9882 2ff6 36       		.byte	0x36
 9883 2ff7 71       		.byte	0x71
 9884 2ff8 0E010000 		.4byte	0x10e
 9885 2ffc 1C       		.byte	0x1c
 9886 2ffd 08       		.uleb128 0x8
 9887 2ffe 27090000 		.4byte	.LASF644
 9888 3002 36       		.byte	0x36
 9889 3003 73       		.byte	0x73
 9890 3004 0E010000 		.4byte	0x10e
 9891 3008 20       		.byte	0x20
 9892 3009 08       		.uleb128 0x8
 9893 300a 831E0000 		.4byte	.LASF645
 9894 300e 36       		.byte	0x36
 9895 300f 75       		.byte	0x75
 9896 3010 0E010000 		.4byte	0x10e
 9897 3014 24       		.byte	0x24
 9898 3015 08       		.uleb128 0x8
 9899 3016 D2000000 		.4byte	.LASF646
 9900 301a 36       		.byte	0x36
 9901 301b 76       		.byte	0x76
 9902 301c 0E010000 		.4byte	0x10e
 9903 3020 28       		.byte	0x28
 9904 3021 08       		.uleb128 0x8
 9905 3022 401F0000 		.4byte	.LASF647
 9906 3026 36       		.byte	0x36
 9907 3027 78       		.byte	0x78
 9908 3028 0E010000 		.4byte	0x10e
 9909 302c 2C       		.byte	0x2c
 9910 302d 08       		.uleb128 0x8
 9911 302e 4F100000 		.4byte	.LASF648
 9912 3032 36       		.byte	0x36
 9913 3033 7A       		.byte	0x7a
 9914 3034 0E010000 		.4byte	0x10e
 9915 3038 30       		.byte	0x30
 9916 3039 08       		.uleb128 0x8
 9917 303a 5E100000 		.4byte	.LASF649
 9918 303e 36       		.byte	0x36
 9919 303f 7B       		.byte	0x7b
 9920 3040 0E010000 		.4byte	0x10e
 9921 3044 34       		.byte	0x34
 9922 3045 08       		.uleb128 0x8
 9923 3046 20020000 		.4byte	.LASF650
 9924 304a 36       		.byte	0x36
 9925 304b 7C       		.byte	0x7c
 9926 304c 0E010000 		.4byte	0x10e
 9927 3050 38       		.byte	0x38
 9928 3051 18       		.uleb128 0x18
 9929 3052 43494400 		.ascii	"CID\000"
 9930 3056 36       		.byte	0x36
ARM GAS  C:\Users\JEANCO~1\AppData\Local\Temp\ccxhVNGN.s 			page 176


 9931 3057 7D       		.byte	0x7d
 9932 3058 0E010000 		.4byte	0x10e
 9933 305c 3C       		.byte	0x3c
 9934 305d 08       		.uleb128 0x8
 9935 305e 61130000 		.4byte	.LASF651
 9936 3062 36       		.byte	0x36
 9937 3063 7E       		.byte	0x7e
 9938 3064 7F320000 		.4byte	0x327f
 9939 3068 40       		.byte	0x40
 9940 3069 27       		.uleb128 0x27
 9941 306a F6270000 		.4byte	.LASF652
 9942 306e 36       		.byte	0x36
 9943 306f 7F       		.byte	0x7f
 9944 3070 0E010000 		.4byte	0x10e
 9945 3074 0001     		.2byte	0x100
 9946 3076 27       		.uleb128 0x27
 9947 3077 97020000 		.4byte	.LASF653
 9948 307b 36       		.byte	0x36
 9949 307c 81       		.byte	0x81
 9950 307d 7C0D0000 		.4byte	0xd7c
 9951 3081 0401     		.2byte	0x104
 9952 3083 27       		.uleb128 0x27
 9953 3084 A2170000 		.4byte	.LASF654
 9954 3088 36       		.byte	0x36
 9955 3089 83       		.byte	0x83
 9956 308a 94320000 		.4byte	0x3294
 9957 308e 4001     		.2byte	0x140
 9958 3090 27       		.uleb128 0x27
 9959 3091 0B1C0000 		.4byte	.LASF655
 9960 3095 36       		.byte	0x36
 9961 3096 84       		.byte	0x84
 9962 3097 0E010000 		.4byte	0x10e
 9963 309b 0004     		.2byte	0x400
 9964 309d 27       		.uleb128 0x27
 9965 309e 122B0000 		.4byte	.LASF656
 9966 30a2 36       		.byte	0x36
 9967 30a3 85       		.byte	0x85
 9968 30a4 0E010000 		.4byte	0x10e
 9969 30a8 0404     		.2byte	0x404
 9970 30aa 27       		.uleb128 0x27
 9971 30ab E6040000 		.4byte	.LASF657
 9972 30af 36       		.byte	0x36
 9973 30b0 86       		.byte	0x86
 9974 30b1 0E010000 		.4byte	0x10e
 9975 30b5 0804     		.2byte	0x408
 9976 30b7 27       		.uleb128 0x27
 9977 30b8 57270000 		.4byte	.LASF658
 9978 30bc 36       		.byte	0x36
 9979 30bd 88       		.byte	0x88
 9980 30be 0E010000 		.4byte	0x10e
 9981 30c2 0C04     		.2byte	0x40c
 9982 30c4 27       		.uleb128 0x27
 9983 30c5 8A030000 		.4byte	.LASF659
 9984 30c9 36       		.byte	0x36
 9985 30ca 89       		.byte	0x89
 9986 30cb 0E010000 		.4byte	0x10e
 9987 30cf 1004     		.2byte	0x410
ARM GAS  C:\Users\JEANCO~1\AppData\Local\Temp\ccxhVNGN.s 			page 177


 9988 30d1 27       		.uleb128 0x27
 9989 30d2 BE040000 		.4byte	.LASF660
 9990 30d6 36       		.byte	0x36
 9991 30d7 8B       		.byte	0x8b
 9992 30d8 0E010000 		.4byte	0x10e
 9993 30dc 1404     		.2byte	0x414
 9994 30de 27       		.uleb128 0x27
 9995 30df 950D0000 		.4byte	.LASF661
 9996 30e3 36       		.byte	0x36
 9997 30e4 8D       		.byte	0x8d
 9998 30e5 0E010000 		.4byte	0x10e
 9999 30e9 1804     		.2byte	0x418
 10000 30eb 27       		.uleb128 0x27
 10001 30ec 43220000 		.4byte	.LASF662
 10002 30f0 36       		.byte	0x36
 10003 30f1 8F       		.byte	0x8f
 10004 30f2 A9320000 		.4byte	0x32a9
 10005 30f6 1C04     		.2byte	0x41c
 10006 30f8 27       		.uleb128 0x27
 10007 30f9 0A030000 		.4byte	.LASF663
 10008 30fd 36       		.byte	0x36
 10009 30fe 90       		.byte	0x90
 10010 30ff 0E010000 		.4byte	0x10e
 10011 3103 4004     		.2byte	0x440
 10012 3105 27       		.uleb128 0x27
 10013 3106 62240000 		.4byte	.LASF664
 10014 310a 36       		.byte	0x36
 10015 310b 92       		.byte	0x92
 10016 310c BE320000 		.4byte	0x32be
 10017 3110 4404     		.2byte	0x444
 10018 3112 28       		.uleb128 0x28
 10019 3113 686300   		.ascii	"hc\000"
 10020 3116 36       		.byte	0x36
 10021 3117 93       		.byte	0x93
 10022 3118 C3320000 		.4byte	0x32c3
 10023 311c 0005     		.2byte	0x500
 10024 311e 27       		.uleb128 0x27
 10025 311f A8270000 		.4byte	.LASF665
 10026 3123 36       		.byte	0x36
 10027 3124 94       		.byte	0x94
 10028 3125 E3320000 		.4byte	0x32e3
 10029 3129 0007     		.2byte	0x700
 10030 312b 27       		.uleb128 0x27
 10031 312c 041F0000 		.4byte	.LASF666
 10032 3130 36       		.byte	0x36
 10033 3131 95       		.byte	0x95
 10034 3132 0E010000 		.4byte	0x10e
 10035 3136 0008     		.2byte	0x800
 10036 3138 27       		.uleb128 0x27
 10037 3139 EC280000 		.4byte	.LASF667
 10038 313d 36       		.byte	0x36
 10039 313e 96       		.byte	0x96
 10040 313f 0E010000 		.4byte	0x10e
 10041 3143 0408     		.2byte	0x804
 10042 3145 27       		.uleb128 0x27
 10043 3146 7C060000 		.4byte	.LASF668
 10044 314a 36       		.byte	0x36
ARM GAS  C:\Users\JEANCO~1\AppData\Local\Temp\ccxhVNGN.s 			page 178


 10045 314b 97       		.byte	0x97
 10046 314c 0E010000 		.4byte	0x10e
 10047 3150 0808     		.2byte	0x808
 10048 3152 27       		.uleb128 0x27
 10049 3153 7D050000 		.4byte	.LASF669
 10050 3157 36       		.byte	0x36
 10051 3158 98       		.byte	0x98
 10052 3159 0E010000 		.4byte	0x10e
 10053 315d 0C08     		.2byte	0x80c
 10054 315f 27       		.uleb128 0x27
 10055 3160 7E0D0000 		.4byte	.LASF670
 10056 3164 36       		.byte	0x36
 10057 3165 99       		.byte	0x99
 10058 3166 0E010000 		.4byte	0x10e
 10059 316a 1008     		.2byte	0x810
 10060 316c 27       		.uleb128 0x27
 10061 316d AE250000 		.4byte	.LASF671
 10062 3171 36       		.byte	0x36
 10063 3172 9B       		.byte	0x9b
 10064 3173 0E010000 		.4byte	0x10e
 10065 3177 1408     		.2byte	0x814
 10066 3179 27       		.uleb128 0x27
 10067 317a 44260000 		.4byte	.LASF672
 10068 317e 36       		.byte	0x36
 10069 317f 9D       		.byte	0x9d
 10070 3180 0E010000 		.4byte	0x10e
 10071 3184 1808     		.2byte	0x818
 10072 3186 27       		.uleb128 0x27
 10073 3187 05230000 		.4byte	.LASF673
 10074 318b 36       		.byte	0x36
 10075 318c 9F       		.byte	0x9f
 10076 318d 0E010000 		.4byte	0x10e
 10077 3191 1C08     		.2byte	0x81c
 10078 3193 27       		.uleb128 0x27
 10079 3194 F6060000 		.4byte	.LASF674
 10080 3198 36       		.byte	0x36
 10081 3199 A1       		.byte	0xa1
 10082 319a 0E010000 		.4byte	0x10e
 10083 319e 2008     		.2byte	0x820
 10084 31a0 27       		.uleb128 0x27
 10085 31a1 F9050000 		.4byte	.LASF675
 10086 31a5 36       		.byte	0x36
 10087 31a6 A2       		.byte	0xa2
 10088 31a7 0E010000 		.4byte	0x10e
 10089 31ab 2408     		.2byte	0x824
 10090 31ad 27       		.uleb128 0x27
 10091 31ae 2F1F0000 		.4byte	.LASF676
 10092 31b2 36       		.byte	0x36
 10093 31b3 A3       		.byte	0xa3
 10094 31b4 0E010000 		.4byte	0x10e
 10095 31b8 2808     		.2byte	0x828
 10096 31ba 27       		.uleb128 0x27
 10097 31bb 66100000 		.4byte	.LASF677
 10098 31bf 36       		.byte	0x36
 10099 31c0 A5       		.byte	0xa5
 10100 31c1 0E010000 		.4byte	0x10e
 10101 31c5 2C08     		.2byte	0x82c
ARM GAS  C:\Users\JEANCO~1\AppData\Local\Temp\ccxhVNGN.s 			page 179


 10102 31c7 27       		.uleb128 0x27
 10103 31c8 B1070000 		.4byte	.LASF678
 10104 31cc 36       		.byte	0x36
 10105 31cd A7       		.byte	0xa7
 10106 31ce 0E010000 		.4byte	0x10e
 10107 31d2 3008     		.2byte	0x830
 10108 31d4 27       		.uleb128 0x27
 10109 31d5 530F0000 		.4byte	.LASF679
 10110 31d9 36       		.byte	0x36
 10111 31da A8       		.byte	0xa8
 10112 31db 0E010000 		.4byte	0x10e
 10113 31df 3408     		.2byte	0x834
 10114 31e1 27       		.uleb128 0x27
 10115 31e2 D5070000 		.4byte	.LASF680
 10116 31e6 36       		.byte	0x36
 10117 31e7 AA       		.byte	0xaa
 10118 31e8 0E010000 		.4byte	0x10e
 10119 31ec 3808     		.2byte	0x838
 10120 31ee 27       		.uleb128 0x27
 10121 31ef FF070000 		.4byte	.LASF681
 10122 31f3 36       		.byte	0x36
 10123 31f4 AB       		.byte	0xab
 10124 31f5 0E010000 		.4byte	0x10e
 10125 31f9 3C08     		.2byte	0x83c
 10126 31fb 27       		.uleb128 0x27
 10127 31fc A5080000 		.4byte	.LASF682
 10128 3200 36       		.byte	0x36
 10129 3201 AC       		.byte	0xac
 10130 3202 F8320000 		.4byte	0x32f8
 10131 3206 4008     		.2byte	0x840
 10132 3208 27       		.uleb128 0x27
 10133 3209 E60E0000 		.4byte	.LASF683
 10134 320d 36       		.byte	0x36
 10135 320e AD       		.byte	0xad
 10136 320f F8320000 		.4byte	0x32f8
 10137 3213 8008     		.2byte	0x880
 10138 3215 27       		.uleb128 0x27
 10139 3216 AD140000 		.4byte	.LASF684
 10140 321a 36       		.byte	0x36
 10141 321b AE       		.byte	0xae
 10142 321c F8320000 		.4byte	0x32f8
 10143 3220 C008     		.2byte	0x8c0
 10144 3222 28       		.uleb128 0x28
 10145 3223 696500   		.ascii	"ie\000"
 10146 3226 36       		.byte	0x36
 10147 3227 AF       		.byte	0xaf
 10148 3228 FD320000 		.4byte	0x32fd
 10149 322c 0009     		.2byte	0x900
 10150 322e 28       		.uleb128 0x28
 10151 322f 6F6500   		.ascii	"oe\000"
 10152 3232 36       		.byte	0x36
 10153 3233 B0       		.byte	0xb0
 10154 3234 0D330000 		.4byte	0x330d
 10155 3238 000B     		.2byte	0xb00
 10156 323a 27       		.uleb128 0x27
 10157 323b F60C0000 		.4byte	.LASF685
 10158 323f 36       		.byte	0x36
ARM GAS  C:\Users\JEANCO~1\AppData\Local\Temp\ccxhVNGN.s 			page 180


 10159 3240 B1       		.byte	0xb1
 10160 3241 E3320000 		.4byte	0x32e3
 10161 3245 000D     		.2byte	0xd00
 10162 3247 27       		.uleb128 0x27
 10163 3248 0C290000 		.4byte	.LASF686
 10164 324c 36       		.byte	0x36
 10165 324d B2       		.byte	0xb2
 10166 324e 0E010000 		.4byte	0x10e
 10167 3252 000E     		.2byte	0xe00
 10168 3254 27       		.uleb128 0x27
 10169 3255 A31B0000 		.4byte	.LASF687
 10170 3259 36       		.byte	0x36
 10171 325a B4       		.byte	0xb4
 10172 325b 2D330000 		.4byte	0x332d
 10173 325f 040E     		.2byte	0xe04
 10174 3261 27       		.uleb128 0x27
 10175 3262 BF0A0000 		.4byte	.LASF182
 10176 3266 36       		.byte	0x36
 10177 3267 B5       		.byte	0xb5
 10178 3268 49330000 		.4byte	0x3349
 10179 326c 0010     		.2byte	0x1000
 10180 326e 00       		.byte	0
 10181 326f 13       		.uleb128 0x13
 10182 3270 0E010000 		.4byte	0x10e
 10183 3274 7F320000 		.4byte	0x327f
 10184 3278 14       		.uleb128 0x14
 10185 3279 45000000 		.4byte	0x45
 10186 327d 2F       		.byte	0x2f
 10187 327e 00       		.byte	0
 10188 327f 06       		.uleb128 0x6
 10189 3280 6F320000 		.4byte	0x326f
 10190 3284 13       		.uleb128 0x13
 10191 3285 0E010000 		.4byte	0x10e
 10192 3289 94320000 		.4byte	0x3294
 10193 328d 14       		.uleb128 0x14
 10194 328e 45000000 		.4byte	0x45
 10195 3292 AF       		.byte	0xaf
 10196 3293 00       		.byte	0
 10197 3294 06       		.uleb128 0x6
 10198 3295 84320000 		.4byte	0x3284
 10199 3299 13       		.uleb128 0x13
 10200 329a 0E010000 		.4byte	0x10e
 10201 329e A9320000 		.4byte	0x32a9
 10202 32a2 14       		.uleb128 0x14
 10203 32a3 45000000 		.4byte	0x45
 10204 32a7 08       		.byte	0x8
 10205 32a8 00       		.byte	0
 10206 32a9 06       		.uleb128 0x6
 10207 32aa 99320000 		.4byte	0x3299
 10208 32ae 13       		.uleb128 0x13
 10209 32af 0E010000 		.4byte	0x10e
 10210 32b3 BE320000 		.4byte	0x32be
 10211 32b7 14       		.uleb128 0x14
 10212 32b8 45000000 		.4byte	0x45
 10213 32bc 2E       		.byte	0x2e
 10214 32bd 00       		.byte	0
 10215 32be 06       		.uleb128 0x6
ARM GAS  C:\Users\JEANCO~1\AppData\Local\Temp\ccxhVNGN.s 			page 181


 10216 32bf AE320000 		.4byte	0x32ae
 10217 32c3 13       		.uleb128 0x13
 10218 32c4 9F2E0000 		.4byte	0x2e9f
 10219 32c8 D3320000 		.4byte	0x32d3
 10220 32cc 14       		.uleb128 0x14
 10221 32cd 45000000 		.4byte	0x45
 10222 32d1 0F       		.byte	0xf
 10223 32d2 00       		.byte	0
 10224 32d3 13       		.uleb128 0x13
 10225 32d4 0E010000 		.4byte	0x10e
 10226 32d8 E3320000 		.4byte	0x32e3
 10227 32dc 14       		.uleb128 0x14
 10228 32dd 45000000 		.4byte	0x45
 10229 32e1 3F       		.byte	0x3f
 10230 32e2 00       		.byte	0
 10231 32e3 06       		.uleb128 0x6
 10232 32e4 D3320000 		.4byte	0x32d3
 10233 32e8 13       		.uleb128 0x13
 10234 32e9 0E010000 		.4byte	0x10e
 10235 32ed F8320000 		.4byte	0x32f8
 10236 32f1 14       		.uleb128 0x14
 10237 32f2 45000000 		.4byte	0x45
 10238 32f6 0F       		.byte	0xf
 10239 32f7 00       		.byte	0
 10240 32f8 06       		.uleb128 0x6
 10241 32f9 E8320000 		.4byte	0x32e8
 10242 32fd 13       		.uleb128 0x13
 10243 32fe 132F0000 		.4byte	0x2f13
 10244 3302 0D330000 		.4byte	0x330d
 10245 3306 14       		.uleb128 0x14
 10246 3307 45000000 		.4byte	0x45
 10247 330b 0F       		.byte	0xf
 10248 330c 00       		.byte	0
 10249 330d 13       		.uleb128 0x13
 10250 330e 872F0000 		.4byte	0x2f87
 10251 3312 1D330000 		.4byte	0x331d
 10252 3316 14       		.uleb128 0x14
 10253 3317 45000000 		.4byte	0x45
 10254 331b 0F       		.byte	0xf
 10255 331c 00       		.byte	0
 10256 331d 13       		.uleb128 0x13
 10257 331e 0E010000 		.4byte	0x10e
 10258 3322 2D330000 		.4byte	0x332d
 10259 3326 14       		.uleb128 0x14
 10260 3327 45000000 		.4byte	0x45
 10261 332b 7E       		.byte	0x7e
 10262 332c 00       		.byte	0
 10263 332d 06       		.uleb128 0x6
 10264 332e 1D330000 		.4byte	0x331d
 10265 3332 13       		.uleb128 0x13
 10266 3333 0E010000 		.4byte	0x10e
 10267 3337 49330000 		.4byte	0x3349
 10268 333b 14       		.uleb128 0x14
 10269 333c 45000000 		.4byte	0x45
 10270 3340 0F       		.byte	0xf
 10271 3341 29       		.uleb128 0x29
 10272 3342 45000000 		.4byte	0x45
ARM GAS  C:\Users\JEANCO~1\AppData\Local\Temp\ccxhVNGN.s 			page 182


 10273 3346 FF03     		.2byte	0x3ff
 10274 3348 00       		.byte	0
 10275 3349 06       		.uleb128 0x6
 10276 334a 32330000 		.4byte	0x3332
 10277 334e 04       		.uleb128 0x4
 10278 334f E52B0000 		.4byte	.LASF688
 10279 3353 36       		.byte	0x36
 10280 3354 B6       		.byte	0xb6
 10281 3355 922F0000 		.4byte	0x2f92
 10282 3359 17       		.uleb128 0x17
 10283 335a 0C       		.byte	0xc
 10284 335b 35       		.byte	0x35
 10285 335c C6       		.byte	0xc6
 10286 335d 86330000 		.4byte	0x3386
 10287 3361 08       		.uleb128 0x8
 10288 3362 340A0000 		.4byte	.LASF689
 10289 3366 35       		.byte	0x35
 10290 3367 C7       		.byte	0xc7
 10291 3368 03010000 		.4byte	0x103
 10292 336c 00       		.byte	0
 10293 336d 08       		.uleb128 0x8
 10294 336e D60C0000 		.4byte	.LASF690
 10295 3372 35       		.byte	0x35
 10296 3373 C8       		.byte	0xc8
 10297 3374 03010000 		.4byte	0x103
 10298 3378 04       		.byte	0x4
 10299 3379 08       		.uleb128 0x8
 10300 337a F4100000 		.4byte	.LASF691
 10301 337e 35       		.byte	0x35
 10302 337f C9       		.byte	0xc9
 10303 3380 03010000 		.4byte	0x103
 10304 3384 08       		.byte	0x8
 10305 3385 00       		.byte	0
 10306 3386 04       		.uleb128 0x4
 10307 3387 E30C0000 		.4byte	.LASF692
 10308 338b 35       		.byte	0x35
 10309 338c CA       		.byte	0xca
 10310 338d 59330000 		.4byte	0x3359
 10311 3391 05       		.uleb128 0x5
 10312 3392 86330000 		.4byte	0x3386
 10313 3396 17       		.uleb128 0x17
 10314 3397 04       		.byte	0x4
 10315 3398 35       		.byte	0x35
 10316 3399 DD       		.byte	0xdd
 10317 339a AB330000 		.4byte	0x33ab
 10318 339e 08       		.uleb128 0x8
 10319 339f 06290000 		.4byte	.LASF693
 10320 33a3 35       		.byte	0x35
 10321 33a4 E1       		.byte	0xe1
 10322 33a5 22140000 		.4byte	0x1422
 10323 33a9 00       		.byte	0
 10324 33aa 00       		.byte	0
 10325 33ab 17       		.uleb128 0x17
 10326 33ac 04       		.byte	0x4
 10327 33ad 35       		.byte	0x35
 10328 33ae E3       		.byte	0xe3
 10329 33af C0330000 		.4byte	0x33c0
ARM GAS  C:\Users\JEANCO~1\AppData\Local\Temp\ccxhVNGN.s 			page 183


 10330 33b3 08       		.uleb128 0x8
 10331 33b4 DD0A0000 		.4byte	.LASF380
 10332 33b8 35       		.byte	0x35
 10333 33b9 E7       		.byte	0xe7
 10334 33ba C0330000 		.4byte	0x33c0
 10335 33be 00       		.byte	0
 10336 33bf 00       		.byte	0
 10337 33c0 0B       		.uleb128 0xb
 10338 33c1 04       		.byte	0x4
 10339 33c2 BC130000 		.4byte	0x13bc
 10340 33c6 1D       		.uleb128 0x1d
 10341 33c7 04       		.byte	0x4
 10342 33c8 35       		.byte	0x35
 10343 33c9 DC       		.byte	0xdc
 10344 33ca E5330000 		.4byte	0x33e5
 10345 33ce 2A       		.uleb128 0x2a
 10346 33cf B0240000 		.4byte	.LASF694
 10347 33d3 35       		.byte	0x35
 10348 33d4 E2       		.byte	0xe2
 10349 33d5 96330000 		.4byte	0x3396
 10350 33d9 2A       		.uleb128 0x2a
 10351 33da 7A230000 		.4byte	.LASF695
 10352 33de 35       		.byte	0x35
 10353 33df E8       		.byte	0xe8
 10354 33e0 AB330000 		.4byte	0x33ab
 10355 33e4 00       		.byte	0
 10356 33e5 17       		.uleb128 0x17
 10357 33e6 14       		.byte	0x14
 10358 33e7 35       		.byte	0x35
 10359 33e8 CF       		.byte	0xcf
 10360 33e9 2A340000 		.4byte	0x342a
 10361 33ed 08       		.uleb128 0x8
 10362 33ee F8080000 		.4byte	.LASF696
 10363 33f2 35       		.byte	0x35
 10364 33f3 D3       		.byte	0xd3
 10365 33f4 2F160000 		.4byte	0x162f
 10366 33f8 00       		.byte	0
 10367 33f9 08       		.uleb128 0x8
 10368 33fa 12160000 		.4byte	.LASF697
 10369 33fe 35       		.byte	0x35
 10370 33ff D7       		.byte	0xd7
 10371 3400 3A000000 		.4byte	0x3a
 10372 3404 04       		.byte	0x4
 10373 3405 08       		.uleb128 0x8
 10374 3406 8A0C0000 		.4byte	.LASF698
 10375 340a 35       		.byte	0x35
 10376 340b DB       		.byte	0xdb
 10377 340c 3A000000 		.4byte	0x3a
 10378 3410 08       		.byte	0x8
 10379 3411 08       		.uleb128 0x8
 10380 3412 A8090000 		.4byte	.LASF426
 10381 3416 35       		.byte	0x35
 10382 3417 E9       		.byte	0xe9
 10383 3418 C6330000 		.4byte	0x33c6
 10384 341c 0C       		.byte	0xc
 10385 341d 08       		.uleb128 0x8
 10386 341e 0C110000 		.4byte	.LASF699
ARM GAS  C:\Users\JEANCO~1\AppData\Local\Temp\ccxhVNGN.s 			page 184


 10387 3422 35       		.byte	0x35
 10388 3423 ED       		.byte	0xed
 10389 3424 3A000000 		.4byte	0x3a
 10390 3428 10       		.byte	0x10
 10391 3429 00       		.byte	0
 10392 342a 04       		.uleb128 0x4
 10393 342b 69130000 		.4byte	.LASF700
 10394 342f 35       		.byte	0x35
 10395 3430 EE       		.byte	0xee
 10396 3431 E5330000 		.4byte	0x33e5
 10397 3435 19       		.uleb128 0x19
 10398 3436 04       		.byte	0x4
 10399 3437 35       		.byte	0x35
 10400 3438 0101     		.2byte	0x101
 10401 343a 4C340000 		.4byte	0x344c
 10402 343e 0A       		.uleb128 0xa
 10403 343f 060D0000 		.4byte	.LASF701
 10404 3443 35       		.byte	0x35
 10405 3444 0501     		.2byte	0x105
 10406 3446 AB130000 		.4byte	0x13ab
 10407 344a 00       		.byte	0
 10408 344b 00       		.byte	0
 10409 344c 19       		.uleb128 0x19
 10410 344d 04       		.byte	0x4
 10411 344e 35       		.byte	0x35
 10412 344f 0701     		.2byte	0x107
 10413 3451 63340000 		.4byte	0x3463
 10414 3455 0A       		.uleb128 0xa
 10415 3456 52240000 		.4byte	.LASF381
 10416 345a 35       		.byte	0x35
 10417 345b 0B01     		.2byte	0x10b
 10418 345d 63340000 		.4byte	0x3463
 10419 3461 00       		.byte	0
 10420 3462 00       		.byte	0
 10421 3463 0B       		.uleb128 0xb
 10422 3464 04       		.byte	0x4
 10423 3465 B1130000 		.4byte	0x13b1
 10424 3469 2B       		.uleb128 0x2b
 10425 346a 04       		.byte	0x4
 10426 346b 35       		.byte	0x35
 10427 346c 0001     		.2byte	0x100
 10428 346e 8B340000 		.4byte	0x348b
 10429 3472 1E       		.uleb128 0x1e
 10430 3473 B0240000 		.4byte	.LASF694
 10431 3477 35       		.byte	0x35
 10432 3478 0601     		.2byte	0x106
 10433 347a 35340000 		.4byte	0x3435
 10434 347e 1E       		.uleb128 0x1e
 10435 347f 7A230000 		.4byte	.LASF695
 10436 3483 35       		.byte	0x35
 10437 3484 0C01     		.2byte	0x10c
 10438 3486 4C340000 		.4byte	0x344c
 10439 348a 00       		.byte	0
 10440 348b 17       		.uleb128 0x17
 10441 348c 14       		.byte	0x14
 10442 348d 35       		.byte	0x35
 10443 348e F3       		.byte	0xf3
ARM GAS  C:\Users\JEANCO~1\AppData\Local\Temp\ccxhVNGN.s 			page 185


 10444 348f D2340000 		.4byte	0x34d2
 10445 3493 08       		.uleb128 0x8
 10446 3494 BD060000 		.4byte	.LASF702
 10447 3498 35       		.byte	0x35
 10448 3499 F7       		.byte	0xf7
 10449 349a 2F160000 		.4byte	0x162f
 10450 349e 00       		.byte	0
 10451 349f 08       		.uleb128 0x8
 10452 34a0 11170000 		.4byte	.LASF703
 10453 34a4 35       		.byte	0x35
 10454 34a5 FB       		.byte	0xfb
 10455 34a6 3A000000 		.4byte	0x3a
 10456 34aa 04       		.byte	0x4
 10457 34ab 08       		.uleb128 0x8
 10458 34ac 83090000 		.4byte	.LASF704
 10459 34b0 35       		.byte	0x35
 10460 34b1 FF       		.byte	0xff
 10461 34b2 3A000000 		.4byte	0x3a
 10462 34b6 08       		.byte	0x8
 10463 34b7 0A       		.uleb128 0xa
 10464 34b8 A8090000 		.4byte	.LASF426
 10465 34bc 35       		.byte	0x35
 10466 34bd 0D01     		.2byte	0x10d
 10467 34bf 69340000 		.4byte	0x3469
 10468 34c3 0C       		.byte	0xc
 10469 34c4 0A       		.uleb128 0xa
 10470 34c5 0C110000 		.4byte	.LASF699
 10471 34c9 35       		.byte	0x35
 10472 34ca 1101     		.2byte	0x111
 10473 34cc 3A000000 		.4byte	0x3a
 10474 34d0 10       		.byte	0x10
 10475 34d1 00       		.byte	0
 10476 34d2 1A       		.uleb128 0x1a
 10477 34d3 2F220000 		.4byte	.LASF705
 10478 34d7 35       		.byte	0x35
 10479 34d8 1201     		.2byte	0x112
 10480 34da 8B340000 		.4byte	0x348b
 10481 34de 19       		.uleb128 0x19
 10482 34df 24       		.byte	0x24
 10483 34e0 35       		.byte	0x35
 10484 34e1 1801     		.2byte	0x118
 10485 34e3 6A350000 		.4byte	0x356a
 10486 34e7 0A       		.uleb128 0xa
 10487 34e8 2C1B0000 		.4byte	.LASF706
 10488 34ec 35       		.byte	0x35
 10489 34ed 1C01     		.2byte	0x11c
 10490 34ef 03010000 		.4byte	0x103
 10491 34f3 00       		.byte	0
 10492 34f4 0A       		.uleb128 0xa
 10493 34f5 A00A0000 		.4byte	.LASF707
 10494 34f9 35       		.byte	0x35
 10495 34fa 2701     		.2byte	0x127
 10496 34fc 9B2D0000 		.4byte	0x2d9b
 10497 3500 04       		.byte	0x4
 10498 3501 0A       		.uleb128 0xa
 10499 3502 741C0000 		.4byte	.LASF708
 10500 3506 35       		.byte	0x35
ARM GAS  C:\Users\JEANCO~1\AppData\Local\Temp\ccxhVNGN.s 			page 186


 10501 3507 2D01     		.2byte	0x12d
 10502 3509 9B2D0000 		.4byte	0x2d9b
 10503 350d 08       		.byte	0x8
 10504 350e 0A       		.uleb128 0xa
 10505 350f 8E0D0000 		.4byte	.LASF709
 10506 3513 35       		.byte	0x35
 10507 3514 3301     		.2byte	0x133
 10508 3516 9B2D0000 		.4byte	0x2d9b
 10509 351a 0C       		.byte	0xc
 10510 351b 0A       		.uleb128 0xa
 10511 351c 362C0000 		.4byte	.LASF710
 10512 3520 35       		.byte	0x35
 10513 3521 3901     		.2byte	0x139
 10514 3523 E8000000 		.4byte	0xe8
 10515 3527 10       		.byte	0x10
 10516 3528 0A       		.uleb128 0xa
 10517 3529 EA0D0000 		.4byte	.LASF711
 10518 352d 35       		.byte	0x35
 10519 352e 3F01     		.2byte	0x13f
 10520 3530 E8000000 		.4byte	0xe8
 10521 3534 12       		.byte	0x12
 10522 3535 0A       		.uleb128 0xa
 10523 3536 732A0000 		.4byte	.LASF712
 10524 353a 35       		.byte	0x35
 10525 353b 4401     		.2byte	0x144
 10526 353d 6A350000 		.4byte	0x356a
 10527 3541 14       		.byte	0x14
 10528 3542 0A       		.uleb128 0xa
 10529 3543 B80F0000 		.4byte	.LASF713
 10530 3547 35       		.byte	0x35
 10531 3548 4901     		.2byte	0x149
 10532 354a 70350000 		.4byte	0x3570
 10533 354e 18       		.byte	0x18
 10534 354f 0A       		.uleb128 0xa
 10535 3550 2E150000 		.4byte	.LASF714
 10536 3554 35       		.byte	0x35
 10537 3555 5001     		.2byte	0x150
 10538 3557 E8000000 		.4byte	0xe8
 10539 355b 1C       		.byte	0x1c
 10540 355c 0A       		.uleb128 0xa
 10541 355d 61290000 		.4byte	.LASF715
 10542 3561 35       		.byte	0x35
 10543 3562 5601     		.2byte	0x156
 10544 3564 AB130000 		.4byte	0x13ab
 10545 3568 20       		.byte	0x20
 10546 3569 00       		.byte	0
 10547 356a 0B       		.uleb128 0xb
 10548 356b 04       		.byte	0x4
 10549 356c 2A340000 		.4byte	0x342a
 10550 3570 0B       		.uleb128 0xb
 10551 3571 04       		.byte	0x4
 10552 3572 D2340000 		.4byte	0x34d2
 10553 3576 1A       		.uleb128 0x1a
 10554 3577 22240000 		.4byte	.LASF716
 10555 357b 35       		.byte	0x35
 10556 357c 5701     		.2byte	0x157
 10557 357e DE340000 		.4byte	0x34de
ARM GAS  C:\Users\JEANCO~1\AppData\Local\Temp\ccxhVNGN.s 			page 187


 10558 3582 05       		.uleb128 0x5
 10559 3583 76350000 		.4byte	0x3576
 10560 3587 19       		.uleb128 0x19
 10561 3588 10       		.byte	0x10
 10562 3589 35       		.byte	0x35
 10563 358a 5C01     		.2byte	0x15c
 10564 358c C5350000 		.4byte	0x35c5
 10565 3590 0A       		.uleb128 0xa
 10566 3591 86050000 		.4byte	.LASF717
 10567 3595 35       		.byte	0x35
 10568 3596 6101     		.2byte	0x161
 10569 3598 BD2D0000 		.4byte	0x2dbd
 10570 359c 00       		.byte	0
 10571 359d 0A       		.uleb128 0xa
 10572 359e 81280000 		.4byte	.LASF718
 10573 35a2 35       		.byte	0x35
 10574 35a3 6601     		.2byte	0x166
 10575 35a5 002E0000 		.4byte	0x2e00
 10576 35a9 04       		.byte	0x4
 10577 35aa 0A       		.uleb128 0xa
 10578 35ab CC150000 		.4byte	.LASF719
 10579 35af 35       		.byte	0x35
 10580 35b0 6C01     		.2byte	0x16c
 10581 35b2 DF2D0000 		.4byte	0x2ddf
 10582 35b6 08       		.byte	0x8
 10583 35b7 0A       		.uleb128 0xa
 10584 35b8 5F020000 		.4byte	.LASF720
 10585 35bc 35       		.byte	0x35
 10586 35bd 7001     		.2byte	0x170
 10587 35bf 782D0000 		.4byte	0x2d78
 10588 35c3 0C       		.byte	0xc
 10589 35c4 00       		.byte	0
 10590 35c5 1A       		.uleb128 0x1a
 10591 35c6 B6140000 		.4byte	.LASF721
 10592 35ca 35       		.byte	0x35
 10593 35cb 7201     		.2byte	0x172
 10594 35cd 87350000 		.4byte	0x3587
 10595 35d1 05       		.uleb128 0x5
 10596 35d2 C5350000 		.4byte	0x35c5
 10597 35d6 0B       		.uleb128 0xb
 10598 35d7 04       		.byte	0x4
 10599 35d8 D1350000 		.4byte	0x35d1
 10600 35dc 13       		.uleb128 0x13
 10601 35dd EC350000 		.4byte	0x35ec
 10602 35e1 EC350000 		.4byte	0x35ec
 10603 35e5 14       		.uleb128 0x14
 10604 35e6 45000000 		.4byte	0x45
 10605 35ea 03       		.byte	0x3
 10606 35eb 00       		.byte	0
 10607 35ec 0B       		.uleb128 0xb
 10608 35ed 04       		.byte	0x4
 10609 35ee 82350000 		.4byte	0x3582
 10610 35f2 13       		.uleb128 0x13
 10611 35f3 C8030000 		.4byte	0x3c8
 10612 35f7 02360000 		.4byte	0x3602
 10613 35fb 14       		.uleb128 0x14
 10614 35fc 45000000 		.4byte	0x45
ARM GAS  C:\Users\JEANCO~1\AppData\Local\Temp\ccxhVNGN.s 			page 188


 10615 3600 02       		.byte	0x2
 10616 3601 00       		.byte	0
 10617 3602 0B       		.uleb128 0xb
 10618 3603 04       		.byte	0x4
 10619 3604 4E330000 		.4byte	0x334e
 10620 3608 0B       		.uleb128 0xb
 10621 3609 04       		.byte	0x4
 10622 360a 91330000 		.4byte	0x3391
 10623 360e 13       		.uleb128 0x13
 10624 360f 8C0D0000 		.4byte	0xd8c
 10625 3613 1E360000 		.4byte	0x361e
 10626 3617 14       		.uleb128 0x14
 10627 3618 45000000 		.4byte	0x45
 10628 361c 3E       		.byte	0x3e
 10629 361d 00       		.byte	0
 10630 361e 15       		.uleb128 0x15
 10631 361f DB000000 		.4byte	.LASF722
 10632 3623 35       		.byte	0x35
 10633 3624 0602     		.2byte	0x206
 10634 3626 442B0000 		.4byte	0x2b44
 10635 362a 21       		.uleb128 0x21
 10636 362b 07       		.byte	0x7
 10637 362c 01       		.byte	0x1
 10638 362d 6C000000 		.4byte	0x6c
 10639 3631 37       		.byte	0x37
 10640 3632 97       		.byte	0x97
 10641 3633 4A360000 		.4byte	0x364a
 10642 3637 22       		.uleb128 0x22
 10643 3638 2B0D0000 		.4byte	.LASF723
 10644 363c 00       		.byte	0
 10645 363d 22       		.uleb128 0x22
 10646 363e DB1D0000 		.4byte	.LASF724
 10647 3642 01       		.byte	0x1
 10648 3643 22       		.uleb128 0x22
 10649 3644 93080000 		.4byte	.LASF725
 10650 3648 02       		.byte	0x2
 10651 3649 00       		.byte	0
 10652 364a 04       		.uleb128 0x4
 10653 364b ED070000 		.4byte	.LASF726
 10654 364f 37       		.byte	0x37
 10655 3650 9B       		.byte	0x9b
 10656 3651 2A360000 		.4byte	0x362a
 10657 3655 04       		.uleb128 0x4
 10658 3656 B8020000 		.4byte	.LASF727
 10659 365a 37       		.byte	0x37
 10660 365b A0       		.byte	0xa0
 10661 365c 60360000 		.4byte	0x3660
 10662 3660 2C       		.uleb128 0x2c
 10663 3661 B8020000 		.4byte	.LASF727
 10664 3665 5802     		.2byte	0x258
 10665 3667 37       		.byte	0x37
 10666 3668 E5       		.byte	0xe5
 10667 3669 CE360000 		.4byte	0x36ce
 10668 366d 18       		.uleb128 0x18
 10669 366e 766D7400 		.ascii	"vmt\000"
 10670 3672 37       		.byte	0x37
 10671 3673 E7       		.byte	0xe7
ARM GAS  C:\Users\JEANCO~1\AppData\Local\Temp\ccxhVNGN.s 			page 189


 10672 3674 89370000 		.4byte	0x3789
 10673 3678 00       		.byte	0
 10674 3679 08       		.uleb128 0x8
 10675 367a 47000000 		.4byte	.LASF525
 10676 367e 37       		.byte	0x37
 10677 367f E8       		.byte	0xe8
 10678 3680 06130000 		.4byte	0x1306
 10679 3684 04       		.byte	0x4
 10680 3685 08       		.uleb128 0x8
 10681 3686 5B190000 		.4byte	.LASF347
 10682 368a 37       		.byte	0x37
 10683 368b E8       		.byte	0xe8
 10684 368c 4A360000 		.4byte	0x364a
 10685 3690 08       		.byte	0x8
 10686 3691 08       		.uleb128 0x8
 10687 3692 6D1C0000 		.4byte	.LASF526
 10688 3696 37       		.byte	0x37
 10689 3697 E8       		.byte	0xe8
 10690 3698 B1130000 		.4byte	0x13b1
 10691 369c 0C       		.byte	0xc
 10692 369d 08       		.uleb128 0x8
 10693 369e ED140000 		.4byte	.LASF527
 10694 36a2 37       		.byte	0x37
 10695 36a3 E8       		.byte	0xe8
 10696 36a4 BC130000 		.4byte	0x13bc
 10697 36a8 30       		.byte	0x30
 10698 36a9 18       		.uleb128 0x18
 10699 36aa 696200   		.ascii	"ib\000"
 10700 36ad 37       		.byte	0x37
 10701 36ae E8       		.byte	0xe8
 10702 36af 8F370000 		.4byte	0x378f
 10703 36b3 54       		.byte	0x54
 10704 36b4 28       		.uleb128 0x28
 10705 36b5 6F6200   		.ascii	"ob\000"
 10706 36b8 37       		.byte	0x37
 10707 36b9 E8       		.byte	0xe8
 10708 36ba 8F370000 		.4byte	0x378f
 10709 36be 5401     		.2byte	0x154
 10710 36c0 27       		.uleb128 0x27
 10711 36c1 F6200000 		.4byte	.LASF348
 10712 36c5 37       		.byte	0x37
 10713 36c6 E8       		.byte	0xe8
 10714 36c7 9F370000 		.4byte	0x379f
 10715 36cb 5402     		.2byte	0x254
 10716 36cd 00       		.byte	0
 10717 36ce 17       		.uleb128 0x17
 10718 36cf 08       		.byte	0x8
 10719 36d0 37       		.byte	0x37
 10720 36d1 A7       		.byte	0xa7
 10721 36d2 07370000 		.4byte	0x3707
 10722 36d6 08       		.uleb128 0x8
 10723 36d7 B9270000 		.4byte	.LASF728
 10724 36db 37       		.byte	0x37
 10725 36dc AB       		.byte	0xab
 10726 36dd 952D0000 		.4byte	0x2d95
 10727 36e1 00       		.byte	0
 10728 36e2 08       		.uleb128 0x8
ARM GAS  C:\Users\JEANCO~1\AppData\Local\Temp\ccxhVNGN.s 			page 190


 10729 36e3 F1120000 		.4byte	.LASF729
 10730 36e7 37       		.byte	0x37
 10731 36e8 AF       		.byte	0xaf
 10732 36e9 7B2C0000 		.4byte	0x2c7b
 10733 36ed 04       		.byte	0x4
 10734 36ee 08       		.uleb128 0x8
 10735 36ef C9050000 		.4byte	.LASF730
 10736 36f3 37       		.byte	0x37
 10737 36f4 B3       		.byte	0xb3
 10738 36f5 7B2C0000 		.4byte	0x2c7b
 10739 36f9 05       		.byte	0x5
 10740 36fa 08       		.uleb128 0x8
 10741 36fb 18140000 		.4byte	.LASF731
 10742 36ff 37       		.byte	0x37
 10743 3700 B9       		.byte	0xb9
 10744 3701 7B2C0000 		.4byte	0x2c7b
 10745 3705 06       		.byte	0x6
 10746 3706 00       		.byte	0
 10747 3707 04       		.uleb128 0x4
 10748 3708 DB210000 		.4byte	.LASF732
 10749 370c 37       		.byte	0x37
 10750 370d BA       		.byte	0xba
 10751 370e CE360000 		.4byte	0x36ce
 10752 3712 05       		.uleb128 0x5
 10753 3713 07370000 		.4byte	0x3707
 10754 3717 07       		.uleb128 0x7
 10755 3718 581A0000 		.4byte	.LASF733
 10756 371c 20       		.byte	0x20
 10757 371d 37       		.byte	0x37
 10758 371e DA       		.byte	0xda
 10759 371f 84370000 		.4byte	0x3784
 10760 3723 08       		.uleb128 0x8
 10761 3724 5C1C0000 		.4byte	.LASF281
 10762 3728 37       		.byte	0x37
 10763 3729 DB       		.byte	0xdb
 10764 372a 28140000 		.4byte	0x1428
 10765 372e 00       		.byte	0
 10766 372f 08       		.uleb128 0x8
 10767 3730 6D050000 		.4byte	.LASF282
 10768 3734 37       		.byte	0x37
 10769 3735 DB       		.byte	0xdb
 10770 3736 47140000 		.4byte	0x1447
 10771 373a 04       		.byte	0x4
 10772 373b 18       		.uleb128 0x18
 10773 373c 70757400 		.ascii	"put\000"
 10774 3740 37       		.byte	0x37
 10775 3741 DB       		.byte	0xdb
 10776 3742 61140000 		.4byte	0x1461
 10777 3746 08       		.byte	0x8
 10778 3747 18       		.uleb128 0x18
 10779 3748 67657400 		.ascii	"get\000"
 10780 374c 37       		.byte	0x37
 10781 374d DB       		.byte	0xdb
 10782 374e 76140000 		.4byte	0x1476
 10783 3752 0C       		.byte	0xc
 10784 3753 08       		.uleb128 0x8
 10785 3754 46170000 		.4byte	.LASF530
ARM GAS  C:\Users\JEANCO~1\AppData\Local\Temp\ccxhVNGN.s 			page 191


 10786 3758 37       		.byte	0x37
 10787 3759 DB       		.byte	0xdb
 10788 375a 3D150000 		.4byte	0x153d
 10789 375e 10       		.byte	0x10
 10790 375f 08       		.uleb128 0x8
 10791 3760 2F1C0000 		.4byte	.LASF531
 10792 3764 37       		.byte	0x37
 10793 3765 DB       		.byte	0xdb
 10794 3766 57150000 		.4byte	0x1557
 10795 376a 14       		.byte	0x14
 10796 376b 08       		.uleb128 0x8
 10797 376c D3270000 		.4byte	.LASF532
 10798 3770 37       		.byte	0x37
 10799 3771 DB       		.byte	0xdb
 10800 3772 7B150000 		.4byte	0x157b
 10801 3776 18       		.byte	0x18
 10802 3777 08       		.uleb128 0x8
 10803 3778 88160000 		.4byte	.LASF533
 10804 377c 37       		.byte	0x37
 10805 377d DB       		.byte	0xdb
 10806 377e 9F150000 		.4byte	0x159f
 10807 3782 1C       		.byte	0x1c
 10808 3783 00       		.byte	0
 10809 3784 05       		.uleb128 0x5
 10810 3785 17370000 		.4byte	0x3717
 10811 3789 0B       		.uleb128 0xb
 10812 378a 04       		.byte	0x4
 10813 378b 84370000 		.4byte	0x3784
 10814 378f 13       		.uleb128 0x13
 10815 3790 CD000000 		.4byte	0xcd
 10816 3794 9F370000 		.4byte	0x379f
 10817 3798 14       		.uleb128 0x14
 10818 3799 45000000 		.4byte	0x45
 10819 379d FF       		.byte	0xff
 10820 379e 00       		.byte	0
 10821 379f 0B       		.uleb128 0xb
 10822 37a0 04       		.byte	0x4
 10823 37a1 12370000 		.4byte	0x3712
 10824 37a5 21       		.uleb128 0x21
 10825 37a6 07       		.byte	0x7
 10826 37a7 01       		.byte	0x1
 10827 37a8 6C000000 		.4byte	0x6c
 10828 37ac 38       		.byte	0x38
 10829 37ad 83       		.byte	0x83
 10830 37ae BF370000 		.4byte	0x37bf
 10831 37b2 22       		.uleb128 0x22
 10832 37b3 71290000 		.4byte	.LASF734
 10833 37b7 00       		.byte	0
 10834 37b8 22       		.uleb128 0x22
 10835 37b9 1A1E0000 		.4byte	.LASF735
 10836 37bd 01       		.byte	0x1
 10837 37be 00       		.byte	0
 10838 37bf 04       		.uleb128 0x4
 10839 37c0 DF290000 		.4byte	.LASF736
 10840 37c4 38       		.byte	0x38
 10841 37c5 86       		.byte	0x86
 10842 37c6 A5370000 		.4byte	0x37a5
ARM GAS  C:\Users\JEANCO~1\AppData\Local\Temp\ccxhVNGN.s 			page 192


 10843 37ca 21       		.uleb128 0x21
 10844 37cb 07       		.byte	0x7
 10845 37cc 01       		.byte	0x1
 10846 37cd 6C000000 		.4byte	0x6c
 10847 37d1 38       		.byte	0x38
 10848 37d2 8B       		.byte	0x8b
 10849 37d3 08380000 		.4byte	0x3808
 10850 37d7 22       		.uleb128 0x22
 10851 37d8 7F070000 		.4byte	.LASF737
 10852 37dc 00       		.byte	0
 10853 37dd 22       		.uleb128 0x22
 10854 37de 80030000 		.4byte	.LASF738
 10855 37e2 01       		.byte	0x1
 10856 37e3 22       		.uleb128 0x22
 10857 37e4 B7240000 		.4byte	.LASF739
 10858 37e8 02       		.byte	0x2
 10859 37e9 22       		.uleb128 0x22
 10860 37ea 0E230000 		.4byte	.LASF740
 10861 37ee 03       		.byte	0x3
 10862 37ef 22       		.uleb128 0x22
 10863 37f0 83000000 		.4byte	.LASF741
 10864 37f4 04       		.byte	0x4
 10865 37f5 22       		.uleb128 0x22
 10866 37f6 45080000 		.4byte	.LASF742
 10867 37fa 05       		.byte	0x5
 10868 37fb 22       		.uleb128 0x22
 10869 37fc 89150000 		.4byte	.LASF743
 10870 3800 06       		.byte	0x6
 10871 3801 22       		.uleb128 0x22
 10872 3802 7E1D0000 		.4byte	.LASF744
 10873 3806 07       		.byte	0x7
 10874 3807 00       		.byte	0
 10875 3808 04       		.uleb128 0x4
 10876 3809 791A0000 		.4byte	.LASF745
 10877 380d 38       		.byte	0x38
 10878 380e 94       		.byte	0x94
 10879 380f CA370000 		.4byte	0x37ca
 10880 3813 04       		.uleb128 0x4
 10881 3814 072B0000 		.4byte	.LASF746
 10882 3818 38       		.byte	0x38
 10883 3819 99       		.byte	0x99
 10884 381a 1E380000 		.4byte	0x381e
 10885 381e 07       		.uleb128 0x7
 10886 381f 072B0000 		.4byte	.LASF746
 10887 3823 14       		.byte	0x14
 10888 3824 38       		.byte	0x38
 10889 3825 C3       		.byte	0xc3
 10890 3826 67380000 		.4byte	0x3867
 10891 382a 08       		.uleb128 0x8
 10892 382b 5B190000 		.4byte	.LASF347
 10893 382f 38       		.byte	0x38
 10894 3830 C7       		.byte	0xc7
 10895 3831 08380000 		.4byte	0x3808
 10896 3835 00       		.byte	0
 10897 3836 08       		.uleb128 0x8
 10898 3837 F6200000 		.4byte	.LASF348
 10899 383b 38       		.byte	0x38
ARM GAS  C:\Users\JEANCO~1\AppData\Local\Temp\ccxhVNGN.s 			page 193


 10900 383c CB       		.byte	0xcb
 10901 383d F2380000 		.4byte	0x38f2
 10902 3841 04       		.byte	0x4
 10903 3842 08       		.uleb128 0x8
 10904 3843 86260000 		.4byte	.LASF747
 10905 3847 38       		.byte	0x38
 10906 3848 CF       		.byte	0xcf
 10907 3849 F8380000 		.4byte	0x38f8
 10908 384d 08       		.byte	0x8
 10909 384e 08       		.uleb128 0x8
 10910 384f 0C0C0000 		.4byte	.LASF354
 10911 3853 38       		.byte	0x38
 10912 3854 D3       		.byte	0xd3
 10913 3855 E91A0000 		.4byte	0x1ae9
 10914 3859 0C       		.byte	0xc
 10915 385a 08       		.uleb128 0x8
 10916 385b 101C0000 		.4byte	.LASF355
 10917 385f 38       		.byte	0x38
 10918 3860 D7       		.byte	0xd7
 10919 3861 03010000 		.4byte	0x103
 10920 3865 10       		.byte	0x10
 10921 3866 00       		.byte	0
 10922 3867 04       		.uleb128 0x4
 10923 3868 6B0F0000 		.4byte	.LASF748
 10924 386c 38       		.byte	0x38
 10925 386d A0       		.byte	0xa0
 10926 386e 72380000 		.4byte	0x3872
 10927 3872 0B       		.uleb128 0xb
 10928 3873 04       		.byte	0x4
 10929 3874 78380000 		.4byte	0x3878
 10930 3878 0D       		.uleb128 0xd
 10931 3879 83380000 		.4byte	0x3883
 10932 387d 0E       		.uleb128 0xe
 10933 387e 83380000 		.4byte	0x3883
 10934 3882 00       		.byte	0
 10935 3883 0B       		.uleb128 0xb
 10936 3884 04       		.byte	0x4
 10937 3885 13380000 		.4byte	0x3813
 10938 3889 04       		.uleb128 0x4
 10939 388a F01E0000 		.4byte	.LASF749
 10940 388e 38       		.byte	0x38
 10941 388f A8       		.byte	0xa8
 10942 3890 94380000 		.4byte	0x3894
 10943 3894 0B       		.uleb128 0xb
 10944 3895 04       		.byte	0x4
 10945 3896 9A380000 		.4byte	0x389a
 10946 389a 0D       		.uleb128 0xd
 10947 389b AA380000 		.4byte	0x38aa
 10948 389f 0E       		.uleb128 0xe
 10949 38a0 83380000 		.4byte	0x3883
 10950 38a4 0E       		.uleb128 0xe
 10951 38a5 BF370000 		.4byte	0x37bf
 10952 38a9 00       		.byte	0
 10953 38aa 17       		.uleb128 0x17
 10954 38ab 10       		.byte	0x10
 10955 38ac 38       		.byte	0x38
 10956 38ad AD       		.byte	0xad
ARM GAS  C:\Users\JEANCO~1\AppData\Local\Temp\ccxhVNGN.s 			page 194


 10957 38ae E2380000 		.4byte	0x38e2
 10958 38b2 08       		.uleb128 0x8
 10959 38b3 0F220000 		.4byte	.LASF750
 10960 38b7 38       		.byte	0x38
 10961 38b8 B1       		.byte	0xb1
 10962 38b9 67380000 		.4byte	0x3867
 10963 38bd 00       		.byte	0
 10964 38be 08       		.uleb128 0x8
 10965 38bf FF270000 		.4byte	.LASF751
 10966 38c3 38       		.byte	0x38
 10967 38c4 B5       		.byte	0xb5
 10968 38c5 67380000 		.4byte	0x3867
 10969 38c9 04       		.byte	0x4
 10970 38ca 08       		.uleb128 0x8
 10971 38cb 85290000 		.4byte	.LASF361
 10972 38cf 38       		.byte	0x38
 10973 38d0 B9       		.byte	0xb9
 10974 38d1 89380000 		.4byte	0x3889
 10975 38d5 08       		.byte	0x8
 10976 38d6 18       		.uleb128 0x18
 10977 38d7 637200   		.ascii	"cr\000"
 10978 38da 38       		.byte	0x38
 10979 38db BD       		.byte	0xbd
 10980 38dc 03010000 		.4byte	0x103
 10981 38e0 0C       		.byte	0xc
 10982 38e1 00       		.byte	0
 10983 38e2 04       		.uleb128 0x4
 10984 38e3 172B0000 		.4byte	.LASF752
 10985 38e7 38       		.byte	0x38
 10986 38e8 BE       		.byte	0xbe
 10987 38e9 AA380000 		.4byte	0x38aa
 10988 38ed 05       		.uleb128 0x5
 10989 38ee E2380000 		.4byte	0x38e2
 10990 38f2 0B       		.uleb128 0xb
 10991 38f3 04       		.byte	0x4
 10992 38f4 ED380000 		.4byte	0x38ed
 10993 38f8 0B       		.uleb128 0xb
 10994 38f9 04       		.byte	0x4
 10995 38fa 1A0A0000 		.4byte	0xa1a
 10996 38fe 16       		.uleb128 0x16
 10997 38ff 18050000 		.4byte	.LASF753
 10998 3903 38       		.byte	0x38
 10999 3904 E3       		.byte	0xe3
 11000 3905 13380000 		.4byte	0x3813
 11001 3909 04       		.uleb128 0x4
 11002 390a 9D080000 		.4byte	.LASF754
 11003 390e 39       		.byte	0x39
 11004 390f 22       		.byte	0x22
 11005 3910 14390000 		.4byte	0x3914
 11006 3914 0B       		.uleb128 0xb
 11007 3915 04       		.byte	0x4
 11008 3916 1A390000 		.4byte	0x391a
 11009 391a 2D       		.uleb128 0x2d
 11010 391b 81060000 		.4byte	.LASF884
 11011 391f 04       		.uleb128 0x4
 11012 3920 AD0E0000 		.4byte	.LASF755
 11013 3924 3A       		.byte	0x3a
ARM GAS  C:\Users\JEANCO~1\AppData\Local\Temp\ccxhVNGN.s 			page 195


 11014 3925 2C       		.byte	0x2c
 11015 3926 A2000000 		.4byte	0xa2
 11016 392a 04       		.uleb128 0x4
 11017 392b A4210000 		.4byte	.LASF756
 11018 392f 3A       		.byte	0x3a
 11019 3930 72       		.byte	0x72
 11020 3931 A2000000 		.4byte	0xa2
 11021 3935 1A       		.uleb128 0x1a
 11022 3936 C1100000 		.4byte	.LASF757
 11023 393a 07       		.byte	0x7
 11024 393b 6501     		.2byte	0x165
 11025 393d 45000000 		.4byte	0x45
 11026 3941 1D       		.uleb128 0x1d
 11027 3942 04       		.byte	0x4
 11028 3943 3A       		.byte	0x3a
 11029 3944 A6       		.byte	0xa6
 11030 3945 60390000 		.4byte	0x3960
 11031 3949 2A       		.uleb128 0x2a
 11032 394a 2C1A0000 		.4byte	.LASF758
 11033 394e 3A       		.byte	0x3a
 11034 394f A8       		.byte	0xa8
 11035 3950 35390000 		.4byte	0x3935
 11036 3954 2A       		.uleb128 0x2a
 11037 3955 57100000 		.4byte	.LASF759
 11038 3959 3A       		.byte	0x3a
 11039 395a A9       		.byte	0xa9
 11040 395b 60390000 		.4byte	0x3960
 11041 395f 00       		.byte	0
 11042 3960 13       		.uleb128 0x13
 11043 3961 6C000000 		.4byte	0x6c
 11044 3965 70390000 		.4byte	0x3970
 11045 3969 14       		.uleb128 0x14
 11046 396a 45000000 		.4byte	0x45
 11047 396e 03       		.byte	0x3
 11048 396f 00       		.byte	0
 11049 3970 17       		.uleb128 0x17
 11050 3971 08       		.byte	0x8
 11051 3972 3A       		.byte	0x3a
 11052 3973 A3       		.byte	0xa3
 11053 3974 91390000 		.4byte	0x3991
 11054 3978 08       		.uleb128 0x8
 11055 3979 FE0E0000 		.4byte	.LASF760
 11056 397d 3A       		.byte	0x3a
 11057 397e A5       		.byte	0xa5
 11058 397f 2C000000 		.4byte	0x2c
 11059 3983 00       		.byte	0
 11060 3984 08       		.uleb128 0x8
 11061 3985 321A0000 		.4byte	.LASF761
 11062 3989 3A       		.byte	0x3a
 11063 398a AA       		.byte	0xaa
 11064 398b 41390000 		.4byte	0x3941
 11065 398f 04       		.byte	0x4
 11066 3990 00       		.byte	0
 11067 3991 04       		.uleb128 0x4
 11068 3992 63220000 		.4byte	.LASF762
 11069 3996 3A       		.byte	0x3a
 11070 3997 AB       		.byte	0xab
ARM GAS  C:\Users\JEANCO~1\AppData\Local\Temp\ccxhVNGN.s 			page 196


 11071 3998 70390000 		.4byte	0x3970
 11072 399c 04       		.uleb128 0x4
 11073 399d 1B270000 		.4byte	.LASF763
 11074 39a1 3A       		.byte	0x3a
 11075 39a2 AF       		.byte	0xaf
 11076 39a3 09390000 		.4byte	0x3909
 11077 39a7 0B       		.uleb128 0xb
 11078 39a8 04       		.byte	0x4
 11079 39a9 18110000 		.4byte	0x1118
 11080 39ad 16       		.uleb128 0x16
 11081 39ae 24100000 		.4byte	.LASF764
 11082 39b2 3B       		.byte	0x3b
 11083 39b3 10       		.byte	0x10
 11084 39b4 B8390000 		.4byte	0x39b8
 11085 39b8 0B       		.uleb128 0xb
 11086 39b9 04       		.byte	0x4
 11087 39ba A7390000 		.4byte	0x39a7
 11088 39be 16       		.uleb128 0x16
 11089 39bf F8070000 		.4byte	.LASF765
 11090 39c3 3B       		.byte	0x3b
 11091 39c4 E8       		.byte	0xe8
 11092 39c5 A7390000 		.4byte	0x39a7
 11093 39c9 16       		.uleb128 0x16
 11094 39ca BE270000 		.4byte	.LASF766
 11095 39ce 3B       		.byte	0x3b
 11096 39cf E9       		.byte	0xe9
 11097 39d0 2C000000 		.4byte	0x2c
 11098 39d4 16       		.uleb128 0x16
 11099 39d5 B8190000 		.4byte	.LASF767
 11100 39d9 3B       		.byte	0x3b
 11101 39da E9       		.byte	0xe9
 11102 39db 2C000000 		.4byte	0x2c
 11103 39df 16       		.uleb128 0x16
 11104 39e0 3F170000 		.4byte	.LASF768
 11105 39e4 3B       		.byte	0x3b
 11106 39e5 E9       		.byte	0xe9
 11107 39e6 2C000000 		.4byte	0x2c
 11108 39ea 16       		.uleb128 0x16
 11109 39eb 68090000 		.4byte	.LASF769
 11110 39ef 3B       		.byte	0x3b
 11111 39f0 EB       		.byte	0xeb
 11112 39f1 2C000000 		.4byte	0x2c
 11113 39f5 07       		.uleb128 0x7
 11114 39f6 D9120000 		.4byte	.LASF770
 11115 39fa 5C       		.byte	0x5c
 11116 39fb 3C       		.byte	0x3c
 11117 39fc 0C       		.byte	0xc
 11118 39fd 623A0000 		.4byte	0x3a62
 11119 3a01 08       		.uleb128 0x8
 11120 3a02 A3200000 		.4byte	.LASF771
 11121 3a06 3C       		.byte	0x3c
 11122 3a07 0D       		.byte	0xd
 11123 3a08 C8030000 		.4byte	0x3c8
 11124 3a0c 00       		.byte	0
 11125 3a0d 08       		.uleb128 0x8
 11126 3a0e D21C0000 		.4byte	.LASF772
 11127 3a12 3C       		.byte	0x3c
ARM GAS  C:\Users\JEANCO~1\AppData\Local\Temp\ccxhVNGN.s 			page 197


 11128 3a13 0E       		.byte	0xe
 11129 3a14 3A000000 		.4byte	0x3a
 11130 3a18 04       		.byte	0x4
 11131 3a19 08       		.uleb128 0x8
 11132 3a1a 130C0000 		.4byte	.LASF773
 11133 3a1e 3C       		.byte	0x3c
 11134 3a1f 0F       		.byte	0xf
 11135 3a20 C8030000 		.4byte	0x3c8
 11136 3a24 08       		.byte	0x8
 11137 3a25 08       		.uleb128 0x8
 11138 3a26 99070000 		.4byte	.LASF774
 11139 3a2a 3C       		.byte	0x3c
 11140 3a2b 10       		.byte	0x10
 11141 3a2c C8030000 		.4byte	0x3c8
 11142 3a30 0C       		.byte	0xc
 11143 3a31 08       		.uleb128 0x8
 11144 3a32 F7260000 		.4byte	.LASF775
 11145 3a36 3C       		.byte	0x3c
 11146 3a37 11       		.byte	0x11
 11147 3a38 623A0000 		.4byte	0x3a62
 11148 3a3c 10       		.byte	0x10
 11149 3a3d 08       		.uleb128 0x8
 11150 3a3e 65010000 		.4byte	.LASF776
 11151 3a42 3C       		.byte	0x3c
 11152 3a43 12       		.byte	0x12
 11153 3a44 2F160000 		.4byte	0x162f
 11154 3a48 51       		.byte	0x51
 11155 3a49 08       		.uleb128 0x8
 11156 3a4a DD230000 		.4byte	.LASF777
 11157 3a4e 3C       		.byte	0x3c
 11158 3a4f 13       		.byte	0x13
 11159 3a50 973A0000 		.4byte	0x3a97
 11160 3a54 54       		.byte	0x54
 11161 3a55 08       		.uleb128 0x8
 11162 3a56 8A020000 		.4byte	.LASF778
 11163 3a5a 3C       		.byte	0x3c
 11164 3a5b 14       		.byte	0x14
 11165 3a5c 9D3A0000 		.4byte	0x3a9d
 11166 3a60 58       		.byte	0x58
 11167 3a61 00       		.byte	0
 11168 3a62 13       		.uleb128 0x13
 11169 3a63 18110000 		.4byte	0x1118
 11170 3a67 723A0000 		.4byte	0x3a72
 11171 3a6b 14       		.uleb128 0x14
 11172 3a6c 45000000 		.4byte	0x45
 11173 3a70 40       		.byte	0x40
 11174 3a71 00       		.byte	0
 11175 3a72 07       		.uleb128 0x7
 11176 3a73 32000000 		.4byte	.LASF779
 11177 3a77 08       		.byte	0x8
 11178 3a78 3C       		.byte	0x3c
 11179 3a79 25       		.byte	0x25
 11180 3a7a 973A0000 		.4byte	0x3a97
 11181 3a7e 08       		.uleb128 0x8
 11182 3a7f C2220000 		.4byte	.LASF780
 11183 3a83 3C       		.byte	0x3c
 11184 3a84 26       		.byte	0x26
ARM GAS  C:\Users\JEANCO~1\AppData\Local\Temp\ccxhVNGN.s 			page 198


 11185 3a85 3D3B0000 		.4byte	0x3b3d
 11186 3a89 00       		.byte	0
 11187 3a8a 08       		.uleb128 0x8
 11188 3a8b 8A020000 		.4byte	.LASF778
 11189 3a8f 3C       		.byte	0x3c
 11190 3a90 27       		.byte	0x27
 11191 3a91 973A0000 		.4byte	0x3a97
 11192 3a95 04       		.byte	0x4
 11193 3a96 00       		.byte	0
 11194 3a97 0B       		.uleb128 0xb
 11195 3a98 04       		.byte	0x4
 11196 3a99 723A0000 		.4byte	0x3a72
 11197 3a9d 0B       		.uleb128 0xb
 11198 3a9e 04       		.byte	0x4
 11199 3a9f F5390000 		.4byte	0x39f5
 11200 3aa3 04       		.uleb128 0x4
 11201 3aa4 E61B0000 		.4byte	.LASF781
 11202 3aa8 3C       		.byte	0x3c
 11203 3aa9 15       		.byte	0x15
 11204 3aaa F5390000 		.4byte	0x39f5
 11205 3aae 17       		.uleb128 0x17
 11206 3aaf 04       		.byte	0x4
 11207 3ab0 3C       		.byte	0x3c
 11208 3ab1 18       		.byte	0x18
 11209 3ab2 C33A0000 		.4byte	0x3ac3
 11210 3ab6 08       		.uleb128 0x8
 11211 3ab7 A40B0000 		.4byte	.LASF782
 11212 3abb 3C       		.byte	0x3c
 11213 3abc 19       		.byte	0x19
 11214 3abd C33A0000 		.4byte	0x3ac3
 11215 3ac1 00       		.byte	0
 11216 3ac2 00       		.byte	0
 11217 3ac3 0B       		.uleb128 0xb
 11218 3ac4 04       		.byte	0x4
 11219 3ac5 A33A0000 		.4byte	0x3aa3
 11220 3ac9 17       		.uleb128 0x17
 11221 3aca 0C       		.byte	0xc
 11222 3acb 3C       		.byte	0x3c
 11223 3acc 17       		.byte	0x17
 11224 3acd F63A0000 		.4byte	0x3af6
 11225 3ad1 08       		.uleb128 0x8
 11226 3ad2 41250000 		.4byte	.LASF783
 11227 3ad6 3C       		.byte	0x3c
 11228 3ad7 1A       		.byte	0x1a
 11229 3ad8 AE3A0000 		.4byte	0x3aae
 11230 3adc 00       		.byte	0
 11231 3add 08       		.uleb128 0x8
 11232 3ade 130C0000 		.4byte	.LASF773
 11233 3ae2 3C       		.byte	0x3c
 11234 3ae3 1B       		.byte	0x1b
 11235 3ae4 C8030000 		.4byte	0x3c8
 11236 3ae8 04       		.byte	0x4
 11237 3ae9 08       		.uleb128 0x8
 11238 3aea 99070000 		.4byte	.LASF774
 11239 3aee 3C       		.byte	0x3c
 11240 3aef 1C       		.byte	0x1c
 11241 3af0 C8030000 		.4byte	0x3c8
ARM GAS  C:\Users\JEANCO~1\AppData\Local\Temp\ccxhVNGN.s 			page 199


 11242 3af4 08       		.byte	0x8
 11243 3af5 00       		.byte	0
 11244 3af6 04       		.uleb128 0x4
 11245 3af7 AC120000 		.4byte	.LASF784
 11246 3afb 3C       		.byte	0x3c
 11247 3afc 1D       		.byte	0x1d
 11248 3afd C93A0000 		.4byte	0x3ac9
 11249 3b01 07       		.uleb128 0x7
 11250 3b02 501E0000 		.4byte	.LASF785
 11251 3b06 0C       		.byte	0xc
 11252 3b07 3C       		.byte	0x3c
 11253 3b08 1F       		.byte	0x1f
 11254 3b09 323B0000 		.4byte	0x3b32
 11255 3b0d 08       		.uleb128 0x8
 11256 3b0e 130C0000 		.4byte	.LASF773
 11257 3b12 3C       		.byte	0x3c
 11258 3b13 20       		.byte	0x20
 11259 3b14 C8030000 		.4byte	0x3c8
 11260 3b18 00       		.byte	0
 11261 3b19 08       		.uleb128 0x8
 11262 3b1a 99070000 		.4byte	.LASF774
 11263 3b1e 3C       		.byte	0x3c
 11264 3b1f 21       		.byte	0x21
 11265 3b20 C8030000 		.4byte	0x3c8
 11266 3b24 04       		.byte	0x4
 11267 3b25 08       		.uleb128 0x8
 11268 3b26 08050000 		.4byte	.LASF786
 11269 3b2a 3C       		.byte	0x3c
 11270 3b2b 22       		.byte	0x22
 11271 3b2c C33A0000 		.4byte	0x3ac3
 11272 3b30 08       		.byte	0x8
 11273 3b31 00       		.byte	0
 11274 3b32 04       		.uleb128 0x4
 11275 3b33 39200000 		.4byte	.LASF787
 11276 3b37 3C       		.byte	0x3c
 11277 3b38 23       		.byte	0x23
 11278 3b39 013B0000 		.4byte	0x3b01
 11279 3b3d 0B       		.uleb128 0xb
 11280 3b3e 04       		.byte	0x4
 11281 3b3f 323B0000 		.4byte	0x3b32
 11282 3b43 04       		.uleb128 0x4
 11283 3b44 AA160000 		.4byte	.LASF788
 11284 3b48 3D       		.byte	0x3d
 11285 3b49 16       		.byte	0x16
 11286 3b4a B4000000 		.4byte	0xb4
 11287 3b4e 07       		.uleb128 0x7
 11288 3b4f 271F0000 		.4byte	.LASF789
 11289 3b53 18       		.byte	0x18
 11290 3b54 3D       		.byte	0x3d
 11291 3b55 2F       		.byte	0x2f
 11292 3b56 A13B0000 		.4byte	0x3ba1
 11293 3b5a 08       		.uleb128 0x8
 11294 3b5b BB130000 		.4byte	.LASF790
 11295 3b5f 3D       		.byte	0x3d
 11296 3b60 31       		.byte	0x31
 11297 3b61 A13B0000 		.4byte	0x3ba1
 11298 3b65 00       		.byte	0
ARM GAS  C:\Users\JEANCO~1\AppData\Local\Temp\ccxhVNGN.s 			page 200


 11299 3b66 18       		.uleb128 0x18
 11300 3b67 5F6B00   		.ascii	"_k\000"
 11301 3b6a 3D       		.byte	0x3d
 11302 3b6b 32       		.byte	0x32
 11303 3b6c 2C000000 		.4byte	0x2c
 11304 3b70 04       		.byte	0x4
 11305 3b71 08       		.uleb128 0x8
 11306 3b72 AA1C0000 		.4byte	.LASF791
 11307 3b76 3D       		.byte	0x3d
 11308 3b77 32       		.byte	0x32
 11309 3b78 2C000000 		.4byte	0x2c
 11310 3b7c 08       		.byte	0x8
 11311 3b7d 08       		.uleb128 0x8
 11312 3b7e DD1C0000 		.4byte	.LASF792
 11313 3b82 3D       		.byte	0x3d
 11314 3b83 32       		.byte	0x32
 11315 3b84 2C000000 		.4byte	0x2c
 11316 3b88 0C       		.byte	0xc
 11317 3b89 08       		.uleb128 0x8
 11318 3b8a 3C0B0000 		.4byte	.LASF793
 11319 3b8e 3D       		.byte	0x3d
 11320 3b8f 32       		.byte	0x32
 11321 3b90 2C000000 		.4byte	0x2c
 11322 3b94 10       		.byte	0x10
 11323 3b95 18       		.uleb128 0x18
 11324 3b96 5F7800   		.ascii	"_x\000"
 11325 3b99 3D       		.byte	0x3d
 11326 3b9a 33       		.byte	0x33
 11327 3b9b A73B0000 		.4byte	0x3ba7
 11328 3b9f 14       		.byte	0x14
 11329 3ba0 00       		.byte	0
 11330 3ba1 0B       		.uleb128 0xb
 11331 3ba2 04       		.byte	0x4
 11332 3ba3 4E3B0000 		.4byte	0x3b4e
 11333 3ba7 13       		.uleb128 0x13
 11334 3ba8 433B0000 		.4byte	0x3b43
 11335 3bac B73B0000 		.4byte	0x3bb7
 11336 3bb0 14       		.uleb128 0x14
 11337 3bb1 45000000 		.4byte	0x45
 11338 3bb5 00       		.byte	0
 11339 3bb6 00       		.byte	0
 11340 3bb7 07       		.uleb128 0x7
 11341 3bb8 1E200000 		.4byte	.LASF794
 11342 3bbc 24       		.byte	0x24
 11343 3bbd 3D       		.byte	0x3d
 11344 3bbe 37       		.byte	0x37
 11345 3bbf 303C0000 		.4byte	0x3c30
 11346 3bc3 08       		.uleb128 0x8
 11347 3bc4 25150000 		.4byte	.LASF795
 11348 3bc8 3D       		.byte	0x3d
 11349 3bc9 39       		.byte	0x39
 11350 3bca 2C000000 		.4byte	0x2c
 11351 3bce 00       		.byte	0
 11352 3bcf 08       		.uleb128 0x8
 11353 3bd0 770C0000 		.4byte	.LASF796
 11354 3bd4 3D       		.byte	0x3d
 11355 3bd5 3A       		.byte	0x3a
ARM GAS  C:\Users\JEANCO~1\AppData\Local\Temp\ccxhVNGN.s 			page 201


 11356 3bd6 2C000000 		.4byte	0x2c
 11357 3bda 04       		.byte	0x4
 11358 3bdb 08       		.uleb128 0x8
 11359 3bdc 71100000 		.4byte	.LASF797
 11360 3be0 3D       		.byte	0x3d
 11361 3be1 3B       		.byte	0x3b
 11362 3be2 2C000000 		.4byte	0x2c
 11363 3be6 08       		.byte	0x8
 11364 3be7 08       		.uleb128 0x8
 11365 3be8 230A0000 		.4byte	.LASF798
 11366 3bec 3D       		.byte	0x3d
 11367 3bed 3C       		.byte	0x3c
 11368 3bee 2C000000 		.4byte	0x2c
 11369 3bf2 0C       		.byte	0xc
 11370 3bf3 08       		.uleb128 0x8
 11371 3bf4 B9010000 		.4byte	.LASF799
 11372 3bf8 3D       		.byte	0x3d
 11373 3bf9 3D       		.byte	0x3d
 11374 3bfa 2C000000 		.4byte	0x2c
 11375 3bfe 10       		.byte	0x10
 11376 3bff 08       		.uleb128 0x8
 11377 3c00 B20C0000 		.4byte	.LASF800
 11378 3c04 3D       		.byte	0x3d
 11379 3c05 3E       		.byte	0x3e
 11380 3c06 2C000000 		.4byte	0x2c
 11381 3c0a 14       		.byte	0x14
 11382 3c0b 08       		.uleb128 0x8
 11383 3c0c 0A0A0000 		.4byte	.LASF801
 11384 3c10 3D       		.byte	0x3d
 11385 3c11 3F       		.byte	0x3f
 11386 3c12 2C000000 		.4byte	0x2c
 11387 3c16 18       		.byte	0x18
 11388 3c17 08       		.uleb128 0x8
 11389 3c18 7D0A0000 		.4byte	.LASF802
 11390 3c1c 3D       		.byte	0x3d
 11391 3c1d 40       		.byte	0x40
 11392 3c1e 2C000000 		.4byte	0x2c
 11393 3c22 1C       		.byte	0x1c
 11394 3c23 08       		.uleb128 0x8
 11395 3c24 F12B0000 		.4byte	.LASF803
 11396 3c28 3D       		.byte	0x3d
 11397 3c29 41       		.byte	0x41
 11398 3c2a 2C000000 		.4byte	0x2c
 11399 3c2e 20       		.byte	0x20
 11400 3c2f 00       		.byte	0
 11401 3c30 2C       		.uleb128 0x2c
 11402 3c31 46150000 		.4byte	.LASF804
 11403 3c35 0801     		.2byte	0x108
 11404 3c37 3D       		.byte	0x3d
 11405 3c38 4A       		.byte	0x4a
 11406 3c39 703C0000 		.4byte	0x3c70
 11407 3c3d 08       		.uleb128 0x8
 11408 3c3e 0D130000 		.4byte	.LASF805
 11409 3c42 3D       		.byte	0x3d
 11410 3c43 4B       		.byte	0x4b
 11411 3c44 703C0000 		.4byte	0x3c70
 11412 3c48 00       		.byte	0
ARM GAS  C:\Users\JEANCO~1\AppData\Local\Temp\ccxhVNGN.s 			page 202


 11413 3c49 08       		.uleb128 0x8
 11414 3c4a CD030000 		.4byte	.LASF806
 11415 3c4e 3D       		.byte	0x3d
 11416 3c4f 4C       		.byte	0x4c
 11417 3c50 703C0000 		.4byte	0x3c70
 11418 3c54 80       		.byte	0x80
 11419 3c55 27       		.uleb128 0x27
 11420 3c56 D4010000 		.4byte	.LASF807
 11421 3c5a 3D       		.byte	0x3d
 11422 3c5b 4E       		.byte	0x4e
 11423 3c5c 433B0000 		.4byte	0x3b43
 11424 3c60 0001     		.2byte	0x100
 11425 3c62 27       		.uleb128 0x27
 11426 3c63 61230000 		.4byte	.LASF808
 11427 3c67 3D       		.byte	0x3d
 11428 3c68 51       		.byte	0x51
 11429 3c69 433B0000 		.4byte	0x3b43
 11430 3c6d 0401     		.2byte	0x104
 11431 3c6f 00       		.byte	0
 11432 3c70 13       		.uleb128 0x13
 11433 3c71 C8030000 		.4byte	0x3c8
 11434 3c75 803C0000 		.4byte	0x3c80
 11435 3c79 14       		.uleb128 0x14
 11436 3c7a 45000000 		.4byte	0x45
 11437 3c7e 1F       		.byte	0x1f
 11438 3c7f 00       		.byte	0
 11439 3c80 2C       		.uleb128 0x2c
 11440 3c81 42010000 		.4byte	.LASF809
 11441 3c85 9001     		.2byte	0x190
 11442 3c87 3D       		.byte	0x3d
 11443 3c88 5D       		.byte	0x5d
 11444 3c89 BE3C0000 		.4byte	0x3cbe
 11445 3c8d 08       		.uleb128 0x8
 11446 3c8e BB130000 		.4byte	.LASF790
 11447 3c92 3D       		.byte	0x3d
 11448 3c93 5E       		.byte	0x5e
 11449 3c94 BE3C0000 		.4byte	0x3cbe
 11450 3c98 00       		.byte	0
 11451 3c99 08       		.uleb128 0x8
 11452 3c9a F6010000 		.4byte	.LASF810
 11453 3c9e 3D       		.byte	0x3d
 11454 3c9f 5F       		.byte	0x5f
 11455 3ca0 2C000000 		.4byte	0x2c
 11456 3ca4 04       		.byte	0x4
 11457 3ca5 08       		.uleb128 0x8
 11458 3ca6 0A220000 		.4byte	.LASF811
 11459 3caa 3D       		.byte	0x3d
 11460 3cab 61       		.byte	0x61
 11461 3cac C43C0000 		.4byte	0x3cc4
 11462 3cb0 08       		.byte	0x8
 11463 3cb1 08       		.uleb128 0x8
 11464 3cb2 46150000 		.4byte	.LASF804
 11465 3cb6 3D       		.byte	0x3d
 11466 3cb7 62       		.byte	0x62
 11467 3cb8 303C0000 		.4byte	0x3c30
 11468 3cbc 88       		.byte	0x88
 11469 3cbd 00       		.byte	0
ARM GAS  C:\Users\JEANCO~1\AppData\Local\Temp\ccxhVNGN.s 			page 203


 11470 3cbe 0B       		.uleb128 0xb
 11471 3cbf 04       		.byte	0x4
 11472 3cc0 803C0000 		.4byte	0x3c80
 11473 3cc4 13       		.uleb128 0x13
 11474 3cc5 D43C0000 		.4byte	0x3cd4
 11475 3cc9 D43C0000 		.4byte	0x3cd4
 11476 3ccd 14       		.uleb128 0x14
 11477 3cce 45000000 		.4byte	0x45
 11478 3cd2 1F       		.byte	0x1f
 11479 3cd3 00       		.byte	0
 11480 3cd4 0B       		.uleb128 0xb
 11481 3cd5 04       		.byte	0x4
 11482 3cd6 DA3C0000 		.4byte	0x3cda
 11483 3cda 2E       		.uleb128 0x2e
 11484 3cdb 07       		.uleb128 0x7
 11485 3cdc 6C190000 		.4byte	.LASF812
 11486 3ce0 08       		.byte	0x8
 11487 3ce1 3D       		.byte	0x3d
 11488 3ce2 75       		.byte	0x75
 11489 3ce3 003D0000 		.4byte	0x3d00
 11490 3ce7 08       		.uleb128 0x8
 11491 3ce8 9F150000 		.4byte	.LASF813
 11492 3cec 3D       		.byte	0x3d
 11493 3ced 76       		.byte	0x76
 11494 3cee 003D0000 		.4byte	0x3d00
 11495 3cf2 00       		.byte	0
 11496 3cf3 08       		.uleb128 0x8
 11497 3cf4 380C0000 		.4byte	.LASF814
 11498 3cf8 3D       		.byte	0x3d
 11499 3cf9 77       		.byte	0x77
 11500 3cfa 2C000000 		.4byte	0x2c
 11501 3cfe 04       		.byte	0x4
 11502 3cff 00       		.byte	0
 11503 3d00 0B       		.uleb128 0xb
 11504 3d01 04       		.byte	0x4
 11505 3d02 6C000000 		.4byte	0x6c
 11506 3d06 07       		.uleb128 0x7
 11507 3d07 FB210000 		.4byte	.LASF815
 11508 3d0b 68       		.byte	0x68
 11509 3d0c 3D       		.byte	0x3d
 11510 3d0d B5       		.byte	0xb5
 11511 3d0e 303E0000 		.4byte	0x3e30
 11512 3d12 18       		.uleb128 0x18
 11513 3d13 5F7000   		.ascii	"_p\000"
 11514 3d16 3D       		.byte	0x3d
 11515 3d17 B6       		.byte	0xb6
 11516 3d18 003D0000 		.4byte	0x3d00
 11517 3d1c 00       		.byte	0
 11518 3d1d 18       		.uleb128 0x18
 11519 3d1e 5F7200   		.ascii	"_r\000"
 11520 3d21 3D       		.byte	0x3d
 11521 3d22 B7       		.byte	0xb7
 11522 3d23 2C000000 		.4byte	0x2c
 11523 3d27 04       		.byte	0x4
 11524 3d28 18       		.uleb128 0x18
 11525 3d29 5F7700   		.ascii	"_w\000"
 11526 3d2c 3D       		.byte	0x3d
ARM GAS  C:\Users\JEANCO~1\AppData\Local\Temp\ccxhVNGN.s 			page 204


 11527 3d2d B8       		.byte	0xb8
 11528 3d2e 2C000000 		.4byte	0x2c
 11529 3d32 08       		.byte	0x8
 11530 3d33 08       		.uleb128 0x8
 11531 3d34 83020000 		.4byte	.LASF816
 11532 3d38 3D       		.byte	0x3d
 11533 3d39 B9       		.byte	0xb9
 11534 3d3a 7E000000 		.4byte	0x7e
 11535 3d3e 0C       		.byte	0xc
 11536 3d3f 08       		.uleb128 0x8
 11537 3d40 C1210000 		.4byte	.LASF817
 11538 3d44 3D       		.byte	0x3d
 11539 3d45 BA       		.byte	0xba
 11540 3d46 7E000000 		.4byte	0x7e
 11541 3d4a 0E       		.byte	0xe
 11542 3d4b 18       		.uleb128 0x18
 11543 3d4c 5F626600 		.ascii	"_bf\000"
 11544 3d50 3D       		.byte	0x3d
 11545 3d51 BB       		.byte	0xbb
 11546 3d52 DB3C0000 		.4byte	0x3cdb
 11547 3d56 10       		.byte	0x10
 11548 3d57 08       		.uleb128 0x8
 11549 3d58 42050000 		.4byte	.LASF818
 11550 3d5c 3D       		.byte	0x3d
 11551 3d5d BC       		.byte	0xbc
 11552 3d5e 2C000000 		.4byte	0x2c
 11553 3d62 18       		.byte	0x18
 11554 3d63 08       		.uleb128 0x8
 11555 3d64 2A140000 		.4byte	.LASF819
 11556 3d68 3D       		.byte	0x3d
 11557 3d69 C3       		.byte	0xc3
 11558 3d6a C8030000 		.4byte	0x3c8
 11559 3d6e 1C       		.byte	0x1c
 11560 3d6f 08       		.uleb128 0x8
 11561 3d70 AD2B0000 		.4byte	.LASF820
 11562 3d74 3D       		.byte	0x3d
 11563 3d75 C5       		.byte	0xc5
 11564 3d76 8B3F0000 		.4byte	0x3f8b
 11565 3d7a 20       		.byte	0x20
 11566 3d7b 08       		.uleb128 0x8
 11567 3d7c EB0B0000 		.4byte	.LASF821
 11568 3d80 3D       		.byte	0x3d
 11569 3d81 C7       		.byte	0xc7
 11570 3d82 AF3F0000 		.4byte	0x3faf
 11571 3d86 24       		.byte	0x24
 11572 3d87 08       		.uleb128 0x8
 11573 3d88 C9170000 		.4byte	.LASF822
 11574 3d8c 3D       		.byte	0x3d
 11575 3d8d CA       		.byte	0xca
 11576 3d8e D33F0000 		.4byte	0x3fd3
 11577 3d92 28       		.byte	0x28
 11578 3d93 08       		.uleb128 0x8
 11579 3d94 041E0000 		.4byte	.LASF823
 11580 3d98 3D       		.byte	0x3d
 11581 3d99 CB       		.byte	0xcb
 11582 3d9a ED3F0000 		.4byte	0x3fed
 11583 3d9e 2C       		.byte	0x2c
ARM GAS  C:\Users\JEANCO~1\AppData\Local\Temp\ccxhVNGN.s 			page 205


 11584 3d9f 18       		.uleb128 0x18
 11585 3da0 5F756200 		.ascii	"_ub\000"
 11586 3da4 3D       		.byte	0x3d
 11587 3da5 CE       		.byte	0xce
 11588 3da6 DB3C0000 		.4byte	0x3cdb
 11589 3daa 30       		.byte	0x30
 11590 3dab 18       		.uleb128 0x18
 11591 3dac 5F757000 		.ascii	"_up\000"
 11592 3db0 3D       		.byte	0x3d
 11593 3db1 CF       		.byte	0xcf
 11594 3db2 003D0000 		.4byte	0x3d00
 11595 3db6 38       		.byte	0x38
 11596 3db7 18       		.uleb128 0x18
 11597 3db8 5F757200 		.ascii	"_ur\000"
 11598 3dbc 3D       		.byte	0x3d
 11599 3dbd D0       		.byte	0xd0
 11600 3dbe 2C000000 		.4byte	0x2c
 11601 3dc2 3C       		.byte	0x3c
 11602 3dc3 08       		.uleb128 0x8
 11603 3dc4 F0200000 		.4byte	.LASF824
 11604 3dc8 3D       		.byte	0x3d
 11605 3dc9 D3       		.byte	0xd3
 11606 3dca F33F0000 		.4byte	0x3ff3
 11607 3dce 40       		.byte	0x40
 11608 3dcf 08       		.uleb128 0x8
 11609 3dd0 34030000 		.4byte	.LASF825
 11610 3dd4 3D       		.byte	0x3d
 11611 3dd5 D4       		.byte	0xd4
 11612 3dd6 03400000 		.4byte	0x4003
 11613 3dda 43       		.byte	0x43
 11614 3ddb 18       		.uleb128 0x18
 11615 3ddc 5F6C6200 		.ascii	"_lb\000"
 11616 3de0 3D       		.byte	0x3d
 11617 3de1 D7       		.byte	0xd7
 11618 3de2 DB3C0000 		.4byte	0x3cdb
 11619 3de6 44       		.byte	0x44
 11620 3de7 08       		.uleb128 0x8
 11621 3de8 CD0C0000 		.4byte	.LASF826
 11622 3dec 3D       		.byte	0x3d
 11623 3ded DA       		.byte	0xda
 11624 3dee 2C000000 		.4byte	0x2c
 11625 3df2 4C       		.byte	0x4c
 11626 3df3 08       		.uleb128 0x8
 11627 3df4 11190000 		.4byte	.LASF827
 11628 3df8 3D       		.byte	0x3d
 11629 3df9 DB       		.byte	0xdb
 11630 3dfa 1F390000 		.4byte	0x391f
 11631 3dfe 50       		.byte	0x50
 11632 3dff 08       		.uleb128 0x8
 11633 3e00 F4250000 		.4byte	.LASF828
 11634 3e04 3D       		.byte	0x3d
 11635 3e05 DE       		.byte	0xde
 11636 3e06 4E3E0000 		.4byte	0x3e4e
 11637 3e0a 54       		.byte	0x54
 11638 3e0b 08       		.uleb128 0x8
 11639 3e0c 2E030000 		.4byte	.LASF829
 11640 3e10 3D       		.byte	0x3d
ARM GAS  C:\Users\JEANCO~1\AppData\Local\Temp\ccxhVNGN.s 			page 206


 11641 3e11 E2       		.byte	0xe2
 11642 3e12 9C390000 		.4byte	0x399c
 11643 3e16 58       		.byte	0x58
 11644 3e17 08       		.uleb128 0x8
 11645 3e18 8E160000 		.4byte	.LASF830
 11646 3e1c 3D       		.byte	0x3d
 11647 3e1d E4       		.byte	0xe4
 11648 3e1e 91390000 		.4byte	0x3991
 11649 3e22 5C       		.byte	0x5c
 11650 3e23 08       		.uleb128 0x8
 11651 3e24 20280000 		.4byte	.LASF831
 11652 3e28 3D       		.byte	0x3d
 11653 3e29 E5       		.byte	0xe5
 11654 3e2a 2C000000 		.4byte	0x2c
 11655 3e2e 64       		.byte	0x64
 11656 3e2f 00       		.byte	0
 11657 3e30 20       		.uleb128 0x20
 11658 3e31 2C000000 		.4byte	0x2c
 11659 3e35 4E3E0000 		.4byte	0x3e4e
 11660 3e39 0E       		.uleb128 0xe
 11661 3e3a 4E3E0000 		.4byte	0x3e4e
 11662 3e3e 0E       		.uleb128 0xe
 11663 3e3f C8030000 		.4byte	0x3c8
 11664 3e43 0E       		.uleb128 0xe
 11665 3e44 A7390000 		.4byte	0x39a7
 11666 3e48 0E       		.uleb128 0xe
 11667 3e49 2C000000 		.4byte	0x2c
 11668 3e4d 00       		.byte	0
 11669 3e4e 0B       		.uleb128 0xb
 11670 3e4f 04       		.byte	0x4
 11671 3e50 593E0000 		.4byte	0x3e59
 11672 3e54 05       		.uleb128 0x5
 11673 3e55 4E3E0000 		.4byte	0x3e4e
 11674 3e59 10       		.uleb128 0x10
 11675 3e5a E2190000 		.4byte	.LASF832
 11676 3e5e 2804     		.2byte	0x428
 11677 3e60 3D       		.byte	0x3d
 11678 3e61 3902     		.2byte	0x239
 11679 3e63 8B3F0000 		.4byte	0x3f8b
 11680 3e67 0A       		.uleb128 0xa
 11681 3e68 A5120000 		.4byte	.LASF833
 11682 3e6c 3D       		.byte	0x3d
 11683 3e6d 3B02     		.2byte	0x23b
 11684 3e6f 2C000000 		.4byte	0x2c
 11685 3e73 00       		.byte	0
 11686 3e74 0A       		.uleb128 0xa
 11687 3e75 B80D0000 		.4byte	.LASF834
 11688 3e79 3D       		.byte	0x3d
 11689 3e7a 4002     		.2byte	0x240
 11690 3e7c 5A400000 		.4byte	0x405a
 11691 3e80 04       		.byte	0x4
 11692 3e81 0A       		.uleb128 0xa
 11693 3e82 B70A0000 		.4byte	.LASF835
 11694 3e86 3D       		.byte	0x3d
 11695 3e87 4002     		.2byte	0x240
 11696 3e89 5A400000 		.4byte	0x405a
 11697 3e8d 08       		.byte	0x8
ARM GAS  C:\Users\JEANCO~1\AppData\Local\Temp\ccxhVNGN.s 			page 207


 11698 3e8e 0A       		.uleb128 0xa
 11699 3e8f AD090000 		.4byte	.LASF836
 11700 3e93 3D       		.byte	0x3d
 11701 3e94 4002     		.2byte	0x240
 11702 3e96 5A400000 		.4byte	0x405a
 11703 3e9a 0C       		.byte	0xc
 11704 3e9b 0A       		.uleb128 0xa
 11705 3e9c F1010000 		.4byte	.LASF837
 11706 3ea0 3D       		.byte	0x3d
 11707 3ea1 4202     		.2byte	0x242
 11708 3ea3 2C000000 		.4byte	0x2c
 11709 3ea7 10       		.byte	0x10
 11710 3ea8 0A       		.uleb128 0xa
 11711 3ea9 CD0F0000 		.4byte	.LASF838
 11712 3ead 3D       		.byte	0x3d
 11713 3eae 4302     		.2byte	0x243
 11714 3eb0 3C420000 		.4byte	0x423c
 11715 3eb4 14       		.byte	0x14
 11716 3eb5 0A       		.uleb128 0xa
 11717 3eb6 54260000 		.4byte	.LASF839
 11718 3eba 3D       		.byte	0x3d
 11719 3ebb 4602     		.2byte	0x246
 11720 3ebd 2C000000 		.4byte	0x2c
 11721 3ec1 30       		.byte	0x30
 11722 3ec2 0A       		.uleb128 0xa
 11723 3ec3 93280000 		.4byte	.LASF840
 11724 3ec7 3D       		.byte	0x3d
 11725 3ec8 4702     		.2byte	0x247
 11726 3eca 51420000 		.4byte	0x4251
 11727 3ece 34       		.byte	0x34
 11728 3ecf 0A       		.uleb128 0xa
 11729 3ed0 B8260000 		.4byte	.LASF841
 11730 3ed4 3D       		.byte	0x3d
 11731 3ed5 4902     		.2byte	0x249
 11732 3ed7 2C000000 		.4byte	0x2c
 11733 3edb 38       		.byte	0x38
 11734 3edc 0A       		.uleb128 0xa
 11735 3edd 48210000 		.4byte	.LASF842
 11736 3ee1 3D       		.byte	0x3d
 11737 3ee2 4B02     		.2byte	0x24b
 11738 3ee4 62420000 		.4byte	0x4262
 11739 3ee8 3C       		.byte	0x3c
 11740 3ee9 0A       		.uleb128 0xa
 11741 3eea B5090000 		.4byte	.LASF843
 11742 3eee 3D       		.byte	0x3d
 11743 3eef 4E02     		.2byte	0x24e
 11744 3ef1 A13B0000 		.4byte	0x3ba1
 11745 3ef5 40       		.byte	0x40
 11746 3ef6 0A       		.uleb128 0xa
 11747 3ef7 9E090000 		.4byte	.LASF844
 11748 3efb 3D       		.byte	0x3d
 11749 3efc 4F02     		.2byte	0x24f
 11750 3efe 2C000000 		.4byte	0x2c
 11751 3f02 44       		.byte	0x44
 11752 3f03 0A       		.uleb128 0xa
 11753 3f04 A4230000 		.4byte	.LASF845
 11754 3f08 3D       		.byte	0x3d
ARM GAS  C:\Users\JEANCO~1\AppData\Local\Temp\ccxhVNGN.s 			page 208


 11755 3f09 5002     		.2byte	0x250
 11756 3f0b A13B0000 		.4byte	0x3ba1
 11757 3f0f 48       		.byte	0x48
 11758 3f10 0A       		.uleb128 0xa
 11759 3f11 BB180000 		.4byte	.LASF846
 11760 3f15 3D       		.byte	0x3d
 11761 3f16 5102     		.2byte	0x251
 11762 3f18 68420000 		.4byte	0x4268
 11763 3f1c 4C       		.byte	0x4c
 11764 3f1d 0A       		.uleb128 0xa
 11765 3f1e C8020000 		.4byte	.LASF847
 11766 3f22 3D       		.byte	0x3d
 11767 3f23 5402     		.2byte	0x254
 11768 3f25 2C000000 		.4byte	0x2c
 11769 3f29 50       		.byte	0x50
 11770 3f2a 0A       		.uleb128 0xa
 11771 3f2b B00F0000 		.4byte	.LASF848
 11772 3f2f 3D       		.byte	0x3d
 11773 3f30 5502     		.2byte	0x255
 11774 3f32 A7390000 		.4byte	0x39a7
 11775 3f36 54       		.byte	0x54
 11776 3f37 0A       		.uleb128 0xa
 11777 3f38 9D050000 		.4byte	.LASF849
 11778 3f3c 3D       		.byte	0x3d
 11779 3f3d 7802     		.2byte	0x278
 11780 3f3f 1A420000 		.4byte	0x421a
 11781 3f43 58       		.byte	0x58
 11782 3f44 11       		.uleb128 0x11
 11783 3f45 42010000 		.4byte	.LASF809
 11784 3f49 3D       		.byte	0x3d
 11785 3f4a 7C02     		.2byte	0x27c
 11786 3f4c BE3C0000 		.4byte	0x3cbe
 11787 3f50 4801     		.2byte	0x148
 11788 3f52 11       		.uleb128 0x11
 11789 3f53 571F0000 		.4byte	.LASF850
 11790 3f57 3D       		.byte	0x3d
 11791 3f58 7D02     		.2byte	0x27d
 11792 3f5a 803C0000 		.4byte	0x3c80
 11793 3f5e 4C01     		.2byte	0x14c
 11794 3f60 11       		.uleb128 0x11
 11795 3f61 F8020000 		.4byte	.LASF851
 11796 3f65 3D       		.byte	0x3d
 11797 3f66 8102     		.2byte	0x281
 11798 3f68 79420000 		.4byte	0x4279
 11799 3f6c DC02     		.2byte	0x2dc
 11800 3f6e 11       		.uleb128 0x11
 11801 3f6f 18210000 		.4byte	.LASF852
 11802 3f73 3D       		.byte	0x3d
 11803 3f74 8602     		.2byte	0x286
 11804 3f76 1F400000 		.4byte	0x401f
 11805 3f7a E002     		.2byte	0x2e0
 11806 3f7c 11       		.uleb128 0x11
 11807 3f7d F1060000 		.4byte	.LASF853
 11808 3f81 3D       		.byte	0x3d
 11809 3f82 8802     		.2byte	0x288
 11810 3f84 85420000 		.4byte	0x4285
 11811 3f88 EC02     		.2byte	0x2ec
ARM GAS  C:\Users\JEANCO~1\AppData\Local\Temp\ccxhVNGN.s 			page 209


 11812 3f8a 00       		.byte	0
 11813 3f8b 0B       		.uleb128 0xb
 11814 3f8c 04       		.byte	0x4
 11815 3f8d 303E0000 		.4byte	0x3e30
 11816 3f91 20       		.uleb128 0x20
 11817 3f92 2C000000 		.4byte	0x2c
 11818 3f96 AF3F0000 		.4byte	0x3faf
 11819 3f9a 0E       		.uleb128 0xe
 11820 3f9b 4E3E0000 		.4byte	0x3e4e
 11821 3f9f 0E       		.uleb128 0xe
 11822 3fa0 C8030000 		.4byte	0x3c8
 11823 3fa4 0E       		.uleb128 0xe
 11824 3fa5 0D110000 		.4byte	0x110d
 11825 3fa9 0E       		.uleb128 0xe
 11826 3faa 2C000000 		.4byte	0x2c
 11827 3fae 00       		.byte	0
 11828 3faf 0B       		.uleb128 0xb
 11829 3fb0 04       		.byte	0x4
 11830 3fb1 913F0000 		.4byte	0x3f91
 11831 3fb5 20       		.uleb128 0x20
 11832 3fb6 2A390000 		.4byte	0x392a
 11833 3fba D33F0000 		.4byte	0x3fd3
 11834 3fbe 0E       		.uleb128 0xe
 11835 3fbf 4E3E0000 		.4byte	0x3e4e
 11836 3fc3 0E       		.uleb128 0xe
 11837 3fc4 C8030000 		.4byte	0x3c8
 11838 3fc8 0E       		.uleb128 0xe
 11839 3fc9 2A390000 		.4byte	0x392a
 11840 3fcd 0E       		.uleb128 0xe
 11841 3fce 2C000000 		.4byte	0x2c
 11842 3fd2 00       		.byte	0
 11843 3fd3 0B       		.uleb128 0xb
 11844 3fd4 04       		.byte	0x4
 11845 3fd5 B53F0000 		.4byte	0x3fb5
 11846 3fd9 20       		.uleb128 0x20
 11847 3fda 2C000000 		.4byte	0x2c
 11848 3fde ED3F0000 		.4byte	0x3fed
 11849 3fe2 0E       		.uleb128 0xe
 11850 3fe3 4E3E0000 		.4byte	0x3e4e
 11851 3fe7 0E       		.uleb128 0xe
 11852 3fe8 C8030000 		.4byte	0x3c8
 11853 3fec 00       		.byte	0
 11854 3fed 0B       		.uleb128 0xb
 11855 3fee 04       		.byte	0x4
 11856 3fef D93F0000 		.4byte	0x3fd9
 11857 3ff3 13       		.uleb128 0x13
 11858 3ff4 6C000000 		.4byte	0x6c
 11859 3ff8 03400000 		.4byte	0x4003
 11860 3ffc 14       		.uleb128 0x14
 11861 3ffd 45000000 		.4byte	0x45
 11862 4001 02       		.byte	0x2
 11863 4002 00       		.byte	0
 11864 4003 13       		.uleb128 0x13
 11865 4004 6C000000 		.4byte	0x6c
 11866 4008 13400000 		.4byte	0x4013
 11867 400c 14       		.uleb128 0x14
 11868 400d 45000000 		.4byte	0x45
ARM GAS  C:\Users\JEANCO~1\AppData\Local\Temp\ccxhVNGN.s 			page 210


 11869 4011 00       		.byte	0
 11870 4012 00       		.byte	0
 11871 4013 1A       		.uleb128 0x1a
 11872 4014 1B2A0000 		.4byte	.LASF854
 11873 4018 3D       		.byte	0x3d
 11874 4019 1F01     		.2byte	0x11f
 11875 401b 063D0000 		.4byte	0x3d06
 11876 401f 0C       		.uleb128 0xc
 11877 4020 4A1E0000 		.4byte	.LASF855
 11878 4024 0C       		.byte	0xc
 11879 4025 3D       		.byte	0x3d
 11880 4026 2301     		.2byte	0x123
 11881 4028 54400000 		.4byte	0x4054
 11882 402c 0A       		.uleb128 0xa
 11883 402d BB130000 		.4byte	.LASF790
 11884 4031 3D       		.byte	0x3d
 11885 4032 2501     		.2byte	0x125
 11886 4034 54400000 		.4byte	0x4054
 11887 4038 00       		.byte	0
 11888 4039 0A       		.uleb128 0xa
 11889 403a 28110000 		.4byte	.LASF856
 11890 403e 3D       		.byte	0x3d
 11891 403f 2601     		.2byte	0x126
 11892 4041 2C000000 		.4byte	0x2c
 11893 4045 04       		.byte	0x4
 11894 4046 0A       		.uleb128 0xa
 11895 4047 231C0000 		.4byte	.LASF857
 11896 404b 3D       		.byte	0x3d
 11897 404c 2701     		.2byte	0x127
 11898 404e 5A400000 		.4byte	0x405a
 11899 4052 08       		.byte	0x8
 11900 4053 00       		.byte	0
 11901 4054 0B       		.uleb128 0xb
 11902 4055 04       		.byte	0x4
 11903 4056 1F400000 		.4byte	0x401f
 11904 405a 0B       		.uleb128 0xb
 11905 405b 04       		.byte	0x4
 11906 405c 13400000 		.4byte	0x4013
 11907 4060 0C       		.uleb128 0xc
 11908 4061 DD2B0000 		.4byte	.LASF858
 11909 4065 0E       		.byte	0xe
 11910 4066 3D       		.byte	0x3d
 11911 4067 3F01     		.2byte	0x13f
 11912 4069 95400000 		.4byte	0x4095
 11913 406d 0A       		.uleb128 0xa
 11914 406e B4170000 		.4byte	.LASF859
 11915 4072 3D       		.byte	0x3d
 11916 4073 4001     		.2byte	0x140
 11917 4075 95400000 		.4byte	0x4095
 11918 4079 00       		.byte	0
 11919 407a 0A       		.uleb128 0xa
 11920 407b 8F2B0000 		.4byte	.LASF860
 11921 407f 3D       		.byte	0x3d
 11922 4080 4101     		.2byte	0x141
 11923 4082 95400000 		.4byte	0x4095
 11924 4086 06       		.byte	0x6
 11925 4087 0A       		.uleb128 0xa
ARM GAS  C:\Users\JEANCO~1\AppData\Local\Temp\ccxhVNGN.s 			page 211


 11926 4088 BF190000 		.4byte	.LASF861
 11927 408c 3D       		.byte	0x3d
 11928 408d 4201     		.2byte	0x142
 11929 408f 90000000 		.4byte	0x90
 11930 4093 0C       		.byte	0xc
 11931 4094 00       		.byte	0
 11932 4095 13       		.uleb128 0x13
 11933 4096 90000000 		.4byte	0x90
 11934 409a A5400000 		.4byte	0x40a5
 11935 409e 14       		.uleb128 0x14
 11936 409f 45000000 		.4byte	0x45
 11937 40a3 02       		.byte	0x2
 11938 40a4 00       		.byte	0
 11939 40a5 19       		.uleb128 0x19
 11940 40a6 D0       		.byte	0xd0
 11941 40a7 3D       		.byte	0x3d
 11942 40a8 5902     		.2byte	0x259
 11943 40aa A6410000 		.4byte	0x41a6
 11944 40ae 0A       		.uleb128 0xa
 11945 40af 07090000 		.4byte	.LASF862
 11946 40b3 3D       		.byte	0x3d
 11947 40b4 5B02     		.2byte	0x25b
 11948 40b6 45000000 		.4byte	0x45
 11949 40ba 00       		.byte	0
 11950 40bb 0A       		.uleb128 0xa
 11951 40bc 55170000 		.4byte	.LASF863
 11952 40c0 3D       		.byte	0x3d
 11953 40c1 5C02     		.2byte	0x25c
 11954 40c3 A7390000 		.4byte	0x39a7
 11955 40c7 04       		.byte	0x4
 11956 40c8 0A       		.uleb128 0xa
 11957 40c9 001A0000 		.4byte	.LASF864
 11958 40cd 3D       		.byte	0x3d
 11959 40ce 5D02     		.2byte	0x25d
 11960 40d0 A6410000 		.4byte	0x41a6
 11961 40d4 08       		.byte	0x8
 11962 40d5 0A       		.uleb128 0xa
 11963 40d6 72150000 		.4byte	.LASF865
 11964 40da 3D       		.byte	0x3d
 11965 40db 5E02     		.2byte	0x25e
 11966 40dd B73B0000 		.4byte	0x3bb7
 11967 40e1 24       		.byte	0x24
 11968 40e2 0A       		.uleb128 0xa
 11969 40e3 61250000 		.4byte	.LASF866
 11970 40e7 3D       		.byte	0x3d
 11971 40e8 5F02     		.2byte	0x25f
 11972 40ea 2C000000 		.4byte	0x2c
 11973 40ee 48       		.byte	0x48
 11974 40ef 0A       		.uleb128 0xa
 11975 40f0 621C0000 		.4byte	.LASF867
 11976 40f4 3D       		.byte	0x3d
 11977 40f5 6002     		.2byte	0x260
 11978 40f7 C6000000 		.4byte	0xc6
 11979 40fb 50       		.byte	0x50
 11980 40fc 0A       		.uleb128 0xa
 11981 40fd 25290000 		.4byte	.LASF868
 11982 4101 3D       		.byte	0x3d
ARM GAS  C:\Users\JEANCO~1\AppData\Local\Temp\ccxhVNGN.s 			page 212


 11983 4102 6102     		.2byte	0x261
 11984 4104 60400000 		.4byte	0x4060
 11985 4108 58       		.byte	0x58
 11986 4109 0A       		.uleb128 0xa
 11987 410a 0B210000 		.4byte	.LASF869
 11988 410e 3D       		.byte	0x3d
 11989 410f 6202     		.2byte	0x262
 11990 4111 91390000 		.4byte	0x3991
 11991 4115 68       		.byte	0x68
 11992 4116 0A       		.uleb128 0xa
 11993 4117 28070000 		.4byte	.LASF870
 11994 411b 3D       		.byte	0x3d
 11995 411c 6302     		.2byte	0x263
 11996 411e 91390000 		.4byte	0x3991
 11997 4122 70       		.byte	0x70
 11998 4123 0A       		.uleb128 0xa
 11999 4124 51040000 		.4byte	.LASF871
 12000 4128 3D       		.byte	0x3d
 12001 4129 6402     		.2byte	0x264
 12002 412b 91390000 		.4byte	0x3991
 12003 412f 78       		.byte	0x78
 12004 4130 0A       		.uleb128 0xa
 12005 4131 F6190000 		.4byte	.LASF872
 12006 4135 3D       		.byte	0x3d
 12007 4136 6502     		.2byte	0x265
 12008 4138 B6410000 		.4byte	0x41b6
 12009 413c 80       		.byte	0x80
 12010 413d 0A       		.uleb128 0xa
 12011 413e 0C140000 		.4byte	.LASF873
 12012 4142 3D       		.byte	0x3d
 12013 4143 6602     		.2byte	0x266
 12014 4145 C6410000 		.4byte	0x41c6
 12015 4149 88       		.byte	0x88
 12016 414a 0A       		.uleb128 0xa
 12017 414b F21F0000 		.4byte	.LASF874
 12018 414f 3D       		.byte	0x3d
 12019 4150 6702     		.2byte	0x267
 12020 4152 2C000000 		.4byte	0x2c
 12021 4156 A0       		.byte	0xa0
 12022 4157 0A       		.uleb128 0xa
 12023 4158 580D0000 		.4byte	.LASF875
 12024 415c 3D       		.byte	0x3d
 12025 415d 6802     		.2byte	0x268
 12026 415f 91390000 		.4byte	0x3991
 12027 4163 A4       		.byte	0xa4
 12028 4164 0A       		.uleb128 0xa
 12029 4165 4D000000 		.4byte	.LASF876
 12030 4169 3D       		.byte	0x3d
 12031 416a 6902     		.2byte	0x269
 12032 416c 91390000 		.4byte	0x3991
 12033 4170 AC       		.byte	0xac
 12034 4171 0A       		.uleb128 0xa
 12035 4172 230B0000 		.4byte	.LASF877
 12036 4176 3D       		.byte	0x3d
 12037 4177 6A02     		.2byte	0x26a
 12038 4179 91390000 		.4byte	0x3991
 12039 417d B4       		.byte	0xb4
ARM GAS  C:\Users\JEANCO~1\AppData\Local\Temp\ccxhVNGN.s 			page 213


 12040 417e 0A       		.uleb128 0xa
 12041 417f DD150000 		.4byte	.LASF878
 12042 4183 3D       		.byte	0x3d
 12043 4184 6B02     		.2byte	0x26b
 12044 4186 91390000 		.4byte	0x3991
 12045 418a BC       		.byte	0xbc
 12046 418b 0A       		.uleb128 0xa
 12047 418c 471A0000 		.4byte	.LASF879
 12048 4190 3D       		.byte	0x3d
 12049 4191 6C02     		.2byte	0x26c
 12050 4193 91390000 		.4byte	0x3991
 12051 4197 C4       		.byte	0xc4
 12052 4198 0A       		.uleb128 0xa
 12053 4199 6E220000 		.4byte	.LASF880
 12054 419d 3D       		.byte	0x3d
 12055 419e 6D02     		.2byte	0x26d
 12056 41a0 2C000000 		.4byte	0x2c
 12057 41a4 CC       		.byte	0xcc
 12058 41a5 00       		.byte	0
 12059 41a6 13       		.uleb128 0x13
 12060 41a7 18110000 		.4byte	0x1118
 12061 41ab B6410000 		.4byte	0x41b6
 12062 41af 14       		.uleb128 0x14
 12063 41b0 45000000 		.4byte	0x45
 12064 41b4 19       		.byte	0x19
 12065 41b5 00       		.byte	0
 12066 41b6 13       		.uleb128 0x13
 12067 41b7 18110000 		.4byte	0x1118
 12068 41bb C6410000 		.4byte	0x41c6
 12069 41bf 14       		.uleb128 0x14
 12070 41c0 45000000 		.4byte	0x45
 12071 41c4 07       		.byte	0x7
 12072 41c5 00       		.byte	0
 12073 41c6 13       		.uleb128 0x13
 12074 41c7 18110000 		.4byte	0x1118
 12075 41cb D6410000 		.4byte	0x41d6
 12076 41cf 14       		.uleb128 0x14
 12077 41d0 45000000 		.4byte	0x45
 12078 41d4 17       		.byte	0x17
 12079 41d5 00       		.byte	0
 12080 41d6 19       		.uleb128 0x19
 12081 41d7 F0       		.byte	0xf0
 12082 41d8 3D       		.byte	0x3d
 12083 41d9 7202     		.2byte	0x272
 12084 41db FA410000 		.4byte	0x41fa
 12085 41df 0A       		.uleb128 0xa
 12086 41e0 28280000 		.4byte	.LASF881
 12087 41e4 3D       		.byte	0x3d
 12088 41e5 7502     		.2byte	0x275
 12089 41e7 FA410000 		.4byte	0x41fa
 12090 41eb 00       		.byte	0
 12091 41ec 0A       		.uleb128 0xa
 12092 41ed BF0D0000 		.4byte	.LASF882
 12093 41f1 3D       		.byte	0x3d
 12094 41f2 7602     		.2byte	0x276
 12095 41f4 0A420000 		.4byte	0x420a
 12096 41f8 78       		.byte	0x78
ARM GAS  C:\Users\JEANCO~1\AppData\Local\Temp\ccxhVNGN.s 			page 214


 12097 41f9 00       		.byte	0
 12098 41fa 13       		.uleb128 0x13
 12099 41fb 003D0000 		.4byte	0x3d00
 12100 41ff 0A420000 		.4byte	0x420a
 12101 4203 14       		.uleb128 0x14
 12102 4204 45000000 		.4byte	0x45
 12103 4208 1D       		.byte	0x1d
 12104 4209 00       		.byte	0
 12105 420a 13       		.uleb128 0x13
 12106 420b 45000000 		.4byte	0x45
 12107 420f 1A420000 		.4byte	0x421a
 12108 4213 14       		.uleb128 0x14
 12109 4214 45000000 		.4byte	0x45
 12110 4218 1D       		.byte	0x1d
 12111 4219 00       		.byte	0
 12112 421a 2B       		.uleb128 0x2b
 12113 421b F0       		.byte	0xf0
 12114 421c 3D       		.byte	0x3d
 12115 421d 5702     		.2byte	0x257
 12116 421f 3C420000 		.4byte	0x423c
 12117 4223 1E       		.uleb128 0x1e
 12118 4224 E2190000 		.4byte	.LASF832
 12119 4228 3D       		.byte	0x3d
 12120 4229 6E02     		.2byte	0x26e
 12121 422b A5400000 		.4byte	0x40a5
 12122 422f 1E       		.uleb128 0x1e
 12123 4230 CA200000 		.4byte	.LASF883
 12124 4234 3D       		.byte	0x3d
 12125 4235 7702     		.2byte	0x277
 12126 4237 D6410000 		.4byte	0x41d6
 12127 423b 00       		.byte	0
 12128 423c 13       		.uleb128 0x13
 12129 423d 18110000 		.4byte	0x1118
 12130 4241 4C420000 		.4byte	0x424c
 12131 4245 14       		.uleb128 0x14
 12132 4246 45000000 		.4byte	0x45
 12133 424a 18       		.byte	0x18
 12134 424b 00       		.byte	0
 12135 424c 2D       		.uleb128 0x2d
 12136 424d 20210000 		.4byte	.LASF885
 12137 4251 0B       		.uleb128 0xb
 12138 4252 04       		.byte	0x4
 12139 4253 4C420000 		.4byte	0x424c
 12140 4257 0D       		.uleb128 0xd
 12141 4258 62420000 		.4byte	0x4262
 12142 425c 0E       		.uleb128 0xe
 12143 425d 4E3E0000 		.4byte	0x3e4e
 12144 4261 00       		.byte	0
 12145 4262 0B       		.uleb128 0xb
 12146 4263 04       		.byte	0x4
 12147 4264 57420000 		.4byte	0x4257
 12148 4268 0B       		.uleb128 0xb
 12149 4269 04       		.byte	0x4
 12150 426a A13B0000 		.4byte	0x3ba1
 12151 426e 0D       		.uleb128 0xd
 12152 426f 79420000 		.4byte	0x4279
 12153 4273 0E       		.uleb128 0xe
ARM GAS  C:\Users\JEANCO~1\AppData\Local\Temp\ccxhVNGN.s 			page 215


 12154 4274 2C000000 		.4byte	0x2c
 12155 4278 00       		.byte	0
 12156 4279 0B       		.uleb128 0xb
 12157 427a 04       		.byte	0x4
 12158 427b 7F420000 		.4byte	0x427f
 12159 427f 0B       		.uleb128 0xb
 12160 4280 04       		.byte	0x4
 12161 4281 6E420000 		.4byte	0x426e
 12162 4285 13       		.uleb128 0x13
 12163 4286 13400000 		.4byte	0x4013
 12164 428a 95420000 		.4byte	0x4295
 12165 428e 14       		.uleb128 0x14
 12166 428f 45000000 		.4byte	0x45
 12167 4293 02       		.byte	0x2
 12168 4294 00       		.byte	0
 12169 4295 15       		.uleb128 0x15
 12170 4296 AF200000 		.4byte	.LASF886
 12171 429a 3D       		.byte	0x3d
 12172 429b 0703     		.2byte	0x307
 12173 429d 4E3E0000 		.4byte	0x3e4e
 12174 42a1 15       		.uleb128 0x15
 12175 42a2 7E240000 		.4byte	.LASF887
 12176 42a6 3D       		.byte	0x3d
 12177 42a7 0803     		.2byte	0x308
 12178 42a9 543E0000 		.4byte	0x3e54
 12179 42ad 16       		.uleb128 0x16
 12180 42ae 56010000 		.4byte	.LASF888
 12181 42b2 3E       		.byte	0x3e
 12182 42b3 63       		.byte	0x63
 12183 42b4 A7390000 		.4byte	0x39a7
 12184 42b8 04       		.uleb128 0x4
 12185 42b9 32140000 		.4byte	.LASF889
 12186 42bd 3F       		.byte	0x3f
 12187 42be 08       		.byte	0x8
 12188 42bf C3420000 		.4byte	0x42c3
 12189 42c3 07       		.uleb128 0x7
 12190 42c4 2B230000 		.4byte	.LASF890
 12191 42c8 18       		.byte	0x18
 12192 42c9 3F       		.byte	0x3f
 12193 42ca 0B       		.byte	0xb
 12194 42cb 17430000 		.4byte	0x4317
 12195 42cf 18       		.uleb128 0x18
 12196 42d0 696400   		.ascii	"id\000"
 12197 42d3 3F       		.byte	0x3f
 12198 42d4 0C       		.byte	0xc
 12199 42d5 0D110000 		.4byte	0x110d
 12200 42d9 00       		.byte	0
 12201 42da 08       		.uleb128 0x8
 12202 42db 4A010000 		.4byte	.LASF891
 12203 42df 3F       		.byte	0x3f
 12204 42e0 0D       		.byte	0xd
 12205 42e1 F3000000 		.4byte	0xf3
 12206 42e5 04       		.byte	0x4
 12207 42e6 08       		.uleb128 0x8
 12208 42e7 EC040000 		.4byte	.LASF892
 12209 42eb 3F       		.byte	0x3f
 12210 42ec 0E       		.byte	0xe
ARM GAS  C:\Users\JEANCO~1\AppData\Local\Temp\ccxhVNGN.s 			page 216


 12211 42ed 81430000 		.4byte	0x4381
 12212 42f1 08       		.byte	0x8
 12213 42f2 08       		.uleb128 0x8
 12214 42f3 900C0000 		.4byte	.LASF893
 12215 42f7 3F       		.byte	0x3f
 12216 42f8 0F       		.byte	0xf
 12217 42f9 81430000 		.4byte	0x4381
 12218 42fd 0C       		.byte	0xc
 12219 42fe 08       		.uleb128 0x8
 12220 42ff 8A020000 		.4byte	.LASF778
 12221 4303 3F       		.byte	0x3f
 12222 4304 10       		.byte	0x10
 12223 4305 81430000 		.4byte	0x4381
 12224 4309 10       		.byte	0x10
 12225 430a 08       		.uleb128 0x8
 12226 430b 0C2A0000 		.4byte	.LASF894
 12227 430f 3F       		.byte	0x3f
 12228 4310 11       		.byte	0x11
 12229 4311 87430000 		.4byte	0x4387
 12230 4315 14       		.byte	0x14
 12231 4316 00       		.byte	0
 12232 4317 04       		.uleb128 0x4
 12233 4318 25180000 		.4byte	.LASF895
 12234 431c 3F       		.byte	0x3f
 12235 431d 09       		.byte	0x9
 12236 431e 22430000 		.4byte	0x4322
 12237 4322 07       		.uleb128 0x7
 12238 4323 CD120000 		.4byte	.LASF896
 12239 4327 18       		.byte	0x18
 12240 4328 3F       		.byte	0x3f
 12241 4329 2E       		.byte	0x2e
 12242 432a 81430000 		.4byte	0x4381
 12243 432e 18       		.uleb128 0x18
 12244 432f 696400   		.ascii	"id\000"
 12245 4332 3F       		.byte	0x3f
 12246 4333 2F       		.byte	0x2f
 12247 4334 0D110000 		.4byte	0x110d
 12248 4338 00       		.byte	0
 12249 4339 18       		.uleb128 0x18
 12250 433a 6E7300   		.ascii	"ns\000"
 12251 433d 3F       		.byte	0x3f
 12252 433e 30       		.byte	0x30
 12253 433f 81430000 		.4byte	0x4381
 12254 4343 04       		.byte	0x4
 12255 4344 08       		.uleb128 0x8
 12256 4345 8A020000 		.4byte	.LASF778
 12257 4349 3F       		.byte	0x3f
 12258 434a 31       		.byte	0x31
 12259 434b 87430000 		.4byte	0x4387
 12260 434f 08       		.byte	0x8
 12261 4350 08       		.uleb128 0x8
 12262 4351 4C220000 		.4byte	.LASF897
 12263 4355 3F       		.byte	0x3f
 12264 4356 32       		.byte	0x32
 12265 4357 2F160000 		.4byte	0x162f
 12266 435b 0C       		.byte	0xc
 12267 435c 08       		.uleb128 0x8
ARM GAS  C:\Users\JEANCO~1\AppData\Local\Temp\ccxhVNGN.s 			page 217


 12268 435d 83130000 		.4byte	.LASF898
 12269 4361 3F       		.byte	0x3f
 12270 4362 33       		.byte	0x33
 12271 4363 2F160000 		.4byte	0x162f
 12272 4367 0D       		.byte	0xd
 12273 4368 08       		.uleb128 0x8
 12274 4369 78080000 		.4byte	.LASF899
 12275 436d 3F       		.byte	0x3f
 12276 436e 34       		.byte	0x34
 12277 436f CD000000 		.4byte	0xcd
 12278 4373 0E       		.byte	0xe
 12279 4374 08       		.uleb128 0x8
 12280 4375 6B0D0000 		.4byte	.LASF900
 12281 4379 3F       		.byte	0x3f
 12282 437a 3C       		.byte	0x3c
 12283 437b 22440000 		.4byte	0x4422
 12284 437f 10       		.byte	0x10
 12285 4380 00       		.byte	0
 12286 4381 0B       		.uleb128 0xb
 12287 4382 04       		.byte	0x4
 12288 4383 B8420000 		.4byte	0x42b8
 12289 4387 0B       		.uleb128 0xb
 12290 4388 04       		.byte	0x4
 12291 4389 17430000 		.4byte	0x4317
 12292 438d 07       		.uleb128 0x7
 12293 438e AB1A0000 		.4byte	.LASF901
 12294 4392 08       		.byte	0x8
 12295 4393 3F       		.byte	0x3f
 12296 4394 14       		.byte	0x14
 12297 4395 BE430000 		.4byte	0x43be
 12298 4399 18       		.uleb128 0x18
 12299 439a 62756600 		.ascii	"buf\000"
 12300 439e 3F       		.byte	0x3f
 12301 439f 15       		.byte	0x15
 12302 43a0 A7390000 		.4byte	0x39a7
 12303 43a4 00       		.byte	0
 12304 43a5 08       		.uleb128 0x8
 12305 43a6 AC290000 		.4byte	.LASF902
 12306 43aa 3F       		.byte	0x3f
 12307 43ab 16       		.byte	0x16
 12308 43ac E8000000 		.4byte	0xe8
 12309 43b0 04       		.byte	0x4
 12310 43b1 18       		.uleb128 0x18
 12311 43b2 6C656E00 		.ascii	"len\000"
 12312 43b6 3F       		.byte	0x3f
 12313 43b7 17       		.byte	0x17
 12314 43b8 E8000000 		.4byte	0xe8
 12315 43bc 06       		.byte	0x6
 12316 43bd 00       		.byte	0
 12317 43be 07       		.uleb128 0x7
 12318 43bf 19190000 		.4byte	.LASF903
 12319 43c3 08       		.byte	0x8
 12320 43c4 3F       		.byte	0x3f
 12321 43c5 1A       		.byte	0x1a
 12322 43c6 EF430000 		.4byte	0x43ef
 12323 43ca 18       		.uleb128 0x18
 12324 43cb 62756600 		.ascii	"buf\000"
ARM GAS  C:\Users\JEANCO~1\AppData\Local\Temp\ccxhVNGN.s 			page 218


 12325 43cf 3F       		.byte	0x3f
 12326 43d0 1B       		.byte	0x1b
 12327 43d1 EF430000 		.4byte	0x43ef
 12328 43d5 00       		.byte	0
 12329 43d6 08       		.uleb128 0x8
 12330 43d7 F8090000 		.4byte	.LASF904
 12331 43db 3F       		.byte	0x3f
 12332 43dc 1C       		.byte	0x1c
 12333 43dd E8000000 		.4byte	0xe8
 12334 43e1 04       		.byte	0x4
 12335 43e2 18       		.uleb128 0x18
 12336 43e3 64696D00 		.ascii	"dim\000"
 12337 43e7 3F       		.byte	0x3f
 12338 43e8 1D       		.byte	0x1d
 12339 43e9 E8000000 		.4byte	0xe8
 12340 43ed 06       		.byte	0x6
 12341 43ee 00       		.byte	0
 12342 43ef 0B       		.uleb128 0xb
 12343 43f0 04       		.byte	0x4
 12344 43f1 25000000 		.4byte	0x25
 12345 43f5 07       		.uleb128 0x7
 12346 43f6 14110000 		.4byte	.LASF905
 12347 43fa 08       		.byte	0x8
 12348 43fb 3F       		.byte	0x3f
 12349 43fc 20       		.byte	0x20
 12350 43fd 22440000 		.4byte	0x4422
 12351 4401 18       		.uleb128 0x18
 12352 4402 62756600 		.ascii	"buf\000"
 12353 4406 3F       		.byte	0x3f
 12354 4407 21       		.byte	0x21
 12355 4408 EF430000 		.4byte	0x43ef
 12356 440c 00       		.byte	0
 12357 440d 18       		.uleb128 0x18
 12358 440e 6E00     		.ascii	"n\000"
 12359 4410 3F       		.byte	0x3f
 12360 4411 22       		.byte	0x22
 12361 4412 E8000000 		.4byte	0xe8
 12362 4416 04       		.byte	0x4
 12363 4417 18       		.uleb128 0x18
 12364 4418 6D00     		.ascii	"m\000"
 12365 441a 3F       		.byte	0x3f
 12366 441b 23       		.byte	0x23
 12367 441c E8000000 		.4byte	0xe8
 12368 4420 06       		.byte	0x6
 12369 4421 00       		.byte	0
 12370 4422 1D       		.uleb128 0x1d
 12371 4423 08       		.byte	0x8
 12372 4424 3F       		.byte	0x3f
 12373 4425 35       		.byte	0x35
 12374 4426 67440000 		.4byte	0x4467
 12375 442a 23       		.uleb128 0x23
 12376 442b 6200     		.ascii	"b\000"
 12377 442d 3F       		.byte	0x3f
 12378 442e 36       		.byte	0x36
 12379 442f 2F160000 		.4byte	0x162f
 12380 4433 23       		.uleb128 0x23
 12381 4434 7300     		.ascii	"s\000"
ARM GAS  C:\Users\JEANCO~1\AppData\Local\Temp\ccxhVNGN.s 			page 219


 12382 4436 3F       		.byte	0x3f
 12383 4437 37       		.byte	0x37
 12384 4438 25000000 		.4byte	0x25
 12385 443c 23       		.uleb128 0x23
 12386 443d 6900     		.ascii	"i\000"
 12387 443f 3F       		.byte	0x3f
 12388 4440 38       		.byte	0x38
 12389 4441 F3000000 		.4byte	0xf3
 12390 4445 23       		.uleb128 0x23
 12391 4446 73747200 		.ascii	"str\000"
 12392 444a 3F       		.byte	0x3f
 12393 444b 39       		.byte	0x39
 12394 444c 8D430000 		.4byte	0x438d
 12395 4450 2A       		.uleb128 0x2a
 12396 4451 CD000000 		.4byte	.LASF906
 12397 4455 3F       		.byte	0x3f
 12398 4456 3A       		.byte	0x3a
 12399 4457 BE430000 		.4byte	0x43be
 12400 445b 23       		.uleb128 0x23
 12401 445c 6D617400 		.ascii	"mat\000"
 12402 4460 3F       		.byte	0x3f
 12403 4461 3B       		.byte	0x3b
 12404 4462 F5430000 		.4byte	0x43f5
 12405 4466 00       		.byte	0
 12406 4467 2F       		.uleb128 0x2f
 12407 4468 62757300 		.ascii	"bus\000"
 12408 446c 40       		.byte	0x40
 12409 446d 0E       		.byte	0xe
 12410 446e F63A0000 		.4byte	0x3af6
 12411 4472 16       		.uleb128 0x16
 12412 4473 EF0E0000 		.4byte	.LASF907
 12413 4477 40       		.byte	0x40
 12414 4478 10       		.byte	0x10
 12415 4479 B8420000 		.4byte	0x42b8
 12416 447d 16       		.uleb128 0x16
 12417 447e 2D0A0000 		.4byte	.LASF908
 12418 4482 41       		.byte	0x41
 12419 4483 14       		.byte	0x14
 12420 4484 D1350000 		.4byte	0x35d1
 12421 4488 16       		.uleb128 0x16
 12422 4489 190B0000 		.4byte	.LASF909
 12423 448d 41       		.byte	0x41
 12424 448e 15       		.byte	0x15
 12425 448f 07370000 		.4byte	0x3707
 12426 4493 16       		.uleb128 0x16
 12427 4494 C1130000 		.4byte	.LASF910
 12428 4498 41       		.byte	0x41
 12429 4499 16       		.byte	0x16
 12430 449a 55360000 		.4byte	0x3655
 12431 449e 0B       		.uleb128 0xb
 12432 449f 04       		.byte	0x4
 12433 44a0 DD000000 		.4byte	0xdd
 12434 44a4 07       		.uleb128 0x7
 12435 44a5 A0030000 		.4byte	.LASF911
 12436 44a9 08       		.byte	0x8
 12437 44aa 42       		.byte	0x42
 12438 44ab 07       		.byte	0x7
ARM GAS  C:\Users\JEANCO~1\AppData\Local\Temp\ccxhVNGN.s 			page 220


 12439 44ac C9440000 		.4byte	0x44c9
 12440 44b0 18       		.uleb128 0x18
 12441 44b1 6D617800 		.ascii	"max\000"
 12442 44b5 42       		.byte	0x42
 12443 44b6 08       		.byte	0x8
 12444 44b7 2C000000 		.4byte	0x2c
 12445 44bb 00       		.byte	0
 12446 44bc 08       		.uleb128 0x8
 12447 44bd 8E290000 		.4byte	.LASF912
 12448 44c1 42       		.byte	0x42
 12449 44c2 08       		.byte	0x8
 12450 44c3 2C000000 		.4byte	0x2c
 12451 44c7 04       		.byte	0x4
 12452 44c8 00       		.byte	0
 12453 44c9 04       		.uleb128 0x4
 12454 44ca A0030000 		.4byte	.LASF911
 12455 44ce 42       		.byte	0x42
 12456 44cf 09       		.byte	0x9
 12457 44d0 A4440000 		.4byte	0x44a4
 12458 44d4 21       		.uleb128 0x21
 12459 44d5 07       		.byte	0x7
 12460 44d6 01       		.byte	0x1
 12461 44d7 6C000000 		.4byte	0x6c
 12462 44db 42       		.byte	0x42
 12463 44dc 0B       		.byte	0xb
 12464 44dd 12450000 		.4byte	0x4512
 12465 44e1 22       		.uleb128 0x22
 12466 44e2 32160000 		.4byte	.LASF913
 12467 44e6 00       		.byte	0
 12468 44e7 22       		.uleb128 0x22
 12469 44e8 7A270000 		.4byte	.LASF914
 12470 44ec 01       		.byte	0x1
 12471 44ed 22       		.uleb128 0x22
 12472 44ee FF1F0000 		.4byte	.LASF915
 12473 44f2 02       		.byte	0x2
 12474 44f3 22       		.uleb128 0x22
 12475 44f4 61150000 		.4byte	.LASF916
 12476 44f8 03       		.byte	0x3
 12477 44f9 22       		.uleb128 0x22
 12478 44fa B21F0000 		.4byte	.LASF917
 12479 44fe 04       		.byte	0x4
 12480 44ff 22       		.uleb128 0x22
 12481 4500 5E0F0000 		.4byte	.LASF918
 12482 4504 05       		.byte	0x5
 12483 4505 22       		.uleb128 0x22
 12484 4506 54150000 		.4byte	.LASF919
 12485 450a 06       		.byte	0x6
 12486 450b 22       		.uleb128 0x22
 12487 450c C2240000 		.4byte	.LASF920
 12488 4510 07       		.byte	0x7
 12489 4511 00       		.byte	0
 12490 4512 04       		.uleb128 0x4
 12491 4513 6B1A0000 		.4byte	.LASF921
 12492 4517 42       		.byte	0x42
 12493 4518 16       		.byte	0x16
 12494 4519 D4440000 		.4byte	0x44d4
 12495 451d 21       		.uleb128 0x21
ARM GAS  C:\Users\JEANCO~1\AppData\Local\Temp\ccxhVNGN.s 			page 221


 12496 451e 07       		.byte	0x7
 12497 451f 01       		.byte	0x1
 12498 4520 6C000000 		.4byte	0x6c
 12499 4524 42       		.byte	0x42
 12500 4525 18       		.byte	0x18
 12501 4526 43450000 		.4byte	0x4543
 12502 452a 22       		.uleb128 0x22
 12503 452b 43210000 		.4byte	.LASF922
 12504 452f 00       		.byte	0
 12505 4530 22       		.uleb128 0x22
 12506 4531 91240000 		.4byte	.LASF923
 12507 4535 01       		.byte	0x1
 12508 4536 22       		.uleb128 0x22
 12509 4537 060C0000 		.4byte	.LASF924
 12510 453b 02       		.byte	0x2
 12511 453c 22       		.uleb128 0x22
 12512 453d 19160000 		.4byte	.LASF925
 12513 4541 03       		.byte	0x3
 12514 4542 00       		.byte	0
 12515 4543 04       		.uleb128 0x4
 12516 4544 C9160000 		.4byte	.LASF926
 12517 4548 42       		.byte	0x42
 12518 4549 1D       		.byte	0x1d
 12519 454a 1D450000 		.4byte	0x451d
 12520 454e 21       		.uleb128 0x21
 12521 454f 07       		.byte	0x7
 12522 4550 01       		.byte	0x1
 12523 4551 6C000000 		.4byte	0x6c
 12524 4555 42       		.byte	0x42
 12525 4556 1F       		.byte	0x1f
 12526 4557 86450000 		.4byte	0x4586
 12527 455b 22       		.uleb128 0x22
 12528 455c 58020000 		.4byte	.LASF927
 12529 4560 00       		.byte	0
 12530 4561 22       		.uleb128 0x22
 12531 4562 4A270000 		.4byte	.LASF928
 12532 4566 01       		.byte	0x1
 12533 4567 22       		.uleb128 0x22
 12534 4568 54220000 		.4byte	.LASF929
 12535 456c 02       		.byte	0x2
 12536 456d 22       		.uleb128 0x22
 12537 456e 24130000 		.4byte	.LASF930
 12538 4572 03       		.byte	0x3
 12539 4573 22       		.uleb128 0x22
 12540 4574 28010000 		.4byte	.LASF931
 12541 4578 04       		.byte	0x4
 12542 4579 22       		.uleb128 0x22
 12543 457a 38290000 		.4byte	.LASF932
 12544 457e 05       		.byte	0x5
 12545 457f 22       		.uleb128 0x22
 12546 4580 A8250000 		.4byte	.LASF933
 12547 4584 06       		.byte	0x6
 12548 4585 00       		.byte	0
 12549 4586 04       		.uleb128 0x4
 12550 4587 C6060000 		.4byte	.LASF934
 12551 458b 42       		.byte	0x42
 12552 458c 2A       		.byte	0x2a
ARM GAS  C:\Users\JEANCO~1\AppData\Local\Temp\ccxhVNGN.s 			page 222


 12553 458d 4E450000 		.4byte	0x454e
 12554 4591 30       		.uleb128 0x30
 12555 4592 031B0000 		.4byte	.LASF1060
 12556 4596 05       		.byte	0x5
 12557 4597 01       		.byte	0x1
 12558 4598 5A000000 		.4byte	0x5a
 12559 459c 43       		.byte	0x43
 12560 459d 8202     		.2byte	0x282
 12561 459f BC450000 		.4byte	0x45bc
 12562 45a3 31       		.uleb128 0x31
 12563 45a4 64180000 		.4byte	.LASF935
 12564 45a8 7F       		.sleb128 -1
 12565 45a9 22       		.uleb128 0x22
 12566 45aa EA020000 		.4byte	.LASF936
 12567 45ae 00       		.byte	0
 12568 45af 22       		.uleb128 0x22
 12569 45b0 9F220000 		.4byte	.LASF937
 12570 45b4 01       		.byte	0x1
 12571 45b5 22       		.uleb128 0x22
 12572 45b6 140A0000 		.4byte	.LASF938
 12573 45ba 02       		.byte	0x2
 12574 45bb 00       		.byte	0
 12575 45bc 15       		.uleb128 0x15
 12576 45bd CE2A0000 		.4byte	.LASF939
 12577 45c1 43       		.byte	0x43
 12578 45c2 8D02     		.2byte	0x28d
 12579 45c4 91450000 		.4byte	0x4591
 12580 45c8 21       		.uleb128 0x21
 12581 45c9 07       		.byte	0x7
 12582 45ca 01       		.byte	0x1
 12583 45cb 6C000000 		.4byte	0x6c
 12584 45cf 44       		.byte	0x44
 12585 45d0 0D       		.byte	0xd
 12586 45d1 F4450000 		.4byte	0x45f4
 12587 45d5 22       		.uleb128 0x22
 12588 45d6 601F0000 		.4byte	.LASF940
 12589 45da 00       		.byte	0
 12590 45db 22       		.uleb128 0x22
 12591 45dc 651F0000 		.4byte	.LASF941
 12592 45e0 01       		.byte	0x1
 12593 45e1 22       		.uleb128 0x22
 12594 45e2 6A1F0000 		.4byte	.LASF942
 12595 45e6 02       		.byte	0x2
 12596 45e7 22       		.uleb128 0x22
 12597 45e8 6F1F0000 		.4byte	.LASF943
 12598 45ec 03       		.byte	0x3
 12599 45ed 22       		.uleb128 0x22
 12600 45ee E9130000 		.4byte	.LASF944
 12601 45f2 04       		.byte	0x4
 12602 45f3 00       		.byte	0
 12603 45f4 32       		.uleb128 0x32
 12604 45f5 4A160000 		.4byte	.LASF945
 12605 45f9 01       		.byte	0x1
 12606 45fa 12       		.byte	0x12
 12607 45fb 77120000 		.4byte	0x1277
 12608 45ff 05       		.uleb128 0x5
 12609 4600 03       		.byte	0x3
ARM GAS  C:\Users\JEANCO~1\AppData\Local\Temp\ccxhVNGN.s 			page 223


 12610 4601 00000000 		.4byte	sendToComputer_sem
 12611 4605 32       		.uleb128 0x32
 12612 4606 DD010000 		.4byte	.LASF946
 12613 460a 01       		.byte	0x1
 12614 460b 16       		.byte	0x16
 12615 460c 2C000000 		.4byte	0x2c
 12616 4610 05       		.uleb128 0x5
 12617 4611 03       		.byte	0x3
 12618 4612 00000000 		.4byte	angle
 12619 4616 33       		.uleb128 0x33
 12620 4617 89230000 		.4byte	.LASF947
 12621 461b 01       		.byte	0x1
 12622 461c 17       		.byte	0x17
 12623 461d 33000000 		.4byte	0x33
 12624 4621 33       		.uleb128 0x33
 12625 4622 F8290000 		.4byte	.LASF948
 12626 4626 01       		.byte	0x1
 12627 4627 18       		.byte	0x18
 12628 4628 2C000000 		.4byte	0x2c
 12629 462c 32       		.uleb128 0x32
 12630 462d 8F120000 		.4byte	.LASF949
 12631 4631 01       		.byte	0x1
 12632 4632 19       		.byte	0x19
 12633 4633 2C000000 		.4byte	0x2c
 12634 4637 05       		.uleb128 0x5
 12635 4638 03       		.byte	0x3
 12636 4639 00000000 		.4byte	nbr_passage
 12637 463d 33       		.uleb128 0x33
 12638 463e DD1E0000 		.4byte	.LASF950
 12639 4642 01       		.byte	0x1
 12640 4643 1C       		.byte	0x1c
 12641 4644 CD000000 		.4byte	0xcd
 12642 4648 13       		.uleb128 0x13
 12643 4649 2C000000 		.4byte	0x2c
 12644 464d 5E460000 		.4byte	0x465e
 12645 4651 14       		.uleb128 0x14
 12646 4652 45000000 		.4byte	0x45
 12647 4656 03       		.byte	0x3
 12648 4657 14       		.uleb128 0x14
 12649 4658 45000000 		.4byte	0x45
 12650 465c 03       		.byte	0x3
 12651 465d 00       		.byte	0
 12652 465e 32       		.uleb128 0x32
 12653 465f 7E040000 		.4byte	.LASF951
 12654 4663 01       		.byte	0x1
 12655 4664 1F       		.byte	0x1f
 12656 4665 48460000 		.4byte	0x4648
 12657 4669 05       		.uleb128 0x5
 12658 466a 03       		.byte	0x3
 12659 466b 00000000 		.4byte	moyenne
 12660 466f 13       		.uleb128 0x13
 12661 4670 25000000 		.4byte	0x25
 12662 4674 80460000 		.4byte	0x4680
 12663 4678 29       		.uleb128 0x29
 12664 4679 45000000 		.4byte	0x45
 12665 467d FF07     		.2byte	0x7ff
 12666 467f 00       		.byte	0
ARM GAS  C:\Users\JEANCO~1\AppData\Local\Temp\ccxhVNGN.s 			page 224


 12667 4680 32       		.uleb128 0x32
 12668 4681 2F040000 		.4byte	.LASF952
 12669 4685 01       		.byte	0x1
 12670 4686 22       		.byte	0x22
 12671 4687 6F460000 		.4byte	0x466f
 12672 468b 05       		.uleb128 0x5
 12673 468c 03       		.byte	0x3
 12674 468d 00000000 		.4byte	micLeft_cmplx_input
 12675 4691 32       		.uleb128 0x32
 12676 4692 FA250000 		.4byte	.LASF953
 12677 4696 01       		.byte	0x1
 12678 4697 23       		.byte	0x23
 12679 4698 6F460000 		.4byte	0x466f
 12680 469c 05       		.uleb128 0x5
 12681 469d 03       		.byte	0x3
 12682 469e 00000000 		.4byte	micRight_cmplx_input
 12683 46a2 32       		.uleb128 0x32
 12684 46a3 6E170000 		.4byte	.LASF954
 12685 46a7 01       		.byte	0x1
 12686 46a8 24       		.byte	0x24
 12687 46a9 6F460000 		.4byte	0x466f
 12688 46ad 05       		.uleb128 0x5
 12689 46ae 03       		.byte	0x3
 12690 46af 00000000 		.4byte	micFront_cmplx_input
 12691 46b3 32       		.uleb128 0x32
 12692 46b4 160E0000 		.4byte	.LASF955
 12693 46b8 01       		.byte	0x1
 12694 46b9 25       		.byte	0x25
 12695 46ba 6F460000 		.4byte	0x466f
 12696 46be 05       		.uleb128 0x5
 12697 46bf 03       		.byte	0x3
 12698 46c0 00000000 		.4byte	micBack_cmplx_input
 12699 46c4 13       		.uleb128 0x13
 12700 46c5 25000000 		.4byte	0x25
 12701 46c9 D5460000 		.4byte	0x46d5
 12702 46cd 29       		.uleb128 0x29
 12703 46ce 45000000 		.4byte	0x45
 12704 46d2 FF03     		.2byte	0x3ff
 12705 46d4 00       		.byte	0
 12706 46d5 32       		.uleb128 0x32
 12707 46d6 C40A0000 		.4byte	.LASF956
 12708 46da 01       		.byte	0x1
 12709 46db 27       		.byte	0x27
 12710 46dc C4460000 		.4byte	0x46c4
 12711 46e0 05       		.uleb128 0x5
 12712 46e1 03       		.byte	0x3
 12713 46e2 00000000 		.4byte	micLeft_output
 12714 46e6 32       		.uleb128 0x32
 12715 46e7 D5280000 		.4byte	.LASF957
 12716 46eb 01       		.byte	0x1
 12717 46ec 28       		.byte	0x28
 12718 46ed C4460000 		.4byte	0x46c4
 12719 46f1 05       		.uleb128 0x5
 12720 46f2 03       		.byte	0x3
 12721 46f3 00000000 		.4byte	micRight_output
 12722 46f7 32       		.uleb128 0x32
 12723 46f8 B9050000 		.4byte	.LASF958
ARM GAS  C:\Users\JEANCO~1\AppData\Local\Temp\ccxhVNGN.s 			page 225


 12724 46fc 01       		.byte	0x1
 12725 46fd 29       		.byte	0x29
 12726 46fe C4460000 		.4byte	0x46c4
 12727 4702 05       		.uleb128 0x5
 12728 4703 03       		.byte	0x3
 12729 4704 00000000 		.4byte	micFront_output
 12730 4708 32       		.uleb128 0x32
 12731 4709 A2050000 		.4byte	.LASF959
 12732 470d 01       		.byte	0x1
 12733 470e 2A       		.byte	0x2a
 12734 470f C4460000 		.4byte	0x46c4
 12735 4713 05       		.uleb128 0x5
 12736 4714 03       		.byte	0x3
 12737 4715 00000000 		.4byte	micBack_output
 12738 4719 32       		.uleb128 0x32
 12739 471a 412C0000 		.4byte	.LASF960
 12740 471e 01       		.byte	0x1
 12741 471f 2B       		.byte	0x2b
 12742 4720 4A1B0000 		.4byte	0x1b4a
 12743 4724 05       		.uleb128 0x5
 12744 4725 03       		.byte	0x3
 12745 4726 00000000 		.4byte	coeff_capteur
 12746 472a 13       		.uleb128 0x13
 12747 472b 8C0D0000 		.4byte	0xd8c
 12748 472f 3A470000 		.4byte	0x473a
 12749 4733 14       		.uleb128 0x14
 12750 4734 45000000 		.4byte	0x45
 12751 4738 4E       		.byte	0x4e
 12752 4739 00       		.byte	0
 12753 473a 34       		.uleb128 0x34
 12754 473b E4180000 		.4byte	.LASF961
 12755 473f 01       		.byte	0x1
 12756 4740 8302     		.2byte	0x283
 12757 4742 2A470000 		.4byte	0x472a
 12758 4746 05       		.uleb128 0x5
 12759 4747 03       		.byte	0x3
 12760 4748 00000000 		.4byte	waPiRegulator
 12761 474c 35       		.uleb128 0x35
 12762 474d 470E0000 		.4byte	.LASF1061
 12763 4751 01       		.byte	0x1
 12764 4752 4103     		.2byte	0x341
 12765 4754 01       		.byte	0x1
 12766 4755 66470000 		.4byte	0x4766
 12767 4759 36       		.uleb128 0x36
 12768 475a 6B0A0000 		.4byte	.LASF975
 12769 475e 01       		.byte	0x1
 12770 475f 4103     		.2byte	0x341
 12771 4761 2C000000 		.4byte	0x2c
 12772 4765 00       		.byte	0
 12773 4766 37       		.uleb128 0x37
 12774 4767 4D1B0000 		.4byte	.LASF984
 12775 476b 01       		.byte	0x1
 12776 476c 0A03     		.2byte	0x30a
 12777 476e 86450000 		.4byte	0x4586
 12778 4772 00000000 		.4byte	.LFB308
 12779 4776 08010000 		.4byte	.LFE308-.LFB308
 12780 477a 01       		.uleb128 0x1
ARM GAS  C:\Users\JEANCO~1\AppData\Local\Temp\ccxhVNGN.s 			page 226


 12781 477b 9C       		.byte	0x9c
 12782 477c CA470000 		.4byte	0x47ca
 12783 4780 38       		.uleb128 0x38
 12784 4781 6A2B0000 		.4byte	.LASF962
 12785 4785 01       		.byte	0x1
 12786 4786 0A03     		.2byte	0x30a
 12787 4788 2C000000 		.4byte	0x2c
 12788 478c 00000000 		.4byte	.LLST78
 12789 4790 38       		.uleb128 0x38
 12790 4791 FA150000 		.4byte	.LASF963
 12791 4795 01       		.byte	0x1
 12792 4796 0A03     		.2byte	0x30a
 12793 4798 2C000000 		.4byte	0x2c
 12794 479c 2C010000 		.4byte	.LLST79
 12795 47a0 39       		.uleb128 0x39
 12796 47a1 C2010000 		.4byte	.LASF964
 12797 47a5 01       		.byte	0x1
 12798 47a6 0B03     		.2byte	0x30b
 12799 47a8 2C000000 		.4byte	0x2c
 12800 47ac 66010000 		.4byte	.LLST80
 12801 47b0 39       		.uleb128 0x39
 12802 47b1 8D1B0000 		.4byte	.LASF965
 12803 47b5 01       		.byte	0x1
 12804 47b6 0C03     		.2byte	0x30c
 12805 47b8 2C000000 		.4byte	0x2c
 12806 47bc C8010000 		.4byte	.LLST81
 12807 47c0 3A       		.uleb128 0x3a
 12808 47c1 FA000000 		.4byte	.LVL297
 12809 47c5 B15C0000 		.4byte	0x5cb1
 12810 47c9 00       		.byte	0
 12811 47ca 3B       		.uleb128 0x3b
 12812 47cb 222B0000 		.4byte	.LASF1062
 12813 47cf 01       		.byte	0x1
 12814 47d0 0603     		.2byte	0x306
 12815 47d2 00000000 		.4byte	.LFB307
 12816 47d6 38000000 		.4byte	.LFE307-.LFB307
 12817 47da 01       		.uleb128 0x1
 12818 47db 9C       		.byte	0x9c
 12819 47dc 1D480000 		.4byte	0x481d
 12820 47e0 3C       		.uleb128 0x3c
 12821 47e1 1C000000 		.4byte	.LVL264
 12822 47e5 BA5C0000 		.4byte	0x5cba
 12823 47e9 13480000 		.4byte	0x4813
 12824 47ed 3D       		.uleb128 0x3d
 12825 47ee 01       		.uleb128 0x1
 12826 47ef 50       		.byte	0x50
 12827 47f0 05       		.uleb128 0x5
 12828 47f1 03       		.byte	0x3
 12829 47f2 00000000 		.4byte	.LANCHOR8
 12830 47f6 3D       		.uleb128 0x3d
 12831 47f7 01       		.uleb128 0x1
 12832 47f8 51       		.byte	0x51
 12833 47f9 03       		.uleb128 0x3
 12834 47fa 0A       		.byte	0xa
 12835 47fb 7802     		.2byte	0x278
 12836 47fd 3D       		.uleb128 0x3d
 12837 47fe 01       		.uleb128 0x1
ARM GAS  C:\Users\JEANCO~1\AppData\Local\Temp\ccxhVNGN.s 			page 227


 12838 47ff 52       		.byte	0x52
 12839 4800 02       		.uleb128 0x2
 12840 4801 08       		.byte	0x8
 12841 4802 40       		.byte	0x40
 12842 4803 3D       		.uleb128 0x3d
 12843 4804 01       		.uleb128 0x1
 12844 4805 53       		.byte	0x53
 12845 4806 05       		.uleb128 0x5
 12846 4807 03       		.byte	0x3
 12847 4808 00000000 		.4byte	PiRegulator
 12848 480c 3D       		.uleb128 0x3d
 12849 480d 02       		.uleb128 0x2
 12850 480e 7D       		.byte	0x7d
 12851 480f 00       		.sleb128 0
 12852 4810 01       		.uleb128 0x1
 12853 4811 30       		.byte	0x30
 12854 4812 00       		.byte	0
 12855 4813 3A       		.uleb128 0x3a
 12856 4814 2C000000 		.4byte	.LVL265
 12857 4818 B15C0000 		.4byte	0x5cb1
 12858 481c 00       		.byte	0
 12859 481d 3E       		.uleb128 0x3e
 12860 481e 411B0000 		.4byte	.LASF1063
 12861 4822 01       		.byte	0x1
 12862 4823 8402     		.2byte	0x284
 12863 4825 00000000 		.4byte	.LFB306
 12864 4829 40030000 		.4byte	.LFE306-.LFB306
 12865 482d 01       		.uleb128 0x1
 12866 482e 9C       		.byte	0x9c
 12867 482f 464D0000 		.4byte	0x4d46
 12868 4833 3F       		.uleb128 0x3f
 12869 4834 61726700 		.ascii	"arg\000"
 12870 4838 01       		.byte	0x1
 12871 4839 8402     		.2byte	0x284
 12872 483b C8030000 		.4byte	0x3c8
 12873 483f 2A020000 		.4byte	.LLST84
 12874 4843 40       		.uleb128 0x40
 12875 4844 5E070000 		.4byte	.LASF966
 12876 4848 564D0000 		.4byte	0x4d56
 12877 484c 05       		.uleb128 0x5
 12878 484d 03       		.byte	0x3
 12879 484e 00000000 		.4byte	__FUNCTION__.14365
 12880 4852 41       		.uleb128 0x41
 12881 4853 660D0000 		.4byte	.LASF967
 12882 4857 01       		.byte	0x1
 12883 4858 8902     		.2byte	0x289
 12884 485a A7010000 		.4byte	0x1a7
 12885 485e 39       		.uleb128 0x39
 12886 485f 851A0000 		.4byte	.LASF968
 12887 4863 01       		.byte	0x1
 12888 4864 8A02     		.2byte	0x28a
 12889 4866 25000000 		.4byte	0x25
 12890 486a 4B020000 		.4byte	.LLST85
 12891 486e 39       		.uleb128 0x39
 12892 486f AE220000 		.4byte	.LASF969
 12893 4873 01       		.byte	0x1
 12894 4874 8B02     		.2byte	0x28b
ARM GAS  C:\Users\JEANCO~1\AppData\Local\Temp\ccxhVNGN.s 			page 228


 12895 4876 DD000000 		.4byte	0xdd
 12896 487a 6F020000 		.4byte	.LLST86
 12897 487e 39       		.uleb128 0x39
 12898 487f CC1E0000 		.4byte	.LASF970
 12899 4883 01       		.byte	0x1
 12900 4884 8C02     		.2byte	0x28c
 12901 4886 DD000000 		.4byte	0xdd
 12902 488a 83020000 		.4byte	.LLST87
 12903 488e 39       		.uleb128 0x39
 12904 488f 911D0000 		.4byte	.LASF971
 12905 4893 01       		.byte	0x1
 12906 4894 8D02     		.2byte	0x28d
 12907 4896 F3000000 		.4byte	0xf3
 12908 489a A2020000 		.4byte	.LLST88
 12909 489e 42       		.uleb128 0x42
 12910 489f DA270000 		.4byte	.LASF972
 12911 48a3 01       		.byte	0x1
 12912 48a4 8E02     		.2byte	0x28e
 12913 48a6 DD000000 		.4byte	0xdd
 12914 48aa 00       		.byte	0
 12915 48ab 39       		.uleb128 0x39
 12916 48ac 592B0000 		.4byte	.LASF973
 12917 48b0 01       		.byte	0x1
 12918 48b1 8F02     		.2byte	0x28f
 12919 48b3 F3000000 		.4byte	0xf3
 12920 48b7 C1020000 		.4byte	.LLST89
 12921 48bb 39       		.uleb128 0x39
 12922 48bc B4080000 		.4byte	.LASF974
 12923 48c0 01       		.byte	0x1
 12924 48c1 9002     		.2byte	0x290
 12925 48c3 33000000 		.4byte	0x33
 12926 48c7 FA020000 		.4byte	.LLST90
 12927 48cb 43       		.uleb128 0x43
 12928 48cc B8030000 		.4byte	.Ldebug_ranges0+0x3b8
 12929 48d0 2F4D0000 		.4byte	0x4d2f
 12930 48d4 39       		.uleb128 0x39
 12931 48d5 DD010000 		.4byte	.LASF946
 12932 48d9 01       		.byte	0x1
 12933 48da AC02     		.2byte	0x2ac
 12934 48dc 2C000000 		.4byte	0x2c
 12935 48e0 16030000 		.4byte	.LLST91
 12936 48e4 39       		.uleb128 0x39
 12937 48e5 6B0A0000 		.4byte	.LASF975
 12938 48e9 01       		.byte	0x1
 12939 48ea BE02     		.2byte	0x2be
 12940 48ec 86450000 		.4byte	0x4586
 12941 48f0 29030000 		.4byte	.LLST92
 12942 48f4 41       		.uleb128 0x41
 12943 48f5 5C0B0000 		.4byte	.LASF976
 12944 48f9 01       		.byte	0x1
 12945 48fa C302     		.2byte	0x2c3
 12946 48fc 5B4D0000 		.4byte	0x4d5b
 12947 4900 44       		.uleb128 0x44
 12948 4901 C8100000 		.4byte	.LASF988
 12949 4905 01       		.byte	0x1
 12950 4906 C302     		.2byte	0x2c3
 12951 4908 2C000000 		.4byte	0x2c
ARM GAS  C:\Users\JEANCO~1\AppData\Local\Temp\ccxhVNGN.s 			page 229


 12952 490c 12490000 		.4byte	0x4912
 12953 4910 45       		.uleb128 0x45
 12954 4911 00       		.byte	0
 12955 4912 43       		.uleb128 0x43
 12956 4913 D8050000 		.4byte	.Ldebug_ranges0+0x5d8
 12957 4917 2A490000 		.4byte	0x492a
 12958 491b 46       		.uleb128 0x46
 12959 491c 6900     		.ascii	"i\000"
 12960 491e 01       		.byte	0x1
 12961 491f C402     		.2byte	0x2c4
 12962 4921 CD000000 		.4byte	0xcd
 12963 4925 52030000 		.4byte	.LLST100
 12964 4929 00       		.byte	0
 12965 492a 43       		.uleb128 0x43
 12966 492b F0050000 		.4byte	.Ldebug_ranges0+0x5f0
 12967 492f D8490000 		.4byte	0x49d8
 12968 4933 39       		.uleb128 0x39
 12969 4934 180C0000 		.4byte	.LASF977
 12970 4938 01       		.byte	0x1
 12971 4939 D202     		.2byte	0x2d2
 12972 493b 2C000000 		.4byte	0x2c
 12973 493f B2030000 		.4byte	.LLST101
 12974 4943 41       		.uleb128 0x41
 12975 4944 C4070000 		.4byte	.LASF978
 12976 4948 01       		.byte	0x1
 12977 4949 D302     		.2byte	0x2d3
 12978 494b CD000000 		.4byte	0xcd
 12979 494f 47       		.uleb128 0x47
 12980 4950 28020000 		.4byte	.LBB523
 12981 4954 04000000 		.4byte	.LBE523-.LBB523
 12982 4958 67490000 		.4byte	0x4967
 12983 495c 48       		.uleb128 0x48
 12984 495d 6900     		.ascii	"i\000"
 12985 495f 01       		.byte	0x1
 12986 4960 D502     		.2byte	0x2d5
 12987 4962 CD000000 		.4byte	0xcd
 12988 4966 00       		.byte	0
 12989 4967 47       		.uleb128 0x47
 12990 4968 30020000 		.4byte	.LBB524
 12991 496c 4A000000 		.4byte	.LBE524-.LBB524
 12992 4970 B3490000 		.4byte	0x49b3
 12993 4974 39       		.uleb128 0x39
 12994 4975 E3220000 		.4byte	.LASF979
 12995 4979 01       		.byte	0x1
 12996 497a E202     		.2byte	0x2e2
 12997 497c 2C000000 		.4byte	0x2c
 12998 4980 D3030000 		.4byte	.LLST102
 12999 4984 39       		.uleb128 0x39
 13000 4985 C1000000 		.4byte	.LASF980
 13001 4989 01       		.byte	0x1
 13002 498a E302     		.2byte	0x2e3
 13003 498c 2C000000 		.4byte	0x2c
 13004 4990 D3030000 		.4byte	.LLST102
 13005 4994 3A       		.uleb128 0x3a
 13006 4995 68020000 		.4byte	.LVL364
 13007 4999 C55C0000 		.4byte	0x5cc5
 13008 499d 49       		.uleb128 0x49
ARM GAS  C:\Users\JEANCO~1\AppData\Local\Temp\ccxhVNGN.s 			page 230


 13009 499e 78020000 		.4byte	.LVL365
 13010 49a2 D05C0000 		.4byte	0x5cd0
 13011 49a6 3D       		.uleb128 0x3d
 13012 49a7 01       		.uleb128 0x1
 13013 49a8 50       		.byte	0x50
 13014 49a9 07       		.uleb128 0x7
 13015 49aa F5       		.byte	0xf5
 13016 49ab 52       		.uleb128 0x52
 13017 49ac 25       		.uleb128 0x25
 13018 49ad F7       		.byte	0xf7
 13019 49ae 2C       		.uleb128 0x2c
 13020 49af F7       		.byte	0xf7
 13021 49b0 00       		.uleb128 0
 13022 49b1 00       		.byte	0
 13023 49b2 00       		.byte	0
 13024 49b3 3C       		.uleb128 0x3c
 13025 49b4 9A020000 		.4byte	.LVL370
 13026 49b8 C55C0000 		.4byte	0x5cc5
 13027 49bc C7490000 		.4byte	0x49c7
 13028 49c0 3D       		.uleb128 0x3d
 13029 49c1 01       		.uleb128 0x1
 13030 49c2 50       		.byte	0x50
 13031 49c3 02       		.uleb128 0x2
 13032 49c4 7A       		.byte	0x7a
 13033 49c5 00       		.sleb128 0
 13034 49c6 00       		.byte	0
 13035 49c7 49       		.uleb128 0x49
 13036 49c8 A0020000 		.4byte	.LVL371
 13037 49cc D05C0000 		.4byte	0x5cd0
 13038 49d0 3D       		.uleb128 0x3d
 13039 49d1 01       		.uleb128 0x1
 13040 49d2 50       		.byte	0x50
 13041 49d3 02       		.uleb128 0x2
 13042 49d4 76       		.byte	0x76
 13043 49d5 00       		.sleb128 0
 13044 49d6 00       		.byte	0
 13045 49d7 00       		.byte	0
 13046 49d8 4A       		.uleb128 0x4a
 13047 49d9 09580000 		.4byte	0x5809
 13048 49dd 26000000 		.4byte	.LBB424
 13049 49e1 38000000 		.4byte	.LBE424-.LBB424
 13050 49e5 01       		.byte	0x1
 13051 49e6 9502     		.2byte	0x295
 13052 49e8 D34A0000 		.4byte	0x4ad3
 13053 49ec 4B       		.uleb128 0x4b
 13054 49ed 26000000 		.4byte	.LBB425
 13055 49f1 38000000 		.4byte	.LBE425-.LBB425
 13056 49f5 4C       		.uleb128 0x4c
 13057 49f6 19580000 		.4byte	0x5819
 13058 49fa 4D       		.uleb128 0x4d
 13059 49fb 4C580000 		.4byte	0x584c
 13060 49ff 26000000 		.4byte	.LBB426
 13061 4a03 D8030000 		.4byte	.Ldebug_ranges0+0x3d8
 13062 4a07 06       		.byte	0x6
 13063 4a08 FA       		.byte	0xfa
 13064 4a09 4F4A0000 		.4byte	0x4a4f
 13065 4a0d 4A       		.uleb128 0x4a
ARM GAS  C:\Users\JEANCO~1\AppData\Local\Temp\ccxhVNGN.s 			page 231


 13066 4a0e 5E580000 		.4byte	0x585e
 13067 4a12 26000000 		.4byte	.LBB428
 13068 4a16 06000000 		.4byte	.LBE428-.LBB428
 13069 4a1a 04       		.byte	0x4
 13070 4a1b 5C01     		.2byte	0x15c
 13071 4a1d 3C4A0000 		.4byte	0x4a3c
 13072 4a21 4E       		.uleb128 0x4e
 13073 4a22 67580000 		.4byte	0x5867
 13074 4a26 26000000 		.4byte	.LBB429
 13075 4a2a 06000000 		.4byte	.LBE429-.LBB429
 13076 4a2e 11       		.byte	0x11
 13077 4a2f BF01     		.2byte	0x1bf
 13078 4a31 4F       		.uleb128 0x4f
 13079 4a32 74580000 		.4byte	0x5874
 13080 4a36 E7030000 		.4byte	.LLST93
 13081 4a3a 00       		.byte	0
 13082 4a3b 00       		.byte	0
 13083 4a3c 3A       		.uleb128 0x3a
 13084 4a3d 32000000 		.4byte	.LVL315
 13085 4a41 DB5C0000 		.4byte	0x5cdb
 13086 4a45 3A       		.uleb128 0x3a
 13087 4a46 36000000 		.4byte	.LVL316
 13088 4a4a E65C0000 		.4byte	0x5ce6
 13089 4a4e 00       		.byte	0
 13090 4a4f 50       		.uleb128 0x50
 13091 4a50 25580000 		.4byte	0x5825
 13092 4a54 2C000000 		.4byte	.LBB432
 13093 4a58 F0030000 		.4byte	.Ldebug_ranges0+0x3f0
 13094 4a5c 06       		.byte	0x6
 13095 4a5d FB       		.byte	0xfb
 13096 4a5e 51       		.uleb128 0x51
 13097 4a5f 31580000 		.4byte	0x5831
 13098 4a63 3A000000 		.4byte	.LBB437
 13099 4a67 24000000 		.4byte	.LBE437-.LBB437
 13100 4a6b 06       		.byte	0x6
 13101 4a6c FC       		.byte	0xfc
 13102 4a6d 4B       		.uleb128 0x4b
 13103 4a6e 3A000000 		.4byte	.LBB438
 13104 4a72 24000000 		.4byte	.LBE438-.LBB438
 13105 4a76 4C       		.uleb128 0x4c
 13106 4a77 3E580000 		.4byte	0x583e
 13107 4a7b 4A       		.uleb128 0x4a
 13108 4a7c 55580000 		.4byte	0x5855
 13109 4a80 58000000 		.4byte	.LBB439
 13110 4a84 06000000 		.4byte	.LBE439-.LBB439
 13111 4a88 04       		.byte	0x4
 13112 4a89 7301     		.2byte	0x173
 13113 4a8b AA4A0000 		.4byte	0x4aaa
 13114 4a8f 4E       		.uleb128 0x4e
 13115 4a90 67580000 		.4byte	0x5867
 13116 4a94 58000000 		.4byte	.LBB440
 13117 4a98 06000000 		.4byte	.LBE440-.LBB440
 13118 4a9c 11       		.byte	0x11
 13119 4a9d CD01     		.2byte	0x1cd
 13120 4a9f 4F       		.uleb128 0x4f
 13121 4aa0 74580000 		.4byte	0x5874
 13122 4aa4 FC030000 		.4byte	.LLST94
ARM GAS  C:\Users\JEANCO~1\AppData\Local\Temp\ccxhVNGN.s 			page 232


 13123 4aa8 00       		.byte	0
 13124 4aa9 00       		.byte	0
 13125 4aaa 3A       		.uleb128 0x3a
 13126 4aab 3E000000 		.4byte	.LVL317
 13127 4aaf F15C0000 		.4byte	0x5cf1
 13128 4ab3 3A       		.uleb128 0x3a
 13129 4ab4 42000000 		.4byte	.LVL318
 13130 4ab8 FC5C0000 		.4byte	0x5cfc
 13131 4abc 49       		.uleb128 0x49
 13132 4abd 58000000 		.4byte	.LVL319
 13133 4ac1 075D0000 		.4byte	0x5d07
 13134 4ac5 3D       		.uleb128 0x3d
 13135 4ac6 01       		.uleb128 0x1
 13136 4ac7 50       		.byte	0x50
 13137 4ac8 05       		.uleb128 0x5
 13138 4ac9 03       		.byte	0x3
 13139 4aca 00000000 		.4byte	.LANCHOR6
 13140 4ace 00       		.byte	0
 13141 4acf 00       		.byte	0
 13142 4ad0 00       		.byte	0
 13143 4ad1 00       		.byte	0
 13144 4ad2 00       		.byte	0
 13145 4ad3 52       		.uleb128 0x52
 13146 4ad4 F44F0000 		.4byte	0x4ff4
 13147 4ad8 5E000000 		.4byte	.LBB442
 13148 4adc 08040000 		.4byte	.Ldebug_ranges0+0x408
 13149 4ae0 01       		.byte	0x1
 13150 4ae1 9802     		.2byte	0x298
 13151 4ae3 074B0000 		.4byte	0x4b07
 13152 4ae7 53       		.uleb128 0x53
 13153 4ae8 05500000 		.4byte	0x5005
 13154 4aec 54       		.uleb128 0x54
 13155 4aed 08040000 		.4byte	.Ldebug_ranges0+0x408
 13156 4af1 4C       		.uleb128 0x4c
 13157 4af2 C8590000 		.4byte	0x59c8
 13158 4af6 55       		.uleb128 0x55
 13159 4af7 D1590000 		.4byte	0x59d1
 13160 4afb 30040000 		.4byte	.Ldebug_ranges0+0x430
 13161 4aff 4C       		.uleb128 0x4c
 13162 4b00 DA590000 		.4byte	0x59da
 13163 4b04 00       		.byte	0
 13164 4b05 00       		.byte	0
 13165 4b06 00       		.byte	0
 13166 4b07 52       		.uleb128 0x52
 13167 4b08 F44F0000 		.4byte	0x4ff4
 13168 4b0c 66000000 		.4byte	.LBB450
 13169 4b10 50040000 		.4byte	.Ldebug_ranges0+0x450
 13170 4b14 01       		.byte	0x1
 13171 4b15 9802     		.2byte	0x298
 13172 4b17 3B4B0000 		.4byte	0x4b3b
 13173 4b1b 53       		.uleb128 0x53
 13174 4b1c 05500000 		.4byte	0x5005
 13175 4b20 54       		.uleb128 0x54
 13176 4b21 50040000 		.4byte	.Ldebug_ranges0+0x450
 13177 4b25 4C       		.uleb128 0x4c
 13178 4b26 C8590000 		.4byte	0x59c8
 13179 4b2a 55       		.uleb128 0x55
ARM GAS  C:\Users\JEANCO~1\AppData\Local\Temp\ccxhVNGN.s 			page 233


 13180 4b2b D1590000 		.4byte	0x59d1
 13181 4b2f 90040000 		.4byte	.Ldebug_ranges0+0x490
 13182 4b33 4C       		.uleb128 0x4c
 13183 4b34 DA590000 		.4byte	0x59da
 13184 4b38 00       		.byte	0
 13185 4b39 00       		.byte	0
 13186 4b3a 00       		.byte	0
 13187 4b3b 52       		.uleb128 0x52
 13188 4b3c F44F0000 		.4byte	0x4ff4
 13189 4b40 68000000 		.4byte	.LBB464
 13190 4b44 C8040000 		.4byte	.Ldebug_ranges0+0x4c8
 13191 4b48 01       		.byte	0x1
 13192 4b49 9802     		.2byte	0x298
 13193 4b4b 6F4B0000 		.4byte	0x4b6f
 13194 4b4f 53       		.uleb128 0x53
 13195 4b50 05500000 		.4byte	0x5005
 13196 4b54 54       		.uleb128 0x54
 13197 4b55 C8040000 		.4byte	.Ldebug_ranges0+0x4c8
 13198 4b59 4C       		.uleb128 0x4c
 13199 4b5a C8590000 		.4byte	0x59c8
 13200 4b5e 55       		.uleb128 0x55
 13201 4b5f D1590000 		.4byte	0x59d1
 13202 4b63 00050000 		.4byte	.Ldebug_ranges0+0x500
 13203 4b67 4C       		.uleb128 0x4c
 13204 4b68 DA590000 		.4byte	0x59da
 13205 4b6c 00       		.byte	0
 13206 4b6d 00       		.byte	0
 13207 4b6e 00       		.byte	0
 13208 4b6f 52       		.uleb128 0x52
 13209 4b70 F44F0000 		.4byte	0x4ff4
 13210 4b74 7A000000 		.4byte	.LBB482
 13211 4b78 30050000 		.4byte	.Ldebug_ranges0+0x530
 13212 4b7c 01       		.byte	0x1
 13213 4b7d 9802     		.2byte	0x298
 13214 4b7f A74B0000 		.4byte	0x4ba7
 13215 4b83 4F       		.uleb128 0x4f
 13216 4b84 05500000 		.4byte	0x5005
 13217 4b88 10040000 		.4byte	.LLST95
 13218 4b8c 54       		.uleb128 0x54
 13219 4b8d 30050000 		.4byte	.Ldebug_ranges0+0x530
 13220 4b91 4C       		.uleb128 0x4c
 13221 4b92 C8590000 		.4byte	0x59c8
 13222 4b96 55       		.uleb128 0x55
 13223 4b97 D1590000 		.4byte	0x59d1
 13224 4b9b 70050000 		.4byte	.Ldebug_ranges0+0x570
 13225 4b9f 4C       		.uleb128 0x4c
 13226 4ba0 DA590000 		.4byte	0x59da
 13227 4ba4 00       		.byte	0
 13228 4ba5 00       		.byte	0
 13229 4ba6 00       		.byte	0
 13230 4ba7 4A       		.uleb128 0x4a
 13231 4ba8 BA500000 		.4byte	0x50ba
 13232 4bac 28010000 		.4byte	.LBB509
 13233 4bb0 16000000 		.4byte	.LBE509-.LBB509
 13234 4bb4 01       		.byte	0x1
 13235 4bb5 A702     		.2byte	0x2a7
 13236 4bb7 FA4B0000 		.4byte	0x4bfa
ARM GAS  C:\Users\JEANCO~1\AppData\Local\Temp\ccxhVNGN.s 			page 234


 13237 4bbb 4F       		.uleb128 0x4f
 13238 4bbc D7500000 		.4byte	0x50d7
 13239 4bc0 24040000 		.4byte	.LLST96
 13240 4bc4 4F       		.uleb128 0x4f
 13241 4bc5 CB500000 		.4byte	0x50cb
 13242 4bc9 39040000 		.4byte	.LLST97
 13243 4bcd 4B       		.uleb128 0x4b
 13244 4bce 28010000 		.4byte	.LBB510
 13245 4bd2 16000000 		.4byte	.LBE510-.LBB510
 13246 4bd6 4C       		.uleb128 0x4c
 13247 4bd7 87590000 		.4byte	0x5987
 13248 4bdb 4C       		.uleb128 0x4c
 13249 4bdc 90590000 		.4byte	0x5990
 13250 4be0 49       		.uleb128 0x49
 13251 4be1 30010000 		.4byte	.LVL333
 13252 4be5 135D0000 		.4byte	0x5d13
 13253 4be9 3D       		.uleb128 0x3d
 13254 4bea 08       		.uleb128 0x8
 13255 4beb 90       		.byte	0x90
 13256 4bec 40       		.uleb128 0x40
 13257 4bed 93       		.byte	0x93
 13258 4bee 04       		.uleb128 0x4
 13259 4bef 90       		.byte	0x90
 13260 4bf0 41       		.uleb128 0x41
 13261 4bf1 93       		.byte	0x93
 13262 4bf2 04       		.uleb128 0x4
 13263 4bf3 03       		.uleb128 0x3
 13264 4bf4 F5       		.byte	0xf5
 13265 4bf5 08       		.uleb128 0x8
 13266 4bf6 33       		.uleb128 0x33
 13267 4bf7 00       		.byte	0
 13268 4bf8 00       		.byte	0
 13269 4bf9 00       		.byte	0
 13270 4bfa 52       		.uleb128 0x52
 13271 4bfb 614D0000 		.4byte	0x4d61
 13272 4bff 46010000 		.4byte	.LBB511
 13273 4c03 A0050000 		.4byte	.Ldebug_ranges0+0x5a0
 13274 4c07 01       		.byte	0x1
 13275 4c08 A702     		.2byte	0x2a7
 13276 4c0a 364C0000 		.4byte	0x4c36
 13277 4c0e 4F       		.uleb128 0x4f
 13278 4c0f 7E4D0000 		.4byte	0x4d7e
 13279 4c13 4C040000 		.4byte	.LLST98
 13280 4c17 4F       		.uleb128 0x4f
 13281 4c18 724D0000 		.4byte	0x4d72
 13282 4c1c 84040000 		.4byte	.LLST99
 13283 4c20 54       		.uleb128 0x54
 13284 4c21 A0050000 		.4byte	.Ldebug_ranges0+0x5a0
 13285 4c25 4C       		.uleb128 0x4c
 13286 4c26 4D5C0000 		.4byte	0x5c4d
 13287 4c2a 4C       		.uleb128 0x4c
 13288 4c2b 565C0000 		.4byte	0x5c56
 13289 4c2f 4C       		.uleb128 0x4c
 13290 4c30 5F5C0000 		.4byte	0x5c5f
 13291 4c34 00       		.byte	0
 13292 4c35 00       		.byte	0
 13293 4c36 56       		.uleb128 0x56
ARM GAS  C:\Users\JEANCO~1\AppData\Local\Temp\ccxhVNGN.s 			page 235


 13294 4c37 D34D0000 		.4byte	0x4dd3
 13295 4c3b 9A010000 		.4byte	.LBB515
 13296 4c3f C0050000 		.4byte	.Ldebug_ranges0+0x5c0
 13297 4c43 01       		.byte	0x1
 13298 4c44 AC02     		.2byte	0x2ac
 13299 4c46 4A       		.uleb128 0x4a
 13300 4c47 BA500000 		.4byte	0x50ba
 13301 4c4b CA020000 		.4byte	.LBB526
 13302 4c4f 0A000000 		.4byte	.LBE526-.LBB526
 13303 4c53 01       		.byte	0x1
 13304 4c54 A202     		.2byte	0x2a2
 13305 4c56 994C0000 		.4byte	0x4c99
 13306 4c5a 4F       		.uleb128 0x4f
 13307 4c5b D7500000 		.4byte	0x50d7
 13308 4c5f AD040000 		.4byte	.LLST104
 13309 4c63 4F       		.uleb128 0x4f
 13310 4c64 CB500000 		.4byte	0x50cb
 13311 4c68 C2040000 		.4byte	.LLST105
 13312 4c6c 4B       		.uleb128 0x4b
 13313 4c6d CA020000 		.4byte	.LBB527
 13314 4c71 0A000000 		.4byte	.LBE527-.LBB527
 13315 4c75 4C       		.uleb128 0x4c
 13316 4c76 87590000 		.4byte	0x5987
 13317 4c7a 4C       		.uleb128 0x4c
 13318 4c7b 90590000 		.4byte	0x5990
 13319 4c7f 49       		.uleb128 0x49
 13320 4c80 D2020000 		.4byte	.LVL376
 13321 4c84 135D0000 		.4byte	0x5d13
 13322 4c88 3D       		.uleb128 0x3d
 13323 4c89 08       		.uleb128 0x8
 13324 4c8a 90       		.byte	0x90
 13325 4c8b 40       		.uleb128 0x40
 13326 4c8c 93       		.byte	0x93
 13327 4c8d 04       		.uleb128 0x4
 13328 4c8e 90       		.byte	0x90
 13329 4c8f 41       		.uleb128 0x41
 13330 4c90 93       		.byte	0x93
 13331 4c91 04       		.uleb128 0x4
 13332 4c92 03       		.uleb128 0x3
 13333 4c93 F5       		.byte	0xf5
 13334 4c94 08       		.uleb128 0x8
 13335 4c95 33       		.uleb128 0x33
 13336 4c96 00       		.byte	0
 13337 4c97 00       		.byte	0
 13338 4c98 00       		.byte	0
 13339 4c99 3C       		.uleb128 0x3c
 13340 4c9a C4010000 		.4byte	.LVL347
 13341 4c9e 66470000 		.4byte	0x4766
 13342 4ca2 B34C0000 		.4byte	0x4cb3
 13343 4ca6 3D       		.uleb128 0x3d
 13344 4ca7 01       		.uleb128 0x1
 13345 4ca8 50       		.byte	0x50
 13346 4ca9 02       		.uleb128 0x2
 13347 4caa 7A       		.byte	0x7a
 13348 4cab 00       		.sleb128 0
 13349 4cac 3D       		.uleb128 0x3d
 13350 4cad 01       		.uleb128 0x1
ARM GAS  C:\Users\JEANCO~1\AppData\Local\Temp\ccxhVNGN.s 			page 236


 13351 4cae 51       		.byte	0x51
 13352 4caf 02       		.uleb128 0x2
 13353 4cb0 76       		.byte	0x76
 13354 4cb1 00       		.sleb128 0
 13355 4cb2 00       		.byte	0
 13356 4cb3 3C       		.uleb128 0x3c
 13357 4cb4 CA010000 		.4byte	.LVL349
 13358 4cb8 4C470000 		.4byte	0x474c
 13359 4cbc C74C0000 		.4byte	0x4cc7
 13360 4cc0 3D       		.uleb128 0x3d
 13361 4cc1 01       		.uleb128 0x1
 13362 4cc2 50       		.byte	0x50
 13363 4cc3 02       		.uleb128 0x2
 13364 4cc4 79       		.byte	0x79
 13365 4cc5 00       		.sleb128 0
 13366 4cc6 00       		.byte	0
 13367 4cc7 3A       		.uleb128 0x3a
 13368 4cc8 CE010000 		.4byte	.LVL350
 13369 4ccc 1E5D0000 		.4byte	0x5d1e
 13370 4cd0 3C       		.uleb128 0x3c
 13371 4cd1 FE010000 		.4byte	.LVL354
 13372 4cd5 D05C0000 		.4byte	0x5cd0
 13373 4cd9 E34C0000 		.4byte	0x4ce3
 13374 4cdd 3D       		.uleb128 0x3d
 13375 4cde 01       		.uleb128 0x1
 13376 4cdf 50       		.byte	0x50
 13377 4ce0 01       		.uleb128 0x1
 13378 4ce1 30       		.byte	0x30
 13379 4ce2 00       		.byte	0
 13380 4ce3 3C       		.uleb128 0x3c
 13381 4ce4 04020000 		.4byte	.LVL355
 13382 4ce8 C55C0000 		.4byte	0x5cc5
 13383 4cec F64C0000 		.4byte	0x4cf6
 13384 4cf0 3D       		.uleb128 0x3d
 13385 4cf1 01       		.uleb128 0x1
 13386 4cf2 50       		.byte	0x50
 13387 4cf3 01       		.uleb128 0x1
 13388 4cf4 30       		.byte	0x30
 13389 4cf5 00       		.byte	0
 13390 4cf6 3C       		.uleb128 0x3c
 13391 4cf7 0E020000 		.4byte	.LVL356
 13392 4cfb 2A5D0000 		.4byte	0x5d2a
 13393 4cff 164D0000 		.4byte	0x4d16
 13394 4d03 3D       		.uleb128 0x3d
 13395 4d04 01       		.uleb128 0x1
 13396 4d05 50       		.byte	0x50
 13397 4d06 04       		.uleb128 0x4
 13398 4d07 91       		.byte	0x91
 13399 4d08 AC7F     		.sleb128 -84
 13400 4d0a 06       		.byte	0x6
 13401 4d0b 3D       		.uleb128 0x3d
 13402 4d0c 01       		.uleb128 0x1
 13403 4d0d 51       		.byte	0x51
 13404 4d0e 06       		.uleb128 0x6
 13405 4d0f 91       		.byte	0x91
 13406 4d10 AC7F     		.sleb128 -84
 13407 4d12 06       		.byte	0x6
ARM GAS  C:\Users\JEANCO~1\AppData\Local\Temp\ccxhVNGN.s 			page 237


 13408 4d13 23       		.byte	0x23
 13409 4d14 0A       		.uleb128 0xa
 13410 4d15 00       		.byte	0
 13411 4d16 49       		.uleb128 0x49
 13412 4d17 CA020000 		.4byte	.LVL375
 13413 4d1b 135D0000 		.4byte	0x5d13
 13414 4d1f 3D       		.uleb128 0x3d
 13415 4d20 08       		.uleb128 0x8
 13416 4d21 90       		.byte	0x90
 13417 4d22 40       		.uleb128 0x40
 13418 4d23 93       		.byte	0x93
 13419 4d24 04       		.uleb128 0x4
 13420 4d25 90       		.byte	0x90
 13421 4d26 41       		.uleb128 0x41
 13422 4d27 93       		.byte	0x93
 13423 4d28 04       		.uleb128 0x4
 13424 4d29 03       		.uleb128 0x3
 13425 4d2a F5       		.byte	0xf5
 13426 4d2b 08       		.uleb128 0x8
 13427 4d2c 33       		.uleb128 0x33
 13428 4d2d 00       		.byte	0
 13429 4d2e 00       		.byte	0
 13430 4d2f 57       		.uleb128 0x57
 13431 4d30 F1570000 		.4byte	0x57f1
 13432 4d34 0A000000 		.4byte	.LBB418
 13433 4d38 98030000 		.4byte	.Ldebug_ranges0+0x398
 13434 4d3c 01       		.byte	0x1
 13435 4d3d 8602     		.2byte	0x286
 13436 4d3f 53       		.uleb128 0x53
 13437 4d40 FD570000 		.4byte	0x57fd
 13438 4d44 00       		.byte	0
 13439 4d45 00       		.byte	0
 13440 4d46 13       		.uleb128 0x13
 13441 4d47 1F110000 		.4byte	0x111f
 13442 4d4b 564D0000 		.4byte	0x4d56
 13443 4d4f 14       		.uleb128 0x14
 13444 4d50 45000000 		.4byte	0x45
 13445 4d54 0B       		.byte	0xb
 13446 4d55 00       		.byte	0
 13447 4d56 05       		.uleb128 0x5
 13448 4d57 464D0000 		.4byte	0x4d46
 13449 4d5b 0B       		.uleb128 0xb
 13450 4d5c 04       		.byte	0x4
 13451 4d5d 2C000000 		.4byte	0x2c
 13452 4d61 58       		.uleb128 0x58
 13453 4d62 73030000 		.4byte	.LASF995
 13454 4d66 01       		.byte	0x1
 13455 4d67 6002     		.2byte	0x260
 13456 4d69 DD000000 		.4byte	0xdd
 13457 4d6d 01       		.byte	0x1
 13458 4d6e AF4D0000 		.4byte	0x4daf
 13459 4d72 36       		.uleb128 0x36
 13460 4d73 89230000 		.4byte	.LASF947
 13461 4d77 01       		.byte	0x1
 13462 4d78 6002     		.2byte	0x260
 13463 4d7a 25000000 		.4byte	0x25
 13464 4d7e 36       		.uleb128 0x36
ARM GAS  C:\Users\JEANCO~1\AppData\Local\Temp\ccxhVNGN.s 			page 238


 13465 4d7f 680C0000 		.4byte	.LASF981
 13466 4d83 01       		.byte	0x1
 13467 4d84 6002     		.2byte	0x260
 13468 4d86 25000000 		.4byte	0x25
 13469 4d8a 41       		.uleb128 0x41
 13470 4d8b CF250000 		.4byte	.LASF982
 13471 4d8f 01       		.byte	0x1
 13472 4d90 6202     		.2byte	0x262
 13473 4d92 25000000 		.4byte	0x25
 13474 4d96 41       		.uleb128 0x41
 13475 4d97 AE220000 		.4byte	.LASF969
 13476 4d9b 01       		.byte	0x1
 13477 4d9c 6302     		.2byte	0x263
 13478 4d9e 25000000 		.4byte	0x25
 13479 4da2 41       		.uleb128 0x41
 13480 4da3 B71D0000 		.4byte	.LASF983
 13481 4da7 01       		.byte	0x1
 13482 4da8 6502     		.2byte	0x265
 13483 4daa 25000000 		.4byte	0x25
 13484 4dae 00       		.byte	0
 13485 4daf 37       		.uleb128 0x37
 13486 4db0 3A270000 		.4byte	.LASF985
 13487 4db4 01       		.byte	0x1
 13488 4db5 5A02     		.2byte	0x25a
 13489 4db7 25000000 		.4byte	0x25
 13490 4dbb 00000000 		.4byte	.LFB304
 13491 4dbf 28000000 		.4byte	.LFE304-.LFB304
 13492 4dc3 01       		.uleb128 0x1
 13493 4dc4 9C       		.byte	0x9c
 13494 4dc5 D34D0000 		.4byte	0x4dd3
 13495 4dc9 3A       		.uleb128 0x3a
 13496 4dca 20000000 		.4byte	.LVL251
 13497 4dce B15C0000 		.4byte	0x5cb1
 13498 4dd2 00       		.byte	0
 13499 4dd3 59       		.uleb128 0x59
 13500 4dd4 66020000 		.4byte	.LASF1064
 13501 4dd8 01       		.byte	0x1
 13502 4dd9 5602     		.2byte	0x256
 13503 4ddb 2C000000 		.4byte	0x2c
 13504 4ddf 01       		.byte	0x1
 13505 4de0 37       		.uleb128 0x37
 13506 4de1 BA230000 		.4byte	.LASF986
 13507 4de5 01       		.byte	0x1
 13508 4de6 5202     		.2byte	0x252
 13509 4de8 2C000000 		.4byte	0x2c
 13510 4dec 00000000 		.4byte	.LFB302
 13511 4df0 40000000 		.4byte	.LFE302-.LFB302
 13512 4df4 01       		.uleb128 0x1
 13513 4df5 9C       		.byte	0x9c
 13514 4df6 3C4E0000 		.4byte	0x4e3c
 13515 4dfa 52       		.uleb128 0x52
 13516 4dfb F44F0000 		.4byte	0x4ff4
 13517 4dff 02000000 		.4byte	.LBB355
 13518 4e03 20030000 		.4byte	.Ldebug_ranges0+0x320
 13519 4e07 01       		.byte	0x1
 13520 4e08 5302     		.2byte	0x253
 13521 4e0a 324E0000 		.4byte	0x4e32
ARM GAS  C:\Users\JEANCO~1\AppData\Local\Temp\ccxhVNGN.s 			page 239


 13522 4e0e 4F       		.uleb128 0x4f
 13523 4e0f 05500000 		.4byte	0x5005
 13524 4e13 D5040000 		.4byte	.LLST73
 13525 4e17 54       		.uleb128 0x54
 13526 4e18 20030000 		.4byte	.Ldebug_ranges0+0x320
 13527 4e1c 4C       		.uleb128 0x4c
 13528 4e1d C8590000 		.4byte	0x59c8
 13529 4e21 55       		.uleb128 0x55
 13530 4e22 D1590000 		.4byte	0x59d1
 13531 4e26 50030000 		.4byte	.Ldebug_ranges0+0x350
 13532 4e2a 4C       		.uleb128 0x4c
 13533 4e2b DA590000 		.4byte	0x59da
 13534 4e2f 00       		.byte	0
 13535 4e30 00       		.byte	0
 13536 4e31 00       		.byte	0
 13537 4e32 3A       		.uleb128 0x3a
 13538 4e33 34000000 		.4byte	.LVL249
 13539 4e37 B15C0000 		.4byte	0x5cb1
 13540 4e3b 00       		.byte	0
 13541 4e3c 5A       		.uleb128 0x5a
 13542 4e3d 741F0000 		.4byte	.LASF997
 13543 4e41 01       		.byte	0x1
 13544 4e42 4802     		.2byte	0x248
 13545 4e44 00000000 		.4byte	.LFB301
 13546 4e48 20000000 		.4byte	.LFE301-.LFB301
 13547 4e4c 01       		.uleb128 0x1
 13548 4e4d 9C       		.byte	0x9c
 13549 4e4e 6C4E0000 		.4byte	0x4e6c
 13550 4e52 38       		.uleb128 0x38
 13551 4e53 470D0000 		.4byte	.LASF987
 13552 4e57 01       		.byte	0x1
 13553 4e58 4802     		.2byte	0x248
 13554 4e5a 2C000000 		.4byte	0x2c
 13555 4e5e E9040000 		.4byte	.LLST72
 13556 4e62 3A       		.uleb128 0x3a
 13557 4e63 1C000000 		.4byte	.LVL245
 13558 4e67 B15C0000 		.4byte	0x5cb1
 13559 4e6b 00       		.byte	0
 13560 4e6c 5B       		.uleb128 0x5b
 13561 4e6d 8F050000 		.4byte	.LASF989
 13562 4e71 01       		.byte	0x1
 13563 4e72 E301     		.2byte	0x1e3
 13564 4e74 01       		.byte	0x1
 13565 4e75 AA4E0000 		.4byte	0x4eaa
 13566 4e79 36       		.uleb128 0x36
 13567 4e7a 3D0E0000 		.4byte	.LASF990
 13568 4e7e 01       		.byte	0x1
 13569 4e7f E301     		.2byte	0x1e3
 13570 4e81 2C000000 		.4byte	0x2c
 13571 4e85 36       		.uleb128 0x36
 13572 4e86 69000000 		.4byte	.LASF991
 13573 4e8a 01       		.byte	0x1
 13574 4e8b E301     		.2byte	0x1e3
 13575 4e8d 2C000000 		.4byte	0x2c
 13576 4e91 36       		.uleb128 0x36
 13577 4e92 101E0000 		.4byte	.LASF992
 13578 4e96 01       		.byte	0x1
ARM GAS  C:\Users\JEANCO~1\AppData\Local\Temp\ccxhVNGN.s 			page 240


 13579 4e97 E301     		.2byte	0x1e3
 13580 4e99 2C000000 		.4byte	0x2c
 13581 4e9d 36       		.uleb128 0x36
 13582 4e9e 2B210000 		.4byte	.LASF993
 13583 4ea2 01       		.byte	0x1
 13584 4ea3 E301     		.2byte	0x1e3
 13585 4ea5 2C000000 		.4byte	0x2c
 13586 4ea9 00       		.byte	0
 13587 4eaa 37       		.uleb128 0x37
 13588 4eab 9D1F0000 		.4byte	.LASF994
 13589 4eaf 01       		.byte	0x1
 13590 4eb0 C401     		.2byte	0x1c4
 13591 4eb2 EF430000 		.4byte	0x43ef
 13592 4eb6 00000000 		.4byte	.LFB299
 13593 4eba 80000000 		.4byte	.LFE299-.LFB299
 13594 4ebe 01       		.uleb128 0x1
 13595 4ebf 9C       		.byte	0x9c
 13596 4ec0 DE4E0000 		.4byte	0x4ede
 13597 4ec4 38       		.uleb128 0x38
 13598 4ec5 F7260000 		.4byte	.LASF775
 13599 4ec9 01       		.byte	0x1
 13600 4eca C401     		.2byte	0x1c4
 13601 4ecc 12450000 		.4byte	0x4512
 13602 4ed0 0A050000 		.4byte	.LLST37
 13603 4ed4 3A       		.uleb128 0x3a
 13604 4ed5 5C000000 		.4byte	.LVL165
 13605 4ed9 B15C0000 		.4byte	0x5cb1
 13606 4edd 00       		.byte	0
 13607 4ede 58       		.uleb128 0x58
 13608 4edf A0190000 		.4byte	.LASF996
 13609 4ee3 01       		.byte	0x1
 13610 4ee4 B001     		.2byte	0x1b0
 13611 4ee6 C9440000 		.4byte	0x44c9
 13612 4eea 01       		.byte	0x1
 13613 4eeb 084F0000 		.4byte	0x4f08
 13614 4eef 36       		.uleb128 0x36
 13615 4ef0 F7260000 		.4byte	.LASF775
 13616 4ef4 01       		.byte	0x1
 13617 4ef5 B001     		.2byte	0x1b0
 13618 4ef7 12450000 		.4byte	0x4512
 13619 4efb 5C       		.uleb128 0x5c
 13620 4efc 48       		.uleb128 0x48
 13621 4efd 6100     		.ascii	"a\000"
 13622 4eff 01       		.byte	0x1
 13623 4f00 BF01     		.2byte	0x1bf
 13624 4f02 C9440000 		.4byte	0x44c9
 13625 4f06 00       		.byte	0
 13626 4f07 00       		.byte	0
 13627 4f08 5A       		.uleb128 0x5a
 13628 4f09 8B0E0000 		.4byte	.LASF998
 13629 4f0d 01       		.byte	0x1
 13630 4f0e AC01     		.2byte	0x1ac
 13631 4f10 00000000 		.4byte	.LFB297
 13632 4f14 2C000000 		.4byte	.LFE297-.LFB297
 13633 4f18 01       		.uleb128 0x1
 13634 4f19 9C       		.byte	0x9c
 13635 4f1a 5C4F0000 		.4byte	0x4f5c
ARM GAS  C:\Users\JEANCO~1\AppData\Local\Temp\ccxhVNGN.s 			page 241


 13636 4f1e 57       		.uleb128 0x57
 13637 4f1f D5570000 		.4byte	0x57d5
 13638 4f23 0A000000 		.4byte	.LBB166
 13639 4f27 40000000 		.4byte	.Ldebug_ranges0+0x40
 13640 4f2b 01       		.byte	0x1
 13641 4f2c AD01     		.2byte	0x1ad
 13642 4f2e 5D       		.uleb128 0x5d
 13643 4f2f E5570000 		.4byte	0x57e5
 13644 4f33 06       		.uleb128 0x6
 13645 4f34 03       		.byte	0x3
 13646 4f35 00000000 		.4byte	sendToComputer_sem
 13647 4f39 9F       		.byte	0x9f
 13648 4f3a 5E       		.uleb128 0x5e
 13649 4f3b 1E000000 		.4byte	.LVL124
 13650 4f3f 355D0000 		.4byte	0x5d35
 13651 4f43 514F0000 		.4byte	0x4f51
 13652 4f47 3D       		.uleb128 0x3d
 13653 4f48 01       		.uleb128 0x1
 13654 4f49 50       		.byte	0x50
 13655 4f4a 05       		.uleb128 0x5
 13656 4f4b 03       		.byte	0x3
 13657 4f4c 00000000 		.4byte	.LANCHOR2
 13658 4f50 00       		.byte	0
 13659 4f51 3A       		.uleb128 0x3a
 13660 4f52 22000000 		.4byte	.LVL125
 13661 4f56 B15C0000 		.4byte	0x5cb1
 13662 4f5a 00       		.byte	0
 13663 4f5b 00       		.byte	0
 13664 4f5c 58       		.uleb128 0x58
 13665 4f5d 8B010000 		.4byte	.LASF999
 13666 4f61 01       		.byte	0x1
 13667 4f62 9901     		.2byte	0x199
 13668 4f64 C9440000 		.4byte	0x44c9
 13669 4f68 01       		.byte	0x1
 13670 4f69 AA4F0000 		.4byte	0x4faa
 13671 4f6d 36       		.uleb128 0x36
 13672 4f6e 00230000 		.4byte	.LASF1000
 13673 4f72 01       		.byte	0x1
 13674 4f73 9901     		.2byte	0x199
 13675 4f75 EF430000 		.4byte	0x43ef
 13676 4f79 41       		.uleb128 0x41
 13677 4f7a 8B010000 		.4byte	.LASF999
 13678 4f7e 01       		.byte	0x1
 13679 4f7f 9A01     		.2byte	0x19a
 13680 4f81 25000000 		.4byte	0x25
 13681 4f85 41       		.uleb128 0x41
 13682 4f86 500C0000 		.4byte	.LASF1001
 13683 4f8a 01       		.byte	0x1
 13684 4f8b 9B01     		.2byte	0x19b
 13685 4f8d 2C000000 		.4byte	0x2c
 13686 4f91 41       		.uleb128 0x41
 13687 4f92 04150000 		.4byte	.LASF1002
 13688 4f96 01       		.byte	0x1
 13689 4f97 9C01     		.2byte	0x19c
 13690 4f99 C9440000 		.4byte	0x44c9
 13691 4f9d 5C       		.uleb128 0x5c
 13692 4f9e 48       		.uleb128 0x48
ARM GAS  C:\Users\JEANCO~1\AppData\Local\Temp\ccxhVNGN.s 			page 242


 13693 4f9f 6900     		.ascii	"i\000"
 13694 4fa1 01       		.byte	0x1
 13695 4fa2 A001     		.2byte	0x1a0
 13696 4fa4 2C000000 		.4byte	0x2c
 13697 4fa8 00       		.byte	0
 13698 4fa9 00       		.byte	0
 13699 4faa 5B       		.uleb128 0x5b
 13700 4fab E5250000 		.4byte	.LASF1003
 13701 4faf 01       		.byte	0x1
 13702 4fb0 8D01     		.2byte	0x18d
 13703 4fb2 01       		.byte	0x1
 13704 4fb3 F44F0000 		.4byte	0x4ff4
 13705 4fb7 36       		.uleb128 0x36
 13706 4fb8 2D2C0000 		.4byte	.LASF1004
 13707 4fbc 01       		.byte	0x1
 13708 4fbd 8D01     		.2byte	0x18d
 13709 4fbf CD000000 		.4byte	0xcd
 13710 4fc3 36       		.uleb128 0x36
 13711 4fc4 3D0E0000 		.4byte	.LASF990
 13712 4fc8 01       		.byte	0x1
 13713 4fc9 8D01     		.2byte	0x18d
 13714 4fcb 2C000000 		.4byte	0x2c
 13715 4fcf 36       		.uleb128 0x36
 13716 4fd0 69000000 		.4byte	.LASF991
 13717 4fd4 01       		.byte	0x1
 13718 4fd5 8D01     		.2byte	0x18d
 13719 4fd7 2C000000 		.4byte	0x2c
 13720 4fdb 36       		.uleb128 0x36
 13721 4fdc 101E0000 		.4byte	.LASF992
 13722 4fe0 01       		.byte	0x1
 13723 4fe1 8D01     		.2byte	0x18d
 13724 4fe3 2C000000 		.4byte	0x2c
 13725 4fe7 36       		.uleb128 0x36
 13726 4fe8 2B210000 		.4byte	.LASF993
 13727 4fec 01       		.byte	0x1
 13728 4fed 8D01     		.2byte	0x18d
 13729 4fef 2C000000 		.4byte	0x2c
 13730 4ff3 00       		.byte	0
 13731 4ff4 58       		.uleb128 0x58
 13732 4ff5 C31C0000 		.4byte	.LASF1005
 13733 4ff9 01       		.byte	0x1
 13734 4ffa 8301     		.2byte	0x183
 13735 4ffc 2C000000 		.4byte	0x2c
 13736 5000 01       		.byte	0x1
 13737 5001 2A500000 		.4byte	0x502a
 13738 5005 36       		.uleb128 0x36
 13739 5006 43040000 		.4byte	.LASF1006
 13740 500a 01       		.byte	0x1
 13741 500b 8301     		.2byte	0x183
 13742 500d 43450000 		.4byte	0x4543
 13743 5011 41       		.uleb128 0x41
 13744 5012 C4080000 		.4byte	.LASF1007
 13745 5016 01       		.byte	0x1
 13746 5017 8401     		.2byte	0x184
 13747 5019 2C000000 		.4byte	0x2c
 13748 501d 5C       		.uleb128 0x5c
 13749 501e 48       		.uleb128 0x48
ARM GAS  C:\Users\JEANCO~1\AppData\Local\Temp\ccxhVNGN.s 			page 243


 13750 501f 6900     		.ascii	"i\000"
 13751 5021 01       		.byte	0x1
 13752 5022 8501     		.2byte	0x185
 13753 5024 CD000000 		.4byte	0xcd
 13754 5028 00       		.byte	0
 13755 5029 00       		.byte	0
 13756 502a 5A       		.uleb128 0x5a
 13757 502b 94130000 		.4byte	.LASF1008
 13758 502f 01       		.byte	0x1
 13759 5030 1401     		.2byte	0x114
 13760 5032 00000000 		.4byte	.LFB293
 13761 5036 A4010000 		.4byte	.LFE293-.LFB293
 13762 503a 01       		.uleb128 0x1
 13763 503b 9C       		.byte	0x9c
 13764 503c BA500000 		.4byte	0x50ba
 13765 5040 38       		.uleb128 0x38
 13766 5041 3D0E0000 		.4byte	.LASF990
 13767 5045 01       		.byte	0x1
 13768 5046 1401     		.2byte	0x114
 13769 5048 2C000000 		.4byte	0x2c
 13770 504c DA050000 		.4byte	.LLST16
 13771 5050 38       		.uleb128 0x38
 13772 5051 69000000 		.4byte	.LASF991
 13773 5055 01       		.byte	0x1
 13774 5056 1401     		.2byte	0x114
 13775 5058 2C000000 		.4byte	0x2c
 13776 505c FB050000 		.4byte	.LLST17
 13777 5060 38       		.uleb128 0x38
 13778 5061 101E0000 		.4byte	.LASF992
 13779 5065 01       		.byte	0x1
 13780 5066 1401     		.2byte	0x114
 13781 5068 2C000000 		.4byte	0x2c
 13782 506c 1C060000 		.4byte	.LLST18
 13783 5070 38       		.uleb128 0x38
 13784 5071 2B210000 		.4byte	.LASF993
 13785 5075 01       		.byte	0x1
 13786 5076 1401     		.2byte	0x114
 13787 5078 2C000000 		.4byte	0x2c
 13788 507c 4E070000 		.4byte	.LLST19
 13789 5080 39       		.uleb128 0x39
 13790 5081 5F040000 		.4byte	.LASF1009
 13791 5085 01       		.byte	0x1
 13792 5086 1601     		.2byte	0x116
 13793 5088 CD000000 		.4byte	0xcd
 13794 508c 69080000 		.4byte	.LLST20
 13795 5090 39       		.uleb128 0x39
 13796 5091 77220000 		.4byte	.LASF1010
 13797 5095 01       		.byte	0x1
 13798 5096 1801     		.2byte	0x118
 13799 5098 2C000000 		.4byte	0x2c
 13800 509c E8080000 		.4byte	.LLST21
 13801 50a0 39       		.uleb128 0x39
 13802 50a1 0F270000 		.4byte	.LASF1011
 13803 50a5 01       		.byte	0x1
 13804 50a6 1901     		.2byte	0x119
 13805 50a8 2C000000 		.4byte	0x2c
 13806 50ac DB0A0000 		.4byte	.LLST22
ARM GAS  C:\Users\JEANCO~1\AppData\Local\Temp\ccxhVNGN.s 			page 244


 13807 50b0 3A       		.uleb128 0x3a
 13808 50b1 96010000 		.4byte	.LVL97
 13809 50b5 B15C0000 		.4byte	0x5cb1
 13810 50b9 00       		.byte	0
 13811 50ba 58       		.uleb128 0x58
 13812 50bb EC0F0000 		.4byte	.LASF1012
 13813 50bf 01       		.byte	0x1
 13814 50c0 0C01     		.2byte	0x10c
 13815 50c2 33000000 		.4byte	0x33
 13816 50c6 01       		.byte	0x1
 13817 50c7 FC500000 		.4byte	0x50fc
 13818 50cb 36       		.uleb128 0x36
 13819 50cc 341C0000 		.4byte	.LASF1013
 13820 50d0 01       		.byte	0x1
 13821 50d1 0C01     		.2byte	0x10c
 13822 50d3 F3000000 		.4byte	0xf3
 13823 50d7 36       		.uleb128 0x36
 13824 50d8 592B0000 		.4byte	.LASF973
 13825 50dc 01       		.byte	0x1
 13826 50dd 0C01     		.2byte	0x10c
 13827 50df F3000000 		.4byte	0xf3
 13828 50e3 41       		.uleb128 0x41
 13829 50e4 C6130000 		.4byte	.LASF1014
 13830 50e8 01       		.byte	0x1
 13831 50e9 0E01     		.2byte	0x10e
 13832 50eb 33000000 		.4byte	0x33
 13833 50ef 41       		.uleb128 0x41
 13834 50f0 B4080000 		.4byte	.LASF974
 13835 50f4 01       		.byte	0x1
 13836 50f5 0F01     		.2byte	0x10f
 13837 50f7 33000000 		.4byte	0x33
 13838 50fb 00       		.byte	0
 13839 50fc 5F       		.uleb128 0x5f
 13840 50fd 72000000 		.4byte	.LASF1015
 13841 5101 01       		.byte	0x1
 13842 5102 8A       		.byte	0x8a
 13843 5103 00000000 		.4byte	.LFB291
 13844 5107 2C030000 		.4byte	.LFE291-.LFB291
 13845 510b 01       		.uleb128 0x1
 13846 510c 9C       		.byte	0x9c
 13847 510d F5560000 		.4byte	0x56f5
 13848 5111 60       		.uleb128 0x60
 13849 5112 00230000 		.4byte	.LASF1000
 13850 5116 01       		.byte	0x1
 13851 5117 8A       		.byte	0x8a
 13852 5118 9E440000 		.4byte	0x449e
 13853 511c 080C0000 		.4byte	.LLST46
 13854 5120 60       		.uleb128 0x60
 13855 5121 33020000 		.4byte	.LASF1016
 13856 5125 01       		.byte	0x1
 13857 5126 8A       		.byte	0x8a
 13858 5127 E8000000 		.4byte	0xe8
 13859 512b 420C0000 		.4byte	.LLST47
 13860 512f 32       		.uleb128 0x32
 13861 5130 3A080000 		.4byte	.LASF1017
 13862 5134 01       		.byte	0x1
 13863 5135 94       		.byte	0x94
ARM GAS  C:\Users\JEANCO~1\AppData\Local\Temp\ccxhVNGN.s 			page 245


 13864 5136 E8000000 		.4byte	0xe8
 13865 513a 05       		.uleb128 0x5
 13866 513b 03       		.byte	0x3
 13867 513c 00000000 		.4byte	nb_samples.14269
 13868 5140 32       		.uleb128 0x32
 13869 5141 2D2C0000 		.4byte	.LASF1004
 13870 5145 01       		.byte	0x1
 13871 5146 95       		.byte	0x95
 13872 5147 CD000000 		.4byte	0xcd
 13873 514b 05       		.uleb128 0x5
 13874 514c 03       		.byte	0x3
 13875 514d 00000000 		.4byte	mustSend.14270
 13876 5151 47       		.uleb128 0x47
 13877 5152 10000000 		.4byte	.LBB221
 13878 5156 AC000000 		.4byte	.LBE221-.LBB221
 13879 515a 6C510000 		.4byte	0x516c
 13880 515e 61       		.uleb128 0x61
 13881 515f 6900     		.ascii	"i\000"
 13882 5161 01       		.byte	0x1
 13883 5162 98       		.byte	0x98
 13884 5163 E8000000 		.4byte	0xe8
 13885 5167 7C0C0000 		.4byte	.LLST48
 13886 516b 00       		.byte	0
 13887 516c 43       		.uleb128 0x43
 13888 516d 70000000 		.4byte	.Ldebug_ranges0+0x70
 13889 5171 EB560000 		.4byte	0x56eb
 13890 5175 62       		.uleb128 0x62
 13891 5176 3D0E0000 		.4byte	.LASF990
 13892 517a 01       		.byte	0x1
 13893 517b CA       		.byte	0xca
 13894 517c 2C000000 		.4byte	0x2c
 13895 5180 B20C0000 		.4byte	.LLST49
 13896 5184 62       		.uleb128 0x62
 13897 5185 69000000 		.4byte	.LASF991
 13898 5189 01       		.byte	0x1
 13899 518a CB       		.byte	0xcb
 13900 518b 2C000000 		.4byte	0x2c
 13901 518f 860D0000 		.4byte	.LLST50
 13902 5193 62       		.uleb128 0x62
 13903 5194 101E0000 		.4byte	.LASF992
 13904 5198 01       		.byte	0x1
 13905 5199 CC       		.byte	0xcc
 13906 519a 2C000000 		.4byte	0x2c
 13907 519e 5A0E0000 		.4byte	.LLST51
 13908 51a2 62       		.uleb128 0x62
 13909 51a3 2B210000 		.4byte	.LASF993
 13910 51a7 01       		.byte	0x1
 13911 51a8 CD       		.byte	0xcd
 13912 51a9 2C000000 		.4byte	0x2c
 13913 51ad 9D0E0000 		.4byte	.LLST52
 13914 51b1 62       		.uleb128 0x62
 13915 51b2 C81A0000 		.4byte	.LASF1018
 13916 51b6 01       		.byte	0x1
 13917 51b7 CE       		.byte	0xce
 13918 51b8 2C000000 		.4byte	0x2c
 13919 51bc 540F0000 		.4byte	.LLST53
 13920 51c0 62       		.uleb128 0x62
ARM GAS  C:\Users\JEANCO~1\AppData\Local\Temp\ccxhVNGN.s 			page 246


 13921 51c1 812A0000 		.4byte	.LASF1019
 13922 51c5 01       		.byte	0x1
 13923 51c6 CF       		.byte	0xcf
 13924 51c7 2C000000 		.4byte	0x2c
 13925 51cb 760F0000 		.4byte	.LLST54
 13926 51cf 62       		.uleb128 0x62
 13927 51d0 15020000 		.4byte	.LASF1020
 13928 51d4 01       		.byte	0x1
 13929 51d5 D0       		.byte	0xd0
 13930 51d6 2C000000 		.4byte	0x2c
 13931 51da 960F0000 		.4byte	.LLST55
 13932 51de 62       		.uleb128 0x62
 13933 51df E61E0000 		.4byte	.LASF1021
 13934 51e3 01       		.byte	0x1
 13935 51e4 D1       		.byte	0xd1
 13936 51e5 2C000000 		.4byte	0x2c
 13937 51e9 B60F0000 		.4byte	.LLST56
 13938 51ed 47       		.uleb128 0x47
 13939 51ee FC010000 		.4byte	.LBB247
 13940 51f2 E0000000 		.4byte	.LBE247-.LBB247
 13941 51f6 67540000 		.4byte	0x5467
 13942 51fa 33       		.uleb128 0x33
 13943 51fb DF140000 		.4byte	.LASF1022
 13944 51ff 01       		.byte	0x1
 13945 5200 E4       		.byte	0xe4
 13946 5201 2C000000 		.4byte	0x2c
 13947 5205 33       		.uleb128 0x33
 13948 5206 B4100000 		.4byte	.LASF1023
 13949 520a 01       		.byte	0x1
 13950 520b E5       		.byte	0xe5
 13951 520c 2C000000 		.4byte	0x2c
 13952 5210 33       		.uleb128 0x33
 13953 5211 2F280000 		.4byte	.LASF1024
 13954 5215 01       		.byte	0x1
 13955 5216 E6       		.byte	0xe6
 13956 5217 2C000000 		.4byte	0x2c
 13957 521b 33       		.uleb128 0x33
 13958 521c FB010000 		.4byte	.LASF1025
 13959 5220 01       		.byte	0x1
 13960 5221 E7       		.byte	0xe7
 13961 5222 2C000000 		.4byte	0x2c
 13962 5226 4D       		.uleb128 0x4d
 13963 5227 9B570000 		.4byte	0x579b
 13964 522b FC010000 		.4byte	.LBB248
 13965 522f F0000000 		.4byte	.Ldebug_ranges0+0xf0
 13966 5233 01       		.byte	0x1
 13967 5234 DF       		.byte	0xdf
 13968 5235 4A530000 		.4byte	0x534a
 13969 5239 4F       		.uleb128 0x4f
 13970 523a A8570000 		.4byte	0x57a8
 13971 523e D60F0000 		.4byte	.LLST66
 13972 5242 4A       		.uleb128 0x4a
 13973 5243 4C580000 		.4byte	0x584c
 13974 5247 FC010000 		.4byte	.LBB250
 13975 524b 0E000000 		.4byte	.LBE250-.LBB250
 13976 524f 02       		.byte	0x2
 13977 5250 1C01     		.2byte	0x11c
ARM GAS  C:\Users\JEANCO~1\AppData\Local\Temp\ccxhVNGN.s 			page 247


 13978 5252 98520000 		.4byte	0x5298
 13979 5256 4A       		.uleb128 0x4a
 13980 5257 5E580000 		.4byte	0x585e
 13981 525b FC010000 		.4byte	.LBB252
 13982 525f 06000000 		.4byte	.LBE252-.LBB252
 13983 5263 04       		.byte	0x4
 13984 5264 5C01     		.2byte	0x15c
 13985 5266 85520000 		.4byte	0x5285
 13986 526a 4E       		.uleb128 0x4e
 13987 526b 67580000 		.4byte	0x5867
 13988 526f FC010000 		.4byte	.LBB253
 13989 5273 06000000 		.4byte	.LBE253-.LBB253
 13990 5277 11       		.byte	0x11
 13991 5278 BF01     		.2byte	0x1bf
 13992 527a 4F       		.uleb128 0x4f
 13993 527b 74580000 		.4byte	0x5874
 13994 527f FE0F0000 		.4byte	.LLST67
 13995 5283 00       		.byte	0
 13996 5284 00       		.byte	0
 13997 5285 3A       		.uleb128 0x3a
 13998 5286 06020000 		.4byte	.LVL219
 13999 528a DB5C0000 		.4byte	0x5cdb
 14000 528e 3A       		.uleb128 0x3a
 14001 528f 0A020000 		.4byte	.LVL220
 14002 5293 E65C0000 		.4byte	0x5ce6
 14003 5297 00       		.byte	0
 14004 5298 52       		.uleb128 0x52
 14005 5299 BB570000 		.4byte	0x57bb
 14006 529d 0A020000 		.4byte	.LBB255
 14007 52a1 08010000 		.4byte	.Ldebug_ranges0+0x108
 14008 52a5 02       		.byte	0x2
 14009 52a6 1D01     		.2byte	0x11d
 14010 52a8 C8520000 		.4byte	0x52c8
 14011 52ac 4F       		.uleb128 0x4f
 14012 52ad C8570000 		.4byte	0x57c8
 14013 52b1 13100000 		.4byte	.LLST68
 14014 52b5 3A       		.uleb128 0x3a
 14015 52b6 0E020000 		.4byte	.LVL221
 14016 52ba 405D0000 		.4byte	0x5d40
 14017 52be 3A       		.uleb128 0x3a
 14018 52bf DA020000 		.4byte	.LVL241
 14019 52c3 4B5D0000 		.4byte	0x5d4b
 14020 52c7 00       		.byte	0
 14021 52c8 4A       		.uleb128 0x4a
 14022 52c9 31580000 		.4byte	0x5831
 14023 52cd 1A020000 		.4byte	.LBB258
 14024 52d1 26000000 		.4byte	.LBE258-.LBB258
 14025 52d5 02       		.byte	0x2
 14026 52d6 1F01     		.2byte	0x11f
 14027 52d8 40530000 		.4byte	0x5340
 14028 52dc 4B       		.uleb128 0x4b
 14029 52dd 1A020000 		.4byte	.LBB259
 14030 52e1 26000000 		.4byte	.LBE259-.LBB259
 14031 52e5 4C       		.uleb128 0x4c
 14032 52e6 3E580000 		.4byte	0x583e
 14033 52ea 4A       		.uleb128 0x4a
 14034 52eb 55580000 		.4byte	0x5855
ARM GAS  C:\Users\JEANCO~1\AppData\Local\Temp\ccxhVNGN.s 			page 248


 14035 52ef 3A020000 		.4byte	.LBB260
 14036 52f3 06000000 		.4byte	.LBE260-.LBB260
 14037 52f7 04       		.byte	0x4
 14038 52f8 7301     		.2byte	0x173
 14039 52fa 19530000 		.4byte	0x5319
 14040 52fe 4E       		.uleb128 0x4e
 14041 52ff 67580000 		.4byte	0x5867
 14042 5303 3A020000 		.4byte	.LBB261
 14043 5307 06000000 		.4byte	.LBE261-.LBB261
 14044 530b 11       		.byte	0x11
 14045 530c CD01     		.2byte	0x1cd
 14046 530e 4F       		.uleb128 0x4f
 14047 530f 74580000 		.4byte	0x5874
 14048 5313 3B100000 		.4byte	.LLST69
 14049 5317 00       		.byte	0
 14050 5318 00       		.byte	0
 14051 5319 3A       		.uleb128 0x3a
 14052 531a 1E020000 		.4byte	.LVL224
 14053 531e F15C0000 		.4byte	0x5cf1
 14054 5322 3A       		.uleb128 0x3a
 14055 5323 22020000 		.4byte	.LVL225
 14056 5327 FC5C0000 		.4byte	0x5cfc
 14057 532b 49       		.uleb128 0x49
 14058 532c 3A020000 		.4byte	.LVL226
 14059 5330 075D0000 		.4byte	0x5d07
 14060 5334 3D       		.uleb128 0x3d
 14061 5335 01       		.uleb128 0x1
 14062 5336 50       		.byte	0x50
 14063 5337 05       		.uleb128 0x5
 14064 5338 03       		.byte	0x3
 14065 5339 00000000 		.4byte	.LANCHOR6
 14066 533d 00       		.byte	0
 14067 533e 00       		.byte	0
 14068 533f 00       		.byte	0
 14069 5340 3A       		.uleb128 0x3a
 14070 5341 1A020000 		.4byte	.LVL223
 14071 5345 565D0000 		.4byte	0x5d56
 14072 5349 00       		.byte	0
 14073 534a 4D       		.uleb128 0x4d
 14074 534b F44F0000 		.4byte	0x4ff4
 14075 534f 40020000 		.4byte	.LBB265
 14076 5353 20010000 		.4byte	.Ldebug_ranges0+0x120
 14077 5357 01       		.byte	0x1
 14078 5358 E4       		.byte	0xe4
 14079 5359 81530000 		.4byte	0x5381
 14080 535d 4F       		.uleb128 0x4f
 14081 535e 05500000 		.4byte	0x5005
 14082 5362 4F100000 		.4byte	.LLST70
 14083 5366 54       		.uleb128 0x54
 14084 5367 20010000 		.4byte	.Ldebug_ranges0+0x120
 14085 536b 4C       		.uleb128 0x4c
 14086 536c C8590000 		.4byte	0x59c8
 14087 5370 55       		.uleb128 0x55
 14088 5371 D1590000 		.4byte	0x59d1
 14089 5375 78010000 		.4byte	.Ldebug_ranges0+0x178
 14090 5379 4C       		.uleb128 0x4c
 14091 537a DA590000 		.4byte	0x59da
ARM GAS  C:\Users\JEANCO~1\AppData\Local\Temp\ccxhVNGN.s 			page 249


 14092 537e 00       		.byte	0
 14093 537f 00       		.byte	0
 14094 5380 00       		.byte	0
 14095 5381 4D       		.uleb128 0x4d
 14096 5382 F44F0000 		.4byte	0x4ff4
 14097 5386 50020000 		.4byte	.LBB286
 14098 538a C0010000 		.4byte	.Ldebug_ranges0+0x1c0
 14099 538e 01       		.byte	0x1
 14100 538f E7       		.byte	0xe7
 14101 5390 B4530000 		.4byte	0x53b4
 14102 5394 53       		.uleb128 0x53
 14103 5395 05500000 		.4byte	0x5005
 14104 5399 54       		.uleb128 0x54
 14105 539a C0010000 		.4byte	.Ldebug_ranges0+0x1c0
 14106 539e 4C       		.uleb128 0x4c
 14107 539f C8590000 		.4byte	0x59c8
 14108 53a3 55       		.uleb128 0x55
 14109 53a4 D1590000 		.4byte	0x59d1
 14110 53a8 00020000 		.4byte	.Ldebug_ranges0+0x200
 14111 53ac 4C       		.uleb128 0x4c
 14112 53ad DA590000 		.4byte	0x59da
 14113 53b1 00       		.byte	0
 14114 53b2 00       		.byte	0
 14115 53b3 00       		.byte	0
 14116 53b4 4D       		.uleb128 0x4d
 14117 53b5 F44F0000 		.4byte	0x4ff4
 14118 53b9 52020000 		.4byte	.LBB299
 14119 53bd 30020000 		.4byte	.Ldebug_ranges0+0x230
 14120 53c1 01       		.byte	0x1
 14121 53c2 E5       		.byte	0xe5
 14122 53c3 EB530000 		.4byte	0x53eb
 14123 53c7 4F       		.uleb128 0x4f
 14124 53c8 05500000 		.4byte	0x5005
 14125 53cc 63100000 		.4byte	.LLST71
 14126 53d0 54       		.uleb128 0x54
 14127 53d1 30020000 		.4byte	.Ldebug_ranges0+0x230
 14128 53d5 4C       		.uleb128 0x4c
 14129 53d6 C8590000 		.4byte	0x59c8
 14130 53da 55       		.uleb128 0x55
 14131 53db D1590000 		.4byte	0x59d1
 14132 53df 70020000 		.4byte	.Ldebug_ranges0+0x270
 14133 53e3 4C       		.uleb128 0x4c
 14134 53e4 DA590000 		.4byte	0x59da
 14135 53e8 00       		.byte	0
 14136 53e9 00       		.byte	0
 14137 53ea 00       		.byte	0
 14138 53eb 4D       		.uleb128 0x4d
 14139 53ec F44F0000 		.4byte	0x4ff4
 14140 53f0 54020000 		.4byte	.LBB312
 14141 53f4 A0020000 		.4byte	.Ldebug_ranges0+0x2a0
 14142 53f8 01       		.byte	0x1
 14143 53f9 E6       		.byte	0xe6
 14144 53fa 1E540000 		.4byte	0x541e
 14145 53fe 53       		.uleb128 0x53
 14146 53ff 05500000 		.4byte	0x5005
 14147 5403 54       		.uleb128 0x54
 14148 5404 A0020000 		.4byte	.Ldebug_ranges0+0x2a0
ARM GAS  C:\Users\JEANCO~1\AppData\Local\Temp\ccxhVNGN.s 			page 250


 14149 5408 4C       		.uleb128 0x4c
 14150 5409 C8590000 		.4byte	0x59c8
 14151 540d 55       		.uleb128 0x55
 14152 540e D1590000 		.4byte	0x59d1
 14153 5412 E8020000 		.4byte	.Ldebug_ranges0+0x2e8
 14154 5416 4C       		.uleb128 0x4c
 14155 5417 DA590000 		.4byte	0x59da
 14156 541b 00       		.byte	0
 14157 541c 00       		.byte	0
 14158 541d 00       		.byte	0
 14159 541e 3C       		.uleb128 0x3c
 14160 541f C4020000 		.4byte	.LVL238
 14161 5423 6C4E0000 		.4byte	0x4e6c
 14162 5427 44540000 		.4byte	0x5444
 14163 542b 3D       		.uleb128 0x3d
 14164 542c 01       		.uleb128 0x1
 14165 542d 50       		.byte	0x50
 14166 542e 02       		.uleb128 0x2
 14167 542f 7A       		.byte	0x7a
 14168 5430 00       		.sleb128 0
 14169 5431 3D       		.uleb128 0x3d
 14170 5432 01       		.uleb128 0x1
 14171 5433 51       		.byte	0x51
 14172 5434 02       		.uleb128 0x2
 14173 5435 79       		.byte	0x79
 14174 5436 00       		.sleb128 0
 14175 5437 3D       		.uleb128 0x3d
 14176 5438 01       		.uleb128 0x1
 14177 5439 52       		.byte	0x52
 14178 543a 02       		.uleb128 0x2
 14179 543b 78       		.byte	0x78
 14180 543c 00       		.sleb128 0
 14181 543d 3D       		.uleb128 0x3d
 14182 543e 01       		.uleb128 0x1
 14183 543f 53       		.byte	0x53
 14184 5440 02       		.uleb128 0x2
 14185 5441 77       		.byte	0x77
 14186 5442 00       		.sleb128 0
 14187 5443 00       		.byte	0
 14188 5444 49       		.uleb128 0x49
 14189 5445 D0020000 		.4byte	.LVL239
 14190 5449 2A500000 		.4byte	0x502a
 14191 544d 3D       		.uleb128 0x3d
 14192 544e 01       		.uleb128 0x1
 14193 544f 50       		.byte	0x50
 14194 5450 02       		.uleb128 0x2
 14195 5451 7A       		.byte	0x7a
 14196 5452 00       		.sleb128 0
 14197 5453 3D       		.uleb128 0x3d
 14198 5454 01       		.uleb128 0x1
 14199 5455 51       		.byte	0x51
 14200 5456 02       		.uleb128 0x2
 14201 5457 79       		.byte	0x79
 14202 5458 00       		.sleb128 0
 14203 5459 3D       		.uleb128 0x3d
 14204 545a 01       		.uleb128 0x1
 14205 545b 52       		.byte	0x52
ARM GAS  C:\Users\JEANCO~1\AppData\Local\Temp\ccxhVNGN.s 			page 251


 14206 545c 02       		.uleb128 0x2
 14207 545d 78       		.byte	0x78
 14208 545e 00       		.sleb128 0
 14209 545f 3D       		.uleb128 0x3d
 14210 5460 01       		.uleb128 0x1
 14211 5461 53       		.byte	0x53
 14212 5462 02       		.uleb128 0x2
 14213 5463 77       		.byte	0x77
 14214 5464 00       		.sleb128 0
 14215 5465 00       		.byte	0
 14216 5466 00       		.byte	0
 14217 5467 4D       		.uleb128 0x4d
 14218 5468 DE4E0000 		.4byte	0x4ede
 14219 546c 28010000 		.4byte	.LBB223
 14220 5470 88000000 		.4byte	.Ldebug_ranges0+0x88
 14221 5474 01       		.byte	0x1
 14222 5475 CC       		.byte	0xcc
 14223 5476 9A540000 		.4byte	0x549a
 14224 547a 4F       		.uleb128 0x4f
 14225 547b EF4E0000 		.4byte	0x4eef
 14226 547f 77100000 		.4byte	.LLST57
 14227 5483 49       		.uleb128 0x49
 14228 5484 34010000 		.4byte	.LVL198
 14229 5488 81580000 		.4byte	0x5881
 14230 548c 3D       		.uleb128 0x3d
 14231 548d 01       		.uleb128 0x1
 14232 548e 50       		.byte	0x50
 14233 548f 03       		.uleb128 0x3
 14234 5490 91       		.byte	0x91
 14235 5491 A47F     		.sleb128 -92
 14236 5493 3D       		.uleb128 0x3d
 14237 5494 01       		.uleb128 0x1
 14238 5495 51       		.byte	0x51
 14239 5496 01       		.uleb128 0x1
 14240 5497 36       		.byte	0x36
 14241 5498 00       		.byte	0
 14242 5499 00       		.byte	0
 14243 549a 4D       		.uleb128 0x4d
 14244 549b DE4E0000 		.4byte	0x4ede
 14245 549f 34010000 		.4byte	.LBB227
 14246 54a3 A0000000 		.4byte	.Ldebug_ranges0+0xa0
 14247 54a7 01       		.byte	0x1
 14248 54a8 CD       		.byte	0xcd
 14249 54a9 CD540000 		.4byte	0x54cd
 14250 54ad 4F       		.uleb128 0x4f
 14251 54ae EF4E0000 		.4byte	0x4eef
 14252 54b2 8B100000 		.4byte	.LLST58
 14253 54b6 49       		.uleb128 0x49
 14254 54b7 40010000 		.4byte	.LVL200
 14255 54bb 81580000 		.4byte	0x5881
 14256 54bf 3D       		.uleb128 0x3d
 14257 54c0 01       		.uleb128 0x1
 14258 54c1 50       		.byte	0x50
 14259 54c2 03       		.uleb128 0x3
 14260 54c3 91       		.byte	0x91
 14261 54c4 AC7F     		.sleb128 -84
 14262 54c6 3D       		.uleb128 0x3d
ARM GAS  C:\Users\JEANCO~1\AppData\Local\Temp\ccxhVNGN.s 			page 252


 14263 54c7 01       		.uleb128 0x1
 14264 54c8 51       		.byte	0x51
 14265 54c9 01       		.uleb128 0x1
 14266 54ca 37       		.byte	0x37
 14267 54cb 00       		.byte	0
 14268 54cc 00       		.byte	0
 14269 54cd 63       		.uleb128 0x63
 14270 54ce DE4E0000 		.4byte	0x4ede
 14271 54d2 52010000 		.4byte	.LBB231
 14272 54d6 08000000 		.4byte	.LBE231-.LBB231
 14273 54da 01       		.byte	0x1
 14274 54db D0       		.byte	0xd0
 14275 54dc FF540000 		.4byte	0x54ff
 14276 54e0 4F       		.uleb128 0x4f
 14277 54e1 EF4E0000 		.4byte	0x4eef
 14278 54e5 9F100000 		.4byte	.LLST59
 14279 54e9 49       		.uleb128 0x49
 14280 54ea 5A010000 		.4byte	.LVL204
 14281 54ee 81580000 		.4byte	0x5881
 14282 54f2 3D       		.uleb128 0x3d
 14283 54f3 01       		.uleb128 0x1
 14284 54f4 50       		.byte	0x50
 14285 54f5 02       		.uleb128 0x2
 14286 54f6 91       		.byte	0x91
 14287 54f7 44       		.sleb128 -60
 14288 54f8 3D       		.uleb128 0x3d
 14289 54f9 01       		.uleb128 0x1
 14290 54fa 51       		.byte	0x51
 14291 54fb 01       		.uleb128 0x1
 14292 54fc 36       		.byte	0x36
 14293 54fd 00       		.byte	0
 14294 54fe 00       		.byte	0
 14295 54ff 63       		.uleb128 0x63
 14296 5500 DE4E0000 		.4byte	0x4ede
 14297 5504 5A010000 		.4byte	.LBB233
 14298 5508 08000000 		.4byte	.LBE233-.LBB233
 14299 550c 01       		.byte	0x1
 14300 550d D1       		.byte	0xd1
 14301 550e 31550000 		.4byte	0x5531
 14302 5512 4F       		.uleb128 0x4f
 14303 5513 EF4E0000 		.4byte	0x4eef
 14304 5517 B3100000 		.4byte	.LLST60
 14305 551b 49       		.uleb128 0x49
 14306 551c 62010000 		.4byte	.LVL205
 14307 5520 81580000 		.4byte	0x5881
 14308 5524 3D       		.uleb128 0x3d
 14309 5525 01       		.uleb128 0x1
 14310 5526 50       		.byte	0x50
 14311 5527 02       		.uleb128 0x2
 14312 5528 91       		.byte	0x91
 14313 5529 4C       		.sleb128 -52
 14314 552a 3D       		.uleb128 0x3d
 14315 552b 01       		.uleb128 0x1
 14316 552c 51       		.byte	0x51
 14317 552d 01       		.uleb128 0x1
 14318 552e 37       		.byte	0x37
 14319 552f 00       		.byte	0
ARM GAS  C:\Users\JEANCO~1\AppData\Local\Temp\ccxhVNGN.s 			page 253


 14320 5530 00       		.byte	0
 14321 5531 4D       		.uleb128 0x4d
 14322 5532 AA4F0000 		.4byte	0x4faa
 14323 5536 66010000 		.4byte	.LBB235
 14324 553a B8000000 		.4byte	.Ldebug_ranges0+0xb8
 14325 553e 01       		.byte	0x1
 14326 553f D7       		.byte	0xd7
 14327 5540 72550000 		.4byte	0x5572
 14328 5544 4F       		.uleb128 0x4f
 14329 5545 E74F0000 		.4byte	0x4fe7
 14330 5549 C7100000 		.4byte	.LLST61
 14331 554d 4F       		.uleb128 0x4f
 14332 554e DB4F0000 		.4byte	0x4fdb
 14333 5552 25110000 		.4byte	.LLST62
 14334 5556 4F       		.uleb128 0x4f
 14335 5557 CF4F0000 		.4byte	0x4fcf
 14336 555b 38110000 		.4byte	.LLST63
 14337 555f 4F       		.uleb128 0x4f
 14338 5560 C34F0000 		.4byte	0x4fc3
 14339 5564 94110000 		.4byte	.LLST64
 14340 5568 4F       		.uleb128 0x4f
 14341 5569 B74F0000 		.4byte	0x4fb7
 14342 556d F0110000 		.4byte	.LLST65
 14343 5571 00       		.byte	0
 14344 5572 3C       		.uleb128 0x3c
 14345 5573 C6000000 		.4byte	.LVL186
 14346 5577 625D0000 		.4byte	0x5d62
 14347 557b 90550000 		.4byte	0x5590
 14348 557f 3D       		.uleb128 0x3d
 14349 5580 01       		.uleb128 0x1
 14350 5581 50       		.byte	0x50
 14351 5582 03       		.uleb128 0x3
 14352 5583 0A       		.byte	0xa
 14353 5584 0004     		.2byte	0x400
 14354 5586 3D       		.uleb128 0x3d
 14355 5587 01       		.uleb128 0x1
 14356 5588 51       		.byte	0x51
 14357 5589 05       		.uleb128 0x5
 14358 558a 03       		.byte	0x3
 14359 558b 00000000 		.4byte	micRight_cmplx_input
 14360 558f 00       		.byte	0
 14361 5590 3C       		.uleb128 0x3c
 14362 5591 D0000000 		.4byte	.LVL187
 14363 5595 625D0000 		.4byte	0x5d62
 14364 5599 AE550000 		.4byte	0x55ae
 14365 559d 3D       		.uleb128 0x3d
 14366 559e 01       		.uleb128 0x1
 14367 559f 50       		.byte	0x50
 14368 55a0 03       		.uleb128 0x3
 14369 55a1 0A       		.byte	0xa
 14370 55a2 0004     		.2byte	0x400
 14371 55a4 3D       		.uleb128 0x3d
 14372 55a5 01       		.uleb128 0x1
 14373 55a6 51       		.byte	0x51
 14374 55a7 05       		.uleb128 0x5
 14375 55a8 03       		.byte	0x3
 14376 55a9 00000000 		.4byte	micLeft_cmplx_input
ARM GAS  C:\Users\JEANCO~1\AppData\Local\Temp\ccxhVNGN.s 			page 254


 14377 55ad 00       		.byte	0
 14378 55ae 3C       		.uleb128 0x3c
 14379 55af DA000000 		.4byte	.LVL188
 14380 55b3 625D0000 		.4byte	0x5d62
 14381 55b7 CC550000 		.4byte	0x55cc
 14382 55bb 3D       		.uleb128 0x3d
 14383 55bc 01       		.uleb128 0x1
 14384 55bd 50       		.byte	0x50
 14385 55be 03       		.uleb128 0x3
 14386 55bf 0A       		.byte	0xa
 14387 55c0 0004     		.2byte	0x400
 14388 55c2 3D       		.uleb128 0x3d
 14389 55c3 01       		.uleb128 0x1
 14390 55c4 51       		.byte	0x51
 14391 55c5 05       		.uleb128 0x5
 14392 55c6 03       		.byte	0x3
 14393 55c7 00000000 		.4byte	micFront_cmplx_input
 14394 55cb 00       		.byte	0
 14395 55cc 3C       		.uleb128 0x3c
 14396 55cd E4000000 		.4byte	.LVL189
 14397 55d1 625D0000 		.4byte	0x5d62
 14398 55d5 EA550000 		.4byte	0x55ea
 14399 55d9 3D       		.uleb128 0x3d
 14400 55da 01       		.uleb128 0x1
 14401 55db 50       		.byte	0x50
 14402 55dc 03       		.uleb128 0x3
 14403 55dd 0A       		.byte	0xa
 14404 55de 0004     		.2byte	0x400
 14405 55e0 3D       		.uleb128 0x3d
 14406 55e1 01       		.uleb128 0x1
 14407 55e2 51       		.byte	0x51
 14408 55e3 05       		.uleb128 0x5
 14409 55e4 03       		.byte	0x3
 14410 55e5 00000000 		.4byte	micBack_cmplx_input
 14411 55e9 00       		.byte	0
 14412 55ea 3C       		.uleb128 0x3c
 14413 55eb F0000000 		.4byte	.LVL190
 14414 55ef 6D5D0000 		.4byte	0x5d6d
 14415 55f3 11560000 		.4byte	0x5611
 14416 55f7 3D       		.uleb128 0x3d
 14417 55f8 01       		.uleb128 0x1
 14418 55f9 50       		.byte	0x50
 14419 55fa 05       		.uleb128 0x5
 14420 55fb 03       		.byte	0x3
 14421 55fc 00000000 		.4byte	micRight_cmplx_input
 14422 5600 3D       		.uleb128 0x3d
 14423 5601 01       		.uleb128 0x1
 14424 5602 51       		.byte	0x51
 14425 5603 05       		.uleb128 0x5
 14426 5604 03       		.byte	0x3
 14427 5605 00000000 		.4byte	micRight_output
 14428 5609 3D       		.uleb128 0x3d
 14429 560a 01       		.uleb128 0x1
 14430 560b 52       		.byte	0x52
 14431 560c 03       		.uleb128 0x3
 14432 560d 0A       		.byte	0xa
 14433 560e 0004     		.2byte	0x400
ARM GAS  C:\Users\JEANCO~1\AppData\Local\Temp\ccxhVNGN.s 			page 255


 14434 5610 00       		.byte	0
 14435 5611 3C       		.uleb128 0x3c
 14436 5612 FC000000 		.4byte	.LVL191
 14437 5616 6D5D0000 		.4byte	0x5d6d
 14438 561a 38560000 		.4byte	0x5638
 14439 561e 3D       		.uleb128 0x3d
 14440 561f 01       		.uleb128 0x1
 14441 5620 50       		.byte	0x50
 14442 5621 05       		.uleb128 0x5
 14443 5622 03       		.byte	0x3
 14444 5623 00000000 		.4byte	micLeft_cmplx_input
 14445 5627 3D       		.uleb128 0x3d
 14446 5628 01       		.uleb128 0x1
 14447 5629 51       		.byte	0x51
 14448 562a 05       		.uleb128 0x5
 14449 562b 03       		.byte	0x3
 14450 562c 00000000 		.4byte	micLeft_output
 14451 5630 3D       		.uleb128 0x3d
 14452 5631 01       		.uleb128 0x1
 14453 5632 52       		.byte	0x52
 14454 5633 03       		.uleb128 0x3
 14455 5634 0A       		.byte	0xa
 14456 5635 0004     		.2byte	0x400
 14457 5637 00       		.byte	0
 14458 5638 3C       		.uleb128 0x3c
 14459 5639 08010000 		.4byte	.LVL192
 14460 563d 6D5D0000 		.4byte	0x5d6d
 14461 5641 5F560000 		.4byte	0x565f
 14462 5645 3D       		.uleb128 0x3d
 14463 5646 01       		.uleb128 0x1
 14464 5647 50       		.byte	0x50
 14465 5648 05       		.uleb128 0x5
 14466 5649 03       		.byte	0x3
 14467 564a 00000000 		.4byte	micFront_cmplx_input
 14468 564e 3D       		.uleb128 0x3d
 14469 564f 01       		.uleb128 0x1
 14470 5650 51       		.byte	0x51
 14471 5651 05       		.uleb128 0x5
 14472 5652 03       		.byte	0x3
 14473 5653 00000000 		.4byte	micFront_output
 14474 5657 3D       		.uleb128 0x3d
 14475 5658 01       		.uleb128 0x1
 14476 5659 52       		.byte	0x52
 14477 565a 03       		.uleb128 0x3
 14478 565b 0A       		.byte	0xa
 14479 565c 0004     		.2byte	0x400
 14480 565e 00       		.byte	0
 14481 565f 3C       		.uleb128 0x3c
 14482 5660 14010000 		.4byte	.LVL193
 14483 5664 6D5D0000 		.4byte	0x5d6d
 14484 5668 86560000 		.4byte	0x5686
 14485 566c 3D       		.uleb128 0x3d
 14486 566d 01       		.uleb128 0x1
 14487 566e 50       		.byte	0x50
 14488 566f 05       		.uleb128 0x5
 14489 5670 03       		.byte	0x3
 14490 5671 00000000 		.4byte	micBack_cmplx_input
ARM GAS  C:\Users\JEANCO~1\AppData\Local\Temp\ccxhVNGN.s 			page 256


 14491 5675 3D       		.uleb128 0x3d
 14492 5676 01       		.uleb128 0x1
 14493 5677 51       		.byte	0x51
 14494 5678 05       		.uleb128 0x5
 14495 5679 03       		.byte	0x3
 14496 567a 00000000 		.4byte	micBack_output
 14497 567e 3D       		.uleb128 0x3d
 14498 567f 01       		.uleb128 0x1
 14499 5680 52       		.byte	0x52
 14500 5681 03       		.uleb128 0x3
 14501 5682 0A       		.byte	0xa
 14502 5683 0004     		.2byte	0x400
 14503 5685 00       		.byte	0
 14504 5686 3C       		.uleb128 0x3c
 14505 5687 1C010000 		.4byte	.LVL194
 14506 568b DE4E0000 		.4byte	0x4ede
 14507 568f A0560000 		.4byte	0x56a0
 14508 5693 3D       		.uleb128 0x3d
 14509 5694 01       		.uleb128 0x1
 14510 5695 50       		.byte	0x50
 14511 5696 03       		.uleb128 0x3
 14512 5697 91       		.byte	0x91
 14513 5698 947F     		.sleb128 -108
 14514 569a 3D       		.uleb128 0x3d
 14515 569b 01       		.uleb128 0x1
 14516 569c 51       		.byte	0x51
 14517 569d 01       		.uleb128 0x1
 14518 569e 35       		.byte	0x35
 14519 569f 00       		.byte	0
 14520 56a0 3C       		.uleb128 0x3c
 14521 56a1 28010000 		.4byte	.LVL196
 14522 56a5 DE4E0000 		.4byte	0x4ede
 14523 56a9 BA560000 		.4byte	0x56ba
 14524 56ad 3D       		.uleb128 0x3d
 14525 56ae 01       		.uleb128 0x1
 14526 56af 50       		.byte	0x50
 14527 56b0 03       		.uleb128 0x3
 14528 56b1 91       		.byte	0x91
 14529 56b2 9C7F     		.sleb128 -100
 14530 56b4 3D       		.uleb128 0x3d
 14531 56b5 01       		.uleb128 0x1
 14532 56b6 51       		.byte	0x51
 14533 56b7 01       		.uleb128 0x1
 14534 56b8 34       		.byte	0x34
 14535 56b9 00       		.byte	0
 14536 56ba 3C       		.uleb128 0x3c
 14537 56bb 4A010000 		.4byte	.LVL202
 14538 56bf DE4E0000 		.4byte	0x4ede
 14539 56c3 D4560000 		.4byte	0x56d4
 14540 56c7 3D       		.uleb128 0x3d
 14541 56c8 01       		.uleb128 0x1
 14542 56c9 50       		.byte	0x50
 14543 56ca 03       		.uleb128 0x3
 14544 56cb 91       		.byte	0x91
 14545 56cc B47F     		.sleb128 -76
 14546 56ce 3D       		.uleb128 0x3d
 14547 56cf 01       		.uleb128 0x1
ARM GAS  C:\Users\JEANCO~1\AppData\Local\Temp\ccxhVNGN.s 			page 257


 14548 56d0 51       		.byte	0x51
 14549 56d1 01       		.uleb128 0x1
 14550 56d2 35       		.byte	0x35
 14551 56d3 00       		.byte	0
 14552 56d4 49       		.uleb128 0x49
 14553 56d5 52010000 		.4byte	.LVL203
 14554 56d9 DE4E0000 		.4byte	0x4ede
 14555 56dd 3D       		.uleb128 0x3d
 14556 56de 01       		.uleb128 0x1
 14557 56df 50       		.byte	0x50
 14558 56e0 03       		.uleb128 0x3
 14559 56e1 91       		.byte	0x91
 14560 56e2 BC7F     		.sleb128 -68
 14561 56e4 3D       		.uleb128 0x3d
 14562 56e5 01       		.uleb128 0x1
 14563 56e6 51       		.byte	0x51
 14564 56e7 01       		.uleb128 0x1
 14565 56e8 34       		.byte	0x34
 14566 56e9 00       		.byte	0
 14567 56ea 00       		.byte	0
 14568 56eb 3A       		.uleb128 0x3a
 14569 56ec E0020000 		.4byte	.LVL243
 14570 56f0 B15C0000 		.4byte	0x5cb1
 14571 56f4 00       		.byte	0
 14572 56f5 5F       		.uleb128 0x5f
 14573 56f6 0E1D0000 		.4byte	.LASF1026
 14574 56fa 01       		.byte	0x1
 14575 56fb 59       		.byte	0x59
 14576 56fc 00000000 		.4byte	.LFB290
 14577 5700 C0000000 		.4byte	.LFE290-.LFB290
 14578 5704 01       		.uleb128 0x1
 14579 5705 9C       		.byte	0x9c
 14580 5706 9B570000 		.4byte	0x579b
 14581 570a 60       		.uleb128 0x60
 14582 570b 00230000 		.4byte	.LASF1000
 14583 570f 01       		.byte	0x1
 14584 5710 59       		.byte	0x59
 14585 5711 EF430000 		.4byte	0x43ef
 14586 5715 03120000 		.4byte	.LLST8
 14587 5719 62       		.uleb128 0x62
 14588 571a 8B010000 		.4byte	.LASF999
 14589 571e 01       		.byte	0x1
 14590 571f 5A       		.byte	0x5a
 14591 5720 25000000 		.4byte	0x25
 14592 5724 31120000 		.4byte	.LLST9
 14593 5728 62       		.uleb128 0x62
 14594 5729 500C0000 		.4byte	.LASF1001
 14595 572d 01       		.byte	0x1
 14596 572e 5B       		.byte	0x5b
 14597 572f DD000000 		.4byte	0xdd
 14598 5733 91120000 		.4byte	.LLST10
 14599 5737 47       		.uleb128 0x47
 14600 5738 16000000 		.4byte	.LBB160
 14601 573c 22000000 		.4byte	.LBE160-.LBB160
 14602 5740 52570000 		.4byte	0x5752
 14603 5744 61       		.uleb128 0x61
 14604 5745 6900     		.ascii	"i\000"
ARM GAS  C:\Users\JEANCO~1\AppData\Local\Temp\ccxhVNGN.s 			page 258


 14605 5747 01       		.byte	0x1
 14606 5748 5E       		.byte	0x5e
 14607 5749 E8000000 		.4byte	0xe8
 14608 574d A6120000 		.4byte	.LLST11
 14609 5751 00       		.byte	0
 14610 5752 3C       		.uleb128 0x3c
 14611 5753 5E000000 		.4byte	.LVL31
 14612 5757 D05C0000 		.4byte	0x5cd0
 14613 575b 65570000 		.4byte	0x5765
 14614 575f 3D       		.uleb128 0x3d
 14615 5760 01       		.uleb128 0x1
 14616 5761 50       		.byte	0x50
 14617 5762 01       		.uleb128 0x1
 14618 5763 30       		.byte	0x30
 14619 5764 00       		.byte	0
 14620 5765 3A       		.uleb128 0x3a
 14621 5766 6E000000 		.4byte	.LVL32
 14622 576a B15C0000 		.4byte	0x5cb1
 14623 576e 3A       		.uleb128 0x3a
 14624 576f 74000000 		.4byte	.LVL33
 14625 5773 D05C0000 		.4byte	0x5cd0
 14626 5777 64       		.uleb128 0x64
 14627 5778 8C000000 		.4byte	.LVL34
 14628 577c C55C0000 		.4byte	0x5cc5
 14629 5780 3A       		.uleb128 0x3a
 14630 5781 98000000 		.4byte	.LVL35
 14631 5785 D05C0000 		.4byte	0x5cd0
 14632 5789 65       		.uleb128 0x65
 14633 578a AC000000 		.4byte	.LVL36
 14634 578e C55C0000 		.4byte	0x5cc5
 14635 5792 3D       		.uleb128 0x3d
 14636 5793 01       		.uleb128 0x1
 14637 5794 50       		.byte	0x50
 14638 5795 03       		.uleb128 0x3
 14639 5796 0B       		.byte	0xb
 14640 5797 A8FD     		.2byte	0xfda8
 14641 5799 00       		.byte	0
 14642 579a 00       		.byte	0
 14643 579b 66       		.uleb128 0x66
 14644 579c 04190000 		.4byte	.LASF1027
 14645 57a0 02       		.byte	0x2
 14646 57a1 1A01     		.2byte	0x11a
 14647 57a3 03       		.byte	0x3
 14648 57a4 B5570000 		.4byte	0x57b5
 14649 57a8 67       		.uleb128 0x67
 14650 57a9 62737000 		.ascii	"bsp\000"
 14651 57ad 02       		.byte	0x2
 14652 57ae 1A01     		.2byte	0x11a
 14653 57b0 B5570000 		.4byte	0x57b5
 14654 57b4 00       		.byte	0
 14655 57b5 0B       		.uleb128 0xb
 14656 57b6 04       		.byte	0x4
 14657 57b7 77120000 		.4byte	0x1277
 14658 57bb 66       		.uleb128 0x66
 14659 57bc 68160000 		.4byte	.LASF1028
 14660 57c0 02       		.byte	0x2
 14661 57c1 0A01     		.2byte	0x10a
ARM GAS  C:\Users\JEANCO~1\AppData\Local\Temp\ccxhVNGN.s 			page 259


 14662 57c3 03       		.byte	0x3
 14663 57c4 D5570000 		.4byte	0x57d5
 14664 57c8 67       		.uleb128 0x67
 14665 57c9 62737000 		.ascii	"bsp\000"
 14666 57cd 02       		.byte	0x2
 14667 57ce 0A01     		.2byte	0x10a
 14668 57d0 B5570000 		.4byte	0x57b5
 14669 57d4 00       		.byte	0
 14670 57d5 68       		.uleb128 0x68
 14671 57d6 25050000 		.4byte	.LASF1030
 14672 57da 02       		.byte	0x2
 14673 57db 8D       		.byte	0x8d
 14674 57dc 70010000 		.4byte	0x170
 14675 57e0 03       		.byte	0x3
 14676 57e1 F1570000 		.4byte	0x57f1
 14677 57e5 69       		.uleb128 0x69
 14678 57e6 62737000 		.ascii	"bsp\000"
 14679 57ea 02       		.byte	0x2
 14680 57eb 8D       		.byte	0x8d
 14681 57ec B5570000 		.4byte	0x57b5
 14682 57f0 00       		.byte	0
 14683 57f1 6A       		.uleb128 0x6a
 14684 57f2 2E250000 		.4byte	.LASF1029
 14685 57f6 05       		.byte	0x5
 14686 57f7 84       		.byte	0x84
 14687 57f8 03       		.byte	0x3
 14688 57f9 09580000 		.4byte	0x5809
 14689 57fd 6B       		.uleb128 0x6b
 14690 57fe F7260000 		.4byte	.LASF775
 14691 5802 05       		.byte	0x5
 14692 5803 84       		.byte	0x84
 14693 5804 0D110000 		.4byte	0x110d
 14694 5808 00       		.byte	0
 14695 5809 68       		.uleb128 0x68
 14696 580a 50280000 		.4byte	.LASF1031
 14697 580e 06       		.byte	0x6
 14698 580f F7       		.byte	0xf7
 14699 5810 A7010000 		.4byte	0x1a7
 14700 5814 03       		.byte	0x3
 14701 5815 25580000 		.4byte	0x5825
 14702 5819 33       		.uleb128 0x33
 14703 581a FE280000 		.4byte	.LASF1032
 14704 581e 06       		.byte	0x6
 14705 581f F8       		.byte	0xf8
 14706 5820 A7010000 		.4byte	0x1a7
 14707 5824 00       		.byte	0
 14708 5825 6C       		.uleb128 0x6c
 14709 5826 1C220000 		.4byte	.LASF1065
 14710 582a 06       		.byte	0x6
 14711 582b E4       		.byte	0xe4
 14712 582c A7010000 		.4byte	0x1a7
 14713 5830 03       		.byte	0x3
 14714 5831 66       		.uleb128 0x66
 14715 5832 48250000 		.4byte	.LASF1033
 14716 5836 04       		.byte	0x4
 14717 5837 6601     		.2byte	0x166
 14718 5839 03       		.byte	0x3
ARM GAS  C:\Users\JEANCO~1\AppData\Local\Temp\ccxhVNGN.s 			page 260


 14719 583a 4C580000 		.4byte	0x584c
 14720 583e 6D       		.uleb128 0x6d
 14721 583f B2180000 		.4byte	.LASF1034
 14722 5843 564D0000 		.4byte	0x4d56
 14723 5847 48250000 		.4byte	.LASF1033
 14724 584b 00       		.byte	0
 14725 584c 6E       		.uleb128 0x6e
 14726 584d 141B0000 		.4byte	.LASF1035
 14727 5851 04       		.byte	0x4
 14728 5852 5A01     		.2byte	0x15a
 14729 5854 03       		.byte	0x3
 14730 5855 6E       		.uleb128 0x6e
 14731 5856 9F1A0000 		.4byte	.LASF1036
 14732 585a 11       		.byte	0x11
 14733 585b CA01     		.2byte	0x1ca
 14734 585d 03       		.byte	0x3
 14735 585e 6E       		.uleb128 0x6e
 14736 585f E31C0000 		.4byte	.LASF1037
 14737 5863 11       		.byte	0x11
 14738 5864 BC01     		.2byte	0x1bc
 14739 5866 03       		.byte	0x3
 14740 5867 66       		.uleb128 0x66
 14741 5868 2A290000 		.4byte	.LASF1038
 14742 586c 03       		.byte	0x3
 14743 586d 2002     		.2byte	0x220
 14744 586f 03       		.byte	0x3
 14745 5870 81580000 		.4byte	0x5881
 14746 5874 36       		.uleb128 0x36
 14747 5875 6B0D0000 		.4byte	.LASF900
 14748 5879 03       		.byte	0x3
 14749 587a 2002     		.2byte	0x220
 14750 587c 03010000 		.4byte	0x103
 14751 5880 00       		.byte	0
 14752 5881 6F       		.uleb128 0x6f
 14753 5882 DE4E0000 		.4byte	0x4ede
 14754 5886 00000000 		.4byte	.LFB310
 14755 588a BC000000 		.4byte	.LFE310-.LFB310
 14756 588e 01       		.uleb128 0x1
 14757 588f 9C       		.byte	0x9c
 14758 5890 62590000 		.4byte	0x5962
 14759 5894 4F       		.uleb128 0x4f
 14760 5895 EF4E0000 		.4byte	0x4eef
 14761 5899 D2120000 		.4byte	.LLST0
 14762 589d 70       		.uleb128 0x70
 14763 589e FB4E0000 		.4byte	0x4efb
 14764 58a2 12000000 		.4byte	.LBB151
 14765 58a6 06000000 		.4byte	.LBE151-.LBB151
 14766 58aa B8580000 		.4byte	0x58b8
 14767 58ae 71       		.uleb128 0x71
 14768 58af FC4E0000 		.4byte	0x4efc
 14769 58b3 25130000 		.4byte	.LLST1
 14770 58b7 00       		.byte	0
 14771 58b8 52       		.uleb128 0x52
 14772 58b9 5C4F0000 		.4byte	0x4f5c
 14773 58bd 26000000 		.4byte	.LBB152
 14774 58c1 00000000 		.4byte	.Ldebug_ranges0+0
 14775 58c5 01       		.byte	0x1
ARM GAS  C:\Users\JEANCO~1\AppData\Local\Temp\ccxhVNGN.s 			page 261


 14776 58c6 BC01     		.2byte	0x1bc
 14777 58c8 06590000 		.4byte	0x5906
 14778 58cc 53       		.uleb128 0x53
 14779 58cd 6D4F0000 		.4byte	0x4f6d
 14780 58d1 54       		.uleb128 0x54
 14781 58d2 00000000 		.4byte	.Ldebug_ranges0+0
 14782 58d6 71       		.uleb128 0x71
 14783 58d7 794F0000 		.4byte	0x4f79
 14784 58db 3F130000 		.4byte	.LLST2
 14785 58df 71       		.uleb128 0x71
 14786 58e0 854F0000 		.4byte	0x4f85
 14787 58e4 53130000 		.4byte	.LLST3
 14788 58e8 4C       		.uleb128 0x4c
 14789 58e9 914F0000 		.4byte	0x4f91
 14790 58ed 72       		.uleb128 0x72
 14791 58ee 9D4F0000 		.4byte	0x4f9d
 14792 58f2 2E000000 		.4byte	.LBB154
 14793 58f6 2C000000 		.4byte	.LBE154-.LBB154
 14794 58fa 71       		.uleb128 0x71
 14795 58fb 9E4F0000 		.4byte	0x4f9e
 14796 58ff 71130000 		.4byte	.LLST4
 14797 5903 00       		.byte	0
 14798 5904 00       		.byte	0
 14799 5905 00       		.byte	0
 14800 5906 4A       		.uleb128 0x4a
 14801 5907 5C4F0000 		.4byte	0x4f5c
 14802 590b 68000000 		.4byte	.LBB156
 14803 590f 34000000 		.4byte	.LBE156-.LBB156
 14804 5913 01       		.byte	0x1
 14805 5914 B901     		.2byte	0x1b9
 14806 5916 58590000 		.4byte	0x5958
 14807 591a 53       		.uleb128 0x53
 14808 591b 6D4F0000 		.4byte	0x4f6d
 14809 591f 4B       		.uleb128 0x4b
 14810 5920 68000000 		.4byte	.LBB157
 14811 5924 34000000 		.4byte	.LBE157-.LBB157
 14812 5928 71       		.uleb128 0x71
 14813 5929 794F0000 		.4byte	0x4f79
 14814 592d 84130000 		.4byte	.LLST5
 14815 5931 71       		.uleb128 0x71
 14816 5932 854F0000 		.4byte	0x4f85
 14817 5936 98130000 		.4byte	.LLST6
 14818 593a 4C       		.uleb128 0x4c
 14819 593b 914F0000 		.4byte	0x4f91
 14820 593f 72       		.uleb128 0x72
 14821 5940 9D4F0000 		.4byte	0x4f9d
 14822 5944 70000000 		.4byte	.LBB158
 14823 5948 2C000000 		.4byte	.LBE158-.LBB158
 14824 594c 71       		.uleb128 0x71
 14825 594d 9E4F0000 		.4byte	0x4f9e
 14826 5951 B6130000 		.4byte	.LLST7
 14827 5955 00       		.byte	0
 14828 5956 00       		.byte	0
 14829 5957 00       		.byte	0
 14830 5958 3A       		.uleb128 0x3a
 14831 5959 AC000000 		.4byte	.LVL22
 14832 595d B15C0000 		.4byte	0x5cb1
ARM GAS  C:\Users\JEANCO~1\AppData\Local\Temp\ccxhVNGN.s 			page 262


 14833 5961 00       		.byte	0
 14834 5962 73       		.uleb128 0x73
 14835 5963 BA500000 		.4byte	0x50ba
 14836 5967 00000000 		.4byte	.LFB292
 14837 596b 78000000 		.4byte	.LFE292-.LFB292
 14838 596f 01       		.uleb128 0x1
 14839 5970 9C       		.byte	0x9c
 14840 5971 AC590000 		.4byte	0x59ac
 14841 5975 4F       		.uleb128 0x4f
 14842 5976 CB500000 		.4byte	0x50cb
 14843 597a C9130000 		.4byte	.LLST12
 14844 597e 4F       		.uleb128 0x4f
 14845 597f D7500000 		.4byte	0x50d7
 14846 5983 E7130000 		.4byte	.LLST13
 14847 5987 71       		.uleb128 0x71
 14848 5988 E3500000 		.4byte	0x50e3
 14849 598c 08140000 		.4byte	.LLST14
 14850 5990 71       		.uleb128 0x71
 14851 5991 EF500000 		.4byte	0x50ef
 14852 5995 32140000 		.4byte	.LLST15
 14853 5999 3A       		.uleb128 0x3a
 14854 599a 42000000 		.4byte	.LVL45
 14855 599e 135D0000 		.4byte	0x5d13
 14856 59a2 3A       		.uleb128 0x3a
 14857 59a3 64000000 		.4byte	.LVL49
 14858 59a7 B15C0000 		.4byte	0x5cb1
 14859 59ab 00       		.byte	0
 14860 59ac 6F       		.uleb128 0x6f
 14861 59ad F44F0000 		.4byte	0x4ff4
 14862 59b1 00000000 		.4byte	.LFB294
 14863 59b5 44000000 		.4byte	.LFE294-.LFB294
 14864 59b9 01       		.uleb128 0x1
 14865 59ba 9C       		.byte	0x9c
 14866 59bb EE590000 		.4byte	0x59ee
 14867 59bf 4F       		.uleb128 0x4f
 14868 59c0 05500000 		.4byte	0x5005
 14869 59c4 4A140000 		.4byte	.LLST23
 14870 59c8 71       		.uleb128 0x71
 14871 59c9 11500000 		.4byte	0x5011
 14872 59cd 6B140000 		.4byte	.LLST24
 14873 59d1 43       		.uleb128 0x43
 14874 59d2 18000000 		.4byte	.Ldebug_ranges0+0x18
 14875 59d6 E4590000 		.4byte	0x59e4
 14876 59da 71       		.uleb128 0x71
 14877 59db 1E500000 		.4byte	0x501e
 14878 59df 7E140000 		.4byte	.LLST25
 14879 59e3 00       		.byte	0
 14880 59e4 3A       		.uleb128 0x3a
 14881 59e5 38000000 		.4byte	.LVL103
 14882 59e9 B15C0000 		.4byte	0x5cb1
 14883 59ed 00       		.byte	0
 14884 59ee 6F       		.uleb128 0x6f
 14885 59ef AA4F0000 		.4byte	0x4faa
 14886 59f3 00000000 		.4byte	.LFB295
 14887 59f7 44000000 		.4byte	.LFE295-.LFB295
 14888 59fb 01       		.uleb128 0x1
 14889 59fc 9C       		.byte	0x9c
ARM GAS  C:\Users\JEANCO~1\AppData\Local\Temp\ccxhVNGN.s 			page 263


 14890 59fd 385A0000 		.4byte	0x5a38
 14891 5a01 4F       		.uleb128 0x4f
 14892 5a02 B74F0000 		.4byte	0x4fb7
 14893 5a06 AA140000 		.4byte	.LLST26
 14894 5a0a 4F       		.uleb128 0x4f
 14895 5a0b C34F0000 		.4byte	0x4fc3
 14896 5a0f CB140000 		.4byte	.LLST27
 14897 5a13 4F       		.uleb128 0x4f
 14898 5a14 CF4F0000 		.4byte	0x4fcf
 14899 5a18 EC140000 		.4byte	.LLST28
 14900 5a1c 4F       		.uleb128 0x4f
 14901 5a1d DB4F0000 		.4byte	0x4fdb
 14902 5a21 1E150000 		.4byte	.LLST29
 14903 5a25 4F       		.uleb128 0x4f
 14904 5a26 E74F0000 		.4byte	0x4fe7
 14905 5a2a 3F150000 		.4byte	.LLST30
 14906 5a2e 3A       		.uleb128 0x3a
 14907 5a2f 3C000000 		.4byte	.LVL110
 14908 5a33 B15C0000 		.4byte	0x5cb1
 14909 5a37 00       		.byte	0
 14910 5a38 6F       		.uleb128 0x6f
 14911 5a39 5C4F0000 		.4byte	0x4f5c
 14912 5a3d 00000000 		.4byte	.LFB296
 14913 5a41 64000000 		.4byte	.LFE296-.LFB296
 14914 5a45 01       		.uleb128 0x1
 14915 5a46 9C       		.byte	0x9c
 14916 5a47 905A0000 		.4byte	0x5a90
 14917 5a4b 4F       		.uleb128 0x4f
 14918 5a4c 6D4F0000 		.4byte	0x4f6d
 14919 5a50 5F150000 		.4byte	.LLST31
 14920 5a54 71       		.uleb128 0x71
 14921 5a55 794F0000 		.4byte	0x4f79
 14922 5a59 8D150000 		.4byte	.LLST32
 14923 5a5d 71       		.uleb128 0x71
 14924 5a5e 854F0000 		.4byte	0x4f85
 14925 5a62 B1150000 		.4byte	.LLST33
 14926 5a66 71       		.uleb128 0x71
 14927 5a67 914F0000 		.4byte	0x4f91
 14928 5a6b EB150000 		.4byte	.LLST34
 14929 5a6f 47       		.uleb128 0x47
 14930 5a70 14000000 		.4byte	.LBB165
 14931 5a74 2C000000 		.4byte	.LBE165-.LBB165
 14932 5a78 865A0000 		.4byte	0x5a86
 14933 5a7c 71       		.uleb128 0x71
 14934 5a7d 9E4F0000 		.4byte	0x4f9e
 14935 5a81 1C160000 		.4byte	.LLST35
 14936 5a85 00       		.byte	0
 14937 5a86 3A       		.uleb128 0x3a
 14938 5a87 5A000000 		.4byte	.LVL122
 14939 5a8b B15C0000 		.4byte	0x5cb1
 14940 5a8f 00       		.byte	0
 14941 5a90 6F       		.uleb128 0x6f
 14942 5a91 DE4E0000 		.4byte	0x4ede
 14943 5a95 00000000 		.4byte	.LFB298
 14944 5a99 C0000000 		.4byte	.LFE298-.LFB298
 14945 5a9d 01       		.uleb128 0x1
 14946 5a9e 9C       		.byte	0x9c
ARM GAS  C:\Users\JEANCO~1\AppData\Local\Temp\ccxhVNGN.s 			page 264


 14947 5a9f 525B0000 		.4byte	0x5b52
 14948 5aa3 4F       		.uleb128 0x4f
 14949 5aa4 EF4E0000 		.4byte	0x4eef
 14950 5aa8 3B160000 		.4byte	.LLST36
 14951 5aac 52       		.uleb128 0x52
 14952 5aad 5C4F0000 		.4byte	0x4f5c
 14953 5ab1 28000000 		.4byte	.LBB170
 14954 5ab5 58000000 		.4byte	.Ldebug_ranges0+0x58
 14955 5ab9 01       		.byte	0x1
 14956 5aba B601     		.2byte	0x1b6
 14957 5abc EE5A0000 		.4byte	0x5aee
 14958 5ac0 53       		.uleb128 0x53
 14959 5ac1 6D4F0000 		.4byte	0x4f6d
 14960 5ac5 54       		.uleb128 0x54
 14961 5ac6 58000000 		.4byte	.Ldebug_ranges0+0x58
 14962 5aca 4C       		.uleb128 0x4c
 14963 5acb 545A0000 		.4byte	0x5a54
 14964 5acf 4C       		.uleb128 0x4c
 14965 5ad0 5D5A0000 		.4byte	0x5a5d
 14966 5ad4 4C       		.uleb128 0x4c
 14967 5ad5 665A0000 		.4byte	0x5a66
 14968 5ad9 72       		.uleb128 0x72
 14969 5ada 6F5A0000 		.4byte	0x5a6f
 14970 5ade 30000000 		.4byte	.LBB172
 14971 5ae2 2C000000 		.4byte	.LBE172-.LBB172
 14972 5ae6 4C       		.uleb128 0x4c
 14973 5ae7 7C5A0000 		.4byte	0x5a7c
 14974 5aeb 00       		.byte	0
 14975 5aec 00       		.byte	0
 14976 5aed 00       		.byte	0
 14977 5aee 4A       		.uleb128 0x4a
 14978 5aef 5C4F0000 		.4byte	0x4f5c
 14979 5af3 6A000000 		.4byte	.LBB174
 14980 5af7 34000000 		.4byte	.LBE174-.LBB174
 14981 5afb 01       		.byte	0x1
 14982 5afc B301     		.2byte	0x1b3
 14983 5afe 345B0000 		.4byte	0x5b34
 14984 5b02 53       		.uleb128 0x53
 14985 5b03 6D4F0000 		.4byte	0x4f6d
 14986 5b07 4B       		.uleb128 0x4b
 14987 5b08 6A000000 		.4byte	.LBB175
 14988 5b0c 34000000 		.4byte	.LBE175-.LBB175
 14989 5b10 4C       		.uleb128 0x4c
 14990 5b11 545A0000 		.4byte	0x5a54
 14991 5b15 4C       		.uleb128 0x4c
 14992 5b16 5D5A0000 		.4byte	0x5a5d
 14993 5b1a 4C       		.uleb128 0x4c
 14994 5b1b 665A0000 		.4byte	0x5a66
 14995 5b1f 72       		.uleb128 0x72
 14996 5b20 6F5A0000 		.4byte	0x5a6f
 14997 5b24 72000000 		.4byte	.LBB176
 14998 5b28 2C000000 		.4byte	.LBE176-.LBB176
 14999 5b2c 4C       		.uleb128 0x4c
 15000 5b2d 7C5A0000 		.4byte	0x5a7c
 15001 5b31 00       		.byte	0
 15002 5b32 00       		.byte	0
 15003 5b33 00       		.byte	0
ARM GAS  C:\Users\JEANCO~1\AppData\Local\Temp\ccxhVNGN.s 			page 265


 15004 5b34 3C       		.uleb128 0x3c
 15005 5b35 18000000 		.4byte	.LVL127
 15006 5b39 81580000 		.4byte	0x5881
 15007 5b3d 485B0000 		.4byte	0x5b48
 15008 5b41 3D       		.uleb128 0x3d
 15009 5b42 01       		.uleb128 0x1
 15010 5b43 50       		.byte	0x50
 15011 5b44 02       		.uleb128 0x2
 15012 5b45 74       		.byte	0x74
 15013 5b46 00       		.sleb128 0
 15014 5b47 00       		.byte	0
 15015 5b48 3A       		.uleb128 0x3a
 15016 5b49 AE000000 		.4byte	.LVL148
 15017 5b4d B15C0000 		.4byte	0x5cb1
 15018 5b51 00       		.byte	0
 15019 5b52 6F       		.uleb128 0x6f
 15020 5b53 6C4E0000 		.4byte	0x4e6c
 15021 5b57 00000000 		.4byte	.LFB300
 15022 5b5b 88000000 		.4byte	.LFE300-.LFB300
 15023 5b5f 01       		.uleb128 0x1
 15024 5b60 9C       		.byte	0x9c
 15025 5b61 0B5C0000 		.4byte	0x5c0b
 15026 5b65 4F       		.uleb128 0x4f
 15027 5b66 794E0000 		.4byte	0x4e79
 15028 5b6a 8E160000 		.4byte	.LLST38
 15029 5b6e 4F       		.uleb128 0x4f
 15030 5b6f 854E0000 		.4byte	0x4e85
 15031 5b73 F7160000 		.4byte	.LLST39
 15032 5b77 4F       		.uleb128 0x4f
 15033 5b78 914E0000 		.4byte	0x4e91
 15034 5b7c 60170000 		.4byte	.LLST40
 15035 5b80 4F       		.uleb128 0x4f
 15036 5b81 9D4E0000 		.4byte	0x4e9d
 15037 5b85 C9170000 		.4byte	.LLST41
 15038 5b89 70       		.uleb128 0x70
 15039 5b8a 6C4E0000 		.4byte	0x4e6c
 15040 5b8e 5C000000 		.4byte	.LBB180
 15041 5b92 0E000000 		.4byte	.LBE180-.LBB180
 15042 5b96 BF5B0000 		.4byte	0x5bbf
 15043 5b9a 4F       		.uleb128 0x4f
 15044 5b9b 794E0000 		.4byte	0x4e79
 15045 5b9f 32180000 		.4byte	.LLST42
 15046 5ba3 4F       		.uleb128 0x4f
 15047 5ba4 854E0000 		.4byte	0x4e85
 15048 5ba8 45180000 		.4byte	.LLST43
 15049 5bac 4F       		.uleb128 0x4f
 15050 5bad 914E0000 		.4byte	0x4e91
 15051 5bb1 58180000 		.4byte	.LLST44
 15052 5bb5 4F       		.uleb128 0x4f
 15053 5bb6 9D4E0000 		.4byte	0x4e9d
 15054 5bba 6B180000 		.4byte	.LLST45
 15055 5bbe 00       		.byte	0
 15056 5bbf 3A       		.uleb128 0x3a
 15057 5bc0 18000000 		.4byte	.LVL168
 15058 5bc4 795D0000 		.4byte	0x5d79
 15059 5bc8 5E       		.uleb128 0x5e
 15060 5bc9 3A000000 		.4byte	.LVL170
ARM GAS  C:\Users\JEANCO~1\AppData\Local\Temp\ccxhVNGN.s 			page 266


 15061 5bcd 845D0000 		.4byte	0x5d84
 15062 5bd1 E05B0000 		.4byte	0x5be0
 15063 5bd5 3D       		.uleb128 0x3d
 15064 5bd6 01       		.uleb128 0x1
 15065 5bd7 50       		.byte	0x50
 15066 5bd8 01       		.uleb128 0x1
 15067 5bd9 30       		.byte	0x30
 15068 5bda 3D       		.uleb128 0x3d
 15069 5bdb 01       		.uleb128 0x1
 15070 5bdc 51       		.byte	0x51
 15071 5bdd 01       		.uleb128 0x1
 15072 5bde 31       		.byte	0x31
 15073 5bdf 00       		.byte	0
 15074 5be0 64       		.uleb128 0x64
 15075 5be1 5C000000 		.4byte	.LVL172
 15076 5be5 845D0000 		.4byte	0x5d84
 15077 5be9 5E       		.uleb128 0x5e
 15078 5bea 80000000 		.4byte	.LVL175
 15079 5bee 845D0000 		.4byte	0x5d84
 15080 5bf2 015C0000 		.4byte	0x5c01
 15081 5bf6 3D       		.uleb128 0x3d
 15082 5bf7 01       		.uleb128 0x1
 15083 5bf8 50       		.byte	0x50
 15084 5bf9 01       		.uleb128 0x1
 15085 5bfa 33       		.byte	0x33
 15086 5bfb 3D       		.uleb128 0x3d
 15087 5bfc 01       		.uleb128 0x1
 15088 5bfd 51       		.byte	0x51
 15089 5bfe 01       		.uleb128 0x1
 15090 5bff 31       		.byte	0x31
 15091 5c00 00       		.byte	0
 15092 5c01 3A       		.uleb128 0x3a
 15093 5c02 84000000 		.4byte	.LVL176
 15094 5c06 B15C0000 		.4byte	0x5cb1
 15095 5c0a 00       		.byte	0
 15096 5c0b 6F       		.uleb128 0x6f
 15097 5c0c D34D0000 		.4byte	0x4dd3
 15098 5c10 00000000 		.4byte	.LFB303
 15099 5c14 28000000 		.4byte	.LFE303-.LFB303
 15100 5c18 01       		.uleb128 0x1
 15101 5c19 9C       		.byte	0x9c
 15102 5c1a 285C0000 		.4byte	0x5c28
 15103 5c1e 3A       		.uleb128 0x3a
 15104 5c1f 20000000 		.4byte	.LVL250
 15105 5c23 B15C0000 		.4byte	0x5cb1
 15106 5c27 00       		.byte	0
 15107 5c28 6F       		.uleb128 0x6f
 15108 5c29 614D0000 		.4byte	0x4d61
 15109 5c2d 00000000 		.4byte	.LFB305
 15110 5c31 A0000000 		.4byte	.LFE305-.LFB305
 15111 5c35 01       		.uleb128 0x1
 15112 5c36 9C       		.byte	0x9c
 15113 5c37 745C0000 		.4byte	0x5c74
 15114 5c3b 4F       		.uleb128 0x4f
 15115 5c3c 724D0000 		.4byte	0x4d72
 15116 5c40 7E180000 		.4byte	.LLST74
 15117 5c44 4F       		.uleb128 0x4f
ARM GAS  C:\Users\JEANCO~1\AppData\Local\Temp\ccxhVNGN.s 			page 267


 15118 5c45 7E4D0000 		.4byte	0x4d7e
 15119 5c49 A2180000 		.4byte	.LLST75
 15120 5c4d 71       		.uleb128 0x71
 15121 5c4e 8A4D0000 		.4byte	0x4d8a
 15122 5c52 FE180000 		.4byte	.LLST76
 15123 5c56 71       		.uleb128 0x71
 15124 5c57 964D0000 		.4byte	0x4d96
 15125 5c5b 44190000 		.4byte	.LLST77
 15126 5c5f 74       		.uleb128 0x74
 15127 5c60 A24D0000 		.4byte	0x4da2
 15128 5c64 05       		.uleb128 0x5
 15129 5c65 03       		.byte	0x3
 15130 5c66 00000000 		.4byte	sum_error.14360
 15131 5c6a 3A       		.uleb128 0x3a
 15132 5c6b 86000000 		.4byte	.LVL263
 15133 5c6f B15C0000 		.4byte	0x5cb1
 15134 5c73 00       		.byte	0
 15135 5c74 6F       		.uleb128 0x6f
 15136 5c75 4C470000 		.4byte	0x474c
 15137 5c79 00000000 		.4byte	.LFB309
 15138 5c7d A8000000 		.4byte	.LFE309-.LFB309
 15139 5c81 01       		.uleb128 0x1
 15140 5c82 9C       		.byte	0x9c
 15141 5c83 B15C0000 		.4byte	0x5cb1
 15142 5c87 4F       		.uleb128 0x4f
 15143 5c88 59470000 		.4byte	0x4759
 15144 5c8c BC190000 		.4byte	.LLST82
 15145 5c90 75       		.uleb128 0x75
 15146 5c91 4C470000 		.4byte	0x474c
 15147 5c95 78030000 		.4byte	.Ldebug_ranges0+0x378
 15148 5c99 A75C0000 		.4byte	0x5ca7
 15149 5c9d 4F       		.uleb128 0x4f
 15150 5c9e 59470000 		.4byte	0x4759
 15151 5ca2 281A0000 		.4byte	.LLST83
 15152 5ca6 00       		.byte	0
 15153 5ca7 3A       		.uleb128 0x3a
 15154 5ca8 80000000 		.4byte	.LVL310
 15155 5cac B15C0000 		.4byte	0x5cb1
 15156 5cb0 00       		.byte	0
 15157 5cb1 76       		.uleb128 0x76
 15158 5cb2 FF060000 		.4byte	.LASF1066
 15159 5cb6 FF060000 		.4byte	.LASF1066
 15160 5cba 77       		.uleb128 0x77
 15161 5cbb 8E0A0000 		.4byte	.LASF1039
 15162 5cbf 8E0A0000 		.4byte	.LASF1039
 15163 5cc3 45       		.byte	0x45
 15164 5cc4 89       		.byte	0x89
 15165 5cc5 77       		.uleb128 0x77
 15166 5cc6 771B0000 		.4byte	.LASF1040
 15167 5cca 771B0000 		.4byte	.LASF1040
 15168 5cce 46       		.byte	0x46
 15169 5ccf 15       		.byte	0x15
 15170 5cd0 77       		.uleb128 0x77
 15171 5cd1 D31A0000 		.4byte	.LASF1041
 15172 5cd5 D31A0000 		.4byte	.LASF1041
 15173 5cd9 46       		.byte	0x46
 15174 5cda 0E       		.byte	0xe
ARM GAS  C:\Users\JEANCO~1\AppData\Local\Temp\ccxhVNGN.s 			page 268


 15175 5cdb 77       		.uleb128 0x77
 15176 5cdc 442A0000 		.4byte	.LASF1042
 15177 5ce0 442A0000 		.4byte	.LASF1042
 15178 5ce4 14       		.byte	0x14
 15179 5ce5 4F       		.byte	0x4f
 15180 5ce6 77       		.uleb128 0x77
 15181 5ce7 C4040000 		.4byte	.LASF1043
 15182 5ceb C4040000 		.4byte	.LASF1043
 15183 5cef 12       		.byte	0x12
 15184 5cf0 D8       		.byte	0xd8
 15185 5cf1 77       		.uleb128 0x77
 15186 5cf2 FF160000 		.4byte	.LASF1044
 15187 5cf6 FF160000 		.4byte	.LASF1044
 15188 5cfa 12       		.byte	0x12
 15189 5cfb D9       		.byte	0xd9
 15190 5cfc 77       		.uleb128 0x77
 15191 5cfd 961E0000 		.4byte	.LASF1045
 15192 5d01 961E0000 		.4byte	.LASF1045
 15193 5d05 14       		.byte	0x14
 15194 5d06 50       		.byte	0x50
 15195 5d07 78       		.uleb128 0x78
 15196 5d08 A7070000 		.4byte	.LASF1046
 15197 5d0c A7070000 		.4byte	.LASF1046
 15198 5d10 04       		.byte	0x4
 15199 5d11 1601     		.2byte	0x116
 15200 5d13 77       		.uleb128 0x77
 15201 5d14 B32B0000 		.4byte	.LASF1047
 15202 5d18 B32B0000 		.4byte	.LASF1047
 15203 5d1c 43       		.byte	0x43
 15204 5d1d 70       		.byte	0x70
 15205 5d1e 78       		.uleb128 0x78
 15206 5d1f C8100000 		.4byte	.LASF988
 15207 5d23 C8100000 		.4byte	.LASF988
 15208 5d27 01       		.byte	0x1
 15209 5d28 C302     		.2byte	0x2c3
 15210 5d2a 77       		.uleb128 0x77
 15211 5d2b 222A0000 		.4byte	.LASF1048
 15212 5d2f 222A0000 		.4byte	.LASF1048
 15213 5d33 45       		.byte	0x45
 15214 5d34 98       		.byte	0x98
 15215 5d35 77       		.uleb128 0x77
 15216 5d36 232C0000 		.4byte	.LASF1049
 15217 5d3a 232C0000 		.4byte	.LASF1049
 15218 5d3e 15       		.byte	0x15
 15219 5d3f 5E       		.byte	0x5e
 15220 5d40 77       		.uleb128 0x77
 15221 5d41 BE1F0000 		.4byte	.LASF1050
 15222 5d45 BE1F0000 		.4byte	.LASF1050
 15223 5d49 12       		.byte	0x12
 15224 5d4a DE       		.byte	0xde
 15225 5d4b 77       		.uleb128 0x77
 15226 5d4c 05160000 		.4byte	.LASF1051
 15227 5d50 05160000 		.4byte	.LASF1051
 15228 5d54 15       		.byte	0x15
 15229 5d55 63       		.byte	0x63
 15230 5d56 78       		.uleb128 0x78
 15231 5d57 341D0000 		.4byte	.LASF1052
ARM GAS  C:\Users\JEANCO~1\AppData\Local\Temp\ccxhVNGN.s 			page 269


 15232 5d5b 341D0000 		.4byte	.LASF1052
 15233 5d5f 0C       		.byte	0xc
 15234 5d60 1702     		.2byte	0x217
 15235 5d62 77       		.uleb128 0x77
 15236 5d63 BE2A0000 		.4byte	.LASF1053
 15237 5d67 BE2A0000 		.4byte	.LASF1053
 15238 5d6b 47       		.byte	0x47
 15239 5d6c 0D       		.byte	0xd
 15240 5d6d 78       		.uleb128 0x78
 15241 5d6e A2100000 		.4byte	.LASF1054
 15242 5d72 A2100000 		.4byte	.LASF1054
 15243 5d76 48       		.byte	0x48
 15244 5d77 3619     		.2byte	0x1936
 15245 5d79 77       		.uleb128 0x77
 15246 5d7a 76280000 		.4byte	.LASF1055
 15247 5d7e 76280000 		.4byte	.LASF1055
 15248 5d82 44       		.byte	0x44
 15249 5d83 37       		.byte	0x37
 15250 5d84 77       		.uleb128 0x77
 15251 5d85 A1130000 		.4byte	.LASF1056
 15252 5d89 A1130000 		.4byte	.LASF1056
 15253 5d8d 44       		.byte	0x44
 15254 5d8e 30       		.byte	0x30
 15255 5d8f 00       		.byte	0
 15256              		.section	.debug_abbrev,"",%progbits
 15257              	.Ldebug_abbrev0:
 15258 0000 01       		.uleb128 0x1
 15259 0001 11       		.uleb128 0x11
 15260 0002 01       		.byte	0x1
 15261 0003 25       		.uleb128 0x25
 15262 0004 0E       		.uleb128 0xe
 15263 0005 13       		.uleb128 0x13
 15264 0006 0B       		.uleb128 0xb
 15265 0007 03       		.uleb128 0x3
 15266 0008 0E       		.uleb128 0xe
 15267 0009 1B       		.uleb128 0x1b
 15268 000a 0E       		.uleb128 0xe
 15269 000b 55       		.uleb128 0x55
 15270 000c 17       		.uleb128 0x17
 15271 000d 11       		.uleb128 0x11
 15272 000e 01       		.uleb128 0x1
 15273 000f 10       		.uleb128 0x10
 15274 0010 17       		.uleb128 0x17
 15275 0011 00       		.byte	0
 15276 0012 00       		.byte	0
 15277 0013 02       		.uleb128 0x2
 15278 0014 24       		.uleb128 0x24
 15279 0015 00       		.byte	0
 15280 0016 0B       		.uleb128 0xb
 15281 0017 0B       		.uleb128 0xb
 15282 0018 3E       		.uleb128 0x3e
 15283 0019 0B       		.uleb128 0xb
 15284 001a 03       		.uleb128 0x3
 15285 001b 0E       		.uleb128 0xe
 15286 001c 00       		.byte	0
 15287 001d 00       		.byte	0
 15288 001e 03       		.uleb128 0x3
ARM GAS  C:\Users\JEANCO~1\AppData\Local\Temp\ccxhVNGN.s 			page 270


 15289 001f 24       		.uleb128 0x24
 15290 0020 00       		.byte	0
 15291 0021 0B       		.uleb128 0xb
 15292 0022 0B       		.uleb128 0xb
 15293 0023 3E       		.uleb128 0x3e
 15294 0024 0B       		.uleb128 0xb
 15295 0025 03       		.uleb128 0x3
 15296 0026 08       		.uleb128 0x8
 15297 0027 00       		.byte	0
 15298 0028 00       		.byte	0
 15299 0029 04       		.uleb128 0x4
 15300 002a 16       		.uleb128 0x16
 15301 002b 00       		.byte	0
 15302 002c 03       		.uleb128 0x3
 15303 002d 0E       		.uleb128 0xe
 15304 002e 3A       		.uleb128 0x3a
 15305 002f 0B       		.uleb128 0xb
 15306 0030 3B       		.uleb128 0x3b
 15307 0031 0B       		.uleb128 0xb
 15308 0032 49       		.uleb128 0x49
 15309 0033 13       		.uleb128 0x13
 15310 0034 00       		.byte	0
 15311 0035 00       		.byte	0
 15312 0036 05       		.uleb128 0x5
 15313 0037 26       		.uleb128 0x26
 15314 0038 00       		.byte	0
 15315 0039 49       		.uleb128 0x49
 15316 003a 13       		.uleb128 0x13
 15317 003b 00       		.byte	0
 15318 003c 00       		.byte	0
 15319 003d 06       		.uleb128 0x6
 15320 003e 35       		.uleb128 0x35
 15321 003f 00       		.byte	0
 15322 0040 49       		.uleb128 0x49
 15323 0041 13       		.uleb128 0x13
 15324 0042 00       		.byte	0
 15325 0043 00       		.byte	0
 15326 0044 07       		.uleb128 0x7
 15327 0045 13       		.uleb128 0x13
 15328 0046 01       		.byte	0x1
 15329 0047 03       		.uleb128 0x3
 15330 0048 0E       		.uleb128 0xe
 15331 0049 0B       		.uleb128 0xb
 15332 004a 0B       		.uleb128 0xb
 15333 004b 3A       		.uleb128 0x3a
 15334 004c 0B       		.uleb128 0xb
 15335 004d 3B       		.uleb128 0x3b
 15336 004e 0B       		.uleb128 0xb
 15337 004f 01       		.uleb128 0x1
 15338 0050 13       		.uleb128 0x13
 15339 0051 00       		.byte	0
 15340 0052 00       		.byte	0
 15341 0053 08       		.uleb128 0x8
 15342 0054 0D       		.uleb128 0xd
 15343 0055 00       		.byte	0
 15344 0056 03       		.uleb128 0x3
 15345 0057 0E       		.uleb128 0xe
ARM GAS  C:\Users\JEANCO~1\AppData\Local\Temp\ccxhVNGN.s 			page 271


 15346 0058 3A       		.uleb128 0x3a
 15347 0059 0B       		.uleb128 0xb
 15348 005a 3B       		.uleb128 0x3b
 15349 005b 0B       		.uleb128 0xb
 15350 005c 49       		.uleb128 0x49
 15351 005d 13       		.uleb128 0x13
 15352 005e 38       		.uleb128 0x38
 15353 005f 0B       		.uleb128 0xb
 15354 0060 00       		.byte	0
 15355 0061 00       		.byte	0
 15356 0062 09       		.uleb128 0x9
 15357 0063 0D       		.uleb128 0xd
 15358 0064 00       		.byte	0
 15359 0065 03       		.uleb128 0x3
 15360 0066 08       		.uleb128 0x8
 15361 0067 3A       		.uleb128 0x3a
 15362 0068 0B       		.uleb128 0xb
 15363 0069 3B       		.uleb128 0x3b
 15364 006a 05       		.uleb128 0x5
 15365 006b 49       		.uleb128 0x49
 15366 006c 13       		.uleb128 0x13
 15367 006d 38       		.uleb128 0x38
 15368 006e 0B       		.uleb128 0xb
 15369 006f 00       		.byte	0
 15370 0070 00       		.byte	0
 15371 0071 0A       		.uleb128 0xa
 15372 0072 0D       		.uleb128 0xd
 15373 0073 00       		.byte	0
 15374 0074 03       		.uleb128 0x3
 15375 0075 0E       		.uleb128 0xe
 15376 0076 3A       		.uleb128 0x3a
 15377 0077 0B       		.uleb128 0xb
 15378 0078 3B       		.uleb128 0x3b
 15379 0079 05       		.uleb128 0x5
 15380 007a 49       		.uleb128 0x49
 15381 007b 13       		.uleb128 0x13
 15382 007c 38       		.uleb128 0x38
 15383 007d 0B       		.uleb128 0xb
 15384 007e 00       		.byte	0
 15385 007f 00       		.byte	0
 15386 0080 0B       		.uleb128 0xb
 15387 0081 0F       		.uleb128 0xf
 15388 0082 00       		.byte	0
 15389 0083 0B       		.uleb128 0xb
 15390 0084 0B       		.uleb128 0xb
 15391 0085 49       		.uleb128 0x49
 15392 0086 13       		.uleb128 0x13
 15393 0087 00       		.byte	0
 15394 0088 00       		.byte	0
 15395 0089 0C       		.uleb128 0xc
 15396 008a 13       		.uleb128 0x13
 15397 008b 01       		.byte	0x1
 15398 008c 03       		.uleb128 0x3
 15399 008d 0E       		.uleb128 0xe
 15400 008e 0B       		.uleb128 0xb
 15401 008f 0B       		.uleb128 0xb
 15402 0090 3A       		.uleb128 0x3a
ARM GAS  C:\Users\JEANCO~1\AppData\Local\Temp\ccxhVNGN.s 			page 272


 15403 0091 0B       		.uleb128 0xb
 15404 0092 3B       		.uleb128 0x3b
 15405 0093 05       		.uleb128 0x5
 15406 0094 01       		.uleb128 0x1
 15407 0095 13       		.uleb128 0x13
 15408 0096 00       		.byte	0
 15409 0097 00       		.byte	0
 15410 0098 0D       		.uleb128 0xd
 15411 0099 15       		.uleb128 0x15
 15412 009a 01       		.byte	0x1
 15413 009b 27       		.uleb128 0x27
 15414 009c 19       		.uleb128 0x19
 15415 009d 01       		.uleb128 0x1
 15416 009e 13       		.uleb128 0x13
 15417 009f 00       		.byte	0
 15418 00a0 00       		.byte	0
 15419 00a1 0E       		.uleb128 0xe
 15420 00a2 05       		.uleb128 0x5
 15421 00a3 00       		.byte	0
 15422 00a4 49       		.uleb128 0x49
 15423 00a5 13       		.uleb128 0x13
 15424 00a6 00       		.byte	0
 15425 00a7 00       		.byte	0
 15426 00a8 0F       		.uleb128 0xf
 15427 00a9 0F       		.uleb128 0xf
 15428 00aa 00       		.byte	0
 15429 00ab 0B       		.uleb128 0xb
 15430 00ac 0B       		.uleb128 0xb
 15431 00ad 00       		.byte	0
 15432 00ae 00       		.byte	0
 15433 00af 10       		.uleb128 0x10
 15434 00b0 13       		.uleb128 0x13
 15435 00b1 01       		.byte	0x1
 15436 00b2 03       		.uleb128 0x3
 15437 00b3 0E       		.uleb128 0xe
 15438 00b4 0B       		.uleb128 0xb
 15439 00b5 05       		.uleb128 0x5
 15440 00b6 3A       		.uleb128 0x3a
 15441 00b7 0B       		.uleb128 0xb
 15442 00b8 3B       		.uleb128 0x3b
 15443 00b9 05       		.uleb128 0x5
 15444 00ba 01       		.uleb128 0x1
 15445 00bb 13       		.uleb128 0x13
 15446 00bc 00       		.byte	0
 15447 00bd 00       		.byte	0
 15448 00be 11       		.uleb128 0x11
 15449 00bf 0D       		.uleb128 0xd
 15450 00c0 00       		.byte	0
 15451 00c1 03       		.uleb128 0x3
 15452 00c2 0E       		.uleb128 0xe
 15453 00c3 3A       		.uleb128 0x3a
 15454 00c4 0B       		.uleb128 0xb
 15455 00c5 3B       		.uleb128 0x3b
 15456 00c6 05       		.uleb128 0x5
 15457 00c7 49       		.uleb128 0x49
 15458 00c8 13       		.uleb128 0x13
 15459 00c9 38       		.uleb128 0x38
ARM GAS  C:\Users\JEANCO~1\AppData\Local\Temp\ccxhVNGN.s 			page 273


 15460 00ca 05       		.uleb128 0x5
 15461 00cb 00       		.byte	0
 15462 00cc 00       		.byte	0
 15463 00cd 12       		.uleb128 0x12
 15464 00ce 0D       		.uleb128 0xd
 15465 00cf 00       		.byte	0
 15466 00d0 03       		.uleb128 0x3
 15467 00d1 08       		.uleb128 0x8
 15468 00d2 3A       		.uleb128 0x3a
 15469 00d3 0B       		.uleb128 0xb
 15470 00d4 3B       		.uleb128 0x3b
 15471 00d5 05       		.uleb128 0x5
 15472 00d6 49       		.uleb128 0x49
 15473 00d7 13       		.uleb128 0x13
 15474 00d8 38       		.uleb128 0x38
 15475 00d9 05       		.uleb128 0x5
 15476 00da 00       		.byte	0
 15477 00db 00       		.byte	0
 15478 00dc 13       		.uleb128 0x13
 15479 00dd 01       		.uleb128 0x1
 15480 00de 01       		.byte	0x1
 15481 00df 49       		.uleb128 0x49
 15482 00e0 13       		.uleb128 0x13
 15483 00e1 01       		.uleb128 0x1
 15484 00e2 13       		.uleb128 0x13
 15485 00e3 00       		.byte	0
 15486 00e4 00       		.byte	0
 15487 00e5 14       		.uleb128 0x14
 15488 00e6 21       		.uleb128 0x21
 15489 00e7 00       		.byte	0
 15490 00e8 49       		.uleb128 0x49
 15491 00e9 13       		.uleb128 0x13
 15492 00ea 2F       		.uleb128 0x2f
 15493 00eb 0B       		.uleb128 0xb
 15494 00ec 00       		.byte	0
 15495 00ed 00       		.byte	0
 15496 00ee 15       		.uleb128 0x15
 15497 00ef 34       		.uleb128 0x34
 15498 00f0 00       		.byte	0
 15499 00f1 03       		.uleb128 0x3
 15500 00f2 0E       		.uleb128 0xe
 15501 00f3 3A       		.uleb128 0x3a
 15502 00f4 0B       		.uleb128 0xb
 15503 00f5 3B       		.uleb128 0x3b
 15504 00f6 05       		.uleb128 0x5
 15505 00f7 49       		.uleb128 0x49
 15506 00f8 13       		.uleb128 0x13
 15507 00f9 3F       		.uleb128 0x3f
 15508 00fa 19       		.uleb128 0x19
 15509 00fb 3C       		.uleb128 0x3c
 15510 00fc 19       		.uleb128 0x19
 15511 00fd 00       		.byte	0
 15512 00fe 00       		.byte	0
 15513 00ff 16       		.uleb128 0x16
 15514 0100 34       		.uleb128 0x34
 15515 0101 00       		.byte	0
 15516 0102 03       		.uleb128 0x3
ARM GAS  C:\Users\JEANCO~1\AppData\Local\Temp\ccxhVNGN.s 			page 274


 15517 0103 0E       		.uleb128 0xe
 15518 0104 3A       		.uleb128 0x3a
 15519 0105 0B       		.uleb128 0xb
 15520 0106 3B       		.uleb128 0x3b
 15521 0107 0B       		.uleb128 0xb
 15522 0108 49       		.uleb128 0x49
 15523 0109 13       		.uleb128 0x13
 15524 010a 3F       		.uleb128 0x3f
 15525 010b 19       		.uleb128 0x19
 15526 010c 3C       		.uleb128 0x3c
 15527 010d 19       		.uleb128 0x19
 15528 010e 00       		.byte	0
 15529 010f 00       		.byte	0
 15530 0110 17       		.uleb128 0x17
 15531 0111 13       		.uleb128 0x13
 15532 0112 01       		.byte	0x1
 15533 0113 0B       		.uleb128 0xb
 15534 0114 0B       		.uleb128 0xb
 15535 0115 3A       		.uleb128 0x3a
 15536 0116 0B       		.uleb128 0xb
 15537 0117 3B       		.uleb128 0x3b
 15538 0118 0B       		.uleb128 0xb
 15539 0119 01       		.uleb128 0x1
 15540 011a 13       		.uleb128 0x13
 15541 011b 00       		.byte	0
 15542 011c 00       		.byte	0
 15543 011d 18       		.uleb128 0x18
 15544 011e 0D       		.uleb128 0xd
 15545 011f 00       		.byte	0
 15546 0120 03       		.uleb128 0x3
 15547 0121 08       		.uleb128 0x8
 15548 0122 3A       		.uleb128 0x3a
 15549 0123 0B       		.uleb128 0xb
 15550 0124 3B       		.uleb128 0x3b
 15551 0125 0B       		.uleb128 0xb
 15552 0126 49       		.uleb128 0x49
 15553 0127 13       		.uleb128 0x13
 15554 0128 38       		.uleb128 0x38
 15555 0129 0B       		.uleb128 0xb
 15556 012a 00       		.byte	0
 15557 012b 00       		.byte	0
 15558 012c 19       		.uleb128 0x19
 15559 012d 13       		.uleb128 0x13
 15560 012e 01       		.byte	0x1
 15561 012f 0B       		.uleb128 0xb
 15562 0130 0B       		.uleb128 0xb
 15563 0131 3A       		.uleb128 0x3a
 15564 0132 0B       		.uleb128 0xb
 15565 0133 3B       		.uleb128 0x3b
 15566 0134 05       		.uleb128 0x5
 15567 0135 01       		.uleb128 0x1
 15568 0136 13       		.uleb128 0x13
 15569 0137 00       		.byte	0
 15570 0138 00       		.byte	0
 15571 0139 1A       		.uleb128 0x1a
 15572 013a 16       		.uleb128 0x16
 15573 013b 00       		.byte	0
ARM GAS  C:\Users\JEANCO~1\AppData\Local\Temp\ccxhVNGN.s 			page 275


 15574 013c 03       		.uleb128 0x3
 15575 013d 0E       		.uleb128 0xe
 15576 013e 3A       		.uleb128 0x3a
 15577 013f 0B       		.uleb128 0xb
 15578 0140 3B       		.uleb128 0x3b
 15579 0141 05       		.uleb128 0x5
 15580 0142 49       		.uleb128 0x49
 15581 0143 13       		.uleb128 0x13
 15582 0144 00       		.byte	0
 15583 0145 00       		.byte	0
 15584 0146 1B       		.uleb128 0x1b
 15585 0147 13       		.uleb128 0x13
 15586 0148 01       		.byte	0x1
 15587 0149 0B       		.uleb128 0xb
 15588 014a 05       		.uleb128 0x5
 15589 014b 3A       		.uleb128 0x3a
 15590 014c 0B       		.uleb128 0xb
 15591 014d 3B       		.uleb128 0x3b
 15592 014e 05       		.uleb128 0x5
 15593 014f 01       		.uleb128 0x1
 15594 0150 13       		.uleb128 0x13
 15595 0151 00       		.byte	0
 15596 0152 00       		.byte	0
 15597 0153 1C       		.uleb128 0x1c
 15598 0154 13       		.uleb128 0x13
 15599 0155 01       		.byte	0x1
 15600 0156 0B       		.uleb128 0xb
 15601 0157 05       		.uleb128 0x5
 15602 0158 3A       		.uleb128 0x3a
 15603 0159 0B       		.uleb128 0xb
 15604 015a 3B       		.uleb128 0x3b
 15605 015b 0B       		.uleb128 0xb
 15606 015c 01       		.uleb128 0x1
 15607 015d 13       		.uleb128 0x13
 15608 015e 00       		.byte	0
 15609 015f 00       		.byte	0
 15610 0160 1D       		.uleb128 0x1d
 15611 0161 17       		.uleb128 0x17
 15612 0162 01       		.byte	0x1
 15613 0163 0B       		.uleb128 0xb
 15614 0164 0B       		.uleb128 0xb
 15615 0165 3A       		.uleb128 0x3a
 15616 0166 0B       		.uleb128 0xb
 15617 0167 3B       		.uleb128 0x3b
 15618 0168 0B       		.uleb128 0xb
 15619 0169 01       		.uleb128 0x1
 15620 016a 13       		.uleb128 0x13
 15621 016b 00       		.byte	0
 15622 016c 00       		.byte	0
 15623 016d 1E       		.uleb128 0x1e
 15624 016e 0D       		.uleb128 0xd
 15625 016f 00       		.byte	0
 15626 0170 03       		.uleb128 0x3
 15627 0171 0E       		.uleb128 0xe
 15628 0172 3A       		.uleb128 0x3a
 15629 0173 0B       		.uleb128 0xb
 15630 0174 3B       		.uleb128 0x3b
ARM GAS  C:\Users\JEANCO~1\AppData\Local\Temp\ccxhVNGN.s 			page 276


 15631 0175 05       		.uleb128 0x5
 15632 0176 49       		.uleb128 0x49
 15633 0177 13       		.uleb128 0x13
 15634 0178 00       		.byte	0
 15635 0179 00       		.byte	0
 15636 017a 1F       		.uleb128 0x1f
 15637 017b 34       		.uleb128 0x34
 15638 017c 00       		.byte	0
 15639 017d 03       		.uleb128 0x3
 15640 017e 08       		.uleb128 0x8
 15641 017f 3A       		.uleb128 0x3a
 15642 0180 0B       		.uleb128 0xb
 15643 0181 3B       		.uleb128 0x3b
 15644 0182 05       		.uleb128 0x5
 15645 0183 49       		.uleb128 0x49
 15646 0184 13       		.uleb128 0x13
 15647 0185 3F       		.uleb128 0x3f
 15648 0186 19       		.uleb128 0x19
 15649 0187 3C       		.uleb128 0x3c
 15650 0188 19       		.uleb128 0x19
 15651 0189 00       		.byte	0
 15652 018a 00       		.byte	0
 15653 018b 20       		.uleb128 0x20
 15654 018c 15       		.uleb128 0x15
 15655 018d 01       		.byte	0x1
 15656 018e 27       		.uleb128 0x27
 15657 018f 19       		.uleb128 0x19
 15658 0190 49       		.uleb128 0x49
 15659 0191 13       		.uleb128 0x13
 15660 0192 01       		.uleb128 0x1
 15661 0193 13       		.uleb128 0x13
 15662 0194 00       		.byte	0
 15663 0195 00       		.byte	0
 15664 0196 21       		.uleb128 0x21
 15665 0197 04       		.uleb128 0x4
 15666 0198 01       		.byte	0x1
 15667 0199 3E       		.uleb128 0x3e
 15668 019a 0B       		.uleb128 0xb
 15669 019b 0B       		.uleb128 0xb
 15670 019c 0B       		.uleb128 0xb
 15671 019d 49       		.uleb128 0x49
 15672 019e 13       		.uleb128 0x13
 15673 019f 3A       		.uleb128 0x3a
 15674 01a0 0B       		.uleb128 0xb
 15675 01a1 3B       		.uleb128 0x3b
 15676 01a2 0B       		.uleb128 0xb
 15677 01a3 01       		.uleb128 0x1
 15678 01a4 13       		.uleb128 0x13
 15679 01a5 00       		.byte	0
 15680 01a6 00       		.byte	0
 15681 01a7 22       		.uleb128 0x22
 15682 01a8 28       		.uleb128 0x28
 15683 01a9 00       		.byte	0
 15684 01aa 03       		.uleb128 0x3
 15685 01ab 0E       		.uleb128 0xe
 15686 01ac 1C       		.uleb128 0x1c
 15687 01ad 0B       		.uleb128 0xb
ARM GAS  C:\Users\JEANCO~1\AppData\Local\Temp\ccxhVNGN.s 			page 277


 15688 01ae 00       		.byte	0
 15689 01af 00       		.byte	0
 15690 01b0 23       		.uleb128 0x23
 15691 01b1 0D       		.uleb128 0xd
 15692 01b2 00       		.byte	0
 15693 01b3 03       		.uleb128 0x3
 15694 01b4 08       		.uleb128 0x8
 15695 01b5 3A       		.uleb128 0x3a
 15696 01b6 0B       		.uleb128 0xb
 15697 01b7 3B       		.uleb128 0x3b
 15698 01b8 0B       		.uleb128 0xb
 15699 01b9 49       		.uleb128 0x49
 15700 01ba 13       		.uleb128 0x13
 15701 01bb 00       		.byte	0
 15702 01bc 00       		.byte	0
 15703 01bd 24       		.uleb128 0x24
 15704 01be 04       		.uleb128 0x4
 15705 01bf 01       		.byte	0x1
 15706 01c0 3E       		.uleb128 0x3e
 15707 01c1 0B       		.uleb128 0xb
 15708 01c2 0B       		.uleb128 0xb
 15709 01c3 0B       		.uleb128 0xb
 15710 01c4 49       		.uleb128 0x49
 15711 01c5 13       		.uleb128 0x13
 15712 01c6 3A       		.uleb128 0x3a
 15713 01c7 0B       		.uleb128 0xb
 15714 01c8 3B       		.uleb128 0x3b
 15715 01c9 05       		.uleb128 0x5
 15716 01ca 01       		.uleb128 0x1
 15717 01cb 13       		.uleb128 0x13
 15718 01cc 00       		.byte	0
 15719 01cd 00       		.byte	0
 15720 01ce 25       		.uleb128 0x25
 15721 01cf 26       		.uleb128 0x26
 15722 01d0 00       		.byte	0
 15723 01d1 00       		.byte	0
 15724 01d2 00       		.byte	0
 15725 01d3 26       		.uleb128 0x26
 15726 01d4 13       		.uleb128 0x13
 15727 01d5 01       		.byte	0x1
 15728 01d6 0B       		.uleb128 0xb
 15729 01d7 06       		.uleb128 0x6
 15730 01d8 3A       		.uleb128 0x3a
 15731 01d9 0B       		.uleb128 0xb
 15732 01da 3B       		.uleb128 0x3b
 15733 01db 0B       		.uleb128 0xb
 15734 01dc 01       		.uleb128 0x1
 15735 01dd 13       		.uleb128 0x13
 15736 01de 00       		.byte	0
 15737 01df 00       		.byte	0
 15738 01e0 27       		.uleb128 0x27
 15739 01e1 0D       		.uleb128 0xd
 15740 01e2 00       		.byte	0
 15741 01e3 03       		.uleb128 0x3
 15742 01e4 0E       		.uleb128 0xe
 15743 01e5 3A       		.uleb128 0x3a
 15744 01e6 0B       		.uleb128 0xb
ARM GAS  C:\Users\JEANCO~1\AppData\Local\Temp\ccxhVNGN.s 			page 278


 15745 01e7 3B       		.uleb128 0x3b
 15746 01e8 0B       		.uleb128 0xb
 15747 01e9 49       		.uleb128 0x49
 15748 01ea 13       		.uleb128 0x13
 15749 01eb 38       		.uleb128 0x38
 15750 01ec 05       		.uleb128 0x5
 15751 01ed 00       		.byte	0
 15752 01ee 00       		.byte	0
 15753 01ef 28       		.uleb128 0x28
 15754 01f0 0D       		.uleb128 0xd
 15755 01f1 00       		.byte	0
 15756 01f2 03       		.uleb128 0x3
 15757 01f3 08       		.uleb128 0x8
 15758 01f4 3A       		.uleb128 0x3a
 15759 01f5 0B       		.uleb128 0xb
 15760 01f6 3B       		.uleb128 0x3b
 15761 01f7 0B       		.uleb128 0xb
 15762 01f8 49       		.uleb128 0x49
 15763 01f9 13       		.uleb128 0x13
 15764 01fa 38       		.uleb128 0x38
 15765 01fb 05       		.uleb128 0x5
 15766 01fc 00       		.byte	0
 15767 01fd 00       		.byte	0
 15768 01fe 29       		.uleb128 0x29
 15769 01ff 21       		.uleb128 0x21
 15770 0200 00       		.byte	0
 15771 0201 49       		.uleb128 0x49
 15772 0202 13       		.uleb128 0x13
 15773 0203 2F       		.uleb128 0x2f
 15774 0204 05       		.uleb128 0x5
 15775 0205 00       		.byte	0
 15776 0206 00       		.byte	0
 15777 0207 2A       		.uleb128 0x2a
 15778 0208 0D       		.uleb128 0xd
 15779 0209 00       		.byte	0
 15780 020a 03       		.uleb128 0x3
 15781 020b 0E       		.uleb128 0xe
 15782 020c 3A       		.uleb128 0x3a
 15783 020d 0B       		.uleb128 0xb
 15784 020e 3B       		.uleb128 0x3b
 15785 020f 0B       		.uleb128 0xb
 15786 0210 49       		.uleb128 0x49
 15787 0211 13       		.uleb128 0x13
 15788 0212 00       		.byte	0
 15789 0213 00       		.byte	0
 15790 0214 2B       		.uleb128 0x2b
 15791 0215 17       		.uleb128 0x17
 15792 0216 01       		.byte	0x1
 15793 0217 0B       		.uleb128 0xb
 15794 0218 0B       		.uleb128 0xb
 15795 0219 3A       		.uleb128 0x3a
 15796 021a 0B       		.uleb128 0xb
 15797 021b 3B       		.uleb128 0x3b
 15798 021c 05       		.uleb128 0x5
 15799 021d 01       		.uleb128 0x1
 15800 021e 13       		.uleb128 0x13
 15801 021f 00       		.byte	0
ARM GAS  C:\Users\JEANCO~1\AppData\Local\Temp\ccxhVNGN.s 			page 279


 15802 0220 00       		.byte	0
 15803 0221 2C       		.uleb128 0x2c
 15804 0222 13       		.uleb128 0x13
 15805 0223 01       		.byte	0x1
 15806 0224 03       		.uleb128 0x3
 15807 0225 0E       		.uleb128 0xe
 15808 0226 0B       		.uleb128 0xb
 15809 0227 05       		.uleb128 0x5
 15810 0228 3A       		.uleb128 0x3a
 15811 0229 0B       		.uleb128 0xb
 15812 022a 3B       		.uleb128 0x3b
 15813 022b 0B       		.uleb128 0xb
 15814 022c 01       		.uleb128 0x1
 15815 022d 13       		.uleb128 0x13
 15816 022e 00       		.byte	0
 15817 022f 00       		.byte	0
 15818 0230 2D       		.uleb128 0x2d
 15819 0231 13       		.uleb128 0x13
 15820 0232 00       		.byte	0
 15821 0233 03       		.uleb128 0x3
 15822 0234 0E       		.uleb128 0xe
 15823 0235 3C       		.uleb128 0x3c
 15824 0236 19       		.uleb128 0x19
 15825 0237 00       		.byte	0
 15826 0238 00       		.byte	0
 15827 0239 2E       		.uleb128 0x2e
 15828 023a 15       		.uleb128 0x15
 15829 023b 00       		.byte	0
 15830 023c 27       		.uleb128 0x27
 15831 023d 19       		.uleb128 0x19
 15832 023e 00       		.byte	0
 15833 023f 00       		.byte	0
 15834 0240 2F       		.uleb128 0x2f
 15835 0241 34       		.uleb128 0x34
 15836 0242 00       		.byte	0
 15837 0243 03       		.uleb128 0x3
 15838 0244 08       		.uleb128 0x8
 15839 0245 3A       		.uleb128 0x3a
 15840 0246 0B       		.uleb128 0xb
 15841 0247 3B       		.uleb128 0x3b
 15842 0248 0B       		.uleb128 0xb
 15843 0249 49       		.uleb128 0x49
 15844 024a 13       		.uleb128 0x13
 15845 024b 3F       		.uleb128 0x3f
 15846 024c 19       		.uleb128 0x19
 15847 024d 3C       		.uleb128 0x3c
 15848 024e 19       		.uleb128 0x19
 15849 024f 00       		.byte	0
 15850 0250 00       		.byte	0
 15851 0251 30       		.uleb128 0x30
 15852 0252 04       		.uleb128 0x4
 15853 0253 01       		.byte	0x1
 15854 0254 03       		.uleb128 0x3
 15855 0255 0E       		.uleb128 0xe
 15856 0256 3E       		.uleb128 0x3e
 15857 0257 0B       		.uleb128 0xb
 15858 0258 0B       		.uleb128 0xb
ARM GAS  C:\Users\JEANCO~1\AppData\Local\Temp\ccxhVNGN.s 			page 280


 15859 0259 0B       		.uleb128 0xb
 15860 025a 49       		.uleb128 0x49
 15861 025b 13       		.uleb128 0x13
 15862 025c 3A       		.uleb128 0x3a
 15863 025d 0B       		.uleb128 0xb
 15864 025e 3B       		.uleb128 0x3b
 15865 025f 05       		.uleb128 0x5
 15866 0260 01       		.uleb128 0x1
 15867 0261 13       		.uleb128 0x13
 15868 0262 00       		.byte	0
 15869 0263 00       		.byte	0
 15870 0264 31       		.uleb128 0x31
 15871 0265 28       		.uleb128 0x28
 15872 0266 00       		.byte	0
 15873 0267 03       		.uleb128 0x3
 15874 0268 0E       		.uleb128 0xe
 15875 0269 1C       		.uleb128 0x1c
 15876 026a 0D       		.uleb128 0xd
 15877 026b 00       		.byte	0
 15878 026c 00       		.byte	0
 15879 026d 32       		.uleb128 0x32
 15880 026e 34       		.uleb128 0x34
 15881 026f 00       		.byte	0
 15882 0270 03       		.uleb128 0x3
 15883 0271 0E       		.uleb128 0xe
 15884 0272 3A       		.uleb128 0x3a
 15885 0273 0B       		.uleb128 0xb
 15886 0274 3B       		.uleb128 0x3b
 15887 0275 0B       		.uleb128 0xb
 15888 0276 49       		.uleb128 0x49
 15889 0277 13       		.uleb128 0x13
 15890 0278 02       		.uleb128 0x2
 15891 0279 18       		.uleb128 0x18
 15892 027a 00       		.byte	0
 15893 027b 00       		.byte	0
 15894 027c 33       		.uleb128 0x33
 15895 027d 34       		.uleb128 0x34
 15896 027e 00       		.byte	0
 15897 027f 03       		.uleb128 0x3
 15898 0280 0E       		.uleb128 0xe
 15899 0281 3A       		.uleb128 0x3a
 15900 0282 0B       		.uleb128 0xb
 15901 0283 3B       		.uleb128 0x3b
 15902 0284 0B       		.uleb128 0xb
 15903 0285 49       		.uleb128 0x49
 15904 0286 13       		.uleb128 0x13
 15905 0287 00       		.byte	0
 15906 0288 00       		.byte	0
 15907 0289 34       		.uleb128 0x34
 15908 028a 34       		.uleb128 0x34
 15909 028b 00       		.byte	0
 15910 028c 03       		.uleb128 0x3
 15911 028d 0E       		.uleb128 0xe
 15912 028e 3A       		.uleb128 0x3a
 15913 028f 0B       		.uleb128 0xb
 15914 0290 3B       		.uleb128 0x3b
 15915 0291 05       		.uleb128 0x5
ARM GAS  C:\Users\JEANCO~1\AppData\Local\Temp\ccxhVNGN.s 			page 281


 15916 0292 49       		.uleb128 0x49
 15917 0293 13       		.uleb128 0x13
 15918 0294 02       		.uleb128 0x2
 15919 0295 18       		.uleb128 0x18
 15920 0296 00       		.byte	0
 15921 0297 00       		.byte	0
 15922 0298 35       		.uleb128 0x35
 15923 0299 2E       		.uleb128 0x2e
 15924 029a 01       		.byte	0x1
 15925 029b 3F       		.uleb128 0x3f
 15926 029c 19       		.uleb128 0x19
 15927 029d 03       		.uleb128 0x3
 15928 029e 0E       		.uleb128 0xe
 15929 029f 3A       		.uleb128 0x3a
 15930 02a0 0B       		.uleb128 0xb
 15931 02a1 3B       		.uleb128 0x3b
 15932 02a2 05       		.uleb128 0x5
 15933 02a3 20       		.uleb128 0x20
 15934 02a4 0B       		.uleb128 0xb
 15935 02a5 01       		.uleb128 0x1
 15936 02a6 13       		.uleb128 0x13
 15937 02a7 00       		.byte	0
 15938 02a8 00       		.byte	0
 15939 02a9 36       		.uleb128 0x36
 15940 02aa 05       		.uleb128 0x5
 15941 02ab 00       		.byte	0
 15942 02ac 03       		.uleb128 0x3
 15943 02ad 0E       		.uleb128 0xe
 15944 02ae 3A       		.uleb128 0x3a
 15945 02af 0B       		.uleb128 0xb
 15946 02b0 3B       		.uleb128 0x3b
 15947 02b1 05       		.uleb128 0x5
 15948 02b2 49       		.uleb128 0x49
 15949 02b3 13       		.uleb128 0x13
 15950 02b4 00       		.byte	0
 15951 02b5 00       		.byte	0
 15952 02b6 37       		.uleb128 0x37
 15953 02b7 2E       		.uleb128 0x2e
 15954 02b8 01       		.byte	0x1
 15955 02b9 3F       		.uleb128 0x3f
 15956 02ba 19       		.uleb128 0x19
 15957 02bb 03       		.uleb128 0x3
 15958 02bc 0E       		.uleb128 0xe
 15959 02bd 3A       		.uleb128 0x3a
 15960 02be 0B       		.uleb128 0xb
 15961 02bf 3B       		.uleb128 0x3b
 15962 02c0 05       		.uleb128 0x5
 15963 02c1 27       		.uleb128 0x27
 15964 02c2 19       		.uleb128 0x19
 15965 02c3 49       		.uleb128 0x49
 15966 02c4 13       		.uleb128 0x13
 15967 02c5 11       		.uleb128 0x11
 15968 02c6 01       		.uleb128 0x1
 15969 02c7 12       		.uleb128 0x12
 15970 02c8 06       		.uleb128 0x6
 15971 02c9 40       		.uleb128 0x40
 15972 02ca 18       		.uleb128 0x18
ARM GAS  C:\Users\JEANCO~1\AppData\Local\Temp\ccxhVNGN.s 			page 282


 15973 02cb 9742     		.uleb128 0x2117
 15974 02cd 19       		.uleb128 0x19
 15975 02ce 01       		.uleb128 0x1
 15976 02cf 13       		.uleb128 0x13
 15977 02d0 00       		.byte	0
 15978 02d1 00       		.byte	0
 15979 02d2 38       		.uleb128 0x38
 15980 02d3 05       		.uleb128 0x5
 15981 02d4 00       		.byte	0
 15982 02d5 03       		.uleb128 0x3
 15983 02d6 0E       		.uleb128 0xe
 15984 02d7 3A       		.uleb128 0x3a
 15985 02d8 0B       		.uleb128 0xb
 15986 02d9 3B       		.uleb128 0x3b
 15987 02da 05       		.uleb128 0x5
 15988 02db 49       		.uleb128 0x49
 15989 02dc 13       		.uleb128 0x13
 15990 02dd 02       		.uleb128 0x2
 15991 02de 17       		.uleb128 0x17
 15992 02df 00       		.byte	0
 15993 02e0 00       		.byte	0
 15994 02e1 39       		.uleb128 0x39
 15995 02e2 34       		.uleb128 0x34
 15996 02e3 00       		.byte	0
 15997 02e4 03       		.uleb128 0x3
 15998 02e5 0E       		.uleb128 0xe
 15999 02e6 3A       		.uleb128 0x3a
 16000 02e7 0B       		.uleb128 0xb
 16001 02e8 3B       		.uleb128 0x3b
 16002 02e9 05       		.uleb128 0x5
 16003 02ea 49       		.uleb128 0x49
 16004 02eb 13       		.uleb128 0x13
 16005 02ec 02       		.uleb128 0x2
 16006 02ed 17       		.uleb128 0x17
 16007 02ee 00       		.byte	0
 16008 02ef 00       		.byte	0
 16009 02f0 3A       		.uleb128 0x3a
 16010 02f1 898201   		.uleb128 0x4109
 16011 02f4 00       		.byte	0
 16012 02f5 11       		.uleb128 0x11
 16013 02f6 01       		.uleb128 0x1
 16014 02f7 31       		.uleb128 0x31
 16015 02f8 13       		.uleb128 0x13
 16016 02f9 00       		.byte	0
 16017 02fa 00       		.byte	0
 16018 02fb 3B       		.uleb128 0x3b
 16019 02fc 2E       		.uleb128 0x2e
 16020 02fd 01       		.byte	0x1
 16021 02fe 3F       		.uleb128 0x3f
 16022 02ff 19       		.uleb128 0x19
 16023 0300 03       		.uleb128 0x3
 16024 0301 0E       		.uleb128 0xe
 16025 0302 3A       		.uleb128 0x3a
 16026 0303 0B       		.uleb128 0xb
 16027 0304 3B       		.uleb128 0x3b
 16028 0305 05       		.uleb128 0x5
 16029 0306 11       		.uleb128 0x11
ARM GAS  C:\Users\JEANCO~1\AppData\Local\Temp\ccxhVNGN.s 			page 283


 16030 0307 01       		.uleb128 0x1
 16031 0308 12       		.uleb128 0x12
 16032 0309 06       		.uleb128 0x6
 16033 030a 40       		.uleb128 0x40
 16034 030b 18       		.uleb128 0x18
 16035 030c 9742     		.uleb128 0x2117
 16036 030e 19       		.uleb128 0x19
 16037 030f 01       		.uleb128 0x1
 16038 0310 13       		.uleb128 0x13
 16039 0311 00       		.byte	0
 16040 0312 00       		.byte	0
 16041 0313 3C       		.uleb128 0x3c
 16042 0314 898201   		.uleb128 0x4109
 16043 0317 01       		.byte	0x1
 16044 0318 11       		.uleb128 0x11
 16045 0319 01       		.uleb128 0x1
 16046 031a 31       		.uleb128 0x31
 16047 031b 13       		.uleb128 0x13
 16048 031c 01       		.uleb128 0x1
 16049 031d 13       		.uleb128 0x13
 16050 031e 00       		.byte	0
 16051 031f 00       		.byte	0
 16052 0320 3D       		.uleb128 0x3d
 16053 0321 8A8201   		.uleb128 0x410a
 16054 0324 00       		.byte	0
 16055 0325 02       		.uleb128 0x2
 16056 0326 18       		.uleb128 0x18
 16057 0327 9142     		.uleb128 0x2111
 16058 0329 18       		.uleb128 0x18
 16059 032a 00       		.byte	0
 16060 032b 00       		.byte	0
 16061 032c 3E       		.uleb128 0x3e
 16062 032d 2E       		.uleb128 0x2e
 16063 032e 01       		.byte	0x1
 16064 032f 03       		.uleb128 0x3
 16065 0330 0E       		.uleb128 0xe
 16066 0331 3A       		.uleb128 0x3a
 16067 0332 0B       		.uleb128 0xb
 16068 0333 3B       		.uleb128 0x3b
 16069 0334 05       		.uleb128 0x5
 16070 0335 27       		.uleb128 0x27
 16071 0336 19       		.uleb128 0x19
 16072 0337 11       		.uleb128 0x11
 16073 0338 01       		.uleb128 0x1
 16074 0339 12       		.uleb128 0x12
 16075 033a 06       		.uleb128 0x6
 16076 033b 40       		.uleb128 0x40
 16077 033c 18       		.uleb128 0x18
 16078 033d 9642     		.uleb128 0x2116
 16079 033f 19       		.uleb128 0x19
 16080 0340 01       		.uleb128 0x1
 16081 0341 13       		.uleb128 0x13
 16082 0342 00       		.byte	0
 16083 0343 00       		.byte	0
 16084 0344 3F       		.uleb128 0x3f
 16085 0345 05       		.uleb128 0x5
 16086 0346 00       		.byte	0
ARM GAS  C:\Users\JEANCO~1\AppData\Local\Temp\ccxhVNGN.s 			page 284


 16087 0347 03       		.uleb128 0x3
 16088 0348 08       		.uleb128 0x8
 16089 0349 3A       		.uleb128 0x3a
 16090 034a 0B       		.uleb128 0xb
 16091 034b 3B       		.uleb128 0x3b
 16092 034c 05       		.uleb128 0x5
 16093 034d 49       		.uleb128 0x49
 16094 034e 13       		.uleb128 0x13
 16095 034f 02       		.uleb128 0x2
 16096 0350 17       		.uleb128 0x17
 16097 0351 00       		.byte	0
 16098 0352 00       		.byte	0
 16099 0353 40       		.uleb128 0x40
 16100 0354 34       		.uleb128 0x34
 16101 0355 00       		.byte	0
 16102 0356 03       		.uleb128 0x3
 16103 0357 0E       		.uleb128 0xe
 16104 0358 49       		.uleb128 0x49
 16105 0359 13       		.uleb128 0x13
 16106 035a 34       		.uleb128 0x34
 16107 035b 19       		.uleb128 0x19
 16108 035c 02       		.uleb128 0x2
 16109 035d 18       		.uleb128 0x18
 16110 035e 00       		.byte	0
 16111 035f 00       		.byte	0
 16112 0360 41       		.uleb128 0x41
 16113 0361 34       		.uleb128 0x34
 16114 0362 00       		.byte	0
 16115 0363 03       		.uleb128 0x3
 16116 0364 0E       		.uleb128 0xe
 16117 0365 3A       		.uleb128 0x3a
 16118 0366 0B       		.uleb128 0xb
 16119 0367 3B       		.uleb128 0x3b
 16120 0368 05       		.uleb128 0x5
 16121 0369 49       		.uleb128 0x49
 16122 036a 13       		.uleb128 0x13
 16123 036b 00       		.byte	0
 16124 036c 00       		.byte	0
 16125 036d 42       		.uleb128 0x42
 16126 036e 34       		.uleb128 0x34
 16127 036f 00       		.byte	0
 16128 0370 03       		.uleb128 0x3
 16129 0371 0E       		.uleb128 0xe
 16130 0372 3A       		.uleb128 0x3a
 16131 0373 0B       		.uleb128 0xb
 16132 0374 3B       		.uleb128 0x3b
 16133 0375 05       		.uleb128 0x5
 16134 0376 49       		.uleb128 0x49
 16135 0377 13       		.uleb128 0x13
 16136 0378 1C       		.uleb128 0x1c
 16137 0379 0B       		.uleb128 0xb
 16138 037a 00       		.byte	0
 16139 037b 00       		.byte	0
 16140 037c 43       		.uleb128 0x43
 16141 037d 0B       		.uleb128 0xb
 16142 037e 01       		.byte	0x1
 16143 037f 55       		.uleb128 0x55
ARM GAS  C:\Users\JEANCO~1\AppData\Local\Temp\ccxhVNGN.s 			page 285


 16144 0380 17       		.uleb128 0x17
 16145 0381 01       		.uleb128 0x1
 16146 0382 13       		.uleb128 0x13
 16147 0383 00       		.byte	0
 16148 0384 00       		.byte	0
 16149 0385 44       		.uleb128 0x44
 16150 0386 2E       		.uleb128 0x2e
 16151 0387 01       		.byte	0x1
 16152 0388 3F       		.uleb128 0x3f
 16153 0389 19       		.uleb128 0x19
 16154 038a 03       		.uleb128 0x3
 16155 038b 0E       		.uleb128 0xe
 16156 038c 3A       		.uleb128 0x3a
 16157 038d 0B       		.uleb128 0xb
 16158 038e 3B       		.uleb128 0x3b
 16159 038f 05       		.uleb128 0x5
 16160 0390 49       		.uleb128 0x49
 16161 0391 13       		.uleb128 0x13
 16162 0392 3C       		.uleb128 0x3c
 16163 0393 19       		.uleb128 0x19
 16164 0394 01       		.uleb128 0x1
 16165 0395 13       		.uleb128 0x13
 16166 0396 00       		.byte	0
 16167 0397 00       		.byte	0
 16168 0398 45       		.uleb128 0x45
 16169 0399 18       		.uleb128 0x18
 16170 039a 00       		.byte	0
 16171 039b 00       		.byte	0
 16172 039c 00       		.byte	0
 16173 039d 46       		.uleb128 0x46
 16174 039e 34       		.uleb128 0x34
 16175 039f 00       		.byte	0
 16176 03a0 03       		.uleb128 0x3
 16177 03a1 08       		.uleb128 0x8
 16178 03a2 3A       		.uleb128 0x3a
 16179 03a3 0B       		.uleb128 0xb
 16180 03a4 3B       		.uleb128 0x3b
 16181 03a5 05       		.uleb128 0x5
 16182 03a6 49       		.uleb128 0x49
 16183 03a7 13       		.uleb128 0x13
 16184 03a8 02       		.uleb128 0x2
 16185 03a9 17       		.uleb128 0x17
 16186 03aa 00       		.byte	0
 16187 03ab 00       		.byte	0
 16188 03ac 47       		.uleb128 0x47
 16189 03ad 0B       		.uleb128 0xb
 16190 03ae 01       		.byte	0x1
 16191 03af 11       		.uleb128 0x11
 16192 03b0 01       		.uleb128 0x1
 16193 03b1 12       		.uleb128 0x12
 16194 03b2 06       		.uleb128 0x6
 16195 03b3 01       		.uleb128 0x1
 16196 03b4 13       		.uleb128 0x13
 16197 03b5 00       		.byte	0
 16198 03b6 00       		.byte	0
 16199 03b7 48       		.uleb128 0x48
 16200 03b8 34       		.uleb128 0x34
ARM GAS  C:\Users\JEANCO~1\AppData\Local\Temp\ccxhVNGN.s 			page 286


 16201 03b9 00       		.byte	0
 16202 03ba 03       		.uleb128 0x3
 16203 03bb 08       		.uleb128 0x8
 16204 03bc 3A       		.uleb128 0x3a
 16205 03bd 0B       		.uleb128 0xb
 16206 03be 3B       		.uleb128 0x3b
 16207 03bf 05       		.uleb128 0x5
 16208 03c0 49       		.uleb128 0x49
 16209 03c1 13       		.uleb128 0x13
 16210 03c2 00       		.byte	0
 16211 03c3 00       		.byte	0
 16212 03c4 49       		.uleb128 0x49
 16213 03c5 898201   		.uleb128 0x4109
 16214 03c8 01       		.byte	0x1
 16215 03c9 11       		.uleb128 0x11
 16216 03ca 01       		.uleb128 0x1
 16217 03cb 31       		.uleb128 0x31
 16218 03cc 13       		.uleb128 0x13
 16219 03cd 00       		.byte	0
 16220 03ce 00       		.byte	0
 16221 03cf 4A       		.uleb128 0x4a
 16222 03d0 1D       		.uleb128 0x1d
 16223 03d1 01       		.byte	0x1
 16224 03d2 31       		.uleb128 0x31
 16225 03d3 13       		.uleb128 0x13
 16226 03d4 11       		.uleb128 0x11
 16227 03d5 01       		.uleb128 0x1
 16228 03d6 12       		.uleb128 0x12
 16229 03d7 06       		.uleb128 0x6
 16230 03d8 58       		.uleb128 0x58
 16231 03d9 0B       		.uleb128 0xb
 16232 03da 59       		.uleb128 0x59
 16233 03db 05       		.uleb128 0x5
 16234 03dc 01       		.uleb128 0x1
 16235 03dd 13       		.uleb128 0x13
 16236 03de 00       		.byte	0
 16237 03df 00       		.byte	0
 16238 03e0 4B       		.uleb128 0x4b
 16239 03e1 0B       		.uleb128 0xb
 16240 03e2 01       		.byte	0x1
 16241 03e3 11       		.uleb128 0x11
 16242 03e4 01       		.uleb128 0x1
 16243 03e5 12       		.uleb128 0x12
 16244 03e6 06       		.uleb128 0x6
 16245 03e7 00       		.byte	0
 16246 03e8 00       		.byte	0
 16247 03e9 4C       		.uleb128 0x4c
 16248 03ea 34       		.uleb128 0x34
 16249 03eb 00       		.byte	0
 16250 03ec 31       		.uleb128 0x31
 16251 03ed 13       		.uleb128 0x13
 16252 03ee 00       		.byte	0
 16253 03ef 00       		.byte	0
 16254 03f0 4D       		.uleb128 0x4d
 16255 03f1 1D       		.uleb128 0x1d
 16256 03f2 01       		.byte	0x1
 16257 03f3 31       		.uleb128 0x31
ARM GAS  C:\Users\JEANCO~1\AppData\Local\Temp\ccxhVNGN.s 			page 287


 16258 03f4 13       		.uleb128 0x13
 16259 03f5 52       		.uleb128 0x52
 16260 03f6 01       		.uleb128 0x1
 16261 03f7 55       		.uleb128 0x55
 16262 03f8 17       		.uleb128 0x17
 16263 03f9 58       		.uleb128 0x58
 16264 03fa 0B       		.uleb128 0xb
 16265 03fb 59       		.uleb128 0x59
 16266 03fc 0B       		.uleb128 0xb
 16267 03fd 01       		.uleb128 0x1
 16268 03fe 13       		.uleb128 0x13
 16269 03ff 00       		.byte	0
 16270 0400 00       		.byte	0
 16271 0401 4E       		.uleb128 0x4e
 16272 0402 1D       		.uleb128 0x1d
 16273 0403 01       		.byte	0x1
 16274 0404 31       		.uleb128 0x31
 16275 0405 13       		.uleb128 0x13
 16276 0406 11       		.uleb128 0x11
 16277 0407 01       		.uleb128 0x1
 16278 0408 12       		.uleb128 0x12
 16279 0409 06       		.uleb128 0x6
 16280 040a 58       		.uleb128 0x58
 16281 040b 0B       		.uleb128 0xb
 16282 040c 59       		.uleb128 0x59
 16283 040d 05       		.uleb128 0x5
 16284 040e 00       		.byte	0
 16285 040f 00       		.byte	0
 16286 0410 4F       		.uleb128 0x4f
 16287 0411 05       		.uleb128 0x5
 16288 0412 00       		.byte	0
 16289 0413 31       		.uleb128 0x31
 16290 0414 13       		.uleb128 0x13
 16291 0415 02       		.uleb128 0x2
 16292 0416 17       		.uleb128 0x17
 16293 0417 00       		.byte	0
 16294 0418 00       		.byte	0
 16295 0419 50       		.uleb128 0x50
 16296 041a 1D       		.uleb128 0x1d
 16297 041b 00       		.byte	0
 16298 041c 31       		.uleb128 0x31
 16299 041d 13       		.uleb128 0x13
 16300 041e 52       		.uleb128 0x52
 16301 041f 01       		.uleb128 0x1
 16302 0420 55       		.uleb128 0x55
 16303 0421 17       		.uleb128 0x17
 16304 0422 58       		.uleb128 0x58
 16305 0423 0B       		.uleb128 0xb
 16306 0424 59       		.uleb128 0x59
 16307 0425 0B       		.uleb128 0xb
 16308 0426 00       		.byte	0
 16309 0427 00       		.byte	0
 16310 0428 51       		.uleb128 0x51
 16311 0429 1D       		.uleb128 0x1d
 16312 042a 01       		.byte	0x1
 16313 042b 31       		.uleb128 0x31
 16314 042c 13       		.uleb128 0x13
ARM GAS  C:\Users\JEANCO~1\AppData\Local\Temp\ccxhVNGN.s 			page 288


 16315 042d 11       		.uleb128 0x11
 16316 042e 01       		.uleb128 0x1
 16317 042f 12       		.uleb128 0x12
 16318 0430 06       		.uleb128 0x6
 16319 0431 58       		.uleb128 0x58
 16320 0432 0B       		.uleb128 0xb
 16321 0433 59       		.uleb128 0x59
 16322 0434 0B       		.uleb128 0xb
 16323 0435 00       		.byte	0
 16324 0436 00       		.byte	0
 16325 0437 52       		.uleb128 0x52
 16326 0438 1D       		.uleb128 0x1d
 16327 0439 01       		.byte	0x1
 16328 043a 31       		.uleb128 0x31
 16329 043b 13       		.uleb128 0x13
 16330 043c 52       		.uleb128 0x52
 16331 043d 01       		.uleb128 0x1
 16332 043e 55       		.uleb128 0x55
 16333 043f 17       		.uleb128 0x17
 16334 0440 58       		.uleb128 0x58
 16335 0441 0B       		.uleb128 0xb
 16336 0442 59       		.uleb128 0x59
 16337 0443 05       		.uleb128 0x5
 16338 0444 01       		.uleb128 0x1
 16339 0445 13       		.uleb128 0x13
 16340 0446 00       		.byte	0
 16341 0447 00       		.byte	0
 16342 0448 53       		.uleb128 0x53
 16343 0449 05       		.uleb128 0x5
 16344 044a 00       		.byte	0
 16345 044b 31       		.uleb128 0x31
 16346 044c 13       		.uleb128 0x13
 16347 044d 00       		.byte	0
 16348 044e 00       		.byte	0
 16349 044f 54       		.uleb128 0x54
 16350 0450 0B       		.uleb128 0xb
 16351 0451 01       		.byte	0x1
 16352 0452 55       		.uleb128 0x55
 16353 0453 17       		.uleb128 0x17
 16354 0454 00       		.byte	0
 16355 0455 00       		.byte	0
 16356 0456 55       		.uleb128 0x55
 16357 0457 0B       		.uleb128 0xb
 16358 0458 01       		.byte	0x1
 16359 0459 31       		.uleb128 0x31
 16360 045a 13       		.uleb128 0x13
 16361 045b 55       		.uleb128 0x55
 16362 045c 17       		.uleb128 0x17
 16363 045d 00       		.byte	0
 16364 045e 00       		.byte	0
 16365 045f 56       		.uleb128 0x56
 16366 0460 1D       		.uleb128 0x1d
 16367 0461 00       		.byte	0
 16368 0462 31       		.uleb128 0x31
 16369 0463 13       		.uleb128 0x13
 16370 0464 52       		.uleb128 0x52
 16371 0465 01       		.uleb128 0x1
ARM GAS  C:\Users\JEANCO~1\AppData\Local\Temp\ccxhVNGN.s 			page 289


 16372 0466 55       		.uleb128 0x55
 16373 0467 17       		.uleb128 0x17
 16374 0468 58       		.uleb128 0x58
 16375 0469 0B       		.uleb128 0xb
 16376 046a 59       		.uleb128 0x59
 16377 046b 05       		.uleb128 0x5
 16378 046c 00       		.byte	0
 16379 046d 00       		.byte	0
 16380 046e 57       		.uleb128 0x57
 16381 046f 1D       		.uleb128 0x1d
 16382 0470 01       		.byte	0x1
 16383 0471 31       		.uleb128 0x31
 16384 0472 13       		.uleb128 0x13
 16385 0473 52       		.uleb128 0x52
 16386 0474 01       		.uleb128 0x1
 16387 0475 55       		.uleb128 0x55
 16388 0476 17       		.uleb128 0x17
 16389 0477 58       		.uleb128 0x58
 16390 0478 0B       		.uleb128 0xb
 16391 0479 59       		.uleb128 0x59
 16392 047a 05       		.uleb128 0x5
 16393 047b 00       		.byte	0
 16394 047c 00       		.byte	0
 16395 047d 58       		.uleb128 0x58
 16396 047e 2E       		.uleb128 0x2e
 16397 047f 01       		.byte	0x1
 16398 0480 3F       		.uleb128 0x3f
 16399 0481 19       		.uleb128 0x19
 16400 0482 03       		.uleb128 0x3
 16401 0483 0E       		.uleb128 0xe
 16402 0484 3A       		.uleb128 0x3a
 16403 0485 0B       		.uleb128 0xb
 16404 0486 3B       		.uleb128 0x3b
 16405 0487 05       		.uleb128 0x5
 16406 0488 27       		.uleb128 0x27
 16407 0489 19       		.uleb128 0x19
 16408 048a 49       		.uleb128 0x49
 16409 048b 13       		.uleb128 0x13
 16410 048c 20       		.uleb128 0x20
 16411 048d 0B       		.uleb128 0xb
 16412 048e 01       		.uleb128 0x1
 16413 048f 13       		.uleb128 0x13
 16414 0490 00       		.byte	0
 16415 0491 00       		.byte	0
 16416 0492 59       		.uleb128 0x59
 16417 0493 2E       		.uleb128 0x2e
 16418 0494 00       		.byte	0
 16419 0495 3F       		.uleb128 0x3f
 16420 0496 19       		.uleb128 0x19
 16421 0497 03       		.uleb128 0x3
 16422 0498 0E       		.uleb128 0xe
 16423 0499 3A       		.uleb128 0x3a
 16424 049a 0B       		.uleb128 0xb
 16425 049b 3B       		.uleb128 0x3b
 16426 049c 05       		.uleb128 0x5
 16427 049d 27       		.uleb128 0x27
 16428 049e 19       		.uleb128 0x19
ARM GAS  C:\Users\JEANCO~1\AppData\Local\Temp\ccxhVNGN.s 			page 290


 16429 049f 49       		.uleb128 0x49
 16430 04a0 13       		.uleb128 0x13
 16431 04a1 20       		.uleb128 0x20
 16432 04a2 0B       		.uleb128 0xb
 16433 04a3 00       		.byte	0
 16434 04a4 00       		.byte	0
 16435 04a5 5A       		.uleb128 0x5a
 16436 04a6 2E       		.uleb128 0x2e
 16437 04a7 01       		.byte	0x1
 16438 04a8 3F       		.uleb128 0x3f
 16439 04a9 19       		.uleb128 0x19
 16440 04aa 03       		.uleb128 0x3
 16441 04ab 0E       		.uleb128 0xe
 16442 04ac 3A       		.uleb128 0x3a
 16443 04ad 0B       		.uleb128 0xb
 16444 04ae 3B       		.uleb128 0x3b
 16445 04af 05       		.uleb128 0x5
 16446 04b0 27       		.uleb128 0x27
 16447 04b1 19       		.uleb128 0x19
 16448 04b2 11       		.uleb128 0x11
 16449 04b3 01       		.uleb128 0x1
 16450 04b4 12       		.uleb128 0x12
 16451 04b5 06       		.uleb128 0x6
 16452 04b6 40       		.uleb128 0x40
 16453 04b7 18       		.uleb128 0x18
 16454 04b8 9742     		.uleb128 0x2117
 16455 04ba 19       		.uleb128 0x19
 16456 04bb 01       		.uleb128 0x1
 16457 04bc 13       		.uleb128 0x13
 16458 04bd 00       		.byte	0
 16459 04be 00       		.byte	0
 16460 04bf 5B       		.uleb128 0x5b
 16461 04c0 2E       		.uleb128 0x2e
 16462 04c1 01       		.byte	0x1
 16463 04c2 3F       		.uleb128 0x3f
 16464 04c3 19       		.uleb128 0x19
 16465 04c4 03       		.uleb128 0x3
 16466 04c5 0E       		.uleb128 0xe
 16467 04c6 3A       		.uleb128 0x3a
 16468 04c7 0B       		.uleb128 0xb
 16469 04c8 3B       		.uleb128 0x3b
 16470 04c9 05       		.uleb128 0x5
 16471 04ca 27       		.uleb128 0x27
 16472 04cb 19       		.uleb128 0x19
 16473 04cc 20       		.uleb128 0x20
 16474 04cd 0B       		.uleb128 0xb
 16475 04ce 01       		.uleb128 0x1
 16476 04cf 13       		.uleb128 0x13
 16477 04d0 00       		.byte	0
 16478 04d1 00       		.byte	0
 16479 04d2 5C       		.uleb128 0x5c
 16480 04d3 0B       		.uleb128 0xb
 16481 04d4 01       		.byte	0x1
 16482 04d5 00       		.byte	0
 16483 04d6 00       		.byte	0
 16484 04d7 5D       		.uleb128 0x5d
 16485 04d8 05       		.uleb128 0x5
ARM GAS  C:\Users\JEANCO~1\AppData\Local\Temp\ccxhVNGN.s 			page 291


 16486 04d9 00       		.byte	0
 16487 04da 31       		.uleb128 0x31
 16488 04db 13       		.uleb128 0x13
 16489 04dc 02       		.uleb128 0x2
 16490 04dd 18       		.uleb128 0x18
 16491 04de 00       		.byte	0
 16492 04df 00       		.byte	0
 16493 04e0 5E       		.uleb128 0x5e
 16494 04e1 898201   		.uleb128 0x4109
 16495 04e4 01       		.byte	0x1
 16496 04e5 11       		.uleb128 0x11
 16497 04e6 01       		.uleb128 0x1
 16498 04e7 9542     		.uleb128 0x2115
 16499 04e9 19       		.uleb128 0x19
 16500 04ea 31       		.uleb128 0x31
 16501 04eb 13       		.uleb128 0x13
 16502 04ec 01       		.uleb128 0x1
 16503 04ed 13       		.uleb128 0x13
 16504 04ee 00       		.byte	0
 16505 04ef 00       		.byte	0
 16506 04f0 5F       		.uleb128 0x5f
 16507 04f1 2E       		.uleb128 0x2e
 16508 04f2 01       		.byte	0x1
 16509 04f3 3F       		.uleb128 0x3f
 16510 04f4 19       		.uleb128 0x19
 16511 04f5 03       		.uleb128 0x3
 16512 04f6 0E       		.uleb128 0xe
 16513 04f7 3A       		.uleb128 0x3a
 16514 04f8 0B       		.uleb128 0xb
 16515 04f9 3B       		.uleb128 0x3b
 16516 04fa 0B       		.uleb128 0xb
 16517 04fb 27       		.uleb128 0x27
 16518 04fc 19       		.uleb128 0x19
 16519 04fd 11       		.uleb128 0x11
 16520 04fe 01       		.uleb128 0x1
 16521 04ff 12       		.uleb128 0x12
 16522 0500 06       		.uleb128 0x6
 16523 0501 40       		.uleb128 0x40
 16524 0502 18       		.uleb128 0x18
 16525 0503 9742     		.uleb128 0x2117
 16526 0505 19       		.uleb128 0x19
 16527 0506 01       		.uleb128 0x1
 16528 0507 13       		.uleb128 0x13
 16529 0508 00       		.byte	0
 16530 0509 00       		.byte	0
 16531 050a 60       		.uleb128 0x60
 16532 050b 05       		.uleb128 0x5
 16533 050c 00       		.byte	0
 16534 050d 03       		.uleb128 0x3
 16535 050e 0E       		.uleb128 0xe
 16536 050f 3A       		.uleb128 0x3a
 16537 0510 0B       		.uleb128 0xb
 16538 0511 3B       		.uleb128 0x3b
 16539 0512 0B       		.uleb128 0xb
 16540 0513 49       		.uleb128 0x49
 16541 0514 13       		.uleb128 0x13
 16542 0515 02       		.uleb128 0x2
ARM GAS  C:\Users\JEANCO~1\AppData\Local\Temp\ccxhVNGN.s 			page 292


 16543 0516 17       		.uleb128 0x17
 16544 0517 00       		.byte	0
 16545 0518 00       		.byte	0
 16546 0519 61       		.uleb128 0x61
 16547 051a 34       		.uleb128 0x34
 16548 051b 00       		.byte	0
 16549 051c 03       		.uleb128 0x3
 16550 051d 08       		.uleb128 0x8
 16551 051e 3A       		.uleb128 0x3a
 16552 051f 0B       		.uleb128 0xb
 16553 0520 3B       		.uleb128 0x3b
 16554 0521 0B       		.uleb128 0xb
 16555 0522 49       		.uleb128 0x49
 16556 0523 13       		.uleb128 0x13
 16557 0524 02       		.uleb128 0x2
 16558 0525 17       		.uleb128 0x17
 16559 0526 00       		.byte	0
 16560 0527 00       		.byte	0
 16561 0528 62       		.uleb128 0x62
 16562 0529 34       		.uleb128 0x34
 16563 052a 00       		.byte	0
 16564 052b 03       		.uleb128 0x3
 16565 052c 0E       		.uleb128 0xe
 16566 052d 3A       		.uleb128 0x3a
 16567 052e 0B       		.uleb128 0xb
 16568 052f 3B       		.uleb128 0x3b
 16569 0530 0B       		.uleb128 0xb
 16570 0531 49       		.uleb128 0x49
 16571 0532 13       		.uleb128 0x13
 16572 0533 02       		.uleb128 0x2
 16573 0534 17       		.uleb128 0x17
 16574 0535 00       		.byte	0
 16575 0536 00       		.byte	0
 16576 0537 63       		.uleb128 0x63
 16577 0538 1D       		.uleb128 0x1d
 16578 0539 01       		.byte	0x1
 16579 053a 31       		.uleb128 0x31
 16580 053b 13       		.uleb128 0x13
 16581 053c 11       		.uleb128 0x11
 16582 053d 01       		.uleb128 0x1
 16583 053e 12       		.uleb128 0x12
 16584 053f 06       		.uleb128 0x6
 16585 0540 58       		.uleb128 0x58
 16586 0541 0B       		.uleb128 0xb
 16587 0542 59       		.uleb128 0x59
 16588 0543 0B       		.uleb128 0xb
 16589 0544 01       		.uleb128 0x1
 16590 0545 13       		.uleb128 0x13
 16591 0546 00       		.byte	0
 16592 0547 00       		.byte	0
 16593 0548 64       		.uleb128 0x64
 16594 0549 898201   		.uleb128 0x4109
 16595 054c 00       		.byte	0
 16596 054d 11       		.uleb128 0x11
 16597 054e 01       		.uleb128 0x1
 16598 054f 9542     		.uleb128 0x2115
 16599 0551 19       		.uleb128 0x19
ARM GAS  C:\Users\JEANCO~1\AppData\Local\Temp\ccxhVNGN.s 			page 293


 16600 0552 31       		.uleb128 0x31
 16601 0553 13       		.uleb128 0x13
 16602 0554 00       		.byte	0
 16603 0555 00       		.byte	0
 16604 0556 65       		.uleb128 0x65
 16605 0557 898201   		.uleb128 0x4109
 16606 055a 01       		.byte	0x1
 16607 055b 11       		.uleb128 0x11
 16608 055c 01       		.uleb128 0x1
 16609 055d 9542     		.uleb128 0x2115
 16610 055f 19       		.uleb128 0x19
 16611 0560 31       		.uleb128 0x31
 16612 0561 13       		.uleb128 0x13
 16613 0562 00       		.byte	0
 16614 0563 00       		.byte	0
 16615 0564 66       		.uleb128 0x66
 16616 0565 2E       		.uleb128 0x2e
 16617 0566 01       		.byte	0x1
 16618 0567 03       		.uleb128 0x3
 16619 0568 0E       		.uleb128 0xe
 16620 0569 3A       		.uleb128 0x3a
 16621 056a 0B       		.uleb128 0xb
 16622 056b 3B       		.uleb128 0x3b
 16623 056c 05       		.uleb128 0x5
 16624 056d 27       		.uleb128 0x27
 16625 056e 19       		.uleb128 0x19
 16626 056f 20       		.uleb128 0x20
 16627 0570 0B       		.uleb128 0xb
 16628 0571 01       		.uleb128 0x1
 16629 0572 13       		.uleb128 0x13
 16630 0573 00       		.byte	0
 16631 0574 00       		.byte	0
 16632 0575 67       		.uleb128 0x67
 16633 0576 05       		.uleb128 0x5
 16634 0577 00       		.byte	0
 16635 0578 03       		.uleb128 0x3
 16636 0579 08       		.uleb128 0x8
 16637 057a 3A       		.uleb128 0x3a
 16638 057b 0B       		.uleb128 0xb
 16639 057c 3B       		.uleb128 0x3b
 16640 057d 05       		.uleb128 0x5
 16641 057e 49       		.uleb128 0x49
 16642 057f 13       		.uleb128 0x13
 16643 0580 00       		.byte	0
 16644 0581 00       		.byte	0
 16645 0582 68       		.uleb128 0x68
 16646 0583 2E       		.uleb128 0x2e
 16647 0584 01       		.byte	0x1
 16648 0585 03       		.uleb128 0x3
 16649 0586 0E       		.uleb128 0xe
 16650 0587 3A       		.uleb128 0x3a
 16651 0588 0B       		.uleb128 0xb
 16652 0589 3B       		.uleb128 0x3b
 16653 058a 0B       		.uleb128 0xb
 16654 058b 27       		.uleb128 0x27
 16655 058c 19       		.uleb128 0x19
 16656 058d 49       		.uleb128 0x49
ARM GAS  C:\Users\JEANCO~1\AppData\Local\Temp\ccxhVNGN.s 			page 294


 16657 058e 13       		.uleb128 0x13
 16658 058f 20       		.uleb128 0x20
 16659 0590 0B       		.uleb128 0xb
 16660 0591 01       		.uleb128 0x1
 16661 0592 13       		.uleb128 0x13
 16662 0593 00       		.byte	0
 16663 0594 00       		.byte	0
 16664 0595 69       		.uleb128 0x69
 16665 0596 05       		.uleb128 0x5
 16666 0597 00       		.byte	0
 16667 0598 03       		.uleb128 0x3
 16668 0599 08       		.uleb128 0x8
 16669 059a 3A       		.uleb128 0x3a
 16670 059b 0B       		.uleb128 0xb
 16671 059c 3B       		.uleb128 0x3b
 16672 059d 0B       		.uleb128 0xb
 16673 059e 49       		.uleb128 0x49
 16674 059f 13       		.uleb128 0x13
 16675 05a0 00       		.byte	0
 16676 05a1 00       		.byte	0
 16677 05a2 6A       		.uleb128 0x6a
 16678 05a3 2E       		.uleb128 0x2e
 16679 05a4 01       		.byte	0x1
 16680 05a5 03       		.uleb128 0x3
 16681 05a6 0E       		.uleb128 0xe
 16682 05a7 3A       		.uleb128 0x3a
 16683 05a8 0B       		.uleb128 0xb
 16684 05a9 3B       		.uleb128 0x3b
 16685 05aa 0B       		.uleb128 0xb
 16686 05ab 27       		.uleb128 0x27
 16687 05ac 19       		.uleb128 0x19
 16688 05ad 20       		.uleb128 0x20
 16689 05ae 0B       		.uleb128 0xb
 16690 05af 01       		.uleb128 0x1
 16691 05b0 13       		.uleb128 0x13
 16692 05b1 00       		.byte	0
 16693 05b2 00       		.byte	0
 16694 05b3 6B       		.uleb128 0x6b
 16695 05b4 05       		.uleb128 0x5
 16696 05b5 00       		.byte	0
 16697 05b6 03       		.uleb128 0x3
 16698 05b7 0E       		.uleb128 0xe
 16699 05b8 3A       		.uleb128 0x3a
 16700 05b9 0B       		.uleb128 0xb
 16701 05ba 3B       		.uleb128 0x3b
 16702 05bb 0B       		.uleb128 0xb
 16703 05bc 49       		.uleb128 0x49
 16704 05bd 13       		.uleb128 0x13
 16705 05be 00       		.byte	0
 16706 05bf 00       		.byte	0
 16707 05c0 6C       		.uleb128 0x6c
 16708 05c1 2E       		.uleb128 0x2e
 16709 05c2 00       		.byte	0
 16710 05c3 03       		.uleb128 0x3
 16711 05c4 0E       		.uleb128 0xe
 16712 05c5 3A       		.uleb128 0x3a
 16713 05c6 0B       		.uleb128 0xb
ARM GAS  C:\Users\JEANCO~1\AppData\Local\Temp\ccxhVNGN.s 			page 295


 16714 05c7 3B       		.uleb128 0x3b
 16715 05c8 0B       		.uleb128 0xb
 16716 05c9 27       		.uleb128 0x27
 16717 05ca 19       		.uleb128 0x19
 16718 05cb 49       		.uleb128 0x49
 16719 05cc 13       		.uleb128 0x13
 16720 05cd 20       		.uleb128 0x20
 16721 05ce 0B       		.uleb128 0xb
 16722 05cf 00       		.byte	0
 16723 05d0 00       		.byte	0
 16724 05d1 6D       		.uleb128 0x6d
 16725 05d2 34       		.uleb128 0x34
 16726 05d3 00       		.byte	0
 16727 05d4 03       		.uleb128 0x3
 16728 05d5 0E       		.uleb128 0xe
 16729 05d6 49       		.uleb128 0x49
 16730 05d7 13       		.uleb128 0x13
 16731 05d8 34       		.uleb128 0x34
 16732 05d9 19       		.uleb128 0x19
 16733 05da 1C       		.uleb128 0x1c
 16734 05db 0E       		.uleb128 0xe
 16735 05dc 00       		.byte	0
 16736 05dd 00       		.byte	0
 16737 05de 6E       		.uleb128 0x6e
 16738 05df 2E       		.uleb128 0x2e
 16739 05e0 00       		.byte	0
 16740 05e1 03       		.uleb128 0x3
 16741 05e2 0E       		.uleb128 0xe
 16742 05e3 3A       		.uleb128 0x3a
 16743 05e4 0B       		.uleb128 0xb
 16744 05e5 3B       		.uleb128 0x3b
 16745 05e6 05       		.uleb128 0x5
 16746 05e7 27       		.uleb128 0x27
 16747 05e8 19       		.uleb128 0x19
 16748 05e9 20       		.uleb128 0x20
 16749 05ea 0B       		.uleb128 0xb
 16750 05eb 00       		.byte	0
 16751 05ec 00       		.byte	0
 16752 05ed 6F       		.uleb128 0x6f
 16753 05ee 2E       		.uleb128 0x2e
 16754 05ef 01       		.byte	0x1
 16755 05f0 31       		.uleb128 0x31
 16756 05f1 13       		.uleb128 0x13
 16757 05f2 11       		.uleb128 0x11
 16758 05f3 01       		.uleb128 0x1
 16759 05f4 12       		.uleb128 0x12
 16760 05f5 06       		.uleb128 0x6
 16761 05f6 40       		.uleb128 0x40
 16762 05f7 18       		.uleb128 0x18
 16763 05f8 9742     		.uleb128 0x2117
 16764 05fa 19       		.uleb128 0x19
 16765 05fb 01       		.uleb128 0x1
 16766 05fc 13       		.uleb128 0x13
 16767 05fd 00       		.byte	0
 16768 05fe 00       		.byte	0
 16769 05ff 70       		.uleb128 0x70
 16770 0600 0B       		.uleb128 0xb
ARM GAS  C:\Users\JEANCO~1\AppData\Local\Temp\ccxhVNGN.s 			page 296


 16771 0601 01       		.byte	0x1
 16772 0602 31       		.uleb128 0x31
 16773 0603 13       		.uleb128 0x13
 16774 0604 11       		.uleb128 0x11
 16775 0605 01       		.uleb128 0x1
 16776 0606 12       		.uleb128 0x12
 16777 0607 06       		.uleb128 0x6
 16778 0608 01       		.uleb128 0x1
 16779 0609 13       		.uleb128 0x13
 16780 060a 00       		.byte	0
 16781 060b 00       		.byte	0
 16782 060c 71       		.uleb128 0x71
 16783 060d 34       		.uleb128 0x34
 16784 060e 00       		.byte	0
 16785 060f 31       		.uleb128 0x31
 16786 0610 13       		.uleb128 0x13
 16787 0611 02       		.uleb128 0x2
 16788 0612 17       		.uleb128 0x17
 16789 0613 00       		.byte	0
 16790 0614 00       		.byte	0
 16791 0615 72       		.uleb128 0x72
 16792 0616 0B       		.uleb128 0xb
 16793 0617 01       		.byte	0x1
 16794 0618 31       		.uleb128 0x31
 16795 0619 13       		.uleb128 0x13
 16796 061a 11       		.uleb128 0x11
 16797 061b 01       		.uleb128 0x1
 16798 061c 12       		.uleb128 0x12
 16799 061d 06       		.uleb128 0x6
 16800 061e 00       		.byte	0
 16801 061f 00       		.byte	0
 16802 0620 73       		.uleb128 0x73
 16803 0621 2E       		.uleb128 0x2e
 16804 0622 01       		.byte	0x1
 16805 0623 31       		.uleb128 0x31
 16806 0624 13       		.uleb128 0x13
 16807 0625 11       		.uleb128 0x11
 16808 0626 01       		.uleb128 0x1
 16809 0627 12       		.uleb128 0x12
 16810 0628 06       		.uleb128 0x6
 16811 0629 40       		.uleb128 0x40
 16812 062a 18       		.uleb128 0x18
 16813 062b 9642     		.uleb128 0x2116
 16814 062d 19       		.uleb128 0x19
 16815 062e 01       		.uleb128 0x1
 16816 062f 13       		.uleb128 0x13
 16817 0630 00       		.byte	0
 16818 0631 00       		.byte	0
 16819 0632 74       		.uleb128 0x74
 16820 0633 34       		.uleb128 0x34
 16821 0634 00       		.byte	0
 16822 0635 31       		.uleb128 0x31
 16823 0636 13       		.uleb128 0x13
 16824 0637 02       		.uleb128 0x2
 16825 0638 18       		.uleb128 0x18
 16826 0639 00       		.byte	0
 16827 063a 00       		.byte	0
ARM GAS  C:\Users\JEANCO~1\AppData\Local\Temp\ccxhVNGN.s 			page 297


 16828 063b 75       		.uleb128 0x75
 16829 063c 0B       		.uleb128 0xb
 16830 063d 01       		.byte	0x1
 16831 063e 31       		.uleb128 0x31
 16832 063f 13       		.uleb128 0x13
 16833 0640 55       		.uleb128 0x55
 16834 0641 17       		.uleb128 0x17
 16835 0642 01       		.uleb128 0x1
 16836 0643 13       		.uleb128 0x13
 16837 0644 00       		.byte	0
 16838 0645 00       		.byte	0
 16839 0646 76       		.uleb128 0x76
 16840 0647 2E       		.uleb128 0x2e
 16841 0648 00       		.byte	0
 16842 0649 3F       		.uleb128 0x3f
 16843 064a 19       		.uleb128 0x19
 16844 064b 3C       		.uleb128 0x3c
 16845 064c 19       		.uleb128 0x19
 16846 064d 6E       		.uleb128 0x6e
 16847 064e 0E       		.uleb128 0xe
 16848 064f 03       		.uleb128 0x3
 16849 0650 0E       		.uleb128 0xe
 16850 0651 00       		.byte	0
 16851 0652 00       		.byte	0
 16852 0653 77       		.uleb128 0x77
 16853 0654 2E       		.uleb128 0x2e
 16854 0655 00       		.byte	0
 16855 0656 3F       		.uleb128 0x3f
 16856 0657 19       		.uleb128 0x19
 16857 0658 3C       		.uleb128 0x3c
 16858 0659 19       		.uleb128 0x19
 16859 065a 6E       		.uleb128 0x6e
 16860 065b 0E       		.uleb128 0xe
 16861 065c 03       		.uleb128 0x3
 16862 065d 0E       		.uleb128 0xe
 16863 065e 3A       		.uleb128 0x3a
 16864 065f 0B       		.uleb128 0xb
 16865 0660 3B       		.uleb128 0x3b
 16866 0661 0B       		.uleb128 0xb
 16867 0662 00       		.byte	0
 16868 0663 00       		.byte	0
 16869 0664 78       		.uleb128 0x78
 16870 0665 2E       		.uleb128 0x2e
 16871 0666 00       		.byte	0
 16872 0667 3F       		.uleb128 0x3f
 16873 0668 19       		.uleb128 0x19
 16874 0669 3C       		.uleb128 0x3c
 16875 066a 19       		.uleb128 0x19
 16876 066b 6E       		.uleb128 0x6e
 16877 066c 0E       		.uleb128 0xe
 16878 066d 03       		.uleb128 0x3
 16879 066e 0E       		.uleb128 0xe
 16880 066f 3A       		.uleb128 0x3a
 16881 0670 0B       		.uleb128 0xb
 16882 0671 3B       		.uleb128 0x3b
 16883 0672 05       		.uleb128 0x5
 16884 0673 00       		.byte	0
ARM GAS  C:\Users\JEANCO~1\AppData\Local\Temp\ccxhVNGN.s 			page 298


 16885 0674 00       		.byte	0
 16886 0675 00       		.byte	0
 16887              		.section	.debug_loc,"",%progbits
 16888              	.Ldebug_loc0:
 16889              	.LLST78:
 16890 0000 00000000 		.4byte	.LVL266
 16891 0004 50000000 		.4byte	.LVL269
 16892 0008 0100     		.2byte	0x1
 16893 000a 50       		.byte	0x50
 16894 000b 50000000 		.4byte	.LVL269
 16895 000f 52000000 		.4byte	.LVL270
 16896 0013 0400     		.2byte	0x4
 16897 0015 F3       		.byte	0xf3
 16898 0016 01       		.uleb128 0x1
 16899 0017 50       		.byte	0x50
 16900 0018 9F       		.byte	0x9f
 16901 0019 52000000 		.4byte	.LVL270
 16902 001d 5A000000 		.4byte	.LVL271
 16903 0021 0100     		.2byte	0x1
 16904 0023 50       		.byte	0x50
 16905 0024 5A000000 		.4byte	.LVL271
 16906 0028 6E000000 		.4byte	.LVL272
 16907 002c 0400     		.2byte	0x4
 16908 002e 70       		.byte	0x70
 16909 002f 00       		.sleb128 0
 16910 0030 1F       		.byte	0x1f
 16911 0031 9F       		.byte	0x9f
 16912 0032 6E000000 		.4byte	.LVL272
 16913 0036 70000000 		.4byte	.LVL273
 16914 003a 0400     		.2byte	0x4
 16915 003c F3       		.byte	0xf3
 16916 003d 01       		.uleb128 0x1
 16917 003e 50       		.byte	0x50
 16918 003f 9F       		.byte	0x9f
 16919 0040 70000000 		.4byte	.LVL273
 16920 0044 7A000000 		.4byte	.LVL274
 16921 0048 0100     		.2byte	0x1
 16922 004a 50       		.byte	0x50
 16923 004b 7A000000 		.4byte	.LVL274
 16924 004f 8A000000 		.4byte	.LVL276
 16925 0053 0400     		.2byte	0x4
 16926 0055 F3       		.byte	0xf3
 16927 0056 01       		.uleb128 0x1
 16928 0057 50       		.byte	0x50
 16929 0058 9F       		.byte	0x9f
 16930 0059 8A000000 		.4byte	.LVL276
 16931 005d AA000000 		.4byte	.LVL279
 16932 0061 0100     		.2byte	0x1
 16933 0063 50       		.byte	0x50
 16934 0064 AA000000 		.4byte	.LVL279
 16935 0068 AE000000 		.4byte	.LVL280
 16936 006c 0400     		.2byte	0x4
 16937 006e F3       		.byte	0xf3
 16938 006f 01       		.uleb128 0x1
 16939 0070 50       		.byte	0x50
 16940 0071 9F       		.byte	0x9f
 16941 0072 AE000000 		.4byte	.LVL280
ARM GAS  C:\Users\JEANCO~1\AppData\Local\Temp\ccxhVNGN.s 			page 299


 16942 0076 B2000000 		.4byte	.LVL281
 16943 007a 0100     		.2byte	0x1
 16944 007c 50       		.byte	0x50
 16945 007d B2000000 		.4byte	.LVL281
 16946 0081 B4000000 		.4byte	.LVL282
 16947 0085 0400     		.2byte	0x4
 16948 0087 F3       		.byte	0xf3
 16949 0088 01       		.uleb128 0x1
 16950 0089 50       		.byte	0x50
 16951 008a 9F       		.byte	0x9f
 16952 008b B4000000 		.4byte	.LVL282
 16953 008f C4000000 		.4byte	.LVL285
 16954 0093 0100     		.2byte	0x1
 16955 0095 50       		.byte	0x50
 16956 0096 C4000000 		.4byte	.LVL285
 16957 009a CA000000 		.4byte	.LVL286
 16958 009e 0400     		.2byte	0x4
 16959 00a0 F3       		.byte	0xf3
 16960 00a1 01       		.uleb128 0x1
 16961 00a2 50       		.byte	0x50
 16962 00a3 9F       		.byte	0x9f
 16963 00a4 CA000000 		.4byte	.LVL286
 16964 00a8 CC000000 		.4byte	.LVL287
 16965 00ac 0100     		.2byte	0x1
 16966 00ae 50       		.byte	0x50
 16967 00af CC000000 		.4byte	.LVL287
 16968 00b3 CE000000 		.4byte	.LVL288
 16969 00b7 0400     		.2byte	0x4
 16970 00b9 F3       		.byte	0xf3
 16971 00ba 01       		.uleb128 0x1
 16972 00bb 50       		.byte	0x50
 16973 00bc 9F       		.byte	0x9f
 16974 00bd CE000000 		.4byte	.LVL288
 16975 00c1 DA000000 		.4byte	.LVL289
 16976 00c5 0400     		.2byte	0x4
 16977 00c7 70       		.byte	0x70
 16978 00c8 00       		.sleb128 0
 16979 00c9 1F       		.byte	0x1f
 16980 00ca 9F       		.byte	0x9f
 16981 00cb DA000000 		.4byte	.LVL289
 16982 00cf DC000000 		.4byte	.LVL290
 16983 00d3 0400     		.2byte	0x4
 16984 00d5 F3       		.byte	0xf3
 16985 00d6 01       		.uleb128 0x1
 16986 00d7 50       		.byte	0x50
 16987 00d8 9F       		.byte	0x9f
 16988 00d9 DC000000 		.4byte	.LVL290
 16989 00dd EC000000 		.4byte	.LVL291
 16990 00e1 0100     		.2byte	0x1
 16991 00e3 50       		.byte	0x50
 16992 00e4 EC000000 		.4byte	.LVL291
 16993 00e8 EE000000 		.4byte	.LVL292
 16994 00ec 0400     		.2byte	0x4
 16995 00ee F3       		.byte	0xf3
 16996 00ef 01       		.uleb128 0x1
 16997 00f0 50       		.byte	0x50
 16998 00f1 9F       		.byte	0x9f
ARM GAS  C:\Users\JEANCO~1\AppData\Local\Temp\ccxhVNGN.s 			page 300


 16999 00f2 EE000000 		.4byte	.LVL292
 17000 00f6 F0000000 		.4byte	.LVL293
 17001 00fa 0100     		.2byte	0x1
 17002 00fc 50       		.byte	0x50
 17003 00fd F0000000 		.4byte	.LVL293
 17004 0101 F2000000 		.4byte	.LVL294
 17005 0105 0400     		.2byte	0x4
 17006 0107 F3       		.byte	0xf3
 17007 0108 01       		.uleb128 0x1
 17008 0109 50       		.byte	0x50
 17009 010a 9F       		.byte	0x9f
 17010 010b F2000000 		.4byte	.LVL294
 17011 010f F4000000 		.4byte	.LVL295
 17012 0113 0100     		.2byte	0x1
 17013 0115 50       		.byte	0x50
 17014 0116 F4000000 		.4byte	.LVL295
 17015 011a 08010000 		.4byte	.LFE308
 17016 011e 0400     		.2byte	0x4
 17017 0120 F3       		.byte	0xf3
 17018 0121 01       		.uleb128 0x1
 17019 0122 50       		.byte	0x50
 17020 0123 9F       		.byte	0x9f
 17021 0124 00000000 		.4byte	0
 17022 0128 00000000 		.4byte	0
 17023              	.LLST79:
 17024 012c 00000000 		.4byte	.LVL266
 17025 0130 7E000000 		.4byte	.LVL275
 17026 0134 0100     		.2byte	0x1
 17027 0136 51       		.byte	0x51
 17028 0137 7E000000 		.4byte	.LVL275
 17029 013b 8A000000 		.4byte	.LVL276
 17030 013f 0400     		.2byte	0x4
 17031 0141 F3       		.byte	0xf3
 17032 0142 01       		.uleb128 0x1
 17033 0143 51       		.byte	0x51
 17034 0144 9F       		.byte	0x9f
 17035 0145 8A000000 		.4byte	.LVL276
 17036 0149 F6000000 		.4byte	.LVL296
 17037 014d 0100     		.2byte	0x1
 17038 014f 51       		.byte	0x51
 17039 0150 F6000000 		.4byte	.LVL296
 17040 0154 08010000 		.4byte	.LFE308
 17041 0158 0400     		.2byte	0x4
 17042 015a F3       		.byte	0xf3
 17043 015b 01       		.uleb128 0x1
 17044 015c 51       		.byte	0x51
 17045 015d 9F       		.byte	0x9f
 17046 015e 00000000 		.4byte	0
 17047 0162 00000000 		.4byte	0
 17048              	.LLST80:
 17049 0166 28000000 		.4byte	.LVL267
 17050 016a 9A000000 		.4byte	.LVL277
 17051 016e 0200     		.2byte	0x2
 17052 0170 90       		.byte	0x90
 17053 0171 4E       		.uleb128 0x4e
 17054 0172 9A000000 		.4byte	.LVL277
 17055 0176 9C000000 		.4byte	.LVL278
ARM GAS  C:\Users\JEANCO~1\AppData\Local\Temp\ccxhVNGN.s 			page 301


 17056 017a 0100     		.2byte	0x1
 17057 017c 53       		.byte	0x53
 17058 017d 9C000000 		.4byte	.LVL278
 17059 0181 CA000000 		.4byte	.LVL286
 17060 0185 0200     		.2byte	0x2
 17061 0187 90       		.byte	0x90
 17062 0188 4E       		.uleb128 0x4e
 17063 0189 CA000000 		.4byte	.LVL286
 17064 018d CE000000 		.4byte	.LVL288
 17065 0191 0100     		.2byte	0x1
 17066 0193 53       		.byte	0x53
 17067 0194 CE000000 		.4byte	.LVL288
 17068 0198 F9000000 		.4byte	.LVL297-1
 17069 019c 0200     		.2byte	0x2
 17070 019e 90       		.byte	0x90
 17071 019f 4E       		.uleb128 0x4e
 17072 01a0 F9000000 		.4byte	.LVL297-1
 17073 01a4 08010000 		.4byte	.LFE308
 17074 01a8 1600     		.2byte	0x16
 17075 01aa F3       		.byte	0xf3
 17076 01ab 01       		.uleb128 0x1
 17077 01ac 51       		.byte	0x51
 17078 01ad F7       		.byte	0xf7
 17079 01ae 2C       		.uleb128 0x2c
 17080 01af F7       		.byte	0xf7
 17081 01b0 25       		.uleb128 0x25
 17082 01b1 F4       		.byte	0xf4
 17083 01b2 25       		.uleb128 0x25
 17084 01b3 04       		.byte	0x4
 17085 01b4 CDCC8C3F 		.4byte	0x3f8ccccd
 17086 01b8 1E       		.byte	0x1e
 17087 01b9 F7       		.byte	0xf7
 17088 01ba 25       		.uleb128 0x25
 17089 01bb F7       		.byte	0xf7
 17090 01bc 2C       		.uleb128 0x2c
 17091 01bd F7       		.byte	0xf7
 17092 01be 00       		.uleb128 0
 17093 01bf 9F       		.byte	0x9f
 17094 01c0 00000000 		.4byte	0
 17095 01c4 00000000 		.4byte	0
 17096              	.LLST81:
 17097 01c8 2C000000 		.4byte	.LVL268
 17098 01cc C0000000 		.4byte	.LVL283
 17099 01d0 0200     		.2byte	0x2
 17100 01d2 90       		.byte	0x90
 17101 01d3 4F       		.uleb128 0x4f
 17102 01d4 C0000000 		.4byte	.LVL283
 17103 01d8 C2000000 		.4byte	.LVL284
 17104 01dc 0100     		.2byte	0x1
 17105 01de 53       		.byte	0x53
 17106 01df C2000000 		.4byte	.LVL284
 17107 01e3 F2000000 		.4byte	.LVL294
 17108 01e7 0200     		.2byte	0x2
 17109 01e9 90       		.byte	0x90
 17110 01ea 4F       		.uleb128 0x4f
 17111 01eb F2000000 		.4byte	.LVL294
 17112 01ef F6000000 		.4byte	.LVL296
ARM GAS  C:\Users\JEANCO~1\AppData\Local\Temp\ccxhVNGN.s 			page 302


 17113 01f3 0100     		.2byte	0x1
 17114 01f5 53       		.byte	0x53
 17115 01f6 F6000000 		.4byte	.LVL296
 17116 01fa F9000000 		.4byte	.LVL297-1
 17117 01fe 0200     		.2byte	0x2
 17118 0200 90       		.byte	0x90
 17119 0201 4F       		.uleb128 0x4f
 17120 0202 F9000000 		.4byte	.LVL297-1
 17121 0206 08010000 		.4byte	.LFE308
 17122 020a 1600     		.2byte	0x16
 17123 020c F3       		.byte	0xf3
 17124 020d 01       		.uleb128 0x1
 17125 020e 51       		.byte	0x51
 17126 020f F7       		.byte	0xf7
 17127 0210 2C       		.uleb128 0x2c
 17128 0211 F7       		.byte	0xf7
 17129 0212 25       		.uleb128 0x25
 17130 0213 F4       		.byte	0xf4
 17131 0214 25       		.uleb128 0x25
 17132 0215 04       		.byte	0x4
 17133 0216 6666663F 		.4byte	0x3f666666
 17134 021a 1E       		.byte	0x1e
 17135 021b F7       		.byte	0xf7
 17136 021c 25       		.uleb128 0x25
 17137 021d F7       		.byte	0xf7
 17138 021e 2C       		.uleb128 0x2c
 17139 021f F7       		.byte	0xf7
 17140 0220 00       		.uleb128 0
 17141 0221 9F       		.byte	0x9f
 17142 0222 00000000 		.4byte	0
 17143 0226 00000000 		.4byte	0
 17144              	.LLST84:
 17145 022a 00000000 		.4byte	.LVL311
 17146 022e 26000000 		.4byte	.LVL313
 17147 0232 0100     		.2byte	0x1
 17148 0234 50       		.byte	0x50
 17149 0235 26000000 		.4byte	.LVL313
 17150 0239 40030000 		.4byte	.LFE306
 17151 023d 0400     		.2byte	0x4
 17152 023f F3       		.byte	0xf3
 17153 0240 01       		.uleb128 0x1
 17154 0241 50       		.byte	0x50
 17155 0242 9F       		.byte	0x9f
 17156 0243 00000000 		.4byte	0
 17157 0247 00000000 		.4byte	0
 17158              	.LLST85:
 17159 024b 22000000 		.4byte	.LVL312
 17160 024f 26000000 		.4byte	.LVL313
 17161 0253 0600     		.2byte	0x6
 17162 0255 9E       		.byte	0x9e
 17163 0256 04       		.uleb128 0x4
 17164 0257 00000000 		.4byte	0
 17165 025b 44020000 		.4byte	.LVL363
 17166 025f 7A020000 		.4byte	.LVL366
 17167 0263 0200     		.2byte	0x2
 17168 0265 90       		.byte	0x90
 17169 0266 50       		.uleb128 0x50
ARM GAS  C:\Users\JEANCO~1\AppData\Local\Temp\ccxhVNGN.s 			page 303


 17170 0267 00000000 		.4byte	0
 17171 026b 00000000 		.4byte	0
 17172              	.LLST86:
 17173 026f 22000000 		.4byte	.LVL312
 17174 0273 26000000 		.4byte	.LVL313
 17175 0277 0200     		.2byte	0x2
 17176 0279 30       		.byte	0x30
 17177 027a 9F       		.byte	0x9f
 17178 027b 00000000 		.4byte	0
 17179 027f 00000000 		.4byte	0
 17180              	.LLST87:
 17181 0283 22000000 		.4byte	.LVL312
 17182 0287 26000000 		.4byte	.LVL313
 17183 028b 0200     		.2byte	0x2
 17184 028d 30       		.byte	0x30
 17185 028e 9F       		.byte	0x9f
 17186 028f AE010000 		.4byte	.LVL344
 17187 0293 BA010000 		.4byte	.LVL346
 17188 0297 0100     		.2byte	0x1
 17189 0299 5A       		.byte	0x5a
 17190 029a 00000000 		.4byte	0
 17191 029e 00000000 		.4byte	0
 17192              	.LLST88:
 17193 02a2 22000000 		.4byte	.LVL312
 17194 02a6 26000000 		.4byte	.LVL313
 17195 02aa 0200     		.2byte	0x2
 17196 02ac 30       		.byte	0x30
 17197 02ad 9F       		.byte	0x9f
 17198 02ae C6000000 		.4byte	.LVL325
 17199 02b2 40030000 		.4byte	.LFE306
 17200 02b6 0100     		.2byte	0x1
 17201 02b8 54       		.byte	0x54
 17202 02b9 00000000 		.4byte	0
 17203 02bd 00000000 		.4byte	0
 17204              	.LLST89:
 17205 02c1 22000000 		.4byte	.LVL312
 17206 02c5 26000000 		.4byte	.LVL313
 17207 02c9 0200     		.2byte	0x2
 17208 02cb 30       		.byte	0x30
 17209 02cc 9F       		.byte	0x9f
 17210 02cd 26000000 		.4byte	.LVL313
 17211 02d1 28010000 		.4byte	.LVL332
 17212 02d5 0300     		.2byte	0x3
 17213 02d7 91       		.byte	0x91
 17214 02d8 B07F     		.sleb128 -80
 17215 02da 7A020000 		.4byte	.LVL366
 17216 02de 92020000 		.4byte	.LVL368
 17217 02e2 0300     		.2byte	0x3
 17218 02e4 91       		.byte	0x91
 17219 02e5 B07F     		.sleb128 -80
 17220 02e7 A2020000 		.4byte	.LVL372
 17221 02eb D4020000 		.4byte	.LVL377
 17222 02ef 0100     		.2byte	0x1
 17223 02f1 55       		.byte	0x55
 17224 02f2 00000000 		.4byte	0
 17225 02f6 00000000 		.4byte	0
 17226              	.LLST90:
ARM GAS  C:\Users\JEANCO~1\AppData\Local\Temp\ccxhVNGN.s 			page 304


 17227 02fa 22000000 		.4byte	.LVL312
 17228 02fe 26000000 		.4byte	.LVL313
 17229 0302 0A00     		.2byte	0xa
 17230 0304 9E       		.byte	0x9e
 17231 0305 08       		.uleb128 0x8
 17232 0306 00000000 		.4byte	0
 17233 030a 00000000 		.4byte	0
 17234 030e 00000000 		.4byte	0
 17235 0312 00000000 		.4byte	0
 17236              	.LLST91:
 17237 0316 AA010000 		.4byte	.LVL343
 17238 031a B6010000 		.4byte	.LVL345
 17239 031e 0100     		.2byte	0x1
 17240 0320 53       		.byte	0x53
 17241 0321 00000000 		.4byte	0
 17242 0325 00000000 		.4byte	0
 17243              	.LLST92:
 17244 0329 C6010000 		.4byte	.LVL348
 17245 032d 10020000 		.4byte	.LVL357
 17246 0331 0100     		.2byte	0x1
 17247 0333 59       		.byte	0x59
 17248 0334 16020000 		.4byte	.LVL358
 17249 0338 7A020000 		.4byte	.LVL366
 17250 033c 0100     		.2byte	0x1
 17251 033e 59       		.byte	0x59
 17252 033f 94020000 		.4byte	.LVL369
 17253 0343 A2020000 		.4byte	.LVL372
 17254 0347 0100     		.2byte	0x1
 17255 0349 59       		.byte	0x59
 17256 034a 00000000 		.4byte	0
 17257 034e 00000000 		.4byte	0
 17258              	.LLST100:
 17259 0352 CE010000 		.4byte	.LVL350
 17260 0356 D8010000 		.4byte	.LVL351
 17261 035a 0200     		.2byte	0x2
 17262 035c 30       		.byte	0x30
 17263 035d 9F       		.byte	0x9f
 17264 035e D8010000 		.4byte	.LVL351
 17265 0362 DC010000 		.4byte	.LVL352
 17266 0366 0900     		.2byte	0x9
 17267 0368 7C       		.byte	0x7c
 17268 0369 00       		.sleb128 0
 17269 036a 03       		.byte	0x3
 17270 036b FFFFFFFF 		.4byte	coeff_capteur-1
 17271 036f 1C       		.byte	0x1c
 17272 0370 9F       		.byte	0x9f
 17273 0371 EC010000 		.4byte	.LVL353
 17274 0375 FD010000 		.4byte	.LVL354-1
 17275 0379 0900     		.2byte	0x9
 17276 037b 7C       		.byte	0x7c
 17277 037c 00       		.sleb128 0
 17278 037d 03       		.byte	0x3
 17279 037e FFFFFFFF 		.4byte	coeff_capteur-1
 17280 0382 1C       		.byte	0x1c
 17281 0383 9F       		.byte	0x9f
 17282 0384 16020000 		.4byte	.LVL358
 17283 0388 67020000 		.4byte	.LVL364-1
ARM GAS  C:\Users\JEANCO~1\AppData\Local\Temp\ccxhVNGN.s 			page 305


 17284 038c 0900     		.2byte	0x9
 17285 038e 7C       		.byte	0x7c
 17286 038f 00       		.sleb128 0
 17287 0390 03       		.byte	0x3
 17288 0391 FFFFFFFF 		.4byte	coeff_capteur-1
 17289 0395 1C       		.byte	0x1c
 17290 0396 9F       		.byte	0x9f
 17291 0397 94020000 		.4byte	.LVL369
 17292 039b 99020000 		.4byte	.LVL370-1
 17293 039f 0900     		.2byte	0x9
 17294 03a1 7C       		.byte	0x7c
 17295 03a2 00       		.sleb128 0
 17296 03a3 03       		.byte	0x3
 17297 03a4 FFFFFFFF 		.4byte	coeff_capteur-1
 17298 03a8 1C       		.byte	0x1c
 17299 03a9 9F       		.byte	0x9f
 17300 03aa 00000000 		.4byte	0
 17301 03ae 00000000 		.4byte	0
 17302              	.LLST101:
 17303 03b2 1E020000 		.4byte	.LVL359
 17304 03b6 34020000 		.4byte	.LVL361
 17305 03ba 0100     		.2byte	0x1
 17306 03bc 53       		.byte	0x53
 17307 03bd 34020000 		.4byte	.LVL361
 17308 03c1 38020000 		.4byte	.LVL362
 17309 03c5 0400     		.2byte	0x4
 17310 03c7 73       		.byte	0x73
 17311 03c8 C801     		.sleb128 200
 17312 03ca 9F       		.byte	0x9f
 17313 03cb 00000000 		.4byte	0
 17314 03cf 00000000 		.4byte	0
 17315              	.LLST102:
 17316 03d3 44020000 		.4byte	.LVL363
 17317 03d7 7A020000 		.4byte	.LVL366
 17318 03db 0200     		.2byte	0x2
 17319 03dd 30       		.byte	0x30
 17320 03de 9F       		.byte	0x9f
 17321 03df 00000000 		.4byte	0
 17322 03e3 00000000 		.4byte	0
 17323              	.LLST93:
 17324 03e7 26000000 		.4byte	.LVL313
 17325 03eb 2C000000 		.4byte	.LVL314
 17326 03ef 0300     		.2byte	0x3
 17327 03f1 08       		.byte	0x8
 17328 03f2 20       		.byte	0x20
 17329 03f3 9F       		.byte	0x9f
 17330 03f4 00000000 		.4byte	0
 17331 03f8 00000000 		.4byte	0
 17332              	.LLST94:
 17333 03fc 58000000 		.4byte	.LVL319
 17334 0400 5E000000 		.4byte	.LVL320
 17335 0404 0200     		.2byte	0x2
 17336 0406 30       		.byte	0x30
 17337 0407 9F       		.byte	0x9f
 17338 0408 00000000 		.4byte	0
 17339 040c 00000000 		.4byte	0
 17340              	.LLST95:
ARM GAS  C:\Users\JEANCO~1\AppData\Local\Temp\ccxhVNGN.s 			page 306


 17341 0410 80000000 		.4byte	.LVL322
 17342 0414 A0000000 		.4byte	.LVL324
 17343 0418 0200     		.2byte	0x2
 17344 041a 31       		.byte	0x31
 17345 041b 9F       		.byte	0x9f
 17346 041c 00000000 		.4byte	0
 17347 0420 00000000 		.4byte	0
 17348              	.LLST96:
 17349 0424 28010000 		.4byte	.LVL332
 17350 0428 34010000 		.4byte	.LVL334
 17351 042c 0300     		.2byte	0x3
 17352 042e 91       		.byte	0x91
 17353 042f B07F     		.sleb128 -80
 17354 0431 00000000 		.4byte	0
 17355 0435 00000000 		.4byte	0
 17356              	.LLST97:
 17357 0439 28010000 		.4byte	.LVL332
 17358 043d 34010000 		.4byte	.LVL334
 17359 0441 0100     		.2byte	0x1
 17360 0443 54       		.byte	0x54
 17361 0444 00000000 		.4byte	0
 17362 0448 00000000 		.4byte	0
 17363              	.LLST98:
 17364 044c 46010000 		.4byte	.LVL337
 17365 0450 9A010000 		.4byte	.LVL342
 17366 0454 0600     		.2byte	0x6
 17367 0456 9E       		.byte	0x9e
 17368 0457 04       		.uleb128 0x4
 17369 0458 295C8F3D 		.4byte	0x3d8f5c29
 17370 045c 10020000 		.4byte	.LVL357
 17371 0460 16020000 		.4byte	.LVL358
 17372 0464 0600     		.2byte	0x6
 17373 0466 9E       		.byte	0x9e
 17374 0467 04       		.uleb128 0x4
 17375 0468 295C8F3D 		.4byte	0x3d8f5c29
 17376 046c D4020000 		.4byte	.LVL377
 17377 0470 40030000 		.4byte	.LFE306
 17378 0474 0600     		.2byte	0x6
 17379 0476 9E       		.byte	0x9e
 17380 0477 04       		.uleb128 0x4
 17381 0478 295C8F3D 		.4byte	0x3d8f5c29
 17382 047c 00000000 		.4byte	0
 17383 0480 00000000 		.4byte	0
 17384              	.LLST99:
 17385 0484 46010000 		.4byte	.LVL337
 17386 0488 9A010000 		.4byte	.LVL342
 17387 048c 0100     		.2byte	0x1
 17388 048e 50       		.byte	0x50
 17389 048f 10020000 		.4byte	.LVL357
 17390 0493 16020000 		.4byte	.LVL358
 17391 0497 0100     		.2byte	0x1
 17392 0499 50       		.byte	0x50
 17393 049a D4020000 		.4byte	.LVL377
 17394 049e 40030000 		.4byte	.LFE306
 17395 04a2 0100     		.2byte	0x1
 17396 04a4 50       		.byte	0x50
 17397 04a5 00000000 		.4byte	0
ARM GAS  C:\Users\JEANCO~1\AppData\Local\Temp\ccxhVNGN.s 			page 307


 17398 04a9 00000000 		.4byte	0
 17399              	.LLST104:
 17400 04ad CA020000 		.4byte	.LVL375
 17401 04b1 D4020000 		.4byte	.LVL377
 17402 04b5 0300     		.2byte	0x3
 17403 04b7 91       		.byte	0x91
 17404 04b8 B07F     		.sleb128 -80
 17405 04ba 00000000 		.4byte	0
 17406 04be 00000000 		.4byte	0
 17407              	.LLST105:
 17408 04c2 CA020000 		.4byte	.LVL375
 17409 04c6 D4020000 		.4byte	.LVL377
 17410 04ca 0100     		.2byte	0x1
 17411 04cc 54       		.byte	0x54
 17412 04cd 00000000 		.4byte	0
 17413 04d1 00000000 		.4byte	0
 17414              	.LLST73:
 17415 04d5 14000000 		.4byte	.LVL246
 17416 04d9 18000000 		.4byte	.LVL248
 17417 04dd 0200     		.2byte	0x2
 17418 04df 32       		.byte	0x32
 17419 04e0 9F       		.byte	0x9f
 17420 04e1 00000000 		.4byte	0
 17421 04e5 00000000 		.4byte	0
 17422              	.LLST72:
 17423 04e9 00000000 		.4byte	.LVL244
 17424 04ed 1B000000 		.4byte	.LVL245-1
 17425 04f1 0100     		.2byte	0x1
 17426 04f3 50       		.byte	0x50
 17427 04f4 1B000000 		.4byte	.LVL245-1
 17428 04f8 20000000 		.4byte	.LFE301
 17429 04fc 0400     		.2byte	0x4
 17430 04fe F3       		.byte	0xf3
 17431 04ff 01       		.uleb128 0x1
 17432 0500 50       		.byte	0x50
 17433 0501 9F       		.byte	0x9f
 17434 0502 00000000 		.4byte	0
 17435 0506 00000000 		.4byte	0
 17436              	.LLST37:
 17437 050a 00000000 		.4byte	.LVL149
 17438 050e 2C000000 		.4byte	.LVL150
 17439 0512 0100     		.2byte	0x1
 17440 0514 50       		.byte	0x50
 17441 0515 2C000000 		.4byte	.LVL150
 17442 0519 30000000 		.4byte	.LVL151
 17443 051d 0400     		.2byte	0x4
 17444 051f F3       		.byte	0xf3
 17445 0520 01       		.uleb128 0x1
 17446 0521 50       		.byte	0x50
 17447 0522 9F       		.byte	0x9f
 17448 0523 30000000 		.4byte	.LVL151
 17449 0527 32000000 		.4byte	.LVL152
 17450 052b 0100     		.2byte	0x1
 17451 052d 50       		.byte	0x50
 17452 052e 32000000 		.4byte	.LVL152
 17453 0532 40000000 		.4byte	.LVL153
 17454 0536 0400     		.2byte	0x4
ARM GAS  C:\Users\JEANCO~1\AppData\Local\Temp\ccxhVNGN.s 			page 308


 17455 0538 F3       		.byte	0xf3
 17456 0539 01       		.uleb128 0x1
 17457 053a 50       		.byte	0x50
 17458 053b 9F       		.byte	0x9f
 17459 053c 40000000 		.4byte	.LVL153
 17460 0540 42000000 		.4byte	.LVL154
 17461 0544 0100     		.2byte	0x1
 17462 0546 50       		.byte	0x50
 17463 0547 42000000 		.4byte	.LVL154
 17464 054b 44000000 		.4byte	.LVL155
 17465 054f 0400     		.2byte	0x4
 17466 0551 F3       		.byte	0xf3
 17467 0552 01       		.uleb128 0x1
 17468 0553 50       		.byte	0x50
 17469 0554 9F       		.byte	0x9f
 17470 0555 44000000 		.4byte	.LVL155
 17471 0559 46000000 		.4byte	.LVL156
 17472 055d 0100     		.2byte	0x1
 17473 055f 50       		.byte	0x50
 17474 0560 46000000 		.4byte	.LVL156
 17475 0564 48000000 		.4byte	.LVL157
 17476 0568 0400     		.2byte	0x4
 17477 056a F3       		.byte	0xf3
 17478 056b 01       		.uleb128 0x1
 17479 056c 50       		.byte	0x50
 17480 056d 9F       		.byte	0x9f
 17481 056e 48000000 		.4byte	.LVL157
 17482 0572 4A000000 		.4byte	.LVL158
 17483 0576 0100     		.2byte	0x1
 17484 0578 50       		.byte	0x50
 17485 0579 4A000000 		.4byte	.LVL158
 17486 057d 4C000000 		.4byte	.LVL159
 17487 0581 0400     		.2byte	0x4
 17488 0583 F3       		.byte	0xf3
 17489 0584 01       		.uleb128 0x1
 17490 0585 50       		.byte	0x50
 17491 0586 9F       		.byte	0x9f
 17492 0587 4C000000 		.4byte	.LVL159
 17493 058b 4E000000 		.4byte	.LVL160
 17494 058f 0100     		.2byte	0x1
 17495 0591 50       		.byte	0x50
 17496 0592 4E000000 		.4byte	.LVL160
 17497 0596 50000000 		.4byte	.LVL161
 17498 059a 0400     		.2byte	0x4
 17499 059c F3       		.byte	0xf3
 17500 059d 01       		.uleb128 0x1
 17501 059e 50       		.byte	0x50
 17502 059f 9F       		.byte	0x9f
 17503 05a0 50000000 		.4byte	.LVL161
 17504 05a4 52000000 		.4byte	.LVL162
 17505 05a8 0100     		.2byte	0x1
 17506 05aa 50       		.byte	0x50
 17507 05ab 52000000 		.4byte	.LVL162
 17508 05af 54000000 		.4byte	.LVL163
 17509 05b3 0400     		.2byte	0x4
 17510 05b5 F3       		.byte	0xf3
 17511 05b6 01       		.uleb128 0x1
ARM GAS  C:\Users\JEANCO~1\AppData\Local\Temp\ccxhVNGN.s 			page 309


 17512 05b7 50       		.byte	0x50
 17513 05b8 9F       		.byte	0x9f
 17514 05b9 54000000 		.4byte	.LVL163
 17515 05bd 56000000 		.4byte	.LVL164
 17516 05c1 0100     		.2byte	0x1
 17517 05c3 50       		.byte	0x50
 17518 05c4 56000000 		.4byte	.LVL164
 17519 05c8 80000000 		.4byte	.LFE299
 17520 05cc 0400     		.2byte	0x4
 17521 05ce F3       		.byte	0xf3
 17522 05cf 01       		.uleb128 0x1
 17523 05d0 50       		.byte	0x50
 17524 05d1 9F       		.byte	0x9f
 17525 05d2 00000000 		.4byte	0
 17526 05d6 00000000 		.4byte	0
 17527              	.LLST16:
 17528 05da 00000000 		.4byte	.LVL50
 17529 05de 95010000 		.4byte	.LVL97-1
 17530 05e2 0100     		.2byte	0x1
 17531 05e4 50       		.byte	0x50
 17532 05e5 95010000 		.4byte	.LVL97-1
 17533 05e9 A4010000 		.4byte	.LFE293
 17534 05ed 0400     		.2byte	0x4
 17535 05ef F3       		.byte	0xf3
 17536 05f0 01       		.uleb128 0x1
 17537 05f1 50       		.byte	0x50
 17538 05f2 9F       		.byte	0x9f
 17539 05f3 00000000 		.4byte	0
 17540 05f7 00000000 		.4byte	0
 17541              	.LLST17:
 17542 05fb 00000000 		.4byte	.LVL50
 17543 05ff 95010000 		.4byte	.LVL97-1
 17544 0603 0100     		.2byte	0x1
 17545 0605 51       		.byte	0x51
 17546 0606 95010000 		.4byte	.LVL97-1
 17547 060a A4010000 		.4byte	.LFE293
 17548 060e 0400     		.2byte	0x4
 17549 0610 F3       		.byte	0xf3
 17550 0611 01       		.uleb128 0x1
 17551 0612 51       		.byte	0x51
 17552 0613 9F       		.byte	0x9f
 17553 0614 00000000 		.4byte	0
 17554 0618 00000000 		.4byte	0
 17555              	.LLST18:
 17556 061c 00000000 		.4byte	.LVL50
 17557 0620 46000000 		.4byte	.LVL55
 17558 0624 0100     		.2byte	0x1
 17559 0626 52       		.byte	0x52
 17560 0627 46000000 		.4byte	.LVL55
 17561 062b 4A000000 		.4byte	.LVL56
 17562 062f 0400     		.2byte	0x4
 17563 0631 F3       		.byte	0xf3
 17564 0632 01       		.uleb128 0x1
 17565 0633 52       		.byte	0x52
 17566 0634 9F       		.byte	0x9f
 17567 0635 4A000000 		.4byte	.LVL56
 17568 0639 74000000 		.4byte	.LVL61
ARM GAS  C:\Users\JEANCO~1\AppData\Local\Temp\ccxhVNGN.s 			page 310


 17569 063d 0100     		.2byte	0x1
 17570 063f 52       		.byte	0x52
 17571 0640 74000000 		.4byte	.LVL61
 17572 0644 86000000 		.4byte	.LVL63
 17573 0648 0400     		.2byte	0x4
 17574 064a F3       		.byte	0xf3
 17575 064b 01       		.uleb128 0x1
 17576 064c 52       		.byte	0x52
 17577 064d 9F       		.byte	0x9f
 17578 064e 86000000 		.4byte	.LVL63
 17579 0652 CE000000 		.4byte	.LVL66
 17580 0656 0100     		.2byte	0x1
 17581 0658 52       		.byte	0x52
 17582 0659 CE000000 		.4byte	.LVL66
 17583 065d D6000000 		.4byte	.LVL67
 17584 0661 0400     		.2byte	0x4
 17585 0663 F3       		.byte	0xf3
 17586 0664 01       		.uleb128 0x1
 17587 0665 52       		.byte	0x52
 17588 0666 9F       		.byte	0x9f
 17589 0667 D6000000 		.4byte	.LVL67
 17590 066b 24010000 		.4byte	.LVL73
 17591 066f 0100     		.2byte	0x1
 17592 0671 52       		.byte	0x52
 17593 0672 24010000 		.4byte	.LVL73
 17594 0676 2A010000 		.4byte	.LVL74
 17595 067a 0400     		.2byte	0x4
 17596 067c F3       		.byte	0xf3
 17597 067d 01       		.uleb128 0x1
 17598 067e 52       		.byte	0x52
 17599 067f 9F       		.byte	0x9f
 17600 0680 2A010000 		.4byte	.LVL74
 17601 0684 30010000 		.4byte	.LVL76
 17602 0688 0100     		.2byte	0x1
 17603 068a 52       		.byte	0x52
 17604 068b 30010000 		.4byte	.LVL76
 17605 068f 34010000 		.4byte	.LVL77
 17606 0693 0400     		.2byte	0x4
 17607 0695 F3       		.byte	0xf3
 17608 0696 01       		.uleb128 0x1
 17609 0697 52       		.byte	0x52
 17610 0698 9F       		.byte	0x9f
 17611 0699 34010000 		.4byte	.LVL77
 17612 069d 3C010000 		.4byte	.LVL79
 17613 06a1 0100     		.2byte	0x1
 17614 06a3 52       		.byte	0x52
 17615 06a4 3C010000 		.4byte	.LVL79
 17616 06a8 40010000 		.4byte	.LVL80
 17617 06ac 0400     		.2byte	0x4
 17618 06ae F3       		.byte	0xf3
 17619 06af 01       		.uleb128 0x1
 17620 06b0 52       		.byte	0x52
 17621 06b1 9F       		.byte	0x9f
 17622 06b2 40010000 		.4byte	.LVL80
 17623 06b6 42010000 		.4byte	.LVL81
 17624 06ba 0100     		.2byte	0x1
 17625 06bc 52       		.byte	0x52
ARM GAS  C:\Users\JEANCO~1\AppData\Local\Temp\ccxhVNGN.s 			page 311


 17626 06bd 42010000 		.4byte	.LVL81
 17627 06c1 46010000 		.4byte	.LVL82
 17628 06c5 0400     		.2byte	0x4
 17629 06c7 F3       		.byte	0xf3
 17630 06c8 01       		.uleb128 0x1
 17631 06c9 52       		.byte	0x52
 17632 06ca 9F       		.byte	0x9f
 17633 06cb 46010000 		.4byte	.LVL82
 17634 06cf 4C010000 		.4byte	.LVL84
 17635 06d3 0100     		.2byte	0x1
 17636 06d5 52       		.byte	0x52
 17637 06d6 4C010000 		.4byte	.LVL84
 17638 06da 50010000 		.4byte	.LVL85
 17639 06de 0400     		.2byte	0x4
 17640 06e0 F3       		.byte	0xf3
 17641 06e1 01       		.uleb128 0x1
 17642 06e2 52       		.byte	0x52
 17643 06e3 9F       		.byte	0x9f
 17644 06e4 50010000 		.4byte	.LVL85
 17645 06e8 54010000 		.4byte	.LVL87
 17646 06ec 0100     		.2byte	0x1
 17647 06ee 52       		.byte	0x52
 17648 06ef 54010000 		.4byte	.LVL87
 17649 06f3 58010000 		.4byte	.LVL88
 17650 06f7 0200     		.2byte	0x2
 17651 06f9 90       		.byte	0x90
 17652 06fa 4F       		.uleb128 0x4f
 17653 06fb 58010000 		.4byte	.LVL88
 17654 06ff 5C010000 		.4byte	.LVL90
 17655 0703 0100     		.2byte	0x1
 17656 0705 52       		.byte	0x52
 17657 0706 5C010000 		.4byte	.LVL90
 17658 070a 60010000 		.4byte	.LVL91
 17659 070e 0400     		.2byte	0x4
 17660 0710 F3       		.byte	0xf3
 17661 0711 01       		.uleb128 0x1
 17662 0712 52       		.byte	0x52
 17663 0713 9F       		.byte	0x9f
 17664 0714 60010000 		.4byte	.LVL91
 17665 0718 6E010000 		.4byte	.LVL93
 17666 071c 0100     		.2byte	0x1
 17667 071e 52       		.byte	0x52
 17668 071f 6E010000 		.4byte	.LVL93
 17669 0723 72010000 		.4byte	.LVL94
 17670 0727 0400     		.2byte	0x4
 17671 0729 F3       		.byte	0xf3
 17672 072a 01       		.uleb128 0x1
 17673 072b 52       		.byte	0x52
 17674 072c 9F       		.byte	0x9f
 17675 072d 72010000 		.4byte	.LVL94
 17676 0731 92010000 		.4byte	.LVL96
 17677 0735 0100     		.2byte	0x1
 17678 0737 52       		.byte	0x52
 17679 0738 92010000 		.4byte	.LVL96
 17680 073c A4010000 		.4byte	.LFE293
 17681 0740 0400     		.2byte	0x4
 17682 0742 F3       		.byte	0xf3
ARM GAS  C:\Users\JEANCO~1\AppData\Local\Temp\ccxhVNGN.s 			page 312


 17683 0743 01       		.uleb128 0x1
 17684 0744 52       		.byte	0x52
 17685 0745 9F       		.byte	0x9f
 17686 0746 00000000 		.4byte	0
 17687 074a 00000000 		.4byte	0
 17688              	.LLST19:
 17689 074e 00000000 		.4byte	.LVL50
 17690 0752 44000000 		.4byte	.LVL54
 17691 0756 0100     		.2byte	0x1
 17692 0758 53       		.byte	0x53
 17693 0759 44000000 		.4byte	.LVL54
 17694 075d 4A000000 		.4byte	.LVL56
 17695 0761 0400     		.2byte	0x4
 17696 0763 F3       		.byte	0xf3
 17697 0764 01       		.uleb128 0x1
 17698 0765 53       		.byte	0x53
 17699 0766 9F       		.byte	0x9f
 17700 0767 4A000000 		.4byte	.LVL56
 17701 076b 6C000000 		.4byte	.LVL60
 17702 076f 0100     		.2byte	0x1
 17703 0771 53       		.byte	0x53
 17704 0772 6C000000 		.4byte	.LVL60
 17705 0776 86000000 		.4byte	.LVL63
 17706 077a 0400     		.2byte	0x4
 17707 077c F3       		.byte	0xf3
 17708 077d 01       		.uleb128 0x1
 17709 077e 53       		.byte	0x53
 17710 077f 9F       		.byte	0x9f
 17711 0780 86000000 		.4byte	.LVL63
 17712 0784 C6000000 		.4byte	.LVL65
 17713 0788 0100     		.2byte	0x1
 17714 078a 53       		.byte	0x53
 17715 078b C6000000 		.4byte	.LVL65
 17716 078f D6000000 		.4byte	.LVL67
 17717 0793 0400     		.2byte	0x4
 17718 0795 F3       		.byte	0xf3
 17719 0796 01       		.uleb128 0x1
 17720 0797 53       		.byte	0x53
 17721 0798 9F       		.byte	0x9f
 17722 0799 D6000000 		.4byte	.LVL67
 17723 079d 1A010000 		.4byte	.LVL72
 17724 07a1 0100     		.2byte	0x1
 17725 07a3 53       		.byte	0x53
 17726 07a4 1A010000 		.4byte	.LVL72
 17727 07a8 2A010000 		.4byte	.LVL74
 17728 07ac 0400     		.2byte	0x4
 17729 07ae F3       		.byte	0xf3
 17730 07af 01       		.uleb128 0x1
 17731 07b0 53       		.byte	0x53
 17732 07b1 9F       		.byte	0x9f
 17733 07b2 2A010000 		.4byte	.LVL74
 17734 07b6 2C010000 		.4byte	.LVL75
 17735 07ba 0100     		.2byte	0x1
 17736 07bc 53       		.byte	0x53
 17737 07bd 2C010000 		.4byte	.LVL75
 17738 07c1 34010000 		.4byte	.LVL77
 17739 07c5 0400     		.2byte	0x4
ARM GAS  C:\Users\JEANCO~1\AppData\Local\Temp\ccxhVNGN.s 			page 313


 17740 07c7 F3       		.byte	0xf3
 17741 07c8 01       		.uleb128 0x1
 17742 07c9 53       		.byte	0x53
 17743 07ca 9F       		.byte	0x9f
 17744 07cb 34010000 		.4byte	.LVL77
 17745 07cf 3A010000 		.4byte	.LVL78
 17746 07d3 0100     		.2byte	0x1
 17747 07d5 53       		.byte	0x53
 17748 07d6 3A010000 		.4byte	.LVL78
 17749 07da 46010000 		.4byte	.LVL82
 17750 07de 0400     		.2byte	0x4
 17751 07e0 F3       		.byte	0xf3
 17752 07e1 01       		.uleb128 0x1
 17753 07e2 53       		.byte	0x53
 17754 07e3 9F       		.byte	0x9f
 17755 07e4 46010000 		.4byte	.LVL82
 17756 07e8 48010000 		.4byte	.LVL83
 17757 07ec 0100     		.2byte	0x1
 17758 07ee 53       		.byte	0x53
 17759 07ef 48010000 		.4byte	.LVL83
 17760 07f3 50010000 		.4byte	.LVL85
 17761 07f7 0400     		.2byte	0x4
 17762 07f9 F3       		.byte	0xf3
 17763 07fa 01       		.uleb128 0x1
 17764 07fb 53       		.byte	0x53
 17765 07fc 9F       		.byte	0x9f
 17766 07fd 50010000 		.4byte	.LVL85
 17767 0801 52010000 		.4byte	.LVL86
 17768 0805 0100     		.2byte	0x1
 17769 0807 53       		.byte	0x53
 17770 0808 52010000 		.4byte	.LVL86
 17771 080c 58010000 		.4byte	.LVL88
 17772 0810 0400     		.2byte	0x4
 17773 0812 F3       		.byte	0xf3
 17774 0813 01       		.uleb128 0x1
 17775 0814 53       		.byte	0x53
 17776 0815 9F       		.byte	0x9f
 17777 0816 58010000 		.4byte	.LVL88
 17778 081a 5A010000 		.4byte	.LVL89
 17779 081e 0100     		.2byte	0x1
 17780 0820 53       		.byte	0x53
 17781 0821 5A010000 		.4byte	.LVL89
 17782 0825 60010000 		.4byte	.LVL91
 17783 0829 0400     		.2byte	0x4
 17784 082b F3       		.byte	0xf3
 17785 082c 01       		.uleb128 0x1
 17786 082d 53       		.byte	0x53
 17787 082e 9F       		.byte	0x9f
 17788 082f 60010000 		.4byte	.LVL91
 17789 0833 6C010000 		.4byte	.LVL92
 17790 0837 0100     		.2byte	0x1
 17791 0839 53       		.byte	0x53
 17792 083a 6C010000 		.4byte	.LVL92
 17793 083e 72010000 		.4byte	.LVL94
 17794 0842 0400     		.2byte	0x4
 17795 0844 F3       		.byte	0xf3
 17796 0845 01       		.uleb128 0x1
ARM GAS  C:\Users\JEANCO~1\AppData\Local\Temp\ccxhVNGN.s 			page 314


 17797 0846 53       		.byte	0x53
 17798 0847 9F       		.byte	0x9f
 17799 0848 72010000 		.4byte	.LVL94
 17800 084c 92010000 		.4byte	.LVL96
 17801 0850 0100     		.2byte	0x1
 17802 0852 53       		.byte	0x53
 17803 0853 92010000 		.4byte	.LVL96
 17804 0857 A4010000 		.4byte	.LFE293
 17805 085b 0400     		.2byte	0x4
 17806 085d F3       		.byte	0xf3
 17807 085e 01       		.uleb128 0x1
 17808 085f 53       		.byte	0x53
 17809 0860 9F       		.byte	0x9f
 17810 0861 00000000 		.4byte	0
 17811 0865 00000000 		.4byte	0
 17812              	.LLST20:
 17813 0869 0A000000 		.4byte	.LVL51
 17814 086d 14000000 		.4byte	.LVL52
 17815 0871 0300     		.2byte	0x3
 17816 0873 09       		.byte	0x9
 17817 0874 FF       		.byte	0xff
 17818 0875 9F       		.byte	0x9f
 17819 0876 14000000 		.4byte	.LVL52
 17820 087a 34000000 		.4byte	.LVL53
 17821 087e 0100     		.2byte	0x1
 17822 0880 55       		.byte	0x55
 17823 0881 4A000000 		.4byte	.LVL56
 17824 0885 4E000000 		.4byte	.LVL57
 17825 0889 0100     		.2byte	0x1
 17826 088b 55       		.byte	0x55
 17827 088c 86000000 		.4byte	.LVL63
 17828 0890 AA000000 		.4byte	.LVL64
 17829 0894 0100     		.2byte	0x1
 17830 0896 55       		.byte	0x55
 17831 0897 D6000000 		.4byte	.LVL67
 17832 089b 02010000 		.4byte	.LVL70
 17833 089f 0300     		.2byte	0x3
 17834 08a1 09       		.byte	0x9
 17835 08a2 FF       		.byte	0xff
 17836 08a3 9F       		.byte	0x9f
 17837 08a4 02010000 		.4byte	.LVL70
 17838 08a8 16010000 		.4byte	.LVL71
 17839 08ac 0100     		.2byte	0x1
 17840 08ae 55       		.byte	0x55
 17841 08af 34010000 		.4byte	.LVL77
 17842 08b3 40010000 		.4byte	.LVL80
 17843 08b7 0300     		.2byte	0x3
 17844 08b9 09       		.byte	0x9
 17845 08ba FF       		.byte	0xff
 17846 08bb 9F       		.byte	0x9f
 17847 08bc 50010000 		.4byte	.LVL85
 17848 08c0 58010000 		.4byte	.LVL88
 17849 08c4 0100     		.2byte	0x1
 17850 08c6 55       		.byte	0x55
 17851 08c7 60010000 		.4byte	.LVL91
 17852 08cb 72010000 		.4byte	.LVL94
 17853 08cf 0300     		.2byte	0x3
ARM GAS  C:\Users\JEANCO~1\AppData\Local\Temp\ccxhVNGN.s 			page 315


 17854 08d1 09       		.byte	0x9
 17855 08d2 FF       		.byte	0xff
 17856 08d3 9F       		.byte	0x9f
 17857 08d4 72010000 		.4byte	.LVL94
 17858 08d8 92010000 		.4byte	.LVL96
 17859 08dc 0200     		.2byte	0x2
 17860 08de 30       		.byte	0x30
 17861 08df 9F       		.byte	0x9f
 17862 08e0 00000000 		.4byte	0
 17863 08e4 00000000 		.4byte	0
 17864              	.LLST21:
 17865 08e8 34000000 		.4byte	.LVL53
 17866 08ec 4A000000 		.4byte	.LVL56
 17867 08f0 0100     		.2byte	0x1
 17868 08f2 55       		.byte	0x55
 17869 08f3 4E000000 		.4byte	.LVL57
 17870 08f7 60000000 		.4byte	.LVL58
 17871 08fb 1300     		.2byte	0x13
 17872 08fd 70       		.byte	0x70
 17873 08fe 00       		.sleb128 0
 17874 08ff F7       		.byte	0xf7
 17875 0900 2C       		.uleb128 0x2c
 17876 0901 F7       		.byte	0xf7
 17877 0902 25       		.uleb128 0x25
 17878 0903 F4       		.byte	0xf4
 17879 0904 25       		.uleb128 0x25
 17880 0905 04       		.byte	0x4
 17881 0906 AE47613F 		.4byte	0x3f6147ae
 17882 090a 1E       		.byte	0x1e
 17883 090b F7       		.byte	0xf7
 17884 090c 2C       		.uleb128 0x2c
 17885 090d F7       		.byte	0xf7
 17886 090e 00       		.uleb128 0
 17887 090f 9F       		.byte	0x9f
 17888 0910 60000000 		.4byte	.LVL58
 17889 0914 64000000 		.4byte	.LVL59
 17890 0918 1000     		.2byte	0x10
 17891 091a F5       		.byte	0xf5
 17892 091b 4F       		.uleb128 0x4f
 17893 091c 25       		.uleb128 0x25
 17894 091d F4       		.byte	0xf4
 17895 091e 25       		.uleb128 0x25
 17896 091f 04       		.byte	0x4
 17897 0920 AE47613F 		.4byte	0x3f6147ae
 17898 0924 1E       		.byte	0x1e
 17899 0925 F7       		.byte	0xf7
 17900 0926 2C       		.uleb128 0x2c
 17901 0927 F7       		.byte	0xf7
 17902 0928 00       		.uleb128 0
 17903 0929 9F       		.byte	0x9f
 17904 092a 64000000 		.4byte	.LVL59
 17905 092e 78000000 		.4byte	.LVL62
 17906 0932 1300     		.2byte	0x13
 17907 0934 70       		.byte	0x70
 17908 0935 00       		.sleb128 0
 17909 0936 F7       		.byte	0xf7
 17910 0937 2C       		.uleb128 0x2c
ARM GAS  C:\Users\JEANCO~1\AppData\Local\Temp\ccxhVNGN.s 			page 316


 17911 0938 F7       		.byte	0xf7
 17912 0939 25       		.uleb128 0x25
 17913 093a F4       		.byte	0xf4
 17914 093b 25       		.uleb128 0x25
 17915 093c 04       		.byte	0x4
 17916 093d AE47613F 		.4byte	0x3f6147ae
 17917 0941 1E       		.byte	0x1e
 17918 0942 F7       		.byte	0xf7
 17919 0943 2C       		.uleb128 0x2c
 17920 0944 F7       		.byte	0xf7
 17921 0945 00       		.uleb128 0
 17922 0946 9F       		.byte	0x9f
 17923 0947 86000000 		.4byte	.LVL63
 17924 094b AA000000 		.4byte	.LVL64
 17925 094f 1300     		.2byte	0x13
 17926 0951 72       		.byte	0x72
 17927 0952 00       		.sleb128 0
 17928 0953 F7       		.byte	0xf7
 17929 0954 2C       		.uleb128 0x2c
 17930 0955 F7       		.byte	0xf7
 17931 0956 25       		.uleb128 0x25
 17932 0957 F4       		.byte	0xf4
 17933 0958 25       		.uleb128 0x25
 17934 0959 04       		.byte	0x4
 17935 095a AE47613F 		.4byte	0x3f6147ae
 17936 095e 1E       		.byte	0x1e
 17937 095f F7       		.byte	0xf7
 17938 0960 2C       		.uleb128 0x2c
 17939 0961 F7       		.byte	0xf7
 17940 0962 00       		.uleb128 0
 17941 0963 9F       		.byte	0x9f
 17942 0964 AA000000 		.4byte	.LVL64
 17943 0968 C6000000 		.4byte	.LVL65
 17944 096c 1300     		.2byte	0x13
 17945 096e 73       		.byte	0x73
 17946 096f 00       		.sleb128 0
 17947 0970 F7       		.byte	0xf7
 17948 0971 2C       		.uleb128 0x2c
 17949 0972 F7       		.byte	0xf7
 17950 0973 25       		.uleb128 0x25
 17951 0974 F4       		.byte	0xf4
 17952 0975 25       		.uleb128 0x25
 17953 0976 04       		.byte	0x4
 17954 0977 AE47613F 		.4byte	0x3f6147ae
 17955 097b 1E       		.byte	0x1e
 17956 097c F7       		.byte	0xf7
 17957 097d 2C       		.uleb128 0x2c
 17958 097e F7       		.byte	0xf7
 17959 097f 00       		.uleb128 0
 17960 0980 9F       		.byte	0x9f
 17961 0981 C6000000 		.4byte	.LVL65
 17962 0985 D6000000 		.4byte	.LVL67
 17963 0989 1400     		.2byte	0x14
 17964 098b F3       		.byte	0xf3
 17965 098c 01       		.uleb128 0x1
 17966 098d 53       		.byte	0x53
 17967 098e F7       		.byte	0xf7
ARM GAS  C:\Users\JEANCO~1\AppData\Local\Temp\ccxhVNGN.s 			page 317


 17968 098f 2C       		.uleb128 0x2c
 17969 0990 F7       		.byte	0xf7
 17970 0991 25       		.uleb128 0x25
 17971 0992 F4       		.byte	0xf4
 17972 0993 25       		.uleb128 0x25
 17973 0994 04       		.byte	0x4
 17974 0995 AE47613F 		.4byte	0x3f6147ae
 17975 0999 1E       		.byte	0x1e
 17976 099a F7       		.byte	0xf7
 17977 099b 2C       		.uleb128 0x2c
 17978 099c F7       		.byte	0xf7
 17979 099d 00       		.uleb128 0
 17980 099e 9F       		.byte	0x9f
 17981 099f F2000000 		.4byte	.LVL68
 17982 09a3 00010000 		.4byte	.LVL69
 17983 09a7 0100     		.2byte	0x1
 17984 09a9 55       		.byte	0x55
 17985 09aa 00010000 		.4byte	.LVL69
 17986 09ae 02010000 		.4byte	.LVL70
 17987 09b2 0200     		.2byte	0x2
 17988 09b4 90       		.byte	0x90
 17989 09b5 4F       		.uleb128 0x4f
 17990 09b6 02010000 		.4byte	.LVL70
 17991 09ba 16010000 		.4byte	.LVL71
 17992 09be 1300     		.2byte	0x13
 17993 09c0 72       		.byte	0x72
 17994 09c1 00       		.sleb128 0
 17995 09c2 F7       		.byte	0xf7
 17996 09c3 2C       		.uleb128 0x2c
 17997 09c4 F7       		.byte	0xf7
 17998 09c5 25       		.uleb128 0x25
 17999 09c6 F4       		.byte	0xf4
 18000 09c7 25       		.uleb128 0x25
 18001 09c8 04       		.byte	0x4
 18002 09c9 AE47613F 		.4byte	0x3f6147ae
 18003 09cd 1E       		.byte	0x1e
 18004 09ce F7       		.byte	0xf7
 18005 09cf 2C       		.uleb128 0x2c
 18006 09d0 F7       		.byte	0xf7
 18007 09d1 00       		.uleb128 0
 18008 09d2 9F       		.byte	0x9f
 18009 09d3 16010000 		.4byte	.LVL71
 18010 09d7 2A010000 		.4byte	.LVL74
 18011 09db 1300     		.2byte	0x13
 18012 09dd 71       		.byte	0x71
 18013 09de 00       		.sleb128 0
 18014 09df F7       		.byte	0xf7
 18015 09e0 2C       		.uleb128 0x2c
 18016 09e1 F7       		.byte	0xf7
 18017 09e2 25       		.uleb128 0x25
 18018 09e3 F4       		.byte	0xf4
 18019 09e4 25       		.uleb128 0x25
 18020 09e5 04       		.byte	0x4
 18021 09e6 AE47613F 		.4byte	0x3f6147ae
 18022 09ea 1E       		.byte	0x1e
 18023 09eb F7       		.byte	0xf7
 18024 09ec 2C       		.uleb128 0x2c
ARM GAS  C:\Users\JEANCO~1\AppData\Local\Temp\ccxhVNGN.s 			page 318


 18025 09ed F7       		.byte	0xf7
 18026 09ee 00       		.uleb128 0
 18027 09ef 9F       		.byte	0x9f
 18028 09f0 2A010000 		.4byte	.LVL74
 18029 09f4 40010000 		.4byte	.LVL80
 18030 09f8 0100     		.2byte	0x1
 18031 09fa 55       		.byte	0x55
 18032 09fb 40010000 		.4byte	.LVL80
 18033 09ff 46010000 		.4byte	.LVL82
 18034 0a03 1300     		.2byte	0x13
 18035 0a05 71       		.byte	0x71
 18036 0a06 00       		.sleb128 0
 18037 0a07 F7       		.byte	0xf7
 18038 0a08 2C       		.uleb128 0x2c
 18039 0a09 F7       		.byte	0xf7
 18040 0a0a 25       		.uleb128 0x25
 18041 0a0b F4       		.byte	0xf4
 18042 0a0c 25       		.uleb128 0x25
 18043 0a0d 04       		.byte	0x4
 18044 0a0e AE47613F 		.4byte	0x3f6147ae
 18045 0a12 1E       		.byte	0x1e
 18046 0a13 F7       		.byte	0xf7
 18047 0a14 2C       		.uleb128 0x2c
 18048 0a15 F7       		.byte	0xf7
 18049 0a16 00       		.uleb128 0
 18050 0a17 9F       		.byte	0x9f
 18051 0a18 46010000 		.4byte	.LVL82
 18052 0a1c 48010000 		.4byte	.LVL83
 18053 0a20 1300     		.2byte	0x13
 18054 0a22 73       		.byte	0x73
 18055 0a23 00       		.sleb128 0
 18056 0a24 F7       		.byte	0xf7
 18057 0a25 2C       		.uleb128 0x2c
 18058 0a26 F7       		.byte	0xf7
 18059 0a27 25       		.uleb128 0x25
 18060 0a28 F4       		.byte	0xf4
 18061 0a29 25       		.uleb128 0x25
 18062 0a2a 04       		.byte	0x4
 18063 0a2b AE47613F 		.4byte	0x3f6147ae
 18064 0a2f 1E       		.byte	0x1e
 18065 0a30 F7       		.byte	0xf7
 18066 0a31 2C       		.uleb128 0x2c
 18067 0a32 F7       		.byte	0xf7
 18068 0a33 00       		.uleb128 0
 18069 0a34 9F       		.byte	0x9f
 18070 0a35 48010000 		.4byte	.LVL83
 18071 0a39 50010000 		.4byte	.LVL85
 18072 0a3d 1400     		.2byte	0x14
 18073 0a3f F3       		.byte	0xf3
 18074 0a40 01       		.uleb128 0x1
 18075 0a41 53       		.byte	0x53
 18076 0a42 F7       		.byte	0xf7
 18077 0a43 2C       		.uleb128 0x2c
 18078 0a44 F7       		.byte	0xf7
 18079 0a45 25       		.uleb128 0x25
 18080 0a46 F4       		.byte	0xf4
 18081 0a47 25       		.uleb128 0x25
ARM GAS  C:\Users\JEANCO~1\AppData\Local\Temp\ccxhVNGN.s 			page 319


 18082 0a48 04       		.byte	0x4
 18083 0a49 AE47613F 		.4byte	0x3f6147ae
 18084 0a4d 1E       		.byte	0x1e
 18085 0a4e F7       		.byte	0xf7
 18086 0a4f 2C       		.uleb128 0x2c
 18087 0a50 F7       		.byte	0xf7
 18088 0a51 00       		.uleb128 0
 18089 0a52 9F       		.byte	0x9f
 18090 0a53 50010000 		.4byte	.LVL85
 18091 0a57 54010000 		.4byte	.LVL87
 18092 0a5b 1300     		.2byte	0x13
 18093 0a5d 72       		.byte	0x72
 18094 0a5e 00       		.sleb128 0
 18095 0a5f F7       		.byte	0xf7
 18096 0a60 2C       		.uleb128 0x2c
 18097 0a61 F7       		.byte	0xf7
 18098 0a62 25       		.uleb128 0x25
 18099 0a63 F4       		.byte	0xf4
 18100 0a64 25       		.uleb128 0x25
 18101 0a65 04       		.byte	0x4
 18102 0a66 AE47613F 		.4byte	0x3f6147ae
 18103 0a6a 1E       		.byte	0x1e
 18104 0a6b F7       		.byte	0xf7
 18105 0a6c 2C       		.uleb128 0x2c
 18106 0a6d F7       		.byte	0xf7
 18107 0a6e 00       		.uleb128 0
 18108 0a6f 9F       		.byte	0x9f
 18109 0a70 54010000 		.4byte	.LVL87
 18110 0a74 58010000 		.4byte	.LVL88
 18111 0a78 1400     		.2byte	0x14
 18112 0a7a 92       		.byte	0x92
 18113 0a7b 4F       		.uleb128 0x4f
 18114 0a7c 00       		.sleb128 0
 18115 0a7d F7       		.byte	0xf7
 18116 0a7e 2C       		.uleb128 0x2c
 18117 0a7f F7       		.byte	0xf7
 18118 0a80 25       		.uleb128 0x25
 18119 0a81 F4       		.byte	0xf4
 18120 0a82 25       		.uleb128 0x25
 18121 0a83 04       		.byte	0x4
 18122 0a84 AE47613F 		.4byte	0x3f6147ae
 18123 0a88 1E       		.byte	0x1e
 18124 0a89 F7       		.byte	0xf7
 18125 0a8a 2C       		.uleb128 0x2c
 18126 0a8b F7       		.byte	0xf7
 18127 0a8c 00       		.uleb128 0
 18128 0a8d 9F       		.byte	0x9f
 18129 0a8e 58010000 		.4byte	.LVL88
 18130 0a92 60010000 		.4byte	.LVL91
 18131 0a96 1300     		.2byte	0x13
 18132 0a98 70       		.byte	0x70
 18133 0a99 00       		.sleb128 0
 18134 0a9a F7       		.byte	0xf7
 18135 0a9b 2C       		.uleb128 0x2c
 18136 0a9c F7       		.byte	0xf7
 18137 0a9d 25       		.uleb128 0x25
 18138 0a9e F4       		.byte	0xf4
ARM GAS  C:\Users\JEANCO~1\AppData\Local\Temp\ccxhVNGN.s 			page 320


 18139 0a9f 25       		.uleb128 0x25
 18140 0aa0 04       		.byte	0x4
 18141 0aa1 AE47613F 		.4byte	0x3f6147ae
 18142 0aa5 1E       		.byte	0x1e
 18143 0aa6 F7       		.byte	0xf7
 18144 0aa7 2C       		.uleb128 0x2c
 18145 0aa8 F7       		.byte	0xf7
 18146 0aa9 00       		.uleb128 0
 18147 0aaa 9F       		.byte	0x9f
 18148 0aab 60010000 		.4byte	.LVL91
 18149 0aaf 78010000 		.4byte	.LVL95
 18150 0ab3 0100     		.2byte	0x1
 18151 0ab5 55       		.byte	0x55
 18152 0ab6 78010000 		.4byte	.LVL95
 18153 0aba 92010000 		.4byte	.LVL96
 18154 0abe 1300     		.2byte	0x13
 18155 0ac0 72       		.byte	0x72
 18156 0ac1 00       		.sleb128 0
 18157 0ac2 F7       		.byte	0xf7
 18158 0ac3 2C       		.uleb128 0x2c
 18159 0ac4 F7       		.byte	0xf7
 18160 0ac5 25       		.uleb128 0x25
 18161 0ac6 F4       		.byte	0xf4
 18162 0ac7 25       		.uleb128 0x25
 18163 0ac8 04       		.byte	0x4
 18164 0ac9 AE47613F 		.4byte	0x3f6147ae
 18165 0acd 1E       		.byte	0x1e
 18166 0ace F7       		.byte	0xf7
 18167 0acf 2C       		.uleb128 0x2c
 18168 0ad0 F7       		.byte	0xf7
 18169 0ad1 00       		.uleb128 0
 18170 0ad2 9F       		.byte	0x9f
 18171 0ad3 00000000 		.4byte	0
 18172 0ad7 00000000 		.4byte	0
 18173              	.LLST22:
 18174 0adb 4E000000 		.4byte	.LVL57
 18175 0adf 78000000 		.4byte	.LVL62
 18176 0ae3 1300     		.2byte	0x13
 18177 0ae5 71       		.byte	0x71
 18178 0ae6 00       		.sleb128 0
 18179 0ae7 F7       		.byte	0xf7
 18180 0ae8 2C       		.uleb128 0x2c
 18181 0ae9 F7       		.byte	0xf7
 18182 0aea 25       		.uleb128 0x25
 18183 0aeb F4       		.byte	0xf4
 18184 0aec 25       		.uleb128 0x25
 18185 0aed 04       		.byte	0x4
 18186 0aee AE47613F 		.4byte	0x3f6147ae
 18187 0af2 1E       		.byte	0x1e
 18188 0af3 F7       		.byte	0xf7
 18189 0af4 2C       		.uleb128 0x2c
 18190 0af5 F7       		.byte	0xf7
 18191 0af6 00       		.uleb128 0
 18192 0af7 9F       		.byte	0x9f
 18193 0af8 AA000000 		.4byte	.LVL64
 18194 0afc CE000000 		.4byte	.LVL66
 18195 0b00 1300     		.2byte	0x13
ARM GAS  C:\Users\JEANCO~1\AppData\Local\Temp\ccxhVNGN.s 			page 321


 18196 0b02 72       		.byte	0x72
 18197 0b03 00       		.sleb128 0
 18198 0b04 F7       		.byte	0xf7
 18199 0b05 2C       		.uleb128 0x2c
 18200 0b06 F7       		.byte	0xf7
 18201 0b07 25       		.uleb128 0x25
 18202 0b08 F4       		.byte	0xf4
 18203 0b09 25       		.uleb128 0x25
 18204 0b0a 04       		.byte	0x4
 18205 0b0b AE47613F 		.4byte	0x3f6147ae
 18206 0b0f 1E       		.byte	0x1e
 18207 0b10 F7       		.byte	0xf7
 18208 0b11 2C       		.uleb128 0x2c
 18209 0b12 F7       		.byte	0xf7
 18210 0b13 00       		.uleb128 0
 18211 0b14 9F       		.byte	0x9f
 18212 0b15 CE000000 		.4byte	.LVL66
 18213 0b19 D6000000 		.4byte	.LVL67
 18214 0b1d 1400     		.2byte	0x14
 18215 0b1f F3       		.byte	0xf3
 18216 0b20 01       		.uleb128 0x1
 18217 0b21 52       		.byte	0x52
 18218 0b22 F7       		.byte	0xf7
 18219 0b23 2C       		.uleb128 0x2c
 18220 0b24 F7       		.byte	0xf7
 18221 0b25 25       		.uleb128 0x25
 18222 0b26 F4       		.byte	0xf4
 18223 0b27 25       		.uleb128 0x25
 18224 0b28 04       		.byte	0x4
 18225 0b29 AE47613F 		.4byte	0x3f6147ae
 18226 0b2d 1E       		.byte	0x1e
 18227 0b2e F7       		.byte	0xf7
 18228 0b2f 2C       		.uleb128 0x2c
 18229 0b30 F7       		.byte	0xf7
 18230 0b31 00       		.uleb128 0
 18231 0b32 9F       		.byte	0x9f
 18232 0b33 16010000 		.4byte	.LVL71
 18233 0b37 2A010000 		.4byte	.LVL74
 18234 0b3b 1300     		.2byte	0x13
 18235 0b3d 70       		.byte	0x70
 18236 0b3e 00       		.sleb128 0
 18237 0b3f F7       		.byte	0xf7
 18238 0b40 2C       		.uleb128 0x2c
 18239 0b41 F7       		.byte	0xf7
 18240 0b42 25       		.uleb128 0x25
 18241 0b43 F4       		.byte	0xf4
 18242 0b44 25       		.uleb128 0x25
 18243 0b45 04       		.byte	0x4
 18244 0b46 AE47613F 		.4byte	0x3f6147ae
 18245 0b4a 1E       		.byte	0x1e
 18246 0b4b F7       		.byte	0xf7
 18247 0b4c 2C       		.uleb128 0x2c
 18248 0b4d F7       		.byte	0xf7
 18249 0b4e 00       		.uleb128 0
 18250 0b4f 9F       		.byte	0x9f
 18251 0b50 40010000 		.4byte	.LVL80
 18252 0b54 46010000 		.4byte	.LVL82
ARM GAS  C:\Users\JEANCO~1\AppData\Local\Temp\ccxhVNGN.s 			page 322


 18253 0b58 1300     		.2byte	0x13
 18254 0b5a 70       		.byte	0x70
 18255 0b5b 00       		.sleb128 0
 18256 0b5c F7       		.byte	0xf7
 18257 0b5d 2C       		.uleb128 0x2c
 18258 0b5e F7       		.byte	0xf7
 18259 0b5f 25       		.uleb128 0x25
 18260 0b60 F4       		.byte	0xf4
 18261 0b61 25       		.uleb128 0x25
 18262 0b62 04       		.byte	0x4
 18263 0b63 AE47613F 		.4byte	0x3f6147ae
 18264 0b67 1E       		.byte	0x1e
 18265 0b68 F7       		.byte	0xf7
 18266 0b69 2C       		.uleb128 0x2c
 18267 0b6a F7       		.byte	0xf7
 18268 0b6b 00       		.uleb128 0
 18269 0b6c 9F       		.byte	0x9f
 18270 0b6d 46010000 		.4byte	.LVL82
 18271 0b71 4C010000 		.4byte	.LVL84
 18272 0b75 1300     		.2byte	0x13
 18273 0b77 72       		.byte	0x72
 18274 0b78 00       		.sleb128 0
 18275 0b79 F7       		.byte	0xf7
 18276 0b7a 2C       		.uleb128 0x2c
 18277 0b7b F7       		.byte	0xf7
 18278 0b7c 25       		.uleb128 0x25
 18279 0b7d F4       		.byte	0xf4
 18280 0b7e 25       		.uleb128 0x25
 18281 0b7f 04       		.byte	0x4
 18282 0b80 AE47613F 		.4byte	0x3f6147ae
 18283 0b84 1E       		.byte	0x1e
 18284 0b85 F7       		.byte	0xf7
 18285 0b86 2C       		.uleb128 0x2c
 18286 0b87 F7       		.byte	0xf7
 18287 0b88 00       		.uleb128 0
 18288 0b89 9F       		.byte	0x9f
 18289 0b8a 4C010000 		.4byte	.LVL84
 18290 0b8e 50010000 		.4byte	.LVL85
 18291 0b92 1400     		.2byte	0x14
 18292 0b94 F3       		.byte	0xf3
 18293 0b95 01       		.uleb128 0x1
 18294 0b96 52       		.byte	0x52
 18295 0b97 F7       		.byte	0xf7
 18296 0b98 2C       		.uleb128 0x2c
 18297 0b99 F7       		.byte	0xf7
 18298 0b9a 25       		.uleb128 0x25
 18299 0b9b F4       		.byte	0xf4
 18300 0b9c 25       		.uleb128 0x25
 18301 0b9d 04       		.byte	0x4
 18302 0b9e AE47613F 		.4byte	0x3f6147ae
 18303 0ba2 1E       		.byte	0x1e
 18304 0ba3 F7       		.byte	0xf7
 18305 0ba4 2C       		.uleb128 0x2c
 18306 0ba5 F7       		.byte	0xf7
 18307 0ba6 00       		.uleb128 0
 18308 0ba7 9F       		.byte	0x9f
 18309 0ba8 50010000 		.4byte	.LVL85
ARM GAS  C:\Users\JEANCO~1\AppData\Local\Temp\ccxhVNGN.s 			page 323


 18310 0bac 52010000 		.4byte	.LVL86
 18311 0bb0 1300     		.2byte	0x13
 18312 0bb2 73       		.byte	0x73
 18313 0bb3 00       		.sleb128 0
 18314 0bb4 F7       		.byte	0xf7
 18315 0bb5 2C       		.uleb128 0x2c
 18316 0bb6 F7       		.byte	0xf7
 18317 0bb7 25       		.uleb128 0x25
 18318 0bb8 F4       		.byte	0xf4
 18319 0bb9 25       		.uleb128 0x25
 18320 0bba 04       		.byte	0x4
 18321 0bbb AE47613F 		.4byte	0x3f6147ae
 18322 0bbf 1E       		.byte	0x1e
 18323 0bc0 F7       		.byte	0xf7
 18324 0bc1 2C       		.uleb128 0x2c
 18325 0bc2 F7       		.byte	0xf7
 18326 0bc3 00       		.uleb128 0
 18327 0bc4 9F       		.byte	0x9f
 18328 0bc5 52010000 		.4byte	.LVL86
 18329 0bc9 58010000 		.4byte	.LVL88
 18330 0bcd 1400     		.2byte	0x14
 18331 0bcf F3       		.byte	0xf3
 18332 0bd0 01       		.uleb128 0x1
 18333 0bd1 53       		.byte	0x53
 18334 0bd2 F7       		.byte	0xf7
 18335 0bd3 2C       		.uleb128 0x2c
 18336 0bd4 F7       		.byte	0xf7
 18337 0bd5 25       		.uleb128 0x25
 18338 0bd6 F4       		.byte	0xf4
 18339 0bd7 25       		.uleb128 0x25
 18340 0bd8 04       		.byte	0x4
 18341 0bd9 AE47613F 		.4byte	0x3f6147ae
 18342 0bdd 1E       		.byte	0x1e
 18343 0bde F7       		.byte	0xf7
 18344 0bdf 2C       		.uleb128 0x2c
 18345 0be0 F7       		.byte	0xf7
 18346 0be1 00       		.uleb128 0
 18347 0be2 9F       		.byte	0x9f
 18348 0be3 58010000 		.4byte	.LVL88
 18349 0be7 60010000 		.4byte	.LVL91
 18350 0beb 1300     		.2byte	0x13
 18351 0bed 71       		.byte	0x71
 18352 0bee 00       		.sleb128 0
 18353 0bef F7       		.byte	0xf7
 18354 0bf0 2C       		.uleb128 0x2c
 18355 0bf1 F7       		.byte	0xf7
 18356 0bf2 25       		.uleb128 0x25
 18357 0bf3 F4       		.byte	0xf4
 18358 0bf4 25       		.uleb128 0x25
 18359 0bf5 04       		.byte	0x4
 18360 0bf6 AE47613F 		.4byte	0x3f6147ae
 18361 0bfa 1E       		.byte	0x1e
 18362 0bfb F7       		.byte	0xf7
 18363 0bfc 2C       		.uleb128 0x2c
 18364 0bfd F7       		.byte	0xf7
 18365 0bfe 00       		.uleb128 0
 18366 0bff 9F       		.byte	0x9f
ARM GAS  C:\Users\JEANCO~1\AppData\Local\Temp\ccxhVNGN.s 			page 324


 18367 0c00 00000000 		.4byte	0
 18368 0c04 00000000 		.4byte	0
 18369              	.LLST46:
 18370 0c08 00000000 		.4byte	.LVL177
 18371 0c0c C2000000 		.4byte	.LVL185
 18372 0c10 0100     		.2byte	0x1
 18373 0c12 50       		.byte	0x50
 18374 0c13 C2000000 		.4byte	.LVL185
 18375 0c17 EC010000 		.4byte	.LVL215
 18376 0c1b 0400     		.2byte	0x4
 18377 0c1d F3       		.byte	0xf3
 18378 0c1e 01       		.uleb128 0x1
 18379 0c1f 50       		.byte	0x50
 18380 0c20 9F       		.byte	0x9f
 18381 0c21 EC010000 		.4byte	.LVL215
 18382 0c25 F4010000 		.4byte	.LVL216
 18383 0c29 0100     		.2byte	0x1
 18384 0c2b 50       		.byte	0x50
 18385 0c2c F4010000 		.4byte	.LVL216
 18386 0c30 2C030000 		.4byte	.LFE291
 18387 0c34 0400     		.2byte	0x4
 18388 0c36 F3       		.byte	0xf3
 18389 0c37 01       		.uleb128 0x1
 18390 0c38 50       		.byte	0x50
 18391 0c39 9F       		.byte	0x9f
 18392 0c3a 00000000 		.4byte	0
 18393 0c3e 00000000 		.4byte	0
 18394              	.LLST47:
 18395 0c42 00000000 		.4byte	.LVL177
 18396 0c46 BE000000 		.4byte	.LVL184
 18397 0c4a 0100     		.2byte	0x1
 18398 0c4c 51       		.byte	0x51
 18399 0c4d BE000000 		.4byte	.LVL184
 18400 0c51 EC010000 		.4byte	.LVL215
 18401 0c55 0400     		.2byte	0x4
 18402 0c57 F3       		.byte	0xf3
 18403 0c58 01       		.uleb128 0x1
 18404 0c59 51       		.byte	0x51
 18405 0c5a 9F       		.byte	0x9f
 18406 0c5b EC010000 		.4byte	.LVL215
 18407 0c5f F4010000 		.4byte	.LVL216
 18408 0c63 0100     		.2byte	0x1
 18409 0c65 51       		.byte	0x51
 18410 0c66 F4010000 		.4byte	.LVL216
 18411 0c6a 2C030000 		.4byte	.LFE291
 18412 0c6e 0400     		.2byte	0x4
 18413 0c70 F3       		.byte	0xf3
 18414 0c71 01       		.uleb128 0x1
 18415 0c72 51       		.byte	0x51
 18416 0c73 9F       		.byte	0x9f
 18417 0c74 00000000 		.4byte	0
 18418 0c78 00000000 		.4byte	0
 18419              	.LLST48:
 18420 0c7c 10000000 		.4byte	.LVL178
 18421 0c80 2E000000 		.4byte	.LVL179
 18422 0c84 0200     		.2byte	0x2
 18423 0c86 30       		.byte	0x30
ARM GAS  C:\Users\JEANCO~1\AppData\Local\Temp\ccxhVNGN.s 			page 325


 18424 0c87 9F       		.byte	0x9f
 18425 0c88 2E000000 		.4byte	.LVL179
 18426 0c8c 30000000 		.4byte	.LVL180
 18427 0c90 0100     		.2byte	0x1
 18428 0c92 57       		.byte	0x57
 18429 0c93 32000000 		.4byte	.LVL181
 18430 0c97 BC000000 		.4byte	.LVL183
 18431 0c9b 0100     		.2byte	0x1
 18432 0c9d 57       		.byte	0x57
 18433 0c9e EC010000 		.4byte	.LVL215
 18434 0ca2 F4010000 		.4byte	.LVL216
 18435 0ca6 0200     		.2byte	0x2
 18436 0ca8 30       		.byte	0x30
 18437 0ca9 9F       		.byte	0x9f
 18438 0caa 00000000 		.4byte	0
 18439 0cae 00000000 		.4byte	0
 18440              	.LLST49:
 18441 0cb2 24010000 		.4byte	.LVL195
 18442 0cb6 88010000 		.4byte	.LVL209
 18443 0cba 1300     		.2byte	0x13
 18444 0cbc 78       		.byte	0x78
 18445 0cbd 00       		.sleb128 0
 18446 0cbe F7       		.byte	0xf7
 18447 0cbf 2C       		.uleb128 0x2c
 18448 0cc0 F7       		.byte	0xf7
 18449 0cc1 25       		.uleb128 0x25
 18450 0cc2 F4       		.byte	0xf4
 18451 0cc3 25       		.uleb128 0x25
 18452 0cc4 04       		.byte	0x4
 18453 0cc5 48E17A3F 		.4byte	0x3f7ae148
 18454 0cc9 1E       		.byte	0x1e
 18455 0cca F7       		.byte	0xf7
 18456 0ccb 2C       		.uleb128 0x2c
 18457 0ccc F7       		.byte	0xf7
 18458 0ccd 00       		.uleb128 0
 18459 0cce 9F       		.byte	0x9f
 18460 0ccf 88010000 		.4byte	.LVL209
 18461 0cd3 90010000 		.4byte	.LVL210
 18462 0cd7 1000     		.2byte	0x10
 18463 0cd9 F5       		.byte	0xf5
 18464 0cda 4E       		.uleb128 0x4e
 18465 0cdb 25       		.uleb128 0x25
 18466 0cdc F4       		.byte	0xf4
 18467 0cdd 25       		.uleb128 0x25
 18468 0cde 04       		.byte	0x4
 18469 0cdf 48E17A3F 		.4byte	0x3f7ae148
 18470 0ce3 1E       		.byte	0x1e
 18471 0ce4 F7       		.byte	0xf7
 18472 0ce5 2C       		.uleb128 0x2c
 18473 0ce6 F7       		.byte	0xf7
 18474 0ce7 00       		.uleb128 0
 18475 0ce8 9F       		.byte	0x9f
 18476 0ce9 90010000 		.4byte	.LVL210
 18477 0ced D4010000 		.4byte	.LVL213
 18478 0cf1 1300     		.2byte	0x13
 18479 0cf3 78       		.byte	0x78
 18480 0cf4 00       		.sleb128 0
ARM GAS  C:\Users\JEANCO~1\AppData\Local\Temp\ccxhVNGN.s 			page 326


 18481 0cf5 F7       		.byte	0xf7
 18482 0cf6 2C       		.uleb128 0x2c
 18483 0cf7 F7       		.byte	0xf7
 18484 0cf8 25       		.uleb128 0x25
 18485 0cf9 F4       		.byte	0xf4
 18486 0cfa 25       		.uleb128 0x25
 18487 0cfb 04       		.byte	0x4
 18488 0cfc 48E17A3F 		.4byte	0x3f7ae148
 18489 0d00 1E       		.byte	0x1e
 18490 0d01 F7       		.byte	0xf7
 18491 0d02 2C       		.uleb128 0x2c
 18492 0d03 F7       		.byte	0xf7
 18493 0d04 00       		.uleb128 0
 18494 0d05 9F       		.byte	0x9f
 18495 0d06 D4010000 		.4byte	.LVL213
 18496 0d0a DC010000 		.4byte	.LVL214
 18497 0d0e 1500     		.2byte	0x15
 18498 0d10 91       		.byte	0x91
 18499 0d11 947F     		.sleb128 -108
 18500 0d13 06       		.byte	0x6
 18501 0d14 F7       		.byte	0xf7
 18502 0d15 2C       		.uleb128 0x2c
 18503 0d16 F7       		.byte	0xf7
 18504 0d17 25       		.uleb128 0x25
 18505 0d18 F4       		.byte	0xf4
 18506 0d19 25       		.uleb128 0x25
 18507 0d1a 04       		.byte	0x4
 18508 0d1b 48E17A3F 		.4byte	0x3f7ae148
 18509 0d1f 1E       		.byte	0x1e
 18510 0d20 F7       		.byte	0xf7
 18511 0d21 2C       		.uleb128 0x2c
 18512 0d22 F7       		.byte	0xf7
 18513 0d23 00       		.uleb128 0
 18514 0d24 9F       		.byte	0x9f
 18515 0d25 F4010000 		.4byte	.LVL216
 18516 0d29 66020000 		.4byte	.LVL233
 18517 0d2d 1300     		.2byte	0x13
 18518 0d2f 78       		.byte	0x78
 18519 0d30 00       		.sleb128 0
 18520 0d31 F7       		.byte	0xf7
 18521 0d32 2C       		.uleb128 0x2c
 18522 0d33 F7       		.byte	0xf7
 18523 0d34 25       		.uleb128 0x25
 18524 0d35 F4       		.byte	0xf4
 18525 0d36 25       		.uleb128 0x25
 18526 0d37 04       		.byte	0x4
 18527 0d38 48E17A3F 		.4byte	0x3f7ae148
 18528 0d3c 1E       		.byte	0x1e
 18529 0d3d F7       		.byte	0xf7
 18530 0d3e 2C       		.uleb128 0x2c
 18531 0d3f F7       		.byte	0xf7
 18532 0d40 00       		.uleb128 0
 18533 0d41 9F       		.byte	0x9f
 18534 0d42 66020000 		.4byte	.LVL233
 18535 0d46 D6020000 		.4byte	.LVL240
 18536 0d4a 1500     		.2byte	0x15
 18537 0d4c 91       		.byte	0x91
ARM GAS  C:\Users\JEANCO~1\AppData\Local\Temp\ccxhVNGN.s 			page 327


 18538 0d4d 947F     		.sleb128 -108
 18539 0d4f 06       		.byte	0x6
 18540 0d50 F7       		.byte	0xf7
 18541 0d51 2C       		.uleb128 0x2c
 18542 0d52 F7       		.byte	0xf7
 18543 0d53 25       		.uleb128 0x25
 18544 0d54 F4       		.byte	0xf4
 18545 0d55 25       		.uleb128 0x25
 18546 0d56 04       		.byte	0x4
 18547 0d57 48E17A3F 		.4byte	0x3f7ae148
 18548 0d5b 1E       		.byte	0x1e
 18549 0d5c F7       		.byte	0xf7
 18550 0d5d 2C       		.uleb128 0x2c
 18551 0d5e F7       		.byte	0xf7
 18552 0d5f 00       		.uleb128 0
 18553 0d60 9F       		.byte	0x9f
 18554 0d61 D6020000 		.4byte	.LVL240
 18555 0d65 DC020000 		.4byte	.LVL242
 18556 0d69 1300     		.2byte	0x13
 18557 0d6b 78       		.byte	0x78
 18558 0d6c 00       		.sleb128 0
 18559 0d6d F7       		.byte	0xf7
 18560 0d6e 2C       		.uleb128 0x2c
 18561 0d6f F7       		.byte	0xf7
 18562 0d70 25       		.uleb128 0x25
 18563 0d71 F4       		.byte	0xf4
 18564 0d72 25       		.uleb128 0x25
 18565 0d73 04       		.byte	0x4
 18566 0d74 48E17A3F 		.4byte	0x3f7ae148
 18567 0d78 1E       		.byte	0x1e
 18568 0d79 F7       		.byte	0xf7
 18569 0d7a 2C       		.uleb128 0x2c
 18570 0d7b F7       		.byte	0xf7
 18571 0d7c 00       		.uleb128 0
 18572 0d7d 9F       		.byte	0x9f
 18573 0d7e 00000000 		.4byte	0
 18574 0d82 00000000 		.4byte	0
 18575              	.LLST50:
 18576 0d86 30010000 		.4byte	.LVL197
 18577 0d8a 7C010000 		.4byte	.LVL207
 18578 0d8e 1300     		.2byte	0x13
 18579 0d90 7A       		.byte	0x7a
 18580 0d91 00       		.sleb128 0
 18581 0d92 F7       		.byte	0xf7
 18582 0d93 2C       		.uleb128 0x2c
 18583 0d94 F7       		.byte	0xf7
 18584 0d95 25       		.uleb128 0x25
 18585 0d96 F4       		.byte	0xf4
 18586 0d97 25       		.uleb128 0x25
 18587 0d98 04       		.byte	0x4
 18588 0d99 48E17A3F 		.4byte	0x3f7ae148
 18589 0d9d 1E       		.byte	0x1e
 18590 0d9e F7       		.byte	0xf7
 18591 0d9f 2C       		.uleb128 0x2c
 18592 0da0 F7       		.byte	0xf7
 18593 0da1 00       		.uleb128 0
 18594 0da2 9F       		.byte	0x9f
ARM GAS  C:\Users\JEANCO~1\AppData\Local\Temp\ccxhVNGN.s 			page 328


 18595 0da3 7C010000 		.4byte	.LVL207
 18596 0da7 84010000 		.4byte	.LVL208
 18597 0dab 1000     		.2byte	0x10
 18598 0dad F5       		.byte	0xf5
 18599 0dae 4D       		.uleb128 0x4d
 18600 0daf 25       		.uleb128 0x25
 18601 0db0 F4       		.byte	0xf4
 18602 0db1 25       		.uleb128 0x25
 18603 0db2 04       		.byte	0x4
 18604 0db3 48E17A3F 		.4byte	0x3f7ae148
 18605 0db7 1E       		.byte	0x1e
 18606 0db8 F7       		.byte	0xf7
 18607 0db9 2C       		.uleb128 0x2c
 18608 0dba F7       		.byte	0xf7
 18609 0dbb 00       		.uleb128 0
 18610 0dbc 9F       		.byte	0x9f
 18611 0dbd 84010000 		.4byte	.LVL208
 18612 0dc1 D4010000 		.4byte	.LVL213
 18613 0dc5 1300     		.2byte	0x13
 18614 0dc7 7A       		.byte	0x7a
 18615 0dc8 00       		.sleb128 0
 18616 0dc9 F7       		.byte	0xf7
 18617 0dca 2C       		.uleb128 0x2c
 18618 0dcb F7       		.byte	0xf7
 18619 0dcc 25       		.uleb128 0x25
 18620 0dcd F4       		.byte	0xf4
 18621 0dce 25       		.uleb128 0x25
 18622 0dcf 04       		.byte	0x4
 18623 0dd0 48E17A3F 		.4byte	0x3f7ae148
 18624 0dd4 1E       		.byte	0x1e
 18625 0dd5 F7       		.byte	0xf7
 18626 0dd6 2C       		.uleb128 0x2c
 18627 0dd7 F7       		.byte	0xf7
 18628 0dd8 00       		.uleb128 0
 18629 0dd9 9F       		.byte	0x9f
 18630 0dda D4010000 		.4byte	.LVL213
 18631 0dde DC010000 		.4byte	.LVL214
 18632 0de2 1500     		.2byte	0x15
 18633 0de4 91       		.byte	0x91
 18634 0de5 9C7F     		.sleb128 -100
 18635 0de7 06       		.byte	0x6
 18636 0de8 F7       		.byte	0xf7
 18637 0de9 2C       		.uleb128 0x2c
 18638 0dea F7       		.byte	0xf7
 18639 0deb 25       		.uleb128 0x25
 18640 0dec F4       		.byte	0xf4
 18641 0ded 25       		.uleb128 0x25
 18642 0dee 04       		.byte	0x4
 18643 0def 48E17A3F 		.4byte	0x3f7ae148
 18644 0df3 1E       		.byte	0x1e
 18645 0df4 F7       		.byte	0xf7
 18646 0df5 2C       		.uleb128 0x2c
 18647 0df6 F7       		.byte	0xf7
 18648 0df7 00       		.uleb128 0
 18649 0df8 9F       		.byte	0x9f
 18650 0df9 F4010000 		.4byte	.LVL216
 18651 0dfd 5C020000 		.4byte	.LVL230
ARM GAS  C:\Users\JEANCO~1\AppData\Local\Temp\ccxhVNGN.s 			page 329


 18652 0e01 1300     		.2byte	0x13
 18653 0e03 7A       		.byte	0x7a
 18654 0e04 00       		.sleb128 0
 18655 0e05 F7       		.byte	0xf7
 18656 0e06 2C       		.uleb128 0x2c
 18657 0e07 F7       		.byte	0xf7
 18658 0e08 25       		.uleb128 0x25
 18659 0e09 F4       		.byte	0xf4
 18660 0e0a 25       		.uleb128 0x25
 18661 0e0b 04       		.byte	0x4
 18662 0e0c 48E17A3F 		.4byte	0x3f7ae148
 18663 0e10 1E       		.byte	0x1e
 18664 0e11 F7       		.byte	0xf7
 18665 0e12 2C       		.uleb128 0x2c
 18666 0e13 F7       		.byte	0xf7
 18667 0e14 00       		.uleb128 0
 18668 0e15 9F       		.byte	0x9f
 18669 0e16 5C020000 		.4byte	.LVL230
 18670 0e1a D6020000 		.4byte	.LVL240
 18671 0e1e 1500     		.2byte	0x15
 18672 0e20 91       		.byte	0x91
 18673 0e21 9C7F     		.sleb128 -100
 18674 0e23 06       		.byte	0x6
 18675 0e24 F7       		.byte	0xf7
 18676 0e25 2C       		.uleb128 0x2c
 18677 0e26 F7       		.byte	0xf7
 18678 0e27 25       		.uleb128 0x25
 18679 0e28 F4       		.byte	0xf4
 18680 0e29 25       		.uleb128 0x25
 18681 0e2a 04       		.byte	0x4
 18682 0e2b 48E17A3F 		.4byte	0x3f7ae148
 18683 0e2f 1E       		.byte	0x1e
 18684 0e30 F7       		.byte	0xf7
 18685 0e31 2C       		.uleb128 0x2c
 18686 0e32 F7       		.byte	0xf7
 18687 0e33 00       		.uleb128 0
 18688 0e34 9F       		.byte	0x9f
 18689 0e35 D6020000 		.4byte	.LVL240
 18690 0e39 DC020000 		.4byte	.LVL242
 18691 0e3d 1300     		.2byte	0x13
 18692 0e3f 7A       		.byte	0x7a
 18693 0e40 00       		.sleb128 0
 18694 0e41 F7       		.byte	0xf7
 18695 0e42 2C       		.uleb128 0x2c
 18696 0e43 F7       		.byte	0xf7
 18697 0e44 25       		.uleb128 0x25
 18698 0e45 F4       		.byte	0xf4
 18699 0e46 25       		.uleb128 0x25
 18700 0e47 04       		.byte	0x4
 18701 0e48 48E17A3F 		.4byte	0x3f7ae148
 18702 0e4c 1E       		.byte	0x1e
 18703 0e4d F7       		.byte	0xf7
 18704 0e4e 2C       		.uleb128 0x2c
 18705 0e4f F7       		.byte	0xf7
 18706 0e50 00       		.uleb128 0
 18707 0e51 9F       		.byte	0x9f
 18708 0e52 00000000 		.4byte	0
ARM GAS  C:\Users\JEANCO~1\AppData\Local\Temp\ccxhVNGN.s 			page 330


 18709 0e56 00000000 		.4byte	0
 18710              	.LLST51:
 18711 0e5a 3C010000 		.4byte	.LVL199
 18712 0e5e D4010000 		.4byte	.LVL213
 18713 0e62 0100     		.2byte	0x1
 18714 0e64 59       		.byte	0x59
 18715 0e65 D4010000 		.4byte	.LVL213
 18716 0e69 DC010000 		.4byte	.LVL214
 18717 0e6d 0300     		.2byte	0x3
 18718 0e6f 91       		.byte	0x91
 18719 0e70 A47F     		.sleb128 -92
 18720 0e72 F4010000 		.4byte	.LVL216
 18721 0e76 60020000 		.4byte	.LVL231
 18722 0e7a 0100     		.2byte	0x1
 18723 0e7c 59       		.byte	0x59
 18724 0e7d 60020000 		.4byte	.LVL231
 18725 0e81 D6020000 		.4byte	.LVL240
 18726 0e85 0300     		.2byte	0x3
 18727 0e87 91       		.byte	0x91
 18728 0e88 A47F     		.sleb128 -92
 18729 0e8a D6020000 		.4byte	.LVL240
 18730 0e8e DC020000 		.4byte	.LVL242
 18731 0e92 0100     		.2byte	0x1
 18732 0e94 59       		.byte	0x59
 18733 0e95 00000000 		.4byte	0
 18734 0e99 00000000 		.4byte	0
 18735              	.LLST52:
 18736 0e9d 46010000 		.4byte	.LVL201
 18737 0ea1 94010000 		.4byte	.LVL211
 18738 0ea5 1300     		.2byte	0x13
 18739 0ea7 77       		.byte	0x77
 18740 0ea8 00       		.sleb128 0
 18741 0ea9 F7       		.byte	0xf7
 18742 0eaa 2C       		.uleb128 0x2c
 18743 0eab F7       		.byte	0xf7
 18744 0eac 25       		.uleb128 0x25
 18745 0ead F4       		.byte	0xf4
 18746 0eae 25       		.uleb128 0x25
 18747 0eaf 04       		.byte	0x4
 18748 0eb0 48E17A3F 		.4byte	0x3f7ae148
 18749 0eb4 1E       		.byte	0x1e
 18750 0eb5 F7       		.byte	0xf7
 18751 0eb6 2C       		.uleb128 0x2c
 18752 0eb7 F7       		.byte	0xf7
 18753 0eb8 00       		.uleb128 0
 18754 0eb9 9F       		.byte	0x9f
 18755 0eba 94010000 		.4byte	.LVL211
 18756 0ebe A2010000 		.4byte	.LVL212
 18757 0ec2 1000     		.2byte	0x10
 18758 0ec4 F5       		.byte	0xf5
 18759 0ec5 4F       		.uleb128 0x4f
 18760 0ec6 25       		.uleb128 0x25
 18761 0ec7 F4       		.byte	0xf4
 18762 0ec8 25       		.uleb128 0x25
 18763 0ec9 04       		.byte	0x4
 18764 0eca 48E17A3F 		.4byte	0x3f7ae148
 18765 0ece 1E       		.byte	0x1e
ARM GAS  C:\Users\JEANCO~1\AppData\Local\Temp\ccxhVNGN.s 			page 331


 18766 0ecf F7       		.byte	0xf7
 18767 0ed0 2C       		.uleb128 0x2c
 18768 0ed1 F7       		.byte	0xf7
 18769 0ed2 00       		.uleb128 0
 18770 0ed3 9F       		.byte	0x9f
 18771 0ed4 A2010000 		.4byte	.LVL212
 18772 0ed8 DC010000 		.4byte	.LVL214
 18773 0edc 1500     		.2byte	0x15
 18774 0ede 91       		.byte	0x91
 18775 0edf AC7F     		.sleb128 -84
 18776 0ee1 06       		.byte	0x6
 18777 0ee2 F7       		.byte	0xf7
 18778 0ee3 2C       		.uleb128 0x2c
 18779 0ee4 F7       		.byte	0xf7
 18780 0ee5 25       		.uleb128 0x25
 18781 0ee6 F4       		.byte	0xf4
 18782 0ee7 25       		.uleb128 0x25
 18783 0ee8 04       		.byte	0x4
 18784 0ee9 48E17A3F 		.4byte	0x3f7ae148
 18785 0eed 1E       		.byte	0x1e
 18786 0eee F7       		.byte	0xf7
 18787 0eef 2C       		.uleb128 0x2c
 18788 0ef0 F7       		.byte	0xf7
 18789 0ef1 00       		.uleb128 0
 18790 0ef2 9F       		.byte	0x9f
 18791 0ef3 F4010000 		.4byte	.LVL216
 18792 0ef7 62020000 		.4byte	.LVL232
 18793 0efb 1300     		.2byte	0x13
 18794 0efd 77       		.byte	0x77
 18795 0efe 00       		.sleb128 0
 18796 0eff F7       		.byte	0xf7
 18797 0f00 2C       		.uleb128 0x2c
 18798 0f01 F7       		.byte	0xf7
 18799 0f02 25       		.uleb128 0x25
 18800 0f03 F4       		.byte	0xf4
 18801 0f04 25       		.uleb128 0x25
 18802 0f05 04       		.byte	0x4
 18803 0f06 48E17A3F 		.4byte	0x3f7ae148
 18804 0f0a 1E       		.byte	0x1e
 18805 0f0b F7       		.byte	0xf7
 18806 0f0c 2C       		.uleb128 0x2c
 18807 0f0d F7       		.byte	0xf7
 18808 0f0e 00       		.uleb128 0
 18809 0f0f 9F       		.byte	0x9f
 18810 0f10 62020000 		.4byte	.LVL232
 18811 0f14 D6020000 		.4byte	.LVL240
 18812 0f18 1500     		.2byte	0x15
 18813 0f1a 91       		.byte	0x91
 18814 0f1b AC7F     		.sleb128 -84
 18815 0f1d 06       		.byte	0x6
 18816 0f1e F7       		.byte	0xf7
 18817 0f1f 2C       		.uleb128 0x2c
 18818 0f20 F7       		.byte	0xf7
 18819 0f21 25       		.uleb128 0x25
 18820 0f22 F4       		.byte	0xf4
 18821 0f23 25       		.uleb128 0x25
 18822 0f24 04       		.byte	0x4
ARM GAS  C:\Users\JEANCO~1\AppData\Local\Temp\ccxhVNGN.s 			page 332


 18823 0f25 48E17A3F 		.4byte	0x3f7ae148
 18824 0f29 1E       		.byte	0x1e
 18825 0f2a F7       		.byte	0xf7
 18826 0f2b 2C       		.uleb128 0x2c
 18827 0f2c F7       		.byte	0xf7
 18828 0f2d 00       		.uleb128 0
 18829 0f2e 9F       		.byte	0x9f
 18830 0f2f D6020000 		.4byte	.LVL240
 18831 0f33 DC020000 		.4byte	.LVL242
 18832 0f37 1300     		.2byte	0x13
 18833 0f39 77       		.byte	0x77
 18834 0f3a 00       		.sleb128 0
 18835 0f3b F7       		.byte	0xf7
 18836 0f3c 2C       		.uleb128 0x2c
 18837 0f3d F7       		.byte	0xf7
 18838 0f3e 25       		.uleb128 0x25
 18839 0f3f F4       		.byte	0xf4
 18840 0f40 25       		.uleb128 0x25
 18841 0f41 04       		.byte	0x4
 18842 0f42 48E17A3F 		.4byte	0x3f7ae148
 18843 0f46 1E       		.byte	0x1e
 18844 0f47 F7       		.byte	0xf7
 18845 0f48 2C       		.uleb128 0x2c
 18846 0f49 F7       		.byte	0xf7
 18847 0f4a 00       		.uleb128 0
 18848 0f4b 9F       		.byte	0x9f
 18849 0f4c 00000000 		.4byte	0
 18850 0f50 00000000 		.4byte	0
 18851              	.LLST53:
 18852 0f54 4A010000 		.4byte	.LVL202
 18853 0f58 DC010000 		.4byte	.LVL214
 18854 0f5c 0300     		.2byte	0x3
 18855 0f5e 91       		.byte	0x91
 18856 0f5f B87F     		.sleb128 -72
 18857 0f61 F4010000 		.4byte	.LVL216
 18858 0f65 DC020000 		.4byte	.LVL242
 18859 0f69 0300     		.2byte	0x3
 18860 0f6b 91       		.byte	0x91
 18861 0f6c B87F     		.sleb128 -72
 18862 0f6e 00000000 		.4byte	0
 18863 0f72 00000000 		.4byte	0
 18864              	.LLST54:
 18865 0f76 52010000 		.4byte	.LVL203
 18866 0f7a DC010000 		.4byte	.LVL214
 18867 0f7e 0200     		.2byte	0x2
 18868 0f80 91       		.byte	0x91
 18869 0f81 40       		.sleb128 -64
 18870 0f82 F4010000 		.4byte	.LVL216
 18871 0f86 DC020000 		.4byte	.LVL242
 18872 0f8a 0200     		.2byte	0x2
 18873 0f8c 91       		.byte	0x91
 18874 0f8d 40       		.sleb128 -64
 18875 0f8e 00000000 		.4byte	0
 18876 0f92 00000000 		.4byte	0
 18877              	.LLST55:
 18878 0f96 5A010000 		.4byte	.LVL204
 18879 0f9a DC010000 		.4byte	.LVL214
ARM GAS  C:\Users\JEANCO~1\AppData\Local\Temp\ccxhVNGN.s 			page 333


 18880 0f9e 0200     		.2byte	0x2
 18881 0fa0 91       		.byte	0x91
 18882 0fa1 48       		.sleb128 -56
 18883 0fa2 F4010000 		.4byte	.LVL216
 18884 0fa6 DC020000 		.4byte	.LVL242
 18885 0faa 0200     		.2byte	0x2
 18886 0fac 91       		.byte	0x91
 18887 0fad 48       		.sleb128 -56
 18888 0fae 00000000 		.4byte	0
 18889 0fb2 00000000 		.4byte	0
 18890              	.LLST56:
 18891 0fb6 62010000 		.4byte	.LVL205
 18892 0fba DC010000 		.4byte	.LVL214
 18893 0fbe 0200     		.2byte	0x2
 18894 0fc0 91       		.byte	0x91
 18895 0fc1 50       		.sleb128 -48
 18896 0fc2 F4010000 		.4byte	.LVL216
 18897 0fc6 DC020000 		.4byte	.LVL242
 18898 0fca 0200     		.2byte	0x2
 18899 0fcc 91       		.byte	0x91
 18900 0fcd 50       		.sleb128 -48
 18901 0fce 00000000 		.4byte	0
 18902 0fd2 00000000 		.4byte	0
 18903              	.LLST66:
 18904 0fd6 FC010000 		.4byte	.LVL217
 18905 0fda 40020000 		.4byte	.LVL227
 18906 0fde 0600     		.2byte	0x6
 18907 0fe0 03       		.byte	0x3
 18908 0fe1 00000000 		.4byte	sendToComputer_sem
 18909 0fe5 9F       		.byte	0x9f
 18910 0fe6 D6020000 		.4byte	.LVL240
 18911 0fea DC020000 		.4byte	.LVL242
 18912 0fee 0600     		.2byte	0x6
 18913 0ff0 03       		.byte	0x3
 18914 0ff1 00000000 		.4byte	sendToComputer_sem
 18915 0ff5 9F       		.byte	0x9f
 18916 0ff6 00000000 		.4byte	0
 18917 0ffa 00000000 		.4byte	0
 18918              	.LLST67:
 18919 0ffe FC010000 		.4byte	.LVL217
 18920 1002 02020000 		.4byte	.LVL218
 18921 1006 0300     		.2byte	0x3
 18922 1008 08       		.byte	0x8
 18923 1009 20       		.byte	0x20
 18924 100a 9F       		.byte	0x9f
 18925 100b 00000000 		.4byte	0
 18926 100f 00000000 		.4byte	0
 18927              	.LLST68:
 18928 1013 0A020000 		.4byte	.LVL220
 18929 1017 16020000 		.4byte	.LVL222
 18930 101b 0600     		.2byte	0x6
 18931 101d 03       		.byte	0x3
 18932 101e 00000000 		.4byte	sendToComputer_sem
 18933 1022 9F       		.byte	0x9f
 18934 1023 D6020000 		.4byte	.LVL240
 18935 1027 DC020000 		.4byte	.LVL242
 18936 102b 0600     		.2byte	0x6
ARM GAS  C:\Users\JEANCO~1\AppData\Local\Temp\ccxhVNGN.s 			page 334


 18937 102d 03       		.byte	0x3
 18938 102e 00000000 		.4byte	sendToComputer_sem
 18939 1032 9F       		.byte	0x9f
 18940 1033 00000000 		.4byte	0
 18941 1037 00000000 		.4byte	0
 18942              	.LLST69:
 18943 103b 3A020000 		.4byte	.LVL226
 18944 103f 40020000 		.4byte	.LVL227
 18945 1043 0200     		.2byte	0x2
 18946 1045 30       		.byte	0x30
 18947 1046 9F       		.byte	0x9f
 18948 1047 00000000 		.4byte	0
 18949 104b 00000000 		.4byte	0
 18950              	.LLST70:
 18951 104f 48020000 		.4byte	.LVL228
 18952 1053 B4020000 		.4byte	.LVL236
 18953 1057 0200     		.2byte	0x2
 18954 1059 31       		.byte	0x31
 18955 105a 9F       		.byte	0x9f
 18956 105b 00000000 		.4byte	0
 18957 105f 00000000 		.4byte	0
 18958              	.LLST71:
 18959 1063 B4020000 		.4byte	.LVL236
 18960 1067 B8020000 		.4byte	.LVL237
 18961 106b 0200     		.2byte	0x2
 18962 106d 30       		.byte	0x30
 18963 106e 9F       		.byte	0x9f
 18964 106f 00000000 		.4byte	0
 18965 1073 00000000 		.4byte	0
 18966              	.LLST57:
 18967 1077 30010000 		.4byte	.LVL197
 18968 107b 34010000 		.4byte	.LVL198
 18969 107f 0200     		.2byte	0x2
 18970 1081 36       		.byte	0x36
 18971 1082 9F       		.byte	0x9f
 18972 1083 00000000 		.4byte	0
 18973 1087 00000000 		.4byte	0
 18974              	.LLST58:
 18975 108b 3C010000 		.4byte	.LVL199
 18976 108f 40010000 		.4byte	.LVL200
 18977 1093 0200     		.2byte	0x2
 18978 1095 37       		.byte	0x37
 18979 1096 9F       		.byte	0x9f
 18980 1097 00000000 		.4byte	0
 18981 109b 00000000 		.4byte	0
 18982              	.LLST59:
 18983 109f 52010000 		.4byte	.LVL203
 18984 10a3 5A010000 		.4byte	.LVL204
 18985 10a7 0200     		.2byte	0x2
 18986 10a9 36       		.byte	0x36
 18987 10aa 9F       		.byte	0x9f
 18988 10ab 00000000 		.4byte	0
 18989 10af 00000000 		.4byte	0
 18990              	.LLST60:
 18991 10b3 5A010000 		.4byte	.LVL204
 18992 10b7 62010000 		.4byte	.LVL205
 18993 10bb 0200     		.2byte	0x2
ARM GAS  C:\Users\JEANCO~1\AppData\Local\Temp\ccxhVNGN.s 			page 335


 18994 10bd 37       		.byte	0x37
 18995 10be 9F       		.byte	0x9f
 18996 10bf 00000000 		.4byte	0
 18997 10c3 00000000 		.4byte	0
 18998              	.LLST61:
 18999 10c7 66010000 		.4byte	.LVL206
 19000 10cb 94010000 		.4byte	.LVL211
 19001 10cf 1300     		.2byte	0x13
 19002 10d1 77       		.byte	0x77
 19003 10d2 00       		.sleb128 0
 19004 10d3 F7       		.byte	0xf7
 19005 10d4 2C       		.uleb128 0x2c
 19006 10d5 F7       		.byte	0xf7
 19007 10d6 25       		.uleb128 0x25
 19008 10d7 F4       		.byte	0xf4
 19009 10d8 25       		.uleb128 0x25
 19010 10d9 04       		.byte	0x4
 19011 10da 48E17A3F 		.4byte	0x3f7ae148
 19012 10de 1E       		.byte	0x1e
 19013 10df F7       		.byte	0xf7
 19014 10e0 2C       		.uleb128 0x2c
 19015 10e1 F7       		.byte	0xf7
 19016 10e2 00       		.uleb128 0
 19017 10e3 9F       		.byte	0x9f
 19018 10e4 94010000 		.4byte	.LVL211
 19019 10e8 A2010000 		.4byte	.LVL212
 19020 10ec 1000     		.2byte	0x10
 19021 10ee F5       		.byte	0xf5
 19022 10ef 4F       		.uleb128 0x4f
 19023 10f0 25       		.uleb128 0x25
 19024 10f1 F4       		.byte	0xf4
 19025 10f2 25       		.uleb128 0x25
 19026 10f3 04       		.byte	0x4
 19027 10f4 48E17A3F 		.4byte	0x3f7ae148
 19028 10f8 1E       		.byte	0x1e
 19029 10f9 F7       		.byte	0xf7
 19030 10fa 2C       		.uleb128 0x2c
 19031 10fb F7       		.byte	0xf7
 19032 10fc 00       		.uleb128 0
 19033 10fd 9F       		.byte	0x9f
 19034 10fe A2010000 		.4byte	.LVL212
 19035 1102 D4010000 		.4byte	.LVL213
 19036 1106 1500     		.2byte	0x15
 19037 1108 91       		.byte	0x91
 19038 1109 AC7F     		.sleb128 -84
 19039 110b 06       		.byte	0x6
 19040 110c F7       		.byte	0xf7
 19041 110d 2C       		.uleb128 0x2c
 19042 110e F7       		.byte	0xf7
 19043 110f 25       		.uleb128 0x25
 19044 1110 F4       		.byte	0xf4
 19045 1111 25       		.uleb128 0x25
 19046 1112 04       		.byte	0x4
 19047 1113 48E17A3F 		.4byte	0x3f7ae148
 19048 1117 1E       		.byte	0x1e
 19049 1118 F7       		.byte	0xf7
 19050 1119 2C       		.uleb128 0x2c
ARM GAS  C:\Users\JEANCO~1\AppData\Local\Temp\ccxhVNGN.s 			page 336


 19051 111a F7       		.byte	0xf7
 19052 111b 00       		.uleb128 0
 19053 111c 9F       		.byte	0x9f
 19054 111d 00000000 		.4byte	0
 19055 1121 00000000 		.4byte	0
 19056              	.LLST62:
 19057 1125 66010000 		.4byte	.LVL206
 19058 1129 D4010000 		.4byte	.LVL213
 19059 112d 0100     		.2byte	0x1
 19060 112f 59       		.byte	0x59
 19061 1130 00000000 		.4byte	0
 19062 1134 00000000 		.4byte	0
 19063              	.LLST63:
 19064 1138 66010000 		.4byte	.LVL206
 19065 113c 7C010000 		.4byte	.LVL207
 19066 1140 1300     		.2byte	0x13
 19067 1142 7A       		.byte	0x7a
 19068 1143 00       		.sleb128 0
 19069 1144 F7       		.byte	0xf7
 19070 1145 2C       		.uleb128 0x2c
 19071 1146 F7       		.byte	0xf7
 19072 1147 25       		.uleb128 0x25
 19073 1148 F4       		.byte	0xf4
 19074 1149 25       		.uleb128 0x25
 19075 114a 04       		.byte	0x4
 19076 114b 48E17A3F 		.4byte	0x3f7ae148
 19077 114f 1E       		.byte	0x1e
 19078 1150 F7       		.byte	0xf7
 19079 1151 2C       		.uleb128 0x2c
 19080 1152 F7       		.byte	0xf7
 19081 1153 00       		.uleb128 0
 19082 1154 9F       		.byte	0x9f
 19083 1155 7C010000 		.4byte	.LVL207
 19084 1159 84010000 		.4byte	.LVL208
 19085 115d 1000     		.2byte	0x10
 19086 115f F5       		.byte	0xf5
 19087 1160 4D       		.uleb128 0x4d
 19088 1161 25       		.uleb128 0x25
 19089 1162 F4       		.byte	0xf4
 19090 1163 25       		.uleb128 0x25
 19091 1164 04       		.byte	0x4
 19092 1165 48E17A3F 		.4byte	0x3f7ae148
 19093 1169 1E       		.byte	0x1e
 19094 116a F7       		.byte	0xf7
 19095 116b 2C       		.uleb128 0x2c
 19096 116c F7       		.byte	0xf7
 19097 116d 00       		.uleb128 0
 19098 116e 9F       		.byte	0x9f
 19099 116f 84010000 		.4byte	.LVL208
 19100 1173 D4010000 		.4byte	.LVL213
 19101 1177 1300     		.2byte	0x13
 19102 1179 7A       		.byte	0x7a
 19103 117a 00       		.sleb128 0
 19104 117b F7       		.byte	0xf7
 19105 117c 2C       		.uleb128 0x2c
 19106 117d F7       		.byte	0xf7
 19107 117e 25       		.uleb128 0x25
ARM GAS  C:\Users\JEANCO~1\AppData\Local\Temp\ccxhVNGN.s 			page 337


 19108 117f F4       		.byte	0xf4
 19109 1180 25       		.uleb128 0x25
 19110 1181 04       		.byte	0x4
 19111 1182 48E17A3F 		.4byte	0x3f7ae148
 19112 1186 1E       		.byte	0x1e
 19113 1187 F7       		.byte	0xf7
 19114 1188 2C       		.uleb128 0x2c
 19115 1189 F7       		.byte	0xf7
 19116 118a 00       		.uleb128 0
 19117 118b 9F       		.byte	0x9f
 19118 118c 00000000 		.4byte	0
 19119 1190 00000000 		.4byte	0
 19120              	.LLST64:
 19121 1194 66010000 		.4byte	.LVL206
 19122 1198 88010000 		.4byte	.LVL209
 19123 119c 1300     		.2byte	0x13
 19124 119e 78       		.byte	0x78
 19125 119f 00       		.sleb128 0
 19126 11a0 F7       		.byte	0xf7
 19127 11a1 2C       		.uleb128 0x2c
 19128 11a2 F7       		.byte	0xf7
 19129 11a3 25       		.uleb128 0x25
 19130 11a4 F4       		.byte	0xf4
 19131 11a5 25       		.uleb128 0x25
 19132 11a6 04       		.byte	0x4
 19133 11a7 48E17A3F 		.4byte	0x3f7ae148
 19134 11ab 1E       		.byte	0x1e
 19135 11ac F7       		.byte	0xf7
 19136 11ad 2C       		.uleb128 0x2c
 19137 11ae F7       		.byte	0xf7
 19138 11af 00       		.uleb128 0
 19139 11b0 9F       		.byte	0x9f
 19140 11b1 88010000 		.4byte	.LVL209
 19141 11b5 90010000 		.4byte	.LVL210
 19142 11b9 1000     		.2byte	0x10
 19143 11bb F5       		.byte	0xf5
 19144 11bc 4E       		.uleb128 0x4e
 19145 11bd 25       		.uleb128 0x25
 19146 11be F4       		.byte	0xf4
 19147 11bf 25       		.uleb128 0x25
 19148 11c0 04       		.byte	0x4
 19149 11c1 48E17A3F 		.4byte	0x3f7ae148
 19150 11c5 1E       		.byte	0x1e
 19151 11c6 F7       		.byte	0xf7
 19152 11c7 2C       		.uleb128 0x2c
 19153 11c8 F7       		.byte	0xf7
 19154 11c9 00       		.uleb128 0
 19155 11ca 9F       		.byte	0x9f
 19156 11cb 90010000 		.4byte	.LVL210
 19157 11cf D4010000 		.4byte	.LVL213
 19158 11d3 1300     		.2byte	0x13
 19159 11d5 78       		.byte	0x78
 19160 11d6 00       		.sleb128 0
 19161 11d7 F7       		.byte	0xf7
 19162 11d8 2C       		.uleb128 0x2c
 19163 11d9 F7       		.byte	0xf7
 19164 11da 25       		.uleb128 0x25
ARM GAS  C:\Users\JEANCO~1\AppData\Local\Temp\ccxhVNGN.s 			page 338


 19165 11db F4       		.byte	0xf4
 19166 11dc 25       		.uleb128 0x25
 19167 11dd 04       		.byte	0x4
 19168 11de 48E17A3F 		.4byte	0x3f7ae148
 19169 11e2 1E       		.byte	0x1e
 19170 11e3 F7       		.byte	0xf7
 19171 11e4 2C       		.uleb128 0x2c
 19172 11e5 F7       		.byte	0xf7
 19173 11e6 00       		.uleb128 0
 19174 11e7 9F       		.byte	0x9f
 19175 11e8 00000000 		.4byte	0
 19176 11ec 00000000 		.4byte	0
 19177              	.LLST65:
 19178 11f0 66010000 		.4byte	.LVL206
 19179 11f4 D4010000 		.4byte	.LVL213
 19180 11f8 0100     		.2byte	0x1
 19181 11fa 53       		.byte	0x53
 19182 11fb 00000000 		.4byte	0
 19183 11ff 00000000 		.4byte	0
 19184              	.LLST8:
 19185 1203 00000000 		.4byte	.LVL23
 19186 1207 0E000000 		.4byte	.LVL24
 19187 120b 0100     		.2byte	0x1
 19188 120d 50       		.byte	0x50
 19189 120e 0E000000 		.4byte	.LVL24
 19190 1212 1A000000 		.4byte	.LVL26
 19191 1216 0300     		.2byte	0x3
 19192 1218 70       		.byte	0x70
 19193 1219 58       		.sleb128 -40
 19194 121a 9F       		.byte	0x9f
 19195 121b 1A000000 		.4byte	.LVL26
 19196 121f C0000000 		.4byte	.LFE290
 19197 1223 0400     		.2byte	0x4
 19198 1225 F3       		.byte	0xf3
 19199 1226 01       		.uleb128 0x1
 19200 1227 50       		.byte	0x50
 19201 1228 9F       		.byte	0x9f
 19202 1229 00000000 		.4byte	0
 19203 122d 00000000 		.4byte	0
 19204              	.LLST9:
 19205 1231 10000000 		.4byte	.LVL25
 19206 1235 1A000000 		.4byte	.LVL26
 19207 1239 0600     		.2byte	0x6
 19208 123b 9E       		.byte	0x9e
 19209 123c 04       		.uleb128 0x4
 19210 123d 00401C46 		.4byte	0x461c4000
 19211 1241 1A000000 		.4byte	.LVL26
 19212 1245 26000000 		.4byte	.LVL27
 19213 1249 0200     		.2byte	0x2
 19214 124b 90       		.byte	0x90
 19215 124c 4E       		.uleb128 0x4e
 19216 124d 26000000 		.4byte	.LVL27
 19217 1251 34000000 		.4byte	.LVL30
 19218 1255 0200     		.2byte	0x2
 19219 1257 90       		.byte	0x90
 19220 1258 4F       		.uleb128 0x4f
 19221 1259 34000000 		.4byte	.LVL30
ARM GAS  C:\Users\JEANCO~1\AppData\Local\Temp\ccxhVNGN.s 			page 339


 19222 125d 5D000000 		.4byte	.LVL31-1
 19223 1261 0200     		.2byte	0x2
 19224 1263 90       		.byte	0x90
 19225 1264 4E       		.uleb128 0x4e
 19226 1265 6E000000 		.4byte	.LVL32
 19227 1269 73000000 		.4byte	.LVL33-1
 19228 126d 0200     		.2byte	0x2
 19229 126f 90       		.byte	0x90
 19230 1270 4E       		.uleb128 0x4e
 19231 1271 8C000000 		.4byte	.LVL34
 19232 1275 97000000 		.4byte	.LVL35-1
 19233 1279 0200     		.2byte	0x2
 19234 127b 90       		.byte	0x90
 19235 127c 4E       		.uleb128 0x4e
 19236 127d AC000000 		.4byte	.LVL36
 19237 1281 C0000000 		.4byte	.LFE290
 19238 1285 0200     		.2byte	0x2
 19239 1287 90       		.byte	0x90
 19240 1288 4E       		.uleb128 0x4e
 19241 1289 00000000 		.4byte	0
 19242 128d 00000000 		.4byte	0
 19243              	.LLST10:
 19244 1291 10000000 		.4byte	.LVL25
 19245 1295 1A000000 		.4byte	.LVL26
 19246 1299 0300     		.2byte	0x3
 19247 129b 09       		.byte	0x9
 19248 129c FF       		.byte	0xff
 19249 129d 9F       		.byte	0x9f
 19250 129e 00000000 		.4byte	0
 19251 12a2 00000000 		.4byte	0
 19252              	.LLST11:
 19253 12a6 10000000 		.4byte	.LVL25
 19254 12aa 1A000000 		.4byte	.LVL26
 19255 12ae 0200     		.2byte	0x2
 19256 12b0 3A       		.byte	0x3a
 19257 12b1 9F       		.byte	0x9f
 19258 12b2 1A000000 		.4byte	.LVL26
 19259 12b6 2A000000 		.4byte	.LVL28
 19260 12ba 0100     		.2byte	0x1
 19261 12bc 53       		.byte	0x53
 19262 12bd 2A000000 		.4byte	.LVL28
 19263 12c1 2E000000 		.4byte	.LVL29
 19264 12c5 0300     		.2byte	0x3
 19265 12c7 73       		.byte	0x73
 19266 12c8 01       		.sleb128 1
 19267 12c9 9F       		.byte	0x9f
 19268 12ca 00000000 		.4byte	0
 19269 12ce 00000000 		.4byte	0
 19270              	.LLST0:
 19271 12d2 00000000 		.4byte	.LVL0
 19272 12d6 18000000 		.4byte	.LVL2
 19273 12da 0100     		.2byte	0x1
 19274 12dc 51       		.byte	0x51
 19275 12dd 18000000 		.4byte	.LVL2
 19276 12e1 24000000 		.4byte	.LVL3
 19277 12e5 0400     		.2byte	0x4
 19278 12e7 F3       		.byte	0xf3
ARM GAS  C:\Users\JEANCO~1\AppData\Local\Temp\ccxhVNGN.s 			page 340


 19279 12e8 01       		.uleb128 0x1
 19280 12e9 51       		.byte	0x51
 19281 12ea 9F       		.byte	0x9f
 19282 12eb 24000000 		.4byte	.LVL3
 19283 12ef 2E000000 		.4byte	.LVL4
 19284 12f3 0100     		.2byte	0x1
 19285 12f5 51       		.byte	0x51
 19286 12f6 2E000000 		.4byte	.LVL4
 19287 12fa 66000000 		.4byte	.LVL12
 19288 12fe 0400     		.2byte	0x4
 19289 1300 F3       		.byte	0xf3
 19290 1301 01       		.uleb128 0x1
 19291 1302 51       		.byte	0x51
 19292 1303 9F       		.byte	0x9f
 19293 1304 66000000 		.4byte	.LVL12
 19294 1308 70000000 		.4byte	.LVL13
 19295 130c 0100     		.2byte	0x1
 19296 130e 51       		.byte	0x51
 19297 130f 70000000 		.4byte	.LVL13
 19298 1313 BC000000 		.4byte	.LFE310
 19299 1317 0400     		.2byte	0x4
 19300 1319 F3       		.byte	0xf3
 19301 131a 01       		.uleb128 0x1
 19302 131b 51       		.byte	0x51
 19303 131c 9F       		.byte	0x9f
 19304 131d 00000000 		.4byte	0
 19305 1321 00000000 		.4byte	0
 19306              	.LLST1:
 19307 1325 12000000 		.4byte	.LVL1
 19308 1329 18000000 		.4byte	.LVL2
 19309 132d 0800     		.2byte	0x8
 19310 132f 30       		.byte	0x30
 19311 1330 9F       		.byte	0x9f
 19312 1331 93       		.byte	0x93
 19313 1332 04       		.uleb128 0x4
 19314 1333 30       		.byte	0x30
 19315 1334 9F       		.byte	0x9f
 19316 1335 93       		.byte	0x93
 19317 1336 04       		.uleb128 0x4
 19318 1337 00000000 		.4byte	0
 19319 133b 00000000 		.4byte	0
 19320              	.LLST2:
 19321 133f 34000000 		.4byte	.LVL5
 19322 1343 5E000000 		.4byte	.LVL10
 19323 1347 0200     		.2byte	0x2
 19324 1349 90       		.byte	0x90
 19325 134a 4E       		.uleb128 0x4e
 19326 134b 00000000 		.4byte	0
 19327 134f 00000000 		.4byte	0
 19328              	.LLST3:
 19329 1353 34000000 		.4byte	.LVL5
 19330 1357 4E000000 		.4byte	.LVL6
 19331 135b 0100     		.2byte	0x1
 19332 135d 51       		.byte	0x51
 19333 135e 54000000 		.4byte	.LVL7
 19334 1362 66000000 		.4byte	.LVL12
 19335 1366 0100     		.2byte	0x1
ARM GAS  C:\Users\JEANCO~1\AppData\Local\Temp\ccxhVNGN.s 			page 341


 19336 1368 51       		.byte	0x51
 19337 1369 00000000 		.4byte	0
 19338 136d 00000000 		.4byte	0
 19339              	.LLST4:
 19340 1371 34000000 		.4byte	.LVL5
 19341 1375 66000000 		.4byte	.LVL12
 19342 1379 0100     		.2byte	0x1
 19343 137b 53       		.byte	0x53
 19344 137c 00000000 		.4byte	0
 19345 1380 00000000 		.4byte	0
 19346              	.LLST5:
 19347 1384 76000000 		.4byte	.LVL14
 19348 1388 A0000000 		.4byte	.LVL19
 19349 138c 0200     		.2byte	0x2
 19350 138e 90       		.byte	0x90
 19351 138f 4E       		.uleb128 0x4e
 19352 1390 00000000 		.4byte	0
 19353 1394 00000000 		.4byte	0
 19354              	.LLST6:
 19355 1398 76000000 		.4byte	.LVL14
 19356 139c 90000000 		.4byte	.LVL15
 19357 13a0 0100     		.2byte	0x1
 19358 13a2 51       		.byte	0x51
 19359 13a3 96000000 		.4byte	.LVL16
 19360 13a7 A8000000 		.4byte	.LVL21
 19361 13ab 0100     		.2byte	0x1
 19362 13ad 51       		.byte	0x51
 19363 13ae 00000000 		.4byte	0
 19364 13b2 00000000 		.4byte	0
 19365              	.LLST7:
 19366 13b6 76000000 		.4byte	.LVL14
 19367 13ba A8000000 		.4byte	.LVL21
 19368 13be 0100     		.2byte	0x1
 19369 13c0 53       		.byte	0x53
 19370 13c1 00000000 		.4byte	0
 19371 13c5 00000000 		.4byte	0
 19372              	.LLST12:
 19373 13c9 00000000 		.4byte	.LVL37
 19374 13cd 0E000000 		.4byte	.LVL39
 19375 13d1 0100     		.2byte	0x1
 19376 13d3 50       		.byte	0x50
 19377 13d4 0E000000 		.4byte	.LVL39
 19378 13d8 78000000 		.4byte	.LFE292
 19379 13dc 0100     		.2byte	0x1
 19380 13de 55       		.byte	0x55
 19381 13df 00000000 		.4byte	0
 19382 13e3 00000000 		.4byte	0
 19383              	.LLST13:
 19384 13e7 00000000 		.4byte	.LVL37
 19385 13eb 11000000 		.4byte	.LVL40-1
 19386 13ef 0100     		.2byte	0x1
 19387 13f1 51       		.byte	0x51
 19388 13f2 11000000 		.4byte	.LVL40-1
 19389 13f6 78000000 		.4byte	.LFE292
 19390 13fa 0400     		.2byte	0x4
 19391 13fc F3       		.byte	0xf3
 19392 13fd 01       		.uleb128 0x1
ARM GAS  C:\Users\JEANCO~1\AppData\Local\Temp\ccxhVNGN.s 			page 342


 19393 13fe 51       		.byte	0x51
 19394 13ff 9F       		.byte	0x9f
 19395 1400 00000000 		.4byte	0
 19396 1404 00000000 		.4byte	0
 19397              	.LLST14:
 19398 1408 0C000000 		.4byte	.LVL38
 19399 140c 0E000000 		.4byte	.LVL39
 19400 1410 0700     		.2byte	0x7
 19401 1412 70       		.byte	0x70
 19402 1413 00       		.sleb128 0
 19403 1414 F7       		.byte	0xf7
 19404 1415 2C       		.uleb128 0x2c
 19405 1416 F7       		.byte	0xf7
 19406 1417 33       		.uleb128 0x33
 19407 1418 9F       		.byte	0x9f
 19408 1419 0E000000 		.4byte	.LVL39
 19409 141d 78000000 		.4byte	.LFE292
 19410 1421 0700     		.2byte	0x7
 19411 1423 75       		.byte	0x75
 19412 1424 00       		.sleb128 0
 19413 1425 F7       		.byte	0xf7
 19414 1426 2C       		.uleb128 0x2c
 19415 1427 F7       		.byte	0xf7
 19416 1428 33       		.uleb128 0x33
 19417 1429 9F       		.byte	0x9f
 19418 142a 00000000 		.4byte	0
 19419 142e 00000000 		.4byte	0
 19420              	.LLST15:
 19421 1432 46000000 		.4byte	.LVL46
 19422 1436 4F000000 		.4byte	.LVL47-1
 19423 143a 0600     		.2byte	0x6
 19424 143c 52       		.byte	0x52
 19425 143d 93       		.byte	0x93
 19426 143e 04       		.uleb128 0x4
 19427 143f 53       		.byte	0x53
 19428 1440 93       		.byte	0x93
 19429 1441 04       		.uleb128 0x4
 19430 1442 00000000 		.4byte	0
 19431 1446 00000000 		.4byte	0
 19432              	.LLST23:
 19433 144a 00000000 		.4byte	.LVL98
 19434 144e 0E000000 		.4byte	.LVL99
 19435 1452 0100     		.2byte	0x1
 19436 1454 50       		.byte	0x50
 19437 1455 0E000000 		.4byte	.LVL99
 19438 1459 44000000 		.4byte	.LFE294
 19439 145d 0400     		.2byte	0x4
 19440 145f F3       		.byte	0xf3
 19441 1460 01       		.uleb128 0x1
 19442 1461 50       		.byte	0x50
 19443 1462 9F       		.byte	0x9f
 19444 1463 00000000 		.4byte	0
 19445 1467 00000000 		.4byte	0
 19446              	.LLST24:
 19447 146b 1C000000 		.4byte	.LVL101
 19448 146f 1E000000 		.4byte	.LVL102
 19449 1473 0100     		.2byte	0x1
ARM GAS  C:\Users\JEANCO~1\AppData\Local\Temp\ccxhVNGN.s 			page 343


 19450 1475 53       		.byte	0x53
 19451 1476 00000000 		.4byte	0
 19452 147a 00000000 		.4byte	0
 19453              	.LLST25:
 19454 147e 10000000 		.4byte	.LVL100
 19455 1482 1C000000 		.4byte	.LVL101
 19456 1486 0200     		.2byte	0x2
 19457 1488 31       		.byte	0x31
 19458 1489 9F       		.byte	0x9f
 19459 148a 1C000000 		.4byte	.LVL101
 19460 148e 1E000000 		.4byte	.LVL102
 19461 1492 0200     		.2byte	0x2
 19462 1494 32       		.byte	0x32
 19463 1495 9F       		.byte	0x9f
 19464 1496 1E000000 		.4byte	.LVL102
 19465 149a 44000000 		.4byte	.LFE294
 19466 149e 0200     		.2byte	0x2
 19467 14a0 34       		.byte	0x34
 19468 14a1 9F       		.byte	0x9f
 19469 14a2 00000000 		.4byte	0
 19470 14a6 00000000 		.4byte	0
 19471              	.LLST26:
 19472 14aa 00000000 		.4byte	.LVL104
 19473 14ae 20000000 		.4byte	.LVL106
 19474 14b2 0100     		.2byte	0x1
 19475 14b4 50       		.byte	0x50
 19476 14b5 20000000 		.4byte	.LVL106
 19477 14b9 44000000 		.4byte	.LFE295
 19478 14bd 0400     		.2byte	0x4
 19479 14bf F3       		.byte	0xf3
 19480 14c0 01       		.uleb128 0x1
 19481 14c1 50       		.byte	0x50
 19482 14c2 9F       		.byte	0x9f
 19483 14c3 00000000 		.4byte	0
 19484 14c7 00000000 		.4byte	0
 19485              	.LLST27:
 19486 14cb 00000000 		.4byte	.LVL104
 19487 14cf 3B000000 		.4byte	.LVL110-1
 19488 14d3 0100     		.2byte	0x1
 19489 14d5 51       		.byte	0x51
 19490 14d6 3B000000 		.4byte	.LVL110-1
 19491 14da 44000000 		.4byte	.LFE295
 19492 14de 0400     		.2byte	0x4
 19493 14e0 F3       		.byte	0xf3
 19494 14e1 01       		.uleb128 0x1
 19495 14e2 51       		.byte	0x51
 19496 14e3 9F       		.byte	0x9f
 19497 14e4 00000000 		.4byte	0
 19498 14e8 00000000 		.4byte	0
 19499              	.LLST28:
 19500 14ec 00000000 		.4byte	.LVL104
 19501 14f0 1E000000 		.4byte	.LVL105
 19502 14f4 0100     		.2byte	0x1
 19503 14f6 52       		.byte	0x52
 19504 14f7 1E000000 		.4byte	.LVL105
 19505 14fb 2C000000 		.4byte	.LVL107
 19506 14ff 0700     		.2byte	0x7
ARM GAS  C:\Users\JEANCO~1\AppData\Local\Temp\ccxhVNGN.s 			page 344


 19507 1501 7C       		.byte	0x7c
 19508 1502 00       		.sleb128 0
 19509 1503 32       		.byte	0x32
 19510 1504 24       		.byte	0x24
 19511 1505 75       		.byte	0x75
 19512 1506 00       		.sleb128 0
 19513 1507 22       		.byte	0x22
 19514 1508 2C000000 		.4byte	.LVL107
 19515 150c 44000000 		.4byte	.LFE295
 19516 1510 0400     		.2byte	0x4
 19517 1512 F3       		.byte	0xf3
 19518 1513 01       		.uleb128 0x1
 19519 1514 52       		.byte	0x52
 19520 1515 9F       		.byte	0x9f
 19521 1516 00000000 		.4byte	0
 19522 151a 00000000 		.4byte	0
 19523              	.LLST29:
 19524 151e 00000000 		.4byte	.LVL104
 19525 1522 30000000 		.4byte	.LVL108
 19526 1526 0100     		.2byte	0x1
 19527 1528 53       		.byte	0x53
 19528 1529 30000000 		.4byte	.LVL108
 19529 152d 44000000 		.4byte	.LFE295
 19530 1531 0400     		.2byte	0x4
 19531 1533 F3       		.byte	0xf3
 19532 1534 01       		.uleb128 0x1
 19533 1535 53       		.byte	0x53
 19534 1536 9F       		.byte	0x9f
 19535 1537 00000000 		.4byte	0
 19536 153b 00000000 		.4byte	0
 19537              	.LLST30:
 19538 153f 00000000 		.4byte	.LVL104
 19539 1543 38000000 		.4byte	.LVL109
 19540 1547 0200     		.2byte	0x2
 19541 1549 91       		.byte	0x91
 19542 154a 00       		.sleb128 0
 19543 154b 38000000 		.4byte	.LVL109
 19544 154f 44000000 		.4byte	.LFE295
 19545 1553 0200     		.2byte	0x2
 19546 1555 91       		.byte	0x91
 19547 1556 00       		.sleb128 0
 19548 1557 00000000 		.4byte	0
 19549 155b 00000000 		.4byte	0
 19550              	.LLST31:
 19551 155f 00000000 		.4byte	.LVL111
 19552 1563 0E000000 		.4byte	.LVL112
 19553 1567 0100     		.2byte	0x1
 19554 1569 51       		.byte	0x51
 19555 156a 0E000000 		.4byte	.LVL112
 19556 156e 1A000000 		.4byte	.LVL114
 19557 1572 0300     		.2byte	0x3
 19558 1574 71       		.byte	0x71
 19559 1575 58       		.sleb128 -40
 19560 1576 9F       		.byte	0x9f
 19561 1577 1A000000 		.4byte	.LVL114
 19562 157b 64000000 		.4byte	.LFE296
 19563 157f 0400     		.2byte	0x4
ARM GAS  C:\Users\JEANCO~1\AppData\Local\Temp\ccxhVNGN.s 			page 345


 19564 1581 F3       		.byte	0xf3
 19565 1582 01       		.uleb128 0x1
 19566 1583 51       		.byte	0x51
 19567 1584 9F       		.byte	0x9f
 19568 1585 00000000 		.4byte	0
 19569 1589 00000000 		.4byte	0
 19570              	.LLST32:
 19571 158d 10000000 		.4byte	.LVL113
 19572 1591 1A000000 		.4byte	.LVL114
 19573 1595 0600     		.2byte	0x6
 19574 1597 9E       		.byte	0x9e
 19575 1598 04       		.uleb128 0x4
 19576 1599 0000C842 		.4byte	0x42c80000
 19577 159d 1A000000 		.4byte	.LVL114
 19578 15a1 4A000000 		.4byte	.LVL121
 19579 15a5 0200     		.2byte	0x2
 19580 15a7 90       		.byte	0x90
 19581 15a8 4E       		.uleb128 0x4e
 19582 15a9 00000000 		.4byte	0
 19583 15ad 00000000 		.4byte	0
 19584              	.LLST33:
 19585 15b1 10000000 		.4byte	.LVL113
 19586 15b5 1A000000 		.4byte	.LVL114
 19587 15b9 0300     		.2byte	0x3
 19588 15bb 09       		.byte	0x9
 19589 15bc FF       		.byte	0xff
 19590 15bd 9F       		.byte	0x9f
 19591 15be 1A000000 		.4byte	.LVL114
 19592 15c2 34000000 		.4byte	.LVL115
 19593 15c6 0100     		.2byte	0x1
 19594 15c8 52       		.byte	0x52
 19595 15c9 3A000000 		.4byte	.LVL116
 19596 15cd 59000000 		.4byte	.LVL122-1
 19597 15d1 0100     		.2byte	0x1
 19598 15d3 52       		.byte	0x52
 19599 15d4 59000000 		.4byte	.LVL122-1
 19600 15d8 64000000 		.4byte	.LFE296
 19601 15dc 0500     		.2byte	0x5
 19602 15de F3       		.byte	0xf3
 19603 15df 01       		.uleb128 0x1
 19604 15e0 50       		.byte	0x50
 19605 15e1 23       		.byte	0x23
 19606 15e2 04       		.uleb128 0x4
 19607 15e3 00000000 		.4byte	0
 19608 15e7 00000000 		.4byte	0
 19609              	.LLST34:
 19610 15eb 10000000 		.4byte	.LVL113
 19611 15ef 40000000 		.4byte	.LVL118
 19612 15f3 0800     		.2byte	0x8
 19613 15f5 30       		.byte	0x30
 19614 15f6 9F       		.byte	0x9f
 19615 15f7 93       		.byte	0x93
 19616 15f8 04       		.uleb128 0x4
 19617 15f9 30       		.byte	0x30
 19618 15fa 9F       		.byte	0x9f
 19619 15fb 93       		.byte	0x93
 19620 15fc 04       		.uleb128 0x4
ARM GAS  C:\Users\JEANCO~1\AppData\Local\Temp\ccxhVNGN.s 			page 346


 19621 15fd 40000000 		.4byte	.LVL118
 19622 1601 46000000 		.4byte	.LVL120
 19623 1605 0D00     		.2byte	0xd
 19624 1607 F5       		.byte	0xf5
 19625 1608 4E       		.uleb128 0x4e
 19626 1609 25       		.uleb128 0x25
 19627 160a F7       		.byte	0xf7
 19628 160b 2C       		.uleb128 0x2c
 19629 160c F7       		.byte	0xf7
 19630 160d 00       		.uleb128 0
 19631 160e 9F       		.byte	0x9f
 19632 160f 93       		.byte	0x93
 19633 1610 04       		.uleb128 0x4
 19634 1611 52       		.byte	0x52
 19635 1612 93       		.byte	0x93
 19636 1613 04       		.uleb128 0x4
 19637 1614 00000000 		.4byte	0
 19638 1618 00000000 		.4byte	0
 19639              	.LLST35:
 19640 161c 10000000 		.4byte	.LVL113
 19641 1620 1A000000 		.4byte	.LVL114
 19642 1624 0200     		.2byte	0x2
 19643 1626 3A       		.byte	0x3a
 19644 1627 9F       		.byte	0x9f
 19645 1628 1A000000 		.4byte	.LVL114
 19646 162c 44000000 		.4byte	.LVL119
 19647 1630 0100     		.2byte	0x1
 19648 1632 53       		.byte	0x53
 19649 1633 00000000 		.4byte	0
 19650 1637 00000000 		.4byte	0
 19651              	.LLST36:
 19652 163b 00000000 		.4byte	.LVL126
 19653 163f 17000000 		.4byte	.LVL127-1
 19654 1643 0100     		.2byte	0x1
 19655 1645 51       		.byte	0x51
 19656 1646 17000000 		.4byte	.LVL127-1
 19657 164a 26000000 		.4byte	.LVL129
 19658 164e 0400     		.2byte	0x4
 19659 1650 F3       		.byte	0xf3
 19660 1651 01       		.uleb128 0x1
 19661 1652 51       		.byte	0x51
 19662 1653 9F       		.byte	0x9f
 19663 1654 26000000 		.4byte	.LVL129
 19664 1658 30000000 		.4byte	.LVL130
 19665 165c 0100     		.2byte	0x1
 19666 165e 51       		.byte	0x51
 19667 165f 30000000 		.4byte	.LVL130
 19668 1663 68000000 		.4byte	.LVL138
 19669 1667 0400     		.2byte	0x4
 19670 1669 F3       		.byte	0xf3
 19671 166a 01       		.uleb128 0x1
 19672 166b 51       		.byte	0x51
 19673 166c 9F       		.byte	0x9f
 19674 166d 68000000 		.4byte	.LVL138
 19675 1671 72000000 		.4byte	.LVL139
 19676 1675 0100     		.2byte	0x1
 19677 1677 51       		.byte	0x51
ARM GAS  C:\Users\JEANCO~1\AppData\Local\Temp\ccxhVNGN.s 			page 347


 19678 1678 72000000 		.4byte	.LVL139
 19679 167c C0000000 		.4byte	.LFE298
 19680 1680 0400     		.2byte	0x4
 19681 1682 F3       		.byte	0xf3
 19682 1683 01       		.uleb128 0x1
 19683 1684 51       		.byte	0x51
 19684 1685 9F       		.byte	0x9f
 19685 1686 00000000 		.4byte	0
 19686 168a 00000000 		.4byte	0
 19687              	.LLST38:
 19688 168e 00000000 		.4byte	.LVL166
 19689 1692 17000000 		.4byte	.LVL168-1
 19690 1696 0100     		.2byte	0x1
 19691 1698 50       		.byte	0x50
 19692 1699 17000000 		.4byte	.LVL168-1
 19693 169d 36000000 		.4byte	.LVL169
 19694 16a1 0100     		.2byte	0x1
 19695 16a3 56       		.byte	0x56
 19696 16a4 36000000 		.4byte	.LVL169
 19697 16a8 3A000000 		.4byte	.LVL170
 19698 16ac 0400     		.2byte	0x4
 19699 16ae F3       		.byte	0xf3
 19700 16af 01       		.uleb128 0x1
 19701 16b0 50       		.byte	0x50
 19702 16b1 9F       		.byte	0x9f
 19703 16b2 3A000000 		.4byte	.LVL170
 19704 16b6 58000000 		.4byte	.LVL171
 19705 16ba 0100     		.2byte	0x1
 19706 16bc 56       		.byte	0x56
 19707 16bd 58000000 		.4byte	.LVL171
 19708 16c1 5C000000 		.4byte	.LVL172
 19709 16c5 0400     		.2byte	0x4
 19710 16c7 F3       		.byte	0xf3
 19711 16c8 01       		.uleb128 0x1
 19712 16c9 50       		.byte	0x50
 19713 16ca 9F       		.byte	0x9f
 19714 16cb 5C000000 		.4byte	.LVL172
 19715 16cf 7C000000 		.4byte	.LVL174
 19716 16d3 0100     		.2byte	0x1
 19717 16d5 56       		.byte	0x56
 19718 16d6 7C000000 		.4byte	.LVL174
 19719 16da 80000000 		.4byte	.LVL175
 19720 16de 0400     		.2byte	0x4
 19721 16e0 F3       		.byte	0xf3
 19722 16e1 01       		.uleb128 0x1
 19723 16e2 50       		.byte	0x50
 19724 16e3 9F       		.byte	0x9f
 19725 16e4 80000000 		.4byte	.LVL175
 19726 16e8 88000000 		.4byte	.LFE300
 19727 16ec 0100     		.2byte	0x1
 19728 16ee 56       		.byte	0x56
 19729 16ef 00000000 		.4byte	0
 19730 16f3 00000000 		.4byte	0
 19731              	.LLST39:
 19732 16f7 00000000 		.4byte	.LVL166
 19733 16fb 0E000000 		.4byte	.LVL167
 19734 16ff 0100     		.2byte	0x1
ARM GAS  C:\Users\JEANCO~1\AppData\Local\Temp\ccxhVNGN.s 			page 348


 19735 1701 51       		.byte	0x51
 19736 1702 0E000000 		.4byte	.LVL167
 19737 1706 36000000 		.4byte	.LVL169
 19738 170a 0100     		.2byte	0x1
 19739 170c 54       		.byte	0x54
 19740 170d 36000000 		.4byte	.LVL169
 19741 1711 3A000000 		.4byte	.LVL170
 19742 1715 0400     		.2byte	0x4
 19743 1717 F3       		.byte	0xf3
 19744 1718 01       		.uleb128 0x1
 19745 1719 51       		.byte	0x51
 19746 171a 9F       		.byte	0x9f
 19747 171b 3A000000 		.4byte	.LVL170
 19748 171f 58000000 		.4byte	.LVL171
 19749 1723 0100     		.2byte	0x1
 19750 1725 54       		.byte	0x54
 19751 1726 58000000 		.4byte	.LVL171
 19752 172a 5C000000 		.4byte	.LVL172
 19753 172e 0400     		.2byte	0x4
 19754 1730 F3       		.byte	0xf3
 19755 1731 01       		.uleb128 0x1
 19756 1732 51       		.byte	0x51
 19757 1733 9F       		.byte	0x9f
 19758 1734 5C000000 		.4byte	.LVL172
 19759 1738 7C000000 		.4byte	.LVL174
 19760 173c 0100     		.2byte	0x1
 19761 173e 54       		.byte	0x54
 19762 173f 7C000000 		.4byte	.LVL174
 19763 1743 80000000 		.4byte	.LVL175
 19764 1747 0400     		.2byte	0x4
 19765 1749 F3       		.byte	0xf3
 19766 174a 01       		.uleb128 0x1
 19767 174b 51       		.byte	0x51
 19768 174c 9F       		.byte	0x9f
 19769 174d 80000000 		.4byte	.LVL175
 19770 1751 88000000 		.4byte	.LFE300
 19771 1755 0100     		.2byte	0x1
 19772 1757 54       		.byte	0x54
 19773 1758 00000000 		.4byte	0
 19774 175c 00000000 		.4byte	0
 19775              	.LLST40:
 19776 1760 00000000 		.4byte	.LVL166
 19777 1764 17000000 		.4byte	.LVL168-1
 19778 1768 0100     		.2byte	0x1
 19779 176a 52       		.byte	0x52
 19780 176b 17000000 		.4byte	.LVL168-1
 19781 176f 36000000 		.4byte	.LVL169
 19782 1773 0100     		.2byte	0x1
 19783 1775 57       		.byte	0x57
 19784 1776 36000000 		.4byte	.LVL169
 19785 177a 3A000000 		.4byte	.LVL170
 19786 177e 0400     		.2byte	0x4
 19787 1780 F3       		.byte	0xf3
 19788 1781 01       		.uleb128 0x1
 19789 1782 52       		.byte	0x52
 19790 1783 9F       		.byte	0x9f
 19791 1784 3A000000 		.4byte	.LVL170
ARM GAS  C:\Users\JEANCO~1\AppData\Local\Temp\ccxhVNGN.s 			page 349


 19792 1788 58000000 		.4byte	.LVL171
 19793 178c 0100     		.2byte	0x1
 19794 178e 57       		.byte	0x57
 19795 178f 58000000 		.4byte	.LVL171
 19796 1793 5C000000 		.4byte	.LVL172
 19797 1797 0400     		.2byte	0x4
 19798 1799 F3       		.byte	0xf3
 19799 179a 01       		.uleb128 0x1
 19800 179b 52       		.byte	0x52
 19801 179c 9F       		.byte	0x9f
 19802 179d 5C000000 		.4byte	.LVL172
 19803 17a1 7C000000 		.4byte	.LVL174
 19804 17a5 0100     		.2byte	0x1
 19805 17a7 57       		.byte	0x57
 19806 17a8 7C000000 		.4byte	.LVL174
 19807 17ac 80000000 		.4byte	.LVL175
 19808 17b0 0400     		.2byte	0x4
 19809 17b2 F3       		.byte	0xf3
 19810 17b3 01       		.uleb128 0x1
 19811 17b4 52       		.byte	0x52
 19812 17b5 9F       		.byte	0x9f
 19813 17b6 80000000 		.4byte	.LVL175
 19814 17ba 88000000 		.4byte	.LFE300
 19815 17be 0100     		.2byte	0x1
 19816 17c0 57       		.byte	0x57
 19817 17c1 00000000 		.4byte	0
 19818 17c5 00000000 		.4byte	0
 19819              	.LLST41:
 19820 17c9 00000000 		.4byte	.LVL166
 19821 17cd 17000000 		.4byte	.LVL168-1
 19822 17d1 0100     		.2byte	0x1
 19823 17d3 53       		.byte	0x53
 19824 17d4 17000000 		.4byte	.LVL168-1
 19825 17d8 36000000 		.4byte	.LVL169
 19826 17dc 0100     		.2byte	0x1
 19827 17de 58       		.byte	0x58
 19828 17df 36000000 		.4byte	.LVL169
 19829 17e3 3A000000 		.4byte	.LVL170
 19830 17e7 0400     		.2byte	0x4
 19831 17e9 F3       		.byte	0xf3
 19832 17ea 01       		.uleb128 0x1
 19833 17eb 53       		.byte	0x53
 19834 17ec 9F       		.byte	0x9f
 19835 17ed 3A000000 		.4byte	.LVL170
 19836 17f1 58000000 		.4byte	.LVL171
 19837 17f5 0100     		.2byte	0x1
 19838 17f7 58       		.byte	0x58
 19839 17f8 58000000 		.4byte	.LVL171
 19840 17fc 5C000000 		.4byte	.LVL172
 19841 1800 0400     		.2byte	0x4
 19842 1802 F3       		.byte	0xf3
 19843 1803 01       		.uleb128 0x1
 19844 1804 53       		.byte	0x53
 19845 1805 9F       		.byte	0x9f
 19846 1806 5C000000 		.4byte	.LVL172
 19847 180a 7C000000 		.4byte	.LVL174
 19848 180e 0100     		.2byte	0x1
ARM GAS  C:\Users\JEANCO~1\AppData\Local\Temp\ccxhVNGN.s 			page 350


 19849 1810 58       		.byte	0x58
 19850 1811 7C000000 		.4byte	.LVL174
 19851 1815 80000000 		.4byte	.LVL175
 19852 1819 0400     		.2byte	0x4
 19853 181b F3       		.byte	0xf3
 19854 181c 01       		.uleb128 0x1
 19855 181d 53       		.byte	0x53
 19856 181e 9F       		.byte	0x9f
 19857 181f 80000000 		.4byte	.LVL175
 19858 1823 88000000 		.4byte	.LFE300
 19859 1827 0100     		.2byte	0x1
 19860 1829 58       		.byte	0x58
 19861 182a 00000000 		.4byte	0
 19862 182e 00000000 		.4byte	0
 19863              	.LLST42:
 19864 1832 5C000000 		.4byte	.LVL172
 19865 1836 6A000000 		.4byte	.LVL173
 19866 183a 0100     		.2byte	0x1
 19867 183c 56       		.byte	0x56
 19868 183d 00000000 		.4byte	0
 19869 1841 00000000 		.4byte	0
 19870              	.LLST43:
 19871 1845 5C000000 		.4byte	.LVL172
 19872 1849 6A000000 		.4byte	.LVL173
 19873 184d 0100     		.2byte	0x1
 19874 184f 54       		.byte	0x54
 19875 1850 00000000 		.4byte	0
 19876 1854 00000000 		.4byte	0
 19877              	.LLST44:
 19878 1858 5C000000 		.4byte	.LVL172
 19879 185c 6A000000 		.4byte	.LVL173
 19880 1860 0100     		.2byte	0x1
 19881 1862 57       		.byte	0x57
 19882 1863 00000000 		.4byte	0
 19883 1867 00000000 		.4byte	0
 19884              	.LLST45:
 19885 186b 5C000000 		.4byte	.LVL172
 19886 186f 6A000000 		.4byte	.LVL173
 19887 1873 0100     		.2byte	0x1
 19888 1875 58       		.byte	0x58
 19889 1876 00000000 		.4byte	0
 19890 187a 00000000 		.4byte	0
 19891              	.LLST74:
 19892 187e 00000000 		.4byte	.LVL252
 19893 1882 18000000 		.4byte	.LVL254
 19894 1886 0200     		.2byte	0x2
 19895 1888 90       		.byte	0x90
 19896 1889 40       		.uleb128 0x40
 19897 188a 18000000 		.4byte	.LVL254
 19898 188e A0000000 		.4byte	.LFE305
 19899 1892 0600     		.2byte	0x6
 19900 1894 F3       		.byte	0xf3
 19901 1895 03       		.uleb128 0x3
 19902 1896 F5       		.byte	0xf5
 19903 1897 40       		.uleb128 0x40
 19904 1898 25       		.uleb128 0x25
 19905 1899 9F       		.byte	0x9f
ARM GAS  C:\Users\JEANCO~1\AppData\Local\Temp\ccxhVNGN.s 			page 351


 19906 189a 00000000 		.4byte	0
 19907 189e 00000000 		.4byte	0
 19908              	.LLST75:
 19909 18a2 00000000 		.4byte	.LVL252
 19910 18a6 5C000000 		.4byte	.LVL256
 19911 18aa 0200     		.2byte	0x2
 19912 18ac 90       		.byte	0x90
 19913 18ad 41       		.uleb128 0x41
 19914 18ae 5C000000 		.4byte	.LVL256
 19915 18b2 6C000000 		.4byte	.LVL259
 19916 18b6 0600     		.2byte	0x6
 19917 18b8 F3       		.byte	0xf3
 19918 18b9 03       		.uleb128 0x3
 19919 18ba F5       		.byte	0xf5
 19920 18bb 41       		.uleb128 0x41
 19921 18bc 25       		.uleb128 0x25
 19922 18bd 9F       		.byte	0x9f
 19923 18be 6C000000 		.4byte	.LVL259
 19924 18c2 6E000000 		.4byte	.LVL260
 19925 18c6 0200     		.2byte	0x2
 19926 18c8 90       		.byte	0x90
 19927 18c9 41       		.uleb128 0x41
 19928 18ca 6E000000 		.4byte	.LVL260
 19929 18ce 7C000000 		.4byte	.LVL261
 19930 18d2 0600     		.2byte	0x6
 19931 18d4 F3       		.byte	0xf3
 19932 18d5 03       		.uleb128 0x3
 19933 18d6 F5       		.byte	0xf5
 19934 18d7 41       		.uleb128 0x41
 19935 18d8 25       		.uleb128 0x25
 19936 18d9 9F       		.byte	0x9f
 19937 18da 7C000000 		.4byte	.LVL261
 19938 18de 82000000 		.4byte	.LVL262
 19939 18e2 0200     		.2byte	0x2
 19940 18e4 90       		.byte	0x90
 19941 18e5 41       		.uleb128 0x41
 19942 18e6 82000000 		.4byte	.LVL262
 19943 18ea A0000000 		.4byte	.LFE305
 19944 18ee 0600     		.2byte	0x6
 19945 18f0 F3       		.byte	0xf3
 19946 18f1 03       		.uleb128 0x3
 19947 18f2 F5       		.byte	0xf5
 19948 18f3 41       		.uleb128 0x41
 19949 18f4 25       		.uleb128 0x25
 19950 18f5 9F       		.byte	0x9f
 19951 18f6 00000000 		.4byte	0
 19952 18fa 00000000 		.4byte	0
 19953              	.LLST76:
 19954 18fe 0E000000 		.4byte	.LVL253
 19955 1902 18000000 		.4byte	.LVL254
 19956 1906 0600     		.2byte	0x6
 19957 1908 9E       		.byte	0x9e
 19958 1909 04       		.uleb128 0x4
 19959 190a 00000000 		.4byte	0
 19960 190e 18000000 		.4byte	.LVL254
 19961 1912 60000000 		.4byte	.LVL257
 19962 1916 0200     		.2byte	0x2
ARM GAS  C:\Users\JEANCO~1\AppData\Local\Temp\ccxhVNGN.s 			page 352


 19963 1918 90       		.byte	0x90
 19964 1919 40       		.uleb128 0x40
 19965 191a 60000000 		.4byte	.LVL257
 19966 191e 6C000000 		.4byte	.LVL259
 19967 1922 0C00     		.2byte	0xc
 19968 1924 F3       		.byte	0xf3
 19969 1925 03       		.uleb128 0x3
 19970 1926 F5       		.byte	0xf5
 19971 1927 40       		.uleb128 0x40
 19972 1928 25       		.uleb128 0x25
 19973 1929 F3       		.byte	0xf3
 19974 192a 03       		.uleb128 0x3
 19975 192b F5       		.byte	0xf5
 19976 192c 41       		.uleb128 0x41
 19977 192d 25       		.uleb128 0x25
 19978 192e 1C       		.byte	0x1c
 19979 192f 9F       		.byte	0x9f
 19980 1930 7C000000 		.4byte	.LVL261
 19981 1934 82000000 		.4byte	.LVL262
 19982 1938 0200     		.2byte	0x2
 19983 193a 90       		.byte	0x90
 19984 193b 40       		.uleb128 0x40
 19985 193c 00000000 		.4byte	0
 19986 1940 00000000 		.4byte	0
 19987              	.LLST77:
 19988 1944 0E000000 		.4byte	.LVL253
 19989 1948 58000000 		.4byte	.LVL255
 19990 194c 0600     		.2byte	0x6
 19991 194e 9E       		.byte	0x9e
 19992 194f 04       		.uleb128 0x4
 19993 1950 00000000 		.4byte	0
 19994 1954 58000000 		.4byte	.LVL255
 19995 1958 60000000 		.4byte	.LVL257
 19996 195c 0C00     		.2byte	0xc
 19997 195e F5       		.byte	0xf5
 19998 195f 40       		.uleb128 0x40
 19999 1960 25       		.uleb128 0x25
 20000 1961 F4       		.byte	0xf4
 20001 1962 25       		.uleb128 0x25
 20002 1963 04       		.byte	0x4
 20003 1964 00409C46 		.4byte	0x469c4000
 20004 1968 1E       		.byte	0x1e
 20005 1969 9F       		.byte	0x9f
 20006 196a 60000000 		.4byte	.LVL257
 20007 196e 64000000 		.4byte	.LVL258
 20008 1972 0200     		.2byte	0x2
 20009 1974 90       		.byte	0x90
 20010 1975 40       		.uleb128 0x40
 20011 1976 64000000 		.4byte	.LVL258
 20012 197a 6C000000 		.4byte	.LVL259
 20013 197e 1400     		.2byte	0x14
 20014 1980 F3       		.byte	0xf3
 20015 1981 03       		.uleb128 0x3
 20016 1982 F5       		.byte	0xf5
 20017 1983 40       		.uleb128 0x40
 20018 1984 25       		.uleb128 0x25
 20019 1985 F3       		.byte	0xf3
ARM GAS  C:\Users\JEANCO~1\AppData\Local\Temp\ccxhVNGN.s 			page 353


 20020 1986 03       		.uleb128 0x3
 20021 1987 F5       		.byte	0xf5
 20022 1988 41       		.uleb128 0x41
 20023 1989 25       		.uleb128 0x25
 20024 198a 1C       		.byte	0x1c
 20025 198b F4       		.byte	0xf4
 20026 198c 25       		.uleb128 0x25
 20027 198d 04       		.byte	0x4
 20028 198e 00409C46 		.4byte	0x469c4000
 20029 1992 1E       		.byte	0x1e
 20030 1993 9F       		.byte	0x9f
 20031 1994 6C000000 		.4byte	.LVL259
 20032 1998 6E000000 		.4byte	.LVL260
 20033 199c 0600     		.2byte	0x6
 20034 199e 9E       		.byte	0x9e
 20035 199f 04       		.uleb128 0x4
 20036 19a0 00000000 		.4byte	0
 20037 19a4 7C000000 		.4byte	.LVL261
 20038 19a8 82000000 		.4byte	.LVL262
 20039 19ac 0600     		.2byte	0x6
 20040 19ae 9E       		.byte	0x9e
 20041 19af 04       		.uleb128 0x4
 20042 19b0 00000000 		.4byte	0
 20043 19b4 00000000 		.4byte	0
 20044 19b8 00000000 		.4byte	0
 20045              	.LLST82:
 20046 19bc 00000000 		.4byte	.LVL298
 20047 19c0 2C000000 		.4byte	.LVL301
 20048 19c4 0100     		.2byte	0x1
 20049 19c6 50       		.byte	0x50
 20050 19c7 2C000000 		.4byte	.LVL301
 20051 19cb 40000000 		.4byte	.LVL302
 20052 19cf 0400     		.2byte	0x4
 20053 19d1 F3       		.byte	0xf3
 20054 19d2 01       		.uleb128 0x1
 20055 19d3 50       		.byte	0x50
 20056 19d4 9F       		.byte	0x9f
 20057 19d5 40000000 		.4byte	.LVL302
 20058 19d9 50000000 		.4byte	.LVL304
 20059 19dd 0100     		.2byte	0x1
 20060 19df 50       		.byte	0x50
 20061 19e0 50000000 		.4byte	.LVL304
 20062 19e4 58000000 		.4byte	.LVL305
 20063 19e8 0400     		.2byte	0x4
 20064 19ea F3       		.byte	0xf3
 20065 19eb 01       		.uleb128 0x1
 20066 19ec 50       		.byte	0x50
 20067 19ed 9F       		.byte	0x9f
 20068 19ee 58000000 		.4byte	.LVL305
 20069 19f2 5A000000 		.4byte	.LVL306
 20070 19f6 0100     		.2byte	0x1
 20071 19f8 50       		.byte	0x50
 20072 19f9 5A000000 		.4byte	.LVL306
 20073 19fd 64000000 		.4byte	.LVL307
 20074 1a01 0400     		.2byte	0x4
 20075 1a03 F3       		.byte	0xf3
 20076 1a04 01       		.uleb128 0x1
ARM GAS  C:\Users\JEANCO~1\AppData\Local\Temp\ccxhVNGN.s 			page 354


 20077 1a05 50       		.byte	0x50
 20078 1a06 9F       		.byte	0x9f
 20079 1a07 64000000 		.4byte	.LVL307
 20080 1a0b 72000000 		.4byte	.LVL308
 20081 1a0f 0100     		.2byte	0x1
 20082 1a11 50       		.byte	0x50
 20083 1a12 72000000 		.4byte	.LVL308
 20084 1a16 A8000000 		.4byte	.LFE309
 20085 1a1a 0400     		.2byte	0x4
 20086 1a1c F3       		.byte	0xf3
 20087 1a1d 01       		.uleb128 0x1
 20088 1a1e 50       		.byte	0x50
 20089 1a1f 9F       		.byte	0x9f
 20090 1a20 00000000 		.4byte	0
 20091 1a24 00000000 		.4byte	0
 20092              	.LLST83:
 20093 1a28 16000000 		.4byte	.LVL299
 20094 1a2c 2A000000 		.4byte	.LVL300
 20095 1a30 0100     		.2byte	0x1
 20096 1a32 50       		.byte	0x50
 20097 1a33 4E000000 		.4byte	.LVL303
 20098 1a37 50000000 		.4byte	.LVL304
 20099 1a3b 0100     		.2byte	0x1
 20100 1a3d 50       		.byte	0x50
 20101 1a3e 50000000 		.4byte	.LVL304
 20102 1a42 58000000 		.4byte	.LVL305
 20103 1a46 0400     		.2byte	0x4
 20104 1a48 F3       		.byte	0xf3
 20105 1a49 01       		.uleb128 0x1
 20106 1a4a 50       		.byte	0x50
 20107 1a4b 9F       		.byte	0x9f
 20108 1a4c 64000000 		.4byte	.LVL307
 20109 1a50 72000000 		.4byte	.LVL308
 20110 1a54 0100     		.2byte	0x1
 20111 1a56 50       		.byte	0x50
 20112 1a57 72000000 		.4byte	.LVL308
 20113 1a5b 7C000000 		.4byte	.LVL309
 20114 1a5f 0400     		.2byte	0x4
 20115 1a61 F3       		.byte	0xf3
 20116 1a62 01       		.uleb128 0x1
 20117 1a63 50       		.byte	0x50
 20118 1a64 9F       		.byte	0x9f
 20119 1a65 00000000 		.4byte	0
 20120 1a69 00000000 		.4byte	0
 20121              		.section	.debug_aranges,"",%progbits
 20122 0000 BC000000 		.4byte	0xbc
 20123 0004 0200     		.2byte	0x2
 20124 0006 00000000 		.4byte	.Ldebug_info0
 20125 000a 04       		.byte	0x4
 20126 000b 00       		.byte	0
 20127 000c 0000     		.2byte	0
 20128 000e 0000     		.2byte	0
 20129 0010 00000000 		.4byte	.LFB310
 20130 0014 BC000000 		.4byte	.LFE310-.LFB310
 20131 0018 00000000 		.4byte	.LFB290
 20132 001c C0000000 		.4byte	.LFE290-.LFB290
 20133 0020 00000000 		.4byte	.LFB292
ARM GAS  C:\Users\JEANCO~1\AppData\Local\Temp\ccxhVNGN.s 			page 355


 20134 0024 78000000 		.4byte	.LFE292-.LFB292
 20135 0028 00000000 		.4byte	.LFB293
 20136 002c A4010000 		.4byte	.LFE293-.LFB293
 20137 0030 00000000 		.4byte	.LFB294
 20138 0034 44000000 		.4byte	.LFE294-.LFB294
 20139 0038 00000000 		.4byte	.LFB295
 20140 003c 44000000 		.4byte	.LFE295-.LFB295
 20141 0040 00000000 		.4byte	.LFB296
 20142 0044 64000000 		.4byte	.LFE296-.LFB296
 20143 0048 00000000 		.4byte	.LFB297
 20144 004c 2C000000 		.4byte	.LFE297-.LFB297
 20145 0050 00000000 		.4byte	.LFB298
 20146 0054 C0000000 		.4byte	.LFE298-.LFB298
 20147 0058 00000000 		.4byte	.LFB299
 20148 005c 80000000 		.4byte	.LFE299-.LFB299
 20149 0060 00000000 		.4byte	.LFB300
 20150 0064 88000000 		.4byte	.LFE300-.LFB300
 20151 0068 00000000 		.4byte	.LFB291
 20152 006c 2C030000 		.4byte	.LFE291-.LFB291
 20153 0070 00000000 		.4byte	.LFB301
 20154 0074 20000000 		.4byte	.LFE301-.LFB301
 20155 0078 00000000 		.4byte	.LFB302
 20156 007c 40000000 		.4byte	.LFE302-.LFB302
 20157 0080 00000000 		.4byte	.LFB303
 20158 0084 28000000 		.4byte	.LFE303-.LFB303
 20159 0088 00000000 		.4byte	.LFB304
 20160 008c 28000000 		.4byte	.LFE304-.LFB304
 20161 0090 00000000 		.4byte	.LFB305
 20162 0094 A0000000 		.4byte	.LFE305-.LFB305
 20163 0098 00000000 		.4byte	.LFB307
 20164 009c 38000000 		.4byte	.LFE307-.LFB307
 20165 00a0 00000000 		.4byte	.LFB308
 20166 00a4 08010000 		.4byte	.LFE308-.LFB308
 20167 00a8 00000000 		.4byte	.LFB309
 20168 00ac A8000000 		.4byte	.LFE309-.LFB309
 20169 00b0 00000000 		.4byte	.LFB306
 20170 00b4 40030000 		.4byte	.LFE306-.LFB306
 20171 00b8 00000000 		.4byte	0
 20172 00bc 00000000 		.4byte	0
 20173              		.section	.debug_ranges,"",%progbits
 20174              	.Ldebug_ranges0:
 20175 0000 26000000 		.4byte	.LBB152
 20176 0004 68000000 		.4byte	.LBE152
 20177 0008 9C000000 		.4byte	.LBB159
 20178 000c A8000000 		.4byte	.LBE159
 20179 0010 00000000 		.4byte	0
 20180 0014 00000000 		.4byte	0
 20181 0018 04000000 		.4byte	.LBB161
 20182 001c 06000000 		.4byte	.LBE161
 20183 0020 0C000000 		.4byte	.LBB162
 20184 0024 0E000000 		.4byte	.LBE162
 20185 0028 10000000 		.4byte	.LBB163
 20186 002c 1E000000 		.4byte	.LBE163
 20187 0030 22000000 		.4byte	.LBB164
 20188 0034 24000000 		.4byte	.LBE164
 20189 0038 00000000 		.4byte	0
 20190 003c 00000000 		.4byte	0
ARM GAS  C:\Users\JEANCO~1\AppData\Local\Temp\ccxhVNGN.s 			page 356


 20191 0040 0A000000 		.4byte	.LBB166
 20192 0044 14000000 		.4byte	.LBE166
 20193 0048 1A000000 		.4byte	.LBB169
 20194 004c 2C000000 		.4byte	.LBE169
 20195 0050 00000000 		.4byte	0
 20196 0054 00000000 		.4byte	0
 20197 0058 28000000 		.4byte	.LBB170
 20198 005c 6A000000 		.4byte	.LBE170
 20199 0060 9E000000 		.4byte	.LBB177
 20200 0064 AA000000 		.4byte	.LBE177
 20201 0068 00000000 		.4byte	0
 20202 006c 00000000 		.4byte	0
 20203 0070 BC000000 		.4byte	.LBB222
 20204 0074 DE010000 		.4byte	.LBE222
 20205 0078 F4010000 		.4byte	.LBB354
 20206 007c DC020000 		.4byte	.LBE354
 20207 0080 00000000 		.4byte	0
 20208 0084 00000000 		.4byte	0
 20209 0088 28010000 		.4byte	.LBB223
 20210 008c 2C010000 		.4byte	.LBE223
 20211 0090 30010000 		.4byte	.LBB226
 20212 0094 34010000 		.4byte	.LBE226
 20213 0098 00000000 		.4byte	0
 20214 009c 00000000 		.4byte	0
 20215 00a0 34010000 		.4byte	.LBB227
 20216 00a4 38010000 		.4byte	.LBE227
 20217 00a8 3C010000 		.4byte	.LBB230
 20218 00ac 40010000 		.4byte	.LBE230
 20219 00b0 00000000 		.4byte	0
 20220 00b4 00000000 		.4byte	0
 20221 00b8 66010000 		.4byte	.LBB235
 20222 00bc 6A010000 		.4byte	.LBE235
 20223 00c0 74010000 		.4byte	.LBB242
 20224 00c4 76010000 		.4byte	.LBE242
 20225 00c8 98010000 		.4byte	.LBB243
 20226 00cc 9A010000 		.4byte	.LBE243
 20227 00d0 B8010000 		.4byte	.LBB244
 20228 00d4 BC010000 		.4byte	.LBE244
 20229 00d8 C4010000 		.4byte	.LBB245
 20230 00dc C8010000 		.4byte	.LBE245
 20231 00e0 CC010000 		.4byte	.LBB246
 20232 00e4 D0010000 		.4byte	.LBE246
 20233 00e8 00000000 		.4byte	0
 20234 00ec 00000000 		.4byte	0
 20235 00f0 FC010000 		.4byte	.LBB248
 20236 00f4 40020000 		.4byte	.LBE248
 20237 00f8 D6020000 		.4byte	.LBB353
 20238 00fc DC020000 		.4byte	.LBE353
 20239 0100 00000000 		.4byte	0
 20240 0104 00000000 		.4byte	0
 20241 0108 0A020000 		.4byte	.LBB255
 20242 010c 16020000 		.4byte	.LBE255
 20243 0110 D6020000 		.4byte	.LBB263
 20244 0114 DC020000 		.4byte	.LBE263
 20245 0118 00000000 		.4byte	0
 20246 011c 00000000 		.4byte	0
 20247 0120 40020000 		.4byte	.LBB265
ARM GAS  C:\Users\JEANCO~1\AppData\Local\Temp\ccxhVNGN.s 			page 357


 20248 0124 42020000 		.4byte	.LBE265
 20249 0128 44020000 		.4byte	.LBB284
 20250 012c 46020000 		.4byte	.LBE284
 20251 0130 48020000 		.4byte	.LBB285
 20252 0134 50020000 		.4byte	.LBE285
 20253 0138 58020000 		.4byte	.LBB327
 20254 013c 5C020000 		.4byte	.LBE327
 20255 0140 60020000 		.4byte	.LBB329
 20256 0144 66020000 		.4byte	.LBE329
 20257 0148 80020000 		.4byte	.LBB335
 20258 014c 82020000 		.4byte	.LBE335
 20259 0150 8A020000 		.4byte	.LBB339
 20260 0154 8C020000 		.4byte	.LBE339
 20261 0158 94020000 		.4byte	.LBB343
 20262 015c 96020000 		.4byte	.LBE343
 20263 0160 9C020000 		.4byte	.LBB346
 20264 0164 A0020000 		.4byte	.LBE346
 20265 0168 B0020000 		.4byte	.LBB351
 20266 016c B4020000 		.4byte	.LBE351
 20267 0170 00000000 		.4byte	0
 20268 0174 00000000 		.4byte	0
 20269 0178 40020000 		.4byte	.LBB267
 20270 017c 42020000 		.4byte	.LBE267
 20271 0180 44020000 		.4byte	.LBB268
 20272 0184 46020000 		.4byte	.LBE268
 20273 0188 48020000 		.4byte	.LBB269
 20274 018c 50020000 		.4byte	.LBE269
 20275 0190 58020000 		.4byte	.LBB270
 20276 0194 5C020000 		.4byte	.LBE270
 20277 0198 62020000 		.4byte	.LBB271
 20278 019c 66020000 		.4byte	.LBE271
 20279 01a0 80020000 		.4byte	.LBB272
 20280 01a4 82020000 		.4byte	.LBE272
 20281 01a8 8A020000 		.4byte	.LBB273
 20282 01ac 8C020000 		.4byte	.LBE273
 20283 01b0 94020000 		.4byte	.LBB274
 20284 01b4 96020000 		.4byte	.LBE274
 20285 01b8 00000000 		.4byte	0
 20286 01bc 00000000 		.4byte	0
 20287 01c0 50020000 		.4byte	.LBB286
 20288 01c4 52020000 		.4byte	.LBE286
 20289 01c8 72020000 		.4byte	.LBB332
 20290 01cc 74020000 		.4byte	.LBE332
 20291 01d0 7A020000 		.4byte	.LBB334
 20292 01d4 80020000 		.4byte	.LBE334
 20293 01d8 88020000 		.4byte	.LBB338
 20294 01dc 8A020000 		.4byte	.LBE338
 20295 01e0 8E020000 		.4byte	.LBB341
 20296 01e4 92020000 		.4byte	.LBE341
 20297 01e8 A4020000 		.4byte	.LBB348
 20298 01ec A8020000 		.4byte	.LBE348
 20299 01f0 AC020000 		.4byte	.LBB350
 20300 01f4 B0020000 		.4byte	.LBE350
 20301 01f8 00000000 		.4byte	0
 20302 01fc 00000000 		.4byte	0
 20303 0200 50020000 		.4byte	.LBB288
 20304 0204 52020000 		.4byte	.LBE288
ARM GAS  C:\Users\JEANCO~1\AppData\Local\Temp\ccxhVNGN.s 			page 358


 20305 0208 72020000 		.4byte	.LBB289
 20306 020c 74020000 		.4byte	.LBE289
 20307 0210 7A020000 		.4byte	.LBB290
 20308 0214 80020000 		.4byte	.LBE290
 20309 0218 88020000 		.4byte	.LBB291
 20310 021c 8A020000 		.4byte	.LBE291
 20311 0220 8E020000 		.4byte	.LBB292
 20312 0224 92020000 		.4byte	.LBE292
 20313 0228 00000000 		.4byte	0
 20314 022c 00000000 		.4byte	0
 20315 0230 52020000 		.4byte	.LBB299
 20316 0234 54020000 		.4byte	.LBE299
 20317 0238 5C020000 		.4byte	.LBB328
 20318 023c 60020000 		.4byte	.LBE328
 20319 0240 66020000 		.4byte	.LBB330
 20320 0244 70020000 		.4byte	.LBE330
 20321 0248 82020000 		.4byte	.LBB336
 20322 024c 84020000 		.4byte	.LBE336
 20323 0250 96020000 		.4byte	.LBB344
 20324 0254 98020000 		.4byte	.LBE344
 20325 0258 A0020000 		.4byte	.LBB347
 20326 025c A4020000 		.4byte	.LBE347
 20327 0260 B4020000 		.4byte	.LBB352
 20328 0264 B8020000 		.4byte	.LBE352
 20329 0268 00000000 		.4byte	0
 20330 026c 00000000 		.4byte	0
 20331 0270 52020000 		.4byte	.LBB301
 20332 0274 54020000 		.4byte	.LBE301
 20333 0278 5C020000 		.4byte	.LBB302
 20334 027c 60020000 		.4byte	.LBE302
 20335 0280 66020000 		.4byte	.LBB303
 20336 0284 70020000 		.4byte	.LBE303
 20337 0288 82020000 		.4byte	.LBB304
 20338 028c 84020000 		.4byte	.LBE304
 20339 0290 96020000 		.4byte	.LBB305
 20340 0294 98020000 		.4byte	.LBE305
 20341 0298 00000000 		.4byte	0
 20342 029c 00000000 		.4byte	0
 20343 02a0 54020000 		.4byte	.LBB312
 20344 02a4 58020000 		.4byte	.LBE312
 20345 02a8 70020000 		.4byte	.LBB331
 20346 02ac 72020000 		.4byte	.LBE331
 20347 02b0 74020000 		.4byte	.LBB333
 20348 02b4 7A020000 		.4byte	.LBE333
 20349 02b8 84020000 		.4byte	.LBB337
 20350 02bc 88020000 		.4byte	.LBE337
 20351 02c0 8C020000 		.4byte	.LBB340
 20352 02c4 8E020000 		.4byte	.LBE340
 20353 02c8 92020000 		.4byte	.LBB342
 20354 02cc 94020000 		.4byte	.LBE342
 20355 02d0 98020000 		.4byte	.LBB345
 20356 02d4 9C020000 		.4byte	.LBE345
 20357 02d8 A8020000 		.4byte	.LBB349
 20358 02dc AC020000 		.4byte	.LBE349
 20359 02e0 00000000 		.4byte	0
 20360 02e4 00000000 		.4byte	0
 20361 02e8 54020000 		.4byte	.LBB314
ARM GAS  C:\Users\JEANCO~1\AppData\Local\Temp\ccxhVNGN.s 			page 359


 20362 02ec 58020000 		.4byte	.LBE314
 20363 02f0 70020000 		.4byte	.LBB315
 20364 02f4 72020000 		.4byte	.LBE315
 20365 02f8 74020000 		.4byte	.LBB316
 20366 02fc 7A020000 		.4byte	.LBE316
 20367 0300 84020000 		.4byte	.LBB317
 20368 0304 88020000 		.4byte	.LBE317
 20369 0308 8C020000 		.4byte	.LBB318
 20370 030c 8E020000 		.4byte	.LBE318
 20371 0310 92020000 		.4byte	.LBB319
 20372 0314 94020000 		.4byte	.LBE319
 20373 0318 00000000 		.4byte	0
 20374 031c 00000000 		.4byte	0
 20375 0320 02000000 		.4byte	.LBB355
 20376 0324 04000000 		.4byte	.LBE355
 20377 0328 06000000 		.4byte	.LBB365
 20378 032c 0E000000 		.4byte	.LBE365
 20379 0330 14000000 		.4byte	.LBB366
 20380 0334 18000000 		.4byte	.LBE366
 20381 0338 1A000000 		.4byte	.LBB367
 20382 033c 1C000000 		.4byte	.LBE367
 20383 0340 1E000000 		.4byte	.LBB368
 20384 0344 24000000 		.4byte	.LBE368
 20385 0348 00000000 		.4byte	0
 20386 034c 00000000 		.4byte	0
 20387 0350 02000000 		.4byte	.LBB357
 20388 0354 04000000 		.4byte	.LBE357
 20389 0358 06000000 		.4byte	.LBB358
 20390 035c 0E000000 		.4byte	.LBE358
 20391 0360 14000000 		.4byte	.LBB359
 20392 0364 18000000 		.4byte	.LBE359
 20393 0368 1E000000 		.4byte	.LBB360
 20394 036c 20000000 		.4byte	.LBE360
 20395 0370 00000000 		.4byte	0
 20396 0374 00000000 		.4byte	0
 20397 0378 16000000 		.4byte	.LBB371
 20398 037c 28000000 		.4byte	.LBE371
 20399 0380 4E000000 		.4byte	.LBB375
 20400 0384 58000000 		.4byte	.LBE375
 20401 0388 64000000 		.4byte	.LBB376
 20402 038c 7C000000 		.4byte	.LBE376
 20403 0390 00000000 		.4byte	0
 20404 0394 00000000 		.4byte	0
 20405 0398 0A000000 		.4byte	.LBB418
 20406 039c 0C000000 		.4byte	.LBE418
 20407 03a0 0E000000 		.4byte	.LBB422
 20408 03a4 14000000 		.4byte	.LBE422
 20409 03a8 1C000000 		.4byte	.LBB529
 20410 03ac 1E000000 		.4byte	.LBE529
 20411 03b0 00000000 		.4byte	0
 20412 03b4 00000000 		.4byte	0
 20413 03b8 14000000 		.4byte	.LBB423
 20414 03bc 1C000000 		.4byte	.LBE423
 20415 03c0 26000000 		.4byte	.LBB530
 20416 03c4 0E020000 		.4byte	.LBE530
 20417 03c8 10020000 		.4byte	.LBB531
 20418 03cc 40030000 		.4byte	.LBE531
ARM GAS  C:\Users\JEANCO~1\AppData\Local\Temp\ccxhVNGN.s 			page 360


 20419 03d0 00000000 		.4byte	0
 20420 03d4 00000000 		.4byte	0
 20421 03d8 26000000 		.4byte	.LBB426
 20422 03dc 2C000000 		.4byte	.LBE426
 20423 03e0 2E000000 		.4byte	.LBB435
 20424 03e4 36000000 		.4byte	.LBE435
 20425 03e8 00000000 		.4byte	0
 20426 03ec 00000000 		.4byte	0
 20427 03f0 2C000000 		.4byte	.LBB432
 20428 03f4 2E000000 		.4byte	.LBE432
 20429 03f8 36000000 		.4byte	.LBB436
 20430 03fc 3A000000 		.4byte	.LBE436
 20431 0400 00000000 		.4byte	0
 20432 0404 00000000 		.4byte	0
 20433 0408 5E000000 		.4byte	.LBB442
 20434 040c 66000000 		.4byte	.LBE442
 20435 0410 6A000000 		.4byte	.LBB476
 20436 0414 6C000000 		.4byte	.LBE476
 20437 0418 88000000 		.4byte	.LBB498
 20438 041c 8C000000 		.4byte	.LBE498
 20439 0420 96000000 		.4byte	.LBB501
 20440 0424 9E000000 		.4byte	.LBE501
 20441 0428 00000000 		.4byte	0
 20442 042c 00000000 		.4byte	0
 20443 0430 5E000000 		.4byte	.LBB444
 20444 0434 66000000 		.4byte	.LBE444
 20445 0438 6A000000 		.4byte	.LBB445
 20446 043c 6C000000 		.4byte	.LBE445
 20447 0440 88000000 		.4byte	.LBB446
 20448 0444 8C000000 		.4byte	.LBE446
 20449 0448 00000000 		.4byte	0
 20450 044c 00000000 		.4byte	0
 20451 0450 66000000 		.4byte	.LBB450
 20452 0454 68000000 		.4byte	.LBE450
 20453 0458 6C000000 		.4byte	.LBB477
 20454 045c 6E000000 		.4byte	.LBE477
 20455 0460 72000000 		.4byte	.LBB479
 20456 0464 76000000 		.4byte	.LBE479
 20457 0468 78000000 		.4byte	.LBB481
 20458 046c 7A000000 		.4byte	.LBE481
 20459 0470 A2000000 		.4byte	.LBB503
 20460 0474 A4000000 		.4byte	.LBE503
 20461 0478 A6000000 		.4byte	.LBB505
 20462 047c AE000000 		.4byte	.LBE505
 20463 0480 B4000000 		.4byte	.LBB507
 20464 0484 B8000000 		.4byte	.LBE507
 20465 0488 00000000 		.4byte	0
 20466 048c 00000000 		.4byte	0
 20467 0490 66000000 		.4byte	.LBB452
 20468 0494 68000000 		.4byte	.LBE452
 20469 0498 6C000000 		.4byte	.LBB453
 20470 049c 6E000000 		.4byte	.LBE453
 20471 04a0 72000000 		.4byte	.LBB454
 20472 04a4 76000000 		.4byte	.LBE454
 20473 04a8 78000000 		.4byte	.LBB455
 20474 04ac 7A000000 		.4byte	.LBE455
 20475 04b0 A2000000 		.4byte	.LBB456
ARM GAS  C:\Users\JEANCO~1\AppData\Local\Temp\ccxhVNGN.s 			page 361


 20476 04b4 A4000000 		.4byte	.LBE456
 20477 04b8 A8000000 		.4byte	.LBB457
 20478 04bc AA000000 		.4byte	.LBE457
 20479 04c0 00000000 		.4byte	0
 20480 04c4 00000000 		.4byte	0
 20481 04c8 68000000 		.4byte	.LBB464
 20482 04cc 6A000000 		.4byte	.LBE464
 20483 04d0 6E000000 		.4byte	.LBB478
 20484 04d4 72000000 		.4byte	.LBE478
 20485 04d8 76000000 		.4byte	.LBB480
 20486 04dc 78000000 		.4byte	.LBE480
 20487 04e0 7E000000 		.4byte	.LBB495
 20488 04e4 82000000 		.4byte	.LBE495
 20489 04e8 84000000 		.4byte	.LBB497
 20490 04ec 88000000 		.4byte	.LBE497
 20491 04f0 8C000000 		.4byte	.LBB499
 20492 04f4 94000000 		.4byte	.LBE499
 20493 04f8 00000000 		.4byte	0
 20494 04fc 00000000 		.4byte	0
 20495 0500 68000000 		.4byte	.LBB466
 20496 0504 6A000000 		.4byte	.LBE466
 20497 0508 6E000000 		.4byte	.LBB467
 20498 050c 72000000 		.4byte	.LBE467
 20499 0510 76000000 		.4byte	.LBB468
 20500 0514 78000000 		.4byte	.LBE468
 20501 0518 7E000000 		.4byte	.LBB469
 20502 051c 82000000 		.4byte	.LBE469
 20503 0520 84000000 		.4byte	.LBB470
 20504 0524 86000000 		.4byte	.LBE470
 20505 0528 00000000 		.4byte	0
 20506 052c 00000000 		.4byte	0
 20507 0530 7A000000 		.4byte	.LBB482
 20508 0534 7E000000 		.4byte	.LBE482
 20509 0538 82000000 		.4byte	.LBB496
 20510 053c 84000000 		.4byte	.LBE496
 20511 0540 94000000 		.4byte	.LBB500
 20512 0544 96000000 		.4byte	.LBE500
 20513 0548 9E000000 		.4byte	.LBB502
 20514 054c A2000000 		.4byte	.LBE502
 20515 0550 A4000000 		.4byte	.LBB504
 20516 0554 A6000000 		.4byte	.LBE504
 20517 0558 B0000000 		.4byte	.LBB506
 20518 055c B4000000 		.4byte	.LBE506
 20519 0560 B8000000 		.4byte	.LBB508
 20520 0564 BC000000 		.4byte	.LBE508
 20521 0568 00000000 		.4byte	0
 20522 056c 00000000 		.4byte	0
 20523 0570 7A000000 		.4byte	.LBB484
 20524 0574 7E000000 		.4byte	.LBE484
 20525 0578 82000000 		.4byte	.LBB485
 20526 057c 84000000 		.4byte	.LBE485
 20527 0580 94000000 		.4byte	.LBB486
 20528 0584 96000000 		.4byte	.LBE486
 20529 0588 9E000000 		.4byte	.LBB487
 20530 058c A2000000 		.4byte	.LBE487
 20531 0590 A4000000 		.4byte	.LBB488
 20532 0594 A6000000 		.4byte	.LBE488
ARM GAS  C:\Users\JEANCO~1\AppData\Local\Temp\ccxhVNGN.s 			page 362


 20533 0598 00000000 		.4byte	0
 20534 059c 00000000 		.4byte	0
 20535 05a0 46010000 		.4byte	.LBB511
 20536 05a4 9A010000 		.4byte	.LBE511
 20537 05a8 10020000 		.4byte	.LBB521
 20538 05ac 16020000 		.4byte	.LBE521
 20539 05b0 D4020000 		.4byte	.LBB528
 20540 05b4 40030000 		.4byte	.LBE528
 20541 05b8 00000000 		.4byte	0
 20542 05bc 00000000 		.4byte	0
 20543 05c0 9A010000 		.4byte	.LBB515
 20544 05c4 9C010000 		.4byte	.LBE515
 20545 05c8 A0010000 		.4byte	.LBB519
 20546 05cc A2010000 		.4byte	.LBE519
 20547 05d0 00000000 		.4byte	0
 20548 05d4 00000000 		.4byte	0
 20549 05d8 9C010000 		.4byte	.LBB518
 20550 05dc A0010000 		.4byte	.LBE518
 20551 05e0 D8010000 		.4byte	.LBB520
 20552 05e4 F0010000 		.4byte	.LBE520
 20553 05e8 00000000 		.4byte	0
 20554 05ec 00000000 		.4byte	0
 20555 05f0 1C020000 		.4byte	.LBB522
 20556 05f4 7A020000 		.4byte	.LBE522
 20557 05f8 94020000 		.4byte	.LBB525
 20558 05fc C2020000 		.4byte	.LBE525
 20559 0600 00000000 		.4byte	0
 20560 0604 00000000 		.4byte	0
 20561 0608 00000000 		.4byte	.LFB310
 20562 060c BC000000 		.4byte	.LFE310
 20563 0610 00000000 		.4byte	.LFB290
 20564 0614 C0000000 		.4byte	.LFE290
 20565 0618 00000000 		.4byte	.LFB292
 20566 061c 78000000 		.4byte	.LFE292
 20567 0620 00000000 		.4byte	.LFB293
 20568 0624 A4010000 		.4byte	.LFE293
 20569 0628 00000000 		.4byte	.LFB294
 20570 062c 44000000 		.4byte	.LFE294
 20571 0630 00000000 		.4byte	.LFB295
 20572 0634 44000000 		.4byte	.LFE295
 20573 0638 00000000 		.4byte	.LFB296
 20574 063c 64000000 		.4byte	.LFE296
 20575 0640 00000000 		.4byte	.LFB297
 20576 0644 2C000000 		.4byte	.LFE297
 20577 0648 00000000 		.4byte	.LFB298
 20578 064c C0000000 		.4byte	.LFE298
 20579 0650 00000000 		.4byte	.LFB299
 20580 0654 80000000 		.4byte	.LFE299
 20581 0658 00000000 		.4byte	.LFB300
 20582 065c 88000000 		.4byte	.LFE300
 20583 0660 00000000 		.4byte	.LFB291
 20584 0664 2C030000 		.4byte	.LFE291
 20585 0668 00000000 		.4byte	.LFB301
 20586 066c 20000000 		.4byte	.LFE301
 20587 0670 00000000 		.4byte	.LFB302
 20588 0674 40000000 		.4byte	.LFE302
 20589 0678 00000000 		.4byte	.LFB303
ARM GAS  C:\Users\JEANCO~1\AppData\Local\Temp\ccxhVNGN.s 			page 363


 20590 067c 28000000 		.4byte	.LFE303
 20591 0680 00000000 		.4byte	.LFB304
 20592 0684 28000000 		.4byte	.LFE304
 20593 0688 00000000 		.4byte	.LFB305
 20594 068c A0000000 		.4byte	.LFE305
 20595 0690 00000000 		.4byte	.LFB307
 20596 0694 38000000 		.4byte	.LFE307
 20597 0698 00000000 		.4byte	.LFB308
 20598 069c 08010000 		.4byte	.LFE308
 20599 06a0 00000000 		.4byte	.LFB309
 20600 06a4 A8000000 		.4byte	.LFE309
 20601 06a8 00000000 		.4byte	.LFB306
 20602 06ac 40030000 		.4byte	.LFE306
 20603 06b0 00000000 		.4byte	0
 20604 06b4 00000000 		.4byte	0
 20605              		.section	.debug_line,"",%progbits
 20606              	.Ldebug_line0:
 20607 0000 DE0F0000 		.section	.debug_str,"MS",%progbits,1
 20607      0200E509 
 20607      00000201 
 20607      FB0E0D00 
 20607      01010101 
 20608              	.LASF587:
 20609 0000 5553425F 		.ascii	"USB_STOP\000"
 20609      53544F50 
 20609      00
 20610              	.LASF195:
 20611 0009 706F7274 		.ascii	"port_intctx\000"
 20611      5F696E74 
 20611      63747800 
 20612              	.LASF204:
 20613 0015 63685F74 		.ascii	"ch_trace_buffer_t\000"
 20613      72616365 
 20613      5F627566 
 20613      6665725F 
 20613      7400
 20614              	.LASF237:
 20615 0027 63685F70 		.ascii	"ch_ptrsize\000"
 20615      74727369 
 20615      7A6500
 20616              	.LASF779:
 20617 0032 6D657373 		.ascii	"messagebus_watcher_s\000"
 20617      61676562 
 20617      75735F77 
 20617      61746368 
 20617      65725F73 
 20618              	.LASF525:
 20619 0047 6576656E 		.ascii	"event\000"
 20619      7400
 20620              	.LASF876:
 20621 004d 5F6D6272 		.ascii	"_mbrtowc_state\000"
 20621      746F7763 
 20621      5F737461 
 20621      746500
 20622              	.LASF375:
 20623 005c 43414E5F 		.ascii	"CAN_STARTING\000"
 20623      53544152 
ARM GAS  C:\Users\JEANCO~1\AppData\Local\Temp\ccxhVNGN.s 			page 364


 20623      54494E47 
 20623      00
 20624              	.LASF991:
 20625 0069 6D61785F 		.ascii	"max_left\000"
 20625      6C656674 
 20625      00
 20626              	.LASF1015:
 20627 0072 70726F63 		.ascii	"processAudioData\000"
 20627      65737341 
 20627      7564696F 
 20627      44617461 
 20627      00
 20628              	.LASF741:
 20629 0083 44434D49 		.ascii	"DCMI_ACTIVE_ONESHOT\000"
 20629      5F414354 
 20629      4956455F 
 20629      4F4E4553 
 20629      484F5400 
 20630              	.LASF32:
 20631 0097 6D73675F 		.ascii	"msg_t\000"
 20631      7400
 20632              	.LASF320:
 20633 009d 61667268 		.ascii	"afrh\000"
 20633      00
 20634              	.LASF468:
 20635 00a2 4F504D4F 		.ascii	"OPMODE_SMBUS_DEVICE\000"
 20635      44455F53 
 20635      4D425553 
 20635      5F444556 
 20635      49434500 
 20636              	.LASF215:
 20637 00b6 6D5F6372 		.ascii	"m_crit_isr\000"
 20637      69745F69 
 20637      737200
 20638              	.LASF980:
 20639 00c1 6D6F7965 		.ascii	"moyenne_inf\000"
 20639      6E6E655F 
 20639      696E6600 
 20640              	.LASF906:
 20641 00cd 76656374 		.ascii	"vect\000"
 20641      00
 20642              	.LASF646:
 20643 00d2 44494550 		.ascii	"DIEPTXF0\000"
 20643      54584630 
 20643      00
 20644              	.LASF722:
 20645 00db 55534244 		.ascii	"USBD1\000"
 20645      3100
 20646              	.LASF374:
 20647 00e1 43414E5F 		.ascii	"CAN_STOP\000"
 20647      53544F50 
 20647      00
 20648              	.LASF250:
 20649 00ea 63665F6F 		.ascii	"cf_off_time\000"
 20649      66665F74 
 20649      696D6500 
 20650              	.LASF91:
ARM GAS  C:\Users\JEANCO~1\AppData\Local\Temp\ccxhVNGN.s 			page 365


 20651 00f6 63685F73 		.ascii	"ch_system_t\000"
 20651      79737465 
 20651      6D5F7400 
 20652              	.LASF7:
 20653 0102 5F5F7569 		.ascii	"__uint8_t\000"
 20653      6E74385F 
 20653      7400
 20654              	.LASF221:
 20655 010c 77747365 		.ascii	"wtsemp\000"
 20655      6D7000
 20656              	.LASF304:
 20657 0113 5F426F6F 		.ascii	"_Bool\000"
 20657      6C00
 20658              	.LASF416:
 20659 0119 64617461 		.ascii	"datamode\000"
 20659      6D6F6465 
 20659      00
 20660              	.LASF484:
 20661 0122 646D6172 		.ascii	"dmarx\000"
 20661      7800
 20662              	.LASF931:
 20663 0128 44455252 		.ascii	"DERRIERE_GAUCHE\000"
 20663      49455245 
 20663      5F474155 
 20663      43484500 
 20664              	.LASF489:
 20665 0138 4932535F 		.ascii	"I2S_READY\000"
 20665      52454144 
 20665      5900
 20666              	.LASF809:
 20667 0142 5F617465 		.ascii	"_atexit\000"
 20667      78697400 
 20668              	.LASF891:
 20669 014a 6368616E 		.ascii	"changed_cnt\000"
 20669      6765645F 
 20669      636E7400 
 20670              	.LASF888:
 20671 0156 7375626F 		.ascii	"suboptarg\000"
 20671      70746172 
 20671      6700
 20672              	.LASF364:
 20673 0160 73717231 		.ascii	"sqr1\000"
 20673      00
 20674              	.LASF776:
 20675 0165 7075626C 		.ascii	"published\000"
 20675      69736865 
 20675      6400
 20676              	.LASF291:
 20677 016f 424C4B5F 		.ascii	"BLK_UNINIT\000"
 20677      554E494E 
 20677      495400
 20678              	.LASF496:
 20679 017a 72785F62 		.ascii	"rx_buffer\000"
 20679      75666665 
 20679      7200
 20680              	.LASF480:
 20681 0184 6572726F 		.ascii	"errors\000"
ARM GAS  C:\Users\JEANCO~1\AppData\Local\Temp\ccxhVNGN.s 			page 366


 20681      727300
 20682              	.LASF999:
 20683 018b 6D61785F 		.ascii	"max_norm\000"
 20683      6E6F726D 
 20683      00
 20684              	.LASF208:
 20685 0194 776F7273 		.ascii	"worst\000"
 20685      7400
 20686              	.LASF84:
 20687 019a 76745F73 		.ascii	"vt_systime\000"
 20687      79737469 
 20687      6D6500
 20688              	.LASF150:
 20689 01a5 444F5231 		.ascii	"DOR1\000"
 20689      00
 20690              	.LASF151:
 20691 01aa 444F5232 		.ascii	"DOR2\000"
 20691      00
 20692              	.LASF495:
 20693 01af 74785F62 		.ascii	"tx_buffer\000"
 20693      75666665 
 20693      7200
 20694              	.LASF799:
 20695 01b9 5F5F746D 		.ascii	"__tm_mon\000"
 20695      5F6D6F6E 
 20695      00
 20696              	.LASF964:
 20697 01c2 626F726E 		.ascii	"borne_gauche_supp\000"
 20697      655F6761 
 20697      75636865 
 20697      5F737570 
 20697      7000
 20698              	.LASF807:
 20699 01d4 5F666E74 		.ascii	"_fntypes\000"
 20699      79706573 
 20699      00
 20700              	.LASF946:
 20701 01dd 616E676C 		.ascii	"angle\000"
 20701      6500
 20702              	.LASF230:
 20703 01e3 6D5F6E65 		.ascii	"m_next\000"
 20703      787400
 20704              	.LASF324:
 20705 01ea 50434461 		.ascii	"PCData\000"
 20705      746100
 20706              	.LASF837:
 20707 01f1 5F696E63 		.ascii	"_inc\000"
 20707      00
 20708              	.LASF810:
 20709 01f6 5F696E64 		.ascii	"_ind\000"
 20709      00
 20710              	.LASF1025:
 20711 01fb 6D6F7965 		.ascii	"moyenne_back\000"
 20711      6E6E655F 
 20711      6261636B 
 20711      00
 20712              	.LASF180:
ARM GAS  C:\Users\JEANCO~1\AppData\Local\Temp\ccxhVNGN.s 			page 367


 20713 0208 4D41534B 		.ascii	"MASK\000"
 20713      00
 20714              	.LASF349:
 20715 020d 73616D70 		.ascii	"samples\000"
 20715      6C657300 
 20716              	.LASF1020:
 20717 0215 6E6F726D 		.ascii	"norm_front\000"
 20717      5F66726F 
 20717      6E7400
 20718              	.LASF650:
 20719 0220 47434346 		.ascii	"GCCFG\000"
 20719      4700
 20720              	.LASF445:
 20721 0226 42445452 		.ascii	"BDTR\000"
 20721      00
 20722              	.LASF398:
 20723 022b 7265676D 		.ascii	"regmask\000"
 20723      61736B00 
 20724              	.LASF1016:
 20725 0233 6E756D5F 		.ascii	"num_samples\000"
 20725      73616D70 
 20725      6C657300 
 20726              	.LASF478:
 20727 023f 49324343 		.ascii	"I2CConfig\000"
 20727      6F6E6669 
 20727      6700
 20728              	.LASF21:
 20729 0249 75696E74 		.ascii	"uint16_t\000"
 20729      31365F74 
 20729      00
 20730              	.LASF485:
 20731 0252 646D6174 		.ascii	"dmatx\000"
 20731      7800
 20732              	.LASF927:
 20733 0258 44455641 		.ascii	"DEVANT\000"
 20733      4E5400
 20734              	.LASF720:
 20735 025f 736F665F 		.ascii	"sof_cb\000"
 20735      636200
 20736              	.LASF1064:
 20737 0266 6765745F 		.ascii	"get_line_position\000"
 20737      6C696E65 
 20737      5F706F73 
 20737      6974696F 
 20737      6E00
 20738              	.LASF421:
 20739 0278 4558545F 		.ascii	"EXT_ACTIVE\000"
 20739      41435449 
 20739      564500
 20740              	.LASF816:
 20741 0283 5F666C61 		.ascii	"_flags\000"
 20741      677300
 20742              	.LASF778:
 20743 028a 6E657874 		.ascii	"next\000"
 20743      00
 20744              	.LASF317:
 20745 028f 6F737065 		.ascii	"ospeedr\000"
ARM GAS  C:\Users\JEANCO~1\AppData\Local\Temp\ccxhVNGN.s 			page 368


 20745      65647200 
 20746              	.LASF653:
 20747 0297 44494550 		.ascii	"DIEPTXF\000"
 20747      54584600 
 20748              	.LASF259:
 20749 029f 656C5F6E 		.ascii	"el_next\000"
 20749      65787400 
 20750              	.LASF344:
 20751 02a7 4144435F 		.ascii	"ADC_ERR_OVERFLOW\000"
 20751      4552525F 
 20751      4F564552 
 20751      464C4F57 
 20751      00
 20752              	.LASF727:
 20753 02b8 53657269 		.ascii	"SerialUSBDriver\000"
 20753      616C5553 
 20753      42447269 
 20753      76657200 
 20754              	.LASF847:
 20755 02c8 5F637674 		.ascii	"_cvtlen\000"
 20755      6C656E00 
 20756              	.LASF89:
 20757 02d0 6C6F636B 		.ascii	"lock_cnt\000"
 20757      5F636E74 
 20757      00
 20758              	.LASF65:
 20759 02d9 63685F74 		.ascii	"ch_threads_queue\000"
 20759      68726561 
 20759      64735F71 
 20759      75657565 
 20759      00
 20760              	.LASF936:
 20761 02ea 5F5F6664 		.ascii	"__fdlibm_svid\000"
 20761      6C69626D 
 20761      5F737669 
 20761      6400
 20762              	.LASF851:
 20763 02f8 5F736967 		.ascii	"_sig_func\000"
 20763      5F66756E 
 20763      6300
 20764              	.LASF43:
 20765 0302 705F6E65 		.ascii	"p_newer\000"
 20765      77657200 
 20766              	.LASF663:
 20767 030a 48505254 		.ascii	"HPRT\000"
 20767      00
 20768              	.LASF617:
 20769 030f 4843494E 		.ascii	"HCINT\000"
 20769      5400
 20770              	.LASF100:
 20771 0315 534D5052 		.ascii	"SMPR1\000"
 20771      3100
 20772              	.LASF101:
 20773 031b 534D5052 		.ascii	"SMPR2\000"
 20773      3200
 20774              	.LASF247:
 20775 0321 63665F6F 		.ascii	"cf_off_flags\000"
ARM GAS  C:\Users\JEANCO~1\AppData\Local\Temp\ccxhVNGN.s 			page 369


 20775      66665F66 
 20775      6C616773 
 20775      00
 20776              	.LASF829:
 20777 032e 5F6C6F63 		.ascii	"_lock\000"
 20777      6B00
 20778              	.LASF825:
 20779 0334 5F6E6275 		.ascii	"_nbuf\000"
 20779      6600
 20780              	.LASF556:
 20781 033a 5350495F 		.ascii	"SPI_STOP\000"
 20781      53544F50 
 20781      00
 20782              	.LASF283:
 20783 0343 42617365 		.ascii	"BaseSequentialStream\000"
 20783      53657175 
 20783      656E7469 
 20783      616C5374 
 20783      7265616D 
 20784              	.LASF512:
 20785 0358 70776D63 		.ascii	"pwmchnmsk_t\000"
 20785      686E6D73 
 20785      6B5F7400 
 20786              	.LASF323:
 20787 0364 50424461 		.ascii	"PBData\000"
 20787      746100
 20788              	.LASF235:
 20789 036b 63685F73 		.ascii	"ch_size\000"
 20789      697A6500 
 20790              	.LASF995:
 20791 0373 70695F72 		.ascii	"pi_regulator\000"
 20791      6567756C 
 20791      61746F72 
 20791      00
 20792              	.LASF738:
 20793 0380 44434D49 		.ascii	"DCMI_STOP\000"
 20793      5F53544F 
 20793      5000
 20794              	.LASF659:
 20795 038a 48505458 		.ascii	"HPTXSTS\000"
 20795      53545300 
 20796              	.LASF316:
 20797 0392 6F747970 		.ascii	"otyper\000"
 20797      657200
 20798              	.LASF307:
 20799 0399 4F545950 		.ascii	"OTYPER\000"
 20799      455200
 20800              	.LASF911:
 20801 03a0 6D617869 		.ascii	"maximum_fft\000"
 20801      6D756D5F 
 20801      66667400 
 20802              	.LASF400:
 20803 03ac 64616370 		.ascii	"dacparams_t\000"
 20803      6172616D 
 20803      735F7400 
 20804              	.LASF534:
 20805 03b8 5344435F 		.ascii	"SDC_MODE_1BIT\000"
ARM GAS  C:\Users\JEANCO~1\AppData\Local\Temp\ccxhVNGN.s 			page 370


 20805      4D4F4445 
 20805      5F314249 
 20805      5400
 20806              	.LASF615:
 20807 03c6 48434348 		.ascii	"HCCHAR\000"
 20807      415200
 20808              	.LASF806:
 20809 03cd 5F64736F 		.ascii	"_dso_handle\000"
 20809      5F68616E 
 20809      646C6500 
 20810              	.LASF462:
 20811 03d9 4932435F 		.ascii	"I2C_ACTIVE_RX\000"
 20811      41435449 
 20811      56455F52 
 20811      5800
 20812              	.LASF38:
 20813 03e7 74687265 		.ascii	"thread_t\000"
 20813      61645F74 
 20813      00
 20814              	.LASF261:
 20815 03f0 656C5F65 		.ascii	"el_events\000"
 20815      76656E74 
 20815      7300
 20816              	.LASF505:
 20817 03fa 70776D73 		.ascii	"pwmstate_t\000"
 20817      74617465 
 20817      5F7400
 20818              	.LASF385:
 20819 0405 736C6565 		.ascii	"sleep_event\000"
 20819      705F6576 
 20819      656E7400 
 20820              	.LASF83:
 20821 0411 63685F76 		.ascii	"ch_virtual_timers_list\000"
 20821      69727475 
 20821      616C5F74 
 20821      696D6572 
 20821      735F6C69 
 20822              	.LASF288:
 20823 0428 76656374 		.ascii	"vector\000"
 20823      6F7200
 20824              	.LASF952:
 20825 042f 6D69634C 		.ascii	"micLeft_cmplx_input\000"
 20825      6566745F 
 20825      636D706C 
 20825      785F696E 
 20825      70757400 
 20826              	.LASF1006:
 20827 0443 6D696372 		.ascii	"micro\000"
 20827      6F00
 20828              	.LASF22:
 20829 0449 696E7433 		.ascii	"int32_t\000"
 20829      325F7400 
 20830              	.LASF871:
 20831 0451 5F776374 		.ascii	"_wctomb_state\000"
 20831      6F6D625F 
 20831      73746174 
 20831      6500
ARM GAS  C:\Users\JEANCO~1\AppData\Local\Temp\ccxhVNGN.s 			page 371


 20832              	.LASF1009:
 20833 045f 73757072 		.ascii	"supremum\000"
 20833      656D756D 
 20833      00
 20834              	.LASF476:
 20835 0468 636C6F63 		.ascii	"clock_speed\000"
 20835      6B5F7370 
 20835      65656400 
 20836              	.LASF37:
 20837 0474 73797374 		.ascii	"systime_t\000"
 20837      696D655F 
 20837      7400
 20838              	.LASF951:
 20839 047e 6D6F7965 		.ascii	"moyenne\000"
 20839      6E6E6500 
 20840              	.LASF418:
 20841 0486 44414344 		.ascii	"DACD2\000"
 20841      3200
 20842              	.LASF387:
 20843 048c 43414E44 		.ascii	"CANDriver\000"
 20843      72697665 
 20843      7200
 20844              	.LASF245:
 20845 0496 63665F6F 		.ascii	"cf_off_stklimit\000"
 20845      66665F73 
 20845      746B6C69 
 20845      6D697400 
 20846              	.LASF161:
 20847 04a6 4D304152 		.ascii	"M0AR\000"
 20847      00
 20848              	.LASF622:
 20849 04ab 72657376 		.ascii	"resvd1c\000"
 20849      64316300 
 20850              	.LASF466:
 20851 04b3 69326366 		.ascii	"i2cflags_t\000"
 20851      6C616773 
 20851      5F7400
 20852              	.LASF660:
 20853 04be 4841494E 		.ascii	"HAINT\000"
 20853      5400
 20854              	.LASF1043:
 20855 04c4 5F646267 		.ascii	"_dbg_check_lock\000"
 20855      5F636865 
 20855      636B5F6C 
 20855      6F636B00 
 20856              	.LASF136:
 20857 04d4 46413152 		.ascii	"FA1R\000"
 20857      00
 20858              	.LASF159:
 20859 04d9 44434D49 		.ascii	"DCMI_TypeDef\000"
 20859      5F547970 
 20859      65446566 
 20859      00
 20860              	.LASF657:
 20861 04e6 48464E55 		.ascii	"HFNUM\000"
 20861      4D00
 20862              	.LASF892:
ARM GAS  C:\Users\JEANCO~1\AppData\Local\Temp\ccxhVNGN.s 			page 372


 20863 04ec 70617265 		.ascii	"parent\000"
 20863      6E7400
 20864              	.LASF277:
 20865 04f3 716E6F74 		.ascii	"qnotify_t\000"
 20865      6966795F 
 20865      7400
 20866              	.LASF340:
 20867 04fd 61646373 		.ascii	"adcstate_t\000"
 20867      74617465 
 20867      5F7400
 20868              	.LASF786:
 20869 0508 7075626C 		.ascii	"published_topic\000"
 20869      69736865 
 20869      645F746F 
 20869      70696300 
 20870              	.LASF753:
 20871 0518 44434D49 		.ascii	"DCMID\000"
 20871      4400
 20872              	.LASF286:
 20873 051e 69736869 		.ascii	"ishift\000"
 20873      667400
 20874              	.LASF1030:
 20875 0525 63684253 		.ascii	"chBSemWait\000"
 20875      656D5761 
 20875      697400
 20876              	.LASF435:
 20877 0530 4750545F 		.ascii	"GPT_ONESHOT\000"
 20877      4F4E4553 
 20877      484F5400 
 20878              	.LASF272:
 20879 053c 715F746F 		.ascii	"q_top\000"
 20879      7000
 20880              	.LASF818:
 20881 0542 5F6C6266 		.ascii	"_lbfsize\000"
 20881      73697A65 
 20881      00
 20882              	.LASF608:
 20883 054b 75645F73 		.ascii	"ud_string\000"
 20883      7472696E 
 20883      6700
 20884              	.LASF479:
 20885 0555 49324344 		.ascii	"I2CDriver\000"
 20885      72697665 
 20885      7200
 20886              	.LASF461:
 20887 055f 4932435F 		.ascii	"I2C_ACTIVE_TX\000"
 20887      41435449 
 20887      56455F54 
 20887      5800
 20888              	.LASF282:
 20889 056d 72656164 		.ascii	"read\000"
 20889      00
 20890              	.LASF467:
 20891 0572 4F504D4F 		.ascii	"OPMODE_I2C\000"
 20891      44455F49 
 20891      324300
 20892              	.LASF669:
ARM GAS  C:\Users\JEANCO~1\AppData\Local\Temp\ccxhVNGN.s 			page 373


 20893 057d 72657376 		.ascii	"resvd80C\000"
 20893      64383043 
 20893      00
 20894              	.LASF717:
 20895 0586 6576656E 		.ascii	"event_cb\000"
 20895      745F6362 
 20895      00
 20896              	.LASF989:
 20897 058f 6C65645F 		.ascii	"led_direction\000"
 20897      64697265 
 20897      6374696F 
 20897      6E00
 20898              	.LASF849:
 20899 059d 5F6E6577 		.ascii	"_new\000"
 20899      00
 20900              	.LASF959:
 20901 05a2 6D696342 		.ascii	"micBack_output\000"
 20901      61636B5F 
 20901      6F757470 
 20901      757400
 20902              	.LASF636:
 20903 05b1 474F5447 		.ascii	"GOTGCTL\000"
 20903      43544C00 
 20904              	.LASF958:
 20905 05b9 6D696346 		.ascii	"micFront_output\000"
 20905      726F6E74 
 20905      5F6F7574 
 20905      70757400 
 20906              	.LASF730:
 20907 05c9 62756C6B 		.ascii	"bulk_out\000"
 20907      5F6F7574 
 20907      00
 20908              	.LASF611:
 20909 05d2 75736265 		.ascii	"usbepcallback_t\000"
 20909      7063616C 
 20909      6C626163 
 20909      6B5F7400 
 20910              	.LASF465:
 20911 05e2 69326361 		.ascii	"i2caddr_t\000"
 20911      6464725F 
 20911      7400
 20912              	.LASF94:
 20913 05ec 76746C69 		.ascii	"vtlist\000"
 20913      737400
 20914              	.LASF166:
 20915 05f3 54524953 		.ascii	"TRISE\000"
 20915      4500
 20916              	.LASF675:
 20917 05f9 72657376 		.ascii	"resvd824\000"
 20917      64383234 
 20917      00
 20918              	.LASF52:
 20919 0602 705F7761 		.ascii	"p_waiting\000"
 20919      6974696E 
 20919      6700
 20920              	.LASF216:
 20921 060c 6B65726E 		.ascii	"kernel_stats_t\000"
ARM GAS  C:\Users\JEANCO~1\AppData\Local\Temp\ccxhVNGN.s 			page 374


 20921      656C5F73 
 20921      74617473 
 20921      5F7400
 20922              	.LASF269:
 20923 061b 715F7761 		.ascii	"q_waiting\000"
 20923      6974696E 
 20923      6700
 20924              	.LASF118:
 20925 0625 43414E5F 		.ascii	"CAN_TxMailBox_TypeDef\000"
 20925      54784D61 
 20925      696C426F 
 20925      785F5479 
 20925      70654465 
 20926              	.LASF93:
 20927 063b 726C6973 		.ascii	"rlist\000"
 20927      7400
 20928              	.LASF61:
 20929 0641 74687265 		.ascii	"threads_list_t\000"
 20929      6164735F 
 20929      6C697374 
 20929      5F7400
 20930              	.LASF241:
 20931 0650 63665F6F 		.ascii	"cf_off_ctx\000"
 20931      66665F63 
 20931      747800
 20932              	.LASF278:
 20933 065b 696E7075 		.ascii	"input_queue_t\000"
 20933      745F7175 
 20933      6575655F 
 20933      7400
 20934              	.LASF367:
 20935 0669 41444343 		.ascii	"ADCConversionGroup\000"
 20935      6F6E7665 
 20935      7273696F 
 20935      6E47726F 
 20935      757000
 20936              	.LASF668:
 20937 067c 44535453 		.ascii	"DSTS\000"
 20937      00
 20938              	.LASF884:
 20939 0681 5F5F6C6F 		.ascii	"__lock\000"
 20939      636B00
 20940              	.LASF471:
 20941 0688 5354445F 		.ascii	"STD_DUTY_CYCLE\000"
 20941      44555459 
 20941      5F435943 
 20941      4C4500
 20942              	.LASF376:
 20943 0697 43414E5F 		.ascii	"CAN_READY\000"
 20943      52454144 
 20943      5900
 20944              	.LASF243:
 20945 06a1 63665F6F 		.ascii	"cf_off_older\000"
 20945      66665F6F 
 20945      6C646572 
 20945      00
 20946              	.LASF26:
ARM GAS  C:\Users\JEANCO~1\AppData\Local\Temp\ccxhVNGN.s 			page 375


 20947 06ae 72747469 		.ascii	"rttime_t\000"
 20947      6D655F74 
 20947      00
 20948              	.LASF430:
 20949 06b7 45585444 		.ascii	"EXTD1\000"
 20949      3100
 20950              	.LASF702:
 20951 06bd 72787175 		.ascii	"rxqueued\000"
 20951      65756564 
 20951      00
 20952              	.LASF934:
 20953 06c6 44495245 		.ascii	"DIRECTION_ROBOT\000"
 20953      4354494F 
 20953      4E5F524F 
 20953      424F5400 
 20954              	.LASF378:
 20955 06d6 63616E73 		.ascii	"canstate_t\000"
 20955      74617465 
 20955      5F7400
 20956              	.LASF138:
 20957 06e1 7346696C 		.ascii	"sFilterRegister\000"
 20957      74657252 
 20957      65676973 
 20957      74657200 
 20958              	.LASF853:
 20959 06f1 5F5F7366 		.ascii	"__sf\000"
 20959      00
 20960              	.LASF674:
 20961 06f6 72657376 		.ascii	"resvd820\000"
 20961      64383230 
 20961      00
 20962              	.LASF1066:
 20963 06ff 5F5F7374 		.ascii	"__stack_chk_fail\000"
 20963      61636B5F 
 20963      63686B5F 
 20963      6661696C 
 20963      00
 20964              	.LASF172:
 20965 0710 52455350 		.ascii	"RESP1\000"
 20965      3100
 20966              	.LASF173:
 20967 0716 52455350 		.ascii	"RESP2\000"
 20967      3200
 20968              	.LASF174:
 20969 071c 52455350 		.ascii	"RESP3\000"
 20969      3300
 20970              	.LASF175:
 20971 0722 52455350 		.ascii	"RESP4\000"
 20971      3400
 20972              	.LASF870:
 20973 0728 5F6D6274 		.ascii	"_mbtowc_state\000"
 20973      6F77635F 
 20973      73746174 
 20973      6500
 20974              	.LASF458:
 20975 0736 4932435F 		.ascii	"I2C_UNINIT\000"
 20975      554E494E 
ARM GAS  C:\Users\JEANCO~1\AppData\Local\Temp\ccxhVNGN.s 			page 376


 20975      495400
 20976              	.LASF613:
 20977 0741 75736272 		.ascii	"usbreqhandler_t\000"
 20977      65716861 
 20977      6E646C65 
 20977      725F7400 
 20978              	.LASF338:
 20979 0751 4144435F 		.ascii	"ADC_COMPLETE\000"
 20979      434F4D50 
 20979      4C455445 
 20979      00
 20980              	.LASF966:
 20981 075e 5F5F4655 		.ascii	"__FUNCTION__\000"
 20981      4E435449 
 20981      4F4E5F5F 
 20981      00
 20982              	.LASF454:
 20983 076b 47505443 		.ascii	"GPTConfig\000"
 20983      6F6E6669 
 20983      6700
 20984              	.LASF520:
 20985 0775 53445F55 		.ascii	"SD_UNINIT\000"
 20985      4E494E49 
 20985      5400
 20986              	.LASF737:
 20987 077f 44434D49 		.ascii	"DCMI_UNINIT\000"
 20987      5F554E49 
 20987      4E495400 
 20988              	.LASF31:
 20989 078b 74707269 		.ascii	"tprio_t\000"
 20989      6F5F7400 
 20990              	.LASF212:
 20991 0793 6E5F6972 		.ascii	"n_irq\000"
 20991      7100
 20992              	.LASF774:
 20993 0799 636F6E64 		.ascii	"condvar\000"
 20993      76617200 
 20994              	.LASF499:
 20995 07a1 69327370 		.ascii	"i2spr\000"
 20995      7200
 20996              	.LASF1046:
 20997 07a7 63685379 		.ascii	"chSysHalt\000"
 20997      7348616C 
 20997      7400
 20998              	.LASF678:
 20999 07b1 72657376 		.ascii	"resvd830\000"
 20999      64383330 
 20999      00
 21000              	.LASF460:
 21001 07ba 4932435F 		.ascii	"I2C_READY\000"
 21001      52454144 
 21001      5900
 21002              	.LASF978:
 21003 07c4 6E6F726D 		.ascii	"norme_max_buffer\000"
 21003      655F6D61 
 21003      785F6275 
 21003      66666572 
ARM GAS  C:\Users\JEANCO~1\AppData\Local\Temp\ccxhVNGN.s 			page 377


 21003      00
 21004              	.LASF680:
 21005 07d5 72657376 		.ascii	"resvd838\000"
 21005      64383338 
 21005      00
 21006              	.LASF474:
 21007 07de 69326364 		.ascii	"i2cdutycycle_t\000"
 21007      75747963 
 21007      79636C65 
 21007      5F7400
 21008              	.LASF726:
 21009 07ed 73647573 		.ascii	"sdustate_t\000"
 21009      74617465 
 21009      5F7400
 21010              	.LASF765:
 21011 07f8 6F707461 		.ascii	"optarg\000"
 21011      726700
 21012              	.LASF681:
 21013 07ff 72657376 		.ascii	"resvd83C\000"
 21013      64383343 
 21013      00
 21014              	.LASF352:
 21015 0808 74687265 		.ascii	"thread\000"
 21015      616400
 21016              	.LASF397:
 21017 080f 72656773 		.ascii	"regshift\000"
 21017      68696674 
 21017      00
 21018              	.LASF576:
 21019 0818 73657475 		.ascii	"setup\000"
 21019      7000
 21020              	.LASF555:
 21021 081e 5350495F 		.ascii	"SPI_UNINIT\000"
 21021      554E494E 
 21021      495400
 21022              	.LASF629:
 21023 0829 44545846 		.ascii	"DTXFSTS\000"
 21023      53545300 
 21024              	.LASF301:
 21025 0831 626C6B5F 		.ascii	"blk_size\000"
 21025      73697A65 
 21025      00
 21026              	.LASF1017:
 21027 083a 6E625F73 		.ascii	"nb_samples\000"
 21027      616D706C 
 21027      657300
 21028              	.LASF742:
 21029 0845 44434D49 		.ascii	"DCMI_COMPLETE\000"
 21029      5F434F4D 
 21029      504C4554 
 21029      4500
 21030              	.LASF570:
 21031 0853 696E5F70 		.ascii	"in_params\000"
 21031      6172616D 
 21031      7300
 21032              	.LASF444:
 21033 085d 43434552 		.ascii	"CCER\000"
ARM GAS  C:\Users\JEANCO~1\AppData\Local\Temp\ccxhVNGN.s 			page 378


 21033      00
 21034              	.LASF188:
 21035 0862 49325350 		.ascii	"I2SPR\000"
 21035      5200
 21036              	.LASF502:
 21037 0868 50574D5F 		.ascii	"PWM_UNINIT\000"
 21037      554E494E 
 21037      495400
 21038              	.LASF207:
 21039 0873 62657374 		.ascii	"best\000"
 21039      00
 21040              	.LASF899:
 21041 0878 74797065 		.ascii	"type\000"
 21041      00
 21042              	.LASF638:
 21043 087d 47414842 		.ascii	"GAHBCFG\000"
 21043      43464700 
 21044              	.LASF407:
 21045 0885 64616363 		.ascii	"daccallback_t\000"
 21045      616C6C62 
 21045      61636B5F 
 21045      7400
 21046              	.LASF725:
 21047 0893 5344555F 		.ascii	"SDU_READY\000"
 21047      52454144 
 21047      5900
 21048              	.LASF754:
 21049 089d 5F4C4F43 		.ascii	"_LOCK_T\000"
 21049      4B5F5400 
 21050              	.LASF682:
 21051 08a5 72657376 		.ascii	"resvd840\000"
 21051      64383430 
 21051      00
 21052              	.LASF184:
 21053 08ae 43524350 		.ascii	"CRCPR\000"
 21053      5200
 21054              	.LASF974:
 21055 08b4 64697374 		.ascii	"distance_source\000"
 21055      616E6365 
 21055      5F736F75 
 21055      72636500 
 21056              	.LASF1007:
 21057 08c4 736F6D6D 		.ascii	"somme\000"
 21057      6500
 21058              	.LASF296:
 21059 08ca 424C4B5F 		.ascii	"BLK_READY\000"
 21059      52454144 
 21059      5900
 21060              	.LASF9:
 21061 08d4 5F5F696E 		.ascii	"__int16_t\000"
 21061      7431365F 
 21061      7400
 21062              	.LASF11:
 21063 08de 5F5F7569 		.ascii	"__uint16_t\000"
 21063      6E743136 
 21063      5F7400
 21064              	.LASF434:
ARM GAS  C:\Users\JEANCO~1\AppData\Local\Temp\ccxhVNGN.s 			page 379


 21065 08e9 4750545F 		.ascii	"GPT_CONTINUOUS\000"
 21065      434F4E54 
 21065      494E554F 
 21065      555300
 21066              	.LASF696:
 21067 08f8 74787175 		.ascii	"txqueued\000"
 21067      65756564 
 21067      00
 21068              	.LASF54:
 21069 0901 705F6D73 		.ascii	"p_msg\000"
 21069      6700
 21070              	.LASF862:
 21071 0907 5F756E75 		.ascii	"_unused_rand\000"
 21071      7365645F 
 21071      72616E64 
 21071      00
 21072              	.LASF635:
 21073 0914 73746D33 		.ascii	"stm32_otg_out_ep_t\000"
 21073      325F6F74 
 21073      675F6F75 
 21073      745F6570 
 21073      5F7400
 21074              	.LASF644:
 21075 0927 47525853 		.ascii	"GRXSTSP\000"
 21075      54535000 
 21076              	.LASF643:
 21077 092f 47525853 		.ascii	"GRXSTSR\000"
 21077      54535200 
 21078              	.LASF218:
 21079 0937 65786974 		.ascii	"exitcode\000"
 21079      636F6465 
 21079      00
 21080              	.LASF162:
 21081 0940 4D314152 		.ascii	"M1AR\000"
 21081      00
 21082              	.LASF583:
 21083 0945 77616974 		.ascii	"wait\000"
 21083      00
 21084              	.LASF163:
 21085 094a 444D415F 		.ascii	"DMA_Stream_TypeDef\000"
 21085      53747265 
 21085      616D5F54 
 21085      79706544 
 21085      656600
 21086              	.LASF590:
 21087 095d 5553425F 		.ascii	"USB_ACTIVE\000"
 21087      41435449 
 21087      564500
 21088              	.LASF769:
 21089 0968 6F707472 		.ascii	"optreset\000"
 21089      65736574 
 21089      00
 21090              	.LASF631:
 21091 0971 73746D33 		.ascii	"stm32_otg_in_ep_t\000"
 21091      325F6F74 
 21091      675F696E 
 21091      5F65705F 
ARM GAS  C:\Users\JEANCO~1\AppData\Local\Temp\ccxhVNGN.s 			page 380


 21091      7400
 21092              	.LASF704:
 21093 0983 7278636E 		.ascii	"rxcnt\000"
 21093      7400
 21094              	.LASF334:
 21095 0989 4144435F 		.ascii	"ADC_UNINIT\000"
 21095      554E494E 
 21095      495400
 21096              	.LASF482:
 21097 0994 7278646D 		.ascii	"rxdmamode\000"
 21097      616D6F64 
 21097      6500
 21098              	.LASF844:
 21099 099e 5F726573 		.ascii	"_result_k\000"
 21099      756C745F 
 21099      6B00
 21100              	.LASF426:
 21101 09a8 6D6F6465 		.ascii	"mode\000"
 21101      00
 21102              	.LASF836:
 21103 09ad 5F737464 		.ascii	"_stderr\000"
 21103      65727200 
 21104              	.LASF843:
 21105 09b5 5F726573 		.ascii	"_result\000"
 21105      756C7400 
 21106              	.LASF231:
 21107 09bd 6D5F636E 		.ascii	"m_cnt\000"
 21107      7400
 21108              	.LASF423:
 21109 09c3 45585444 		.ascii	"EXTDriver\000"
 21109      72697665 
 21109      7200
 21110              	.LASF246:
 21111 09cd 63665F6F 		.ascii	"cf_off_state\000"
 21111      66665F73 
 21111      74617465 
 21111      00
 21112              	.LASF494:
 21113 09da 69327363 		.ascii	"i2scallback_t\000"
 21113      616C6C62 
 21113      61636B5F 
 21113      7400
 21114              	.LASF564:
 21115 09e8 73737061 		.ascii	"sspad\000"
 21115      6400
 21116              	.LASF483:
 21117 09ee 7478646D 		.ascii	"txdmamode\000"
 21117      616D6F64 
 21117      6500
 21118              	.LASF904:
 21119 09f8 6275665F 		.ascii	"buf_dim\000"
 21119      64696D00 
 21120              	.LASF450:
 21121 0a00 67707466 		.ascii	"gptfreq_t\000"
 21121      7265715F 
 21121      7400
 21122              	.LASF801:
ARM GAS  C:\Users\JEANCO~1\AppData\Local\Temp\ccxhVNGN.s 			page 381


 21123 0a0a 5F5F746D 		.ascii	"__tm_wday\000"
 21123      5F776461 
 21123      7900
 21124              	.LASF938:
 21125 0a14 5F5F6664 		.ascii	"__fdlibm_posix\000"
 21125      6C69626D 
 21125      5F706F73 
 21125      697800
 21126              	.LASF798:
 21127 0a23 5F5F746D 		.ascii	"__tm_mday\000"
 21127      5F6D6461 
 21127      7900
 21128              	.LASF908:
 21129 0a2d 75736263 		.ascii	"usbcfg\000"
 21129      666700
 21130              	.LASF689:
 21131 0a34 72785F66 		.ascii	"rx_fifo_size\000"
 21131      69666F5F 
 21131      73697A65 
 21131      00
 21132              	.LASF193:
 21133 0a41 73746B61 		.ascii	"stkalign_t\000"
 21133      6C69676E 
 21133      5F7400
 21134              	.LASF405:
 21135 0a4c 4441435F 		.ascii	"DAC_ERR_UNDERFLOW\000"
 21135      4552525F 
 21135      554E4445 
 21135      52464C4F 
 21135      5700
 21136              	.LASF386:
 21137 0a5e 77616B65 		.ascii	"wakeup_event\000"
 21137      75705F65 
 21137      76656E74 
 21137      00
 21138              	.LASF975:
 21139 0a6b 64697265 		.ascii	"direction\000"
 21139      6374696F 
 21139      6E00
 21140              	.LASF78:
 21141 0a75 76745F70 		.ascii	"vt_prev\000"
 21141      72657600 
 21142              	.LASF802:
 21143 0a7d 5F5F746D 		.ascii	"__tm_yday\000"
 21143      5F796461 
 21143      7900
 21144              	.LASF360:
 21145 0a87 656E645F 		.ascii	"end_cb\000"
 21145      636200
 21146              	.LASF1039:
 21147 0a8e 63685468 		.ascii	"chThdCreateStatic\000"
 21147      64437265 
 21147      61746553 
 21147      74617469 
 21147      6300
 21148              	.LASF707:
 21149 0aa0 73657475 		.ascii	"setup_cb\000"
ARM GAS  C:\Users\JEANCO~1\AppData\Local\Temp\ccxhVNGN.s 			page 382


 21149      705F6362 
 21149      00
 21150              	.LASF8:
 21151 0aa9 756E7369 		.ascii	"unsigned char\000"
 21151      676E6564 
 21151      20636861 
 21151      7200
 21152              	.LASF835:
 21153 0ab7 5F737464 		.ascii	"_stdout\000"
 21153      6F757400 
 21154              	.LASF182:
 21155 0abf 4649464F 		.ascii	"FIFO\000"
 21155      00
 21156              	.LASF956:
 21157 0ac4 6D69634C 		.ascii	"micLeft_output\000"
 21157      6566745F 
 21157      6F757470 
 21157      757400
 21158              	.LASF203:
 21159 0ad3 74625F62 		.ascii	"tb_buffer\000"
 21159      75666665 
 21159      7200
 21160              	.LASF380:
 21161 0add 74787175 		.ascii	"txqueue\000"
 21161      65756500 
 21162              	.LASF153:
 21163 0ae5 52495352 		.ascii	"RISR\000"
 21163      00
 21164              	.LASF226:
 21165 0aea 735F636E 		.ascii	"s_cnt\000"
 21165      7400
 21166              	.LASF66:
 21167 0af0 72656164 		.ascii	"ready_list_t\000"
 21167      795F6C69 
 21167      73745F74 
 21167      00
 21168              	.LASF62:
 21169 0afd 63685F74 		.ascii	"ch_thread\000"
 21169      68726561 
 21169      6400
 21170              	.LASF469:
 21171 0b07 4F504D4F 		.ascii	"OPMODE_SMBUS_HOST\000"
 21171      44455F53 
 21171      4D425553 
 21171      5F484F53 
 21171      5400
 21172              	.LASF909:
 21173 0b19 73657275 		.ascii	"serusbcfg\000"
 21173      73626366 
 21173      6700
 21174              	.LASF877:
 21175 0b23 5F6D6273 		.ascii	"_mbsrtowcs_state\000"
 21175      72746F77 
 21175      63735F73 
 21175      74617465 
 21175      00
 21176              	.LASF585:
ARM GAS  C:\Users\JEANCO~1\AppData\Local\Temp\ccxhVNGN.s 			page 383


 21177 0b34 75736265 		.ascii	"usbep_t\000"
 21177      705F7400 
 21178              	.LASF793:
 21179 0b3c 5F776473 		.ascii	"_wds\000"
 21179      00
 21180              	.LASF0:
 21181 0b41 666C6F61 		.ascii	"float\000"
 21181      7400
 21182              	.LASF419:
 21183 0b47 4558545F 		.ascii	"EXT_UNINIT\000"
 21183      554E494E 
 21183      495400
 21184              	.LASF377:
 21185 0b52 43414E5F 		.ascii	"CAN_SLEEP\000"
 21185      534C4545 
 21185      5000
 21186              	.LASF976:
 21187 0b5c 62756666 		.ascii	"bufferProxy\000"
 21187      65725072 
 21187      6F787900 
 21188              	.LASF199:
 21189 0b68 73655F73 		.ascii	"se_state\000"
 21189      74617465 
 21189      00
 21190              	.LASF373:
 21191 0b71 43414E5F 		.ascii	"CAN_UNINIT\000"
 21191      554E494E 
 21191      495400
 21192              	.LASF554:
 21193 0b7c 53444344 		.ascii	"SDCD1\000"
 21193      3100
 21194              	.LASF85:
 21195 0b82 73797374 		.ascii	"system_debug_t\000"
 21195      656D5F64 
 21195      65627567 
 21195      5F7400
 21196              	.LASF143:
 21197 0b91 44485238 		.ascii	"DHR8R1\000"
 21197      523100
 21198              	.LASF146:
 21199 0b98 44485238 		.ascii	"DHR8R2\000"
 21199      523200
 21200              	.LASF441:
 21201 0b9f 44494552 		.ascii	"DIER\000"
 21201      00
 21202              	.LASF782:
 21203 0ba4 68656164 		.ascii	"head\000"
 21203      00
 21204              	.LASF42:
 21205 0ba9 705F6374 		.ascii	"p_ctx\000"
 21205      7800
 21206              	.LASF81:
 21207 0baf 76745F70 		.ascii	"vt_par\000"
 21207      617200
 21208              	.LASF102:
 21209 0bb6 4A4F4652 		.ascii	"JOFR1\000"
 21209      3100
ARM GAS  C:\Users\JEANCO~1\AppData\Local\Temp\ccxhVNGN.s 			page 384


 21210              	.LASF103:
 21211 0bbc 4A4F4652 		.ascii	"JOFR2\000"
 21211      3200
 21212              	.LASF104:
 21213 0bc2 4A4F4652 		.ascii	"JOFR3\000"
 21213      3300
 21214              	.LASF105:
 21215 0bc8 4A4F4652 		.ascii	"JOFR4\000"
 21215      3400
 21216              	.LASF73:
 21217 0bce 725F6375 		.ascii	"r_current\000"
 21217      7272656E 
 21217      7400
 21218              	.LASF1058:
 21219 0bd8 61756469 		.ascii	"audio_processing.c\000"
 21219      6F5F7072 
 21219      6F636573 
 21219      73696E67 
 21219      2E6300
 21220              	.LASF821:
 21221 0beb 5F777269 		.ascii	"_write\000"
 21221      746500
 21222              	.LASF186:
 21223 0bf2 54584352 		.ascii	"TXCRCR\000"
 21223      435200
 21224              	.LASF412:
 21225 0bf9 64616364 		.ascii	"dacdhrmode_t\000"
 21225      68726D6F 
 21225      64655F74 
 21225      00
 21226              	.LASF924:
 21227 0c06 46524F4E 		.ascii	"FRONT\000"
 21227      5400
 21228              	.LASF354:
 21229 0c0c 646D6173 		.ascii	"dmastp\000"
 21229      747000
 21230              	.LASF773:
 21231 0c13 6C6F636B 		.ascii	"lock\000"
 21231      00
 21232              	.LASF977:
 21233 0c18 6D61785F 		.ascii	"max_buffer\000"
 21233      62756666 
 21233      657200
 21234              	.LASF473:
 21235 0c23 46415354 		.ascii	"FAST_DUTY_CYCLE_16_9\000"
 21235      5F445554 
 21235      595F4359 
 21235      434C455F 
 21235      31365F39 
 21236              	.LASF814:
 21237 0c38 5F73697A 		.ascii	"_size\000"
 21237      6500
 21238              	.LASF24:
 21239 0c3e 75696E74 		.ascii	"uint64_t\000"
 21239      36345F74 
 21239      00
 21240              	.LASF213:
ARM GAS  C:\Users\JEANCO~1\AppData\Local\Temp\ccxhVNGN.s 			page 385


 21241 0c47 6E5F6374 		.ascii	"n_ctxswc\000"
 21241      78737763 
 21241      00
 21242              	.LASF1001:
 21243 0c50 6D61785F 		.ascii	"max_norm_index\000"
 21243      6E6F726D 
 21243      5F696E64 
 21243      657800
 21244              	.LASF252:
 21245 0c5f 63685F64 		.ascii	"ch_debug\000"
 21245      65627567 
 21245      00
 21246              	.LASF981:
 21247 0c68 676F616C 		.ascii	"goal\000"
 21247      00
 21248              	.LASF415:
 21249 0c6d 696E6974 		.ascii	"init\000"
 21249      00
 21250              	.LASF130:
 21251 0c72 464D3152 		.ascii	"FM1R\000"
 21251      00
 21252              	.LASF796:
 21253 0c77 5F5F746D 		.ascii	"__tm_min\000"
 21253      5F6D696E 
 21253      00
 21254              	.LASF331:
 21255 0c80 50414C43 		.ascii	"PALConfig\000"
 21255      6F6E6669 
 21255      6700
 21256              	.LASF698:
 21257 0c8a 7478636E 		.ascii	"txcnt\000"
 21257      7400
 21258              	.LASF893:
 21259 0c90 73756273 		.ascii	"subspaces\000"
 21259      70616365 
 21259      7300
 21260              	.LASF612:
 21261 0c9a 75736265 		.ascii	"usbeventcb_t\000"
 21261      76656E74 
 21261      63625F74 
 21261      00
 21262              	.LASF293:
 21263 0ca7 424C4B5F 		.ascii	"BLK_ACTIVE\000"
 21263      41435449 
 21263      564500
 21264              	.LASF800:
 21265 0cb2 5F5F746D 		.ascii	"__tm_year\000"
 21265      5F796561 
 21265      7200
 21266              	.LASF257:
 21267 0cbc 6576656E 		.ascii	"event_listener_t\000"
 21267      745F6C69 
 21267      7374656E 
 21267      65725F74 
 21267      00
 21268              	.LASF826:
 21269 0ccd 5F626C6B 		.ascii	"_blksize\000"
ARM GAS  C:\Users\JEANCO~1\AppData\Local\Temp\ccxhVNGN.s 			page 386


 21269      73697A65 
 21269      00
 21270              	.LASF690:
 21271 0cd6 6F74675F 		.ascii	"otg_ram_size\000"
 21271      72616D5F 
 21271      73697A65 
 21271      00
 21272              	.LASF692:
 21273 0ce3 73746D33 		.ascii	"stm32_otg_params_t\000"
 21273      325F6F74 
 21273      675F7061 
 21273      72616D73 
 21273      5F7400
 21274              	.LASF685:
 21275 0cf6 72657376 		.ascii	"resvdD00\000"
 21275      64443030 
 21275      00
 21276              	.LASF185:
 21277 0cff 52584352 		.ascii	"RXCRCR\000"
 21277      435200
 21278              	.LASF701:
 21279 0d06 72786275 		.ascii	"rxbuf\000"
 21279      6600
 21280              	.LASF641:
 21281 0d0c 47494E54 		.ascii	"GINTSTS\000"
 21281      53545300 
 21282              	.LASF227:
 21283 0d14 63685F6D 		.ascii	"ch_mutex\000"
 21283      75746578 
 21283      00
 21284              	.LASF383:
 21285 0d1d 7478656D 		.ascii	"txempty_event\000"
 21285      7074795F 
 21285      6576656E 
 21285      7400
 21286              	.LASF723:
 21287 0d2b 5344555F 		.ascii	"SDU_UNINIT\000"
 21287      554E494E 
 21287      495400
 21288              	.LASF506:
 21289 0d36 50574D44 		.ascii	"PWMDriver\000"
 21289      72697665 
 21289      7200
 21290              	.LASF328:
 21291 0d40 50474461 		.ascii	"PGData\000"
 21291      746100
 21292              	.LASF987:
 21293 0d47 76616C65 		.ascii	"valeur\000"
 21293      757200
 21294              	.LASF515:
 21295 0d4e 50574D43 		.ascii	"PWMConfig\000"
 21295      6F6E6669 
 21295      6700
 21296              	.LASF875:
 21297 0d58 5F6D6272 		.ascii	"_mbrlen_state\000"
 21297      6C656E5F 
 21297      73746174 
ARM GAS  C:\Users\JEANCO~1\AppData\Local\Temp\ccxhVNGN.s 			page 387


 21297      6500
 21298              	.LASF967:
 21299 0d66 74696D65 		.ascii	"time\000"
 21299      00
 21300              	.LASF900:
 21301 0d6b 76616C75 		.ascii	"value\000"
 21301      6500
 21302              	.LASF242:
 21303 0d71 63665F6F 		.ascii	"cf_off_newer\000"
 21303      66665F6E 
 21303      65776572 
 21303      00
 21304              	.LASF670:
 21305 0d7e 44494550 		.ascii	"DIEPMSK\000"
 21305      4D534B00 
 21306              	.LASF637:
 21307 0d86 474F5447 		.ascii	"GOTGINT\000"
 21307      494E5400 
 21308              	.LASF709:
 21309 0d8e 6F75745F 		.ascii	"out_cb\000"
 21309      636200
 21310              	.LASF661:
 21311 0d95 4841494E 		.ascii	"HAINTMSK\000"
 21311      544D534B 
 21311      00
 21312              	.LASF571:
 21313 0d9e 6F75745F 		.ascii	"out_params\000"
 21313      70617261 
 21313      6D7300
 21314              	.LASF198:
 21315 0da9 73655F77 		.ascii	"se_wtobjp\000"
 21315      746F626A 
 21315      7000
 21316              	.LASF109:
 21317 0db3 4A535152 		.ascii	"JSQR\000"
 21317      00
 21318              	.LASF834:
 21319 0db8 5F737464 		.ascii	"_stdin\000"
 21319      696E00
 21320              	.LASF882:
 21321 0dbf 5F6E6D61 		.ascii	"_nmalloc\000"
 21321      6C6C6F63 
 21321      00
 21322              	.LASF453:
 21323 0dc8 64696572 		.ascii	"dier\000"
 21323      00
 21324              	.LASF549:
 21325 0dcd 69735F70 		.ascii	"is_protected\000"
 21325      726F7465 
 21325      63746564 
 21325      00
 21326              	.LASF75:
 21327 0dda 76697274 		.ascii	"virtual_timer_t\000"
 21327      75616C5F 
 21327      74696D65 
 21327      725F7400 
 21328              	.LASF711:
ARM GAS  C:\Users\JEANCO~1\AppData\Local\Temp\ccxhVNGN.s 			page 388


 21329 0dea 6F75745F 		.ascii	"out_maxsize\000"
 21329      6D617873 
 21329      697A6500 
 21330              	.LASF70:
 21331 0df6 725F6374 		.ascii	"r_ctx\000"
 21331      7800
 21332              	.LASF77:
 21333 0dfc 76745F6E 		.ascii	"vt_next\000"
 21333      65787400 
 21334              	.LASF488:
 21335 0e04 4932535F 		.ascii	"I2S_STOP\000"
 21335      53544F50 
 21335      00
 21336              	.LASF503:
 21337 0e0d 50574D5F 		.ascii	"PWM_STOP\000"
 21337      53544F50 
 21337      00
 21338              	.LASF955:
 21339 0e16 6D696342 		.ascii	"micBack_cmplx_input\000"
 21339      61636B5F 
 21339      636D706C 
 21339      785F696E 
 21339      70757400 
 21340              	.LASF25:
 21341 0e2a 7274636E 		.ascii	"rtcnt_t\000"
 21341      745F7400 
 21342              	.LASF353:
 21343 0e32 6D757465 		.ascii	"mutex\000"
 21343      7800
 21344              	.LASF497:
 21345 0e38 73697A65 		.ascii	"size\000"
 21345      00
 21346              	.LASF990:
 21347 0e3d 6D61785F 		.ascii	"max_right\000"
 21347      72696768 
 21347      7400
 21348              	.LASF1061:
 21349 0e47 6D5F615F 		.ascii	"m_a_j_coeff_catpeurs\000"
 21349      6A5F636F 
 21349      6566665F 
 21349      63617470 
 21349      65757273 
 21350              	.LASF401:
 21351 0e5c 44414344 		.ascii	"DACDriver\000"
 21351      72697665 
 21351      7200
 21352              	.LASF417:
 21353 0e66 44414343 		.ascii	"DACConfig\000"
 21353      6F6E6669 
 21353      6700
 21354              	.LASF582:
 21355 0e70 74787065 		.ascii	"txpending\000"
 21355      6E64696E 
 21355      6700
 21356              	.LASF438:
 21357 0e7a 636C6F63 		.ascii	"clock\000"
 21357      6B00
ARM GAS  C:\Users\JEANCO~1\AppData\Local\Temp\ccxhVNGN.s 			page 389


 21358              	.LASF305:
 21359 0e80 636C6561 		.ascii	"clear\000"
 21359      7200
 21360              	.LASF448:
 21361 0e86 43435852 		.ascii	"CCXR\000"
 21361      00
 21362              	.LASF998:
 21363 0e8b 77616974 		.ascii	"wait_send_to_computer\000"
 21363      5F73656E 
 21363      645F746F 
 21363      5F636F6D 
 21363      70757465 
 21364              	.LASF139:
 21365 0ea1 43414E5F 		.ascii	"CAN_TypeDef\000"
 21365      54797065 
 21365      44656600 
 21366              	.LASF755:
 21367 0ead 5F6F6666 		.ascii	"_off_t\000"
 21367      5F7400
 21368              	.LASF200:
 21369 0eb4 63685F73 		.ascii	"ch_swc_event_t\000"
 21369      77635F65 
 21369      76656E74 
 21369      5F7400
 21370              	.LASF521:
 21371 0ec3 53445F53 		.ascii	"SD_STOP\000"
 21371      544F5000 
 21372              	.LASF616:
 21373 0ecb 72657376 		.ascii	"resvd8\000"
 21373      643800
 21374              	.LASF6:
 21375 0ed2 73697A65 		.ascii	"size_t\000"
 21375      5F7400
 21376              	.LASF96:
 21377 0ed9 6B65726E 		.ascii	"kernel_stats\000"
 21377      656C5F73 
 21377      74617473 
 21377      00
 21378              	.LASF683:
 21379 0ee6 72657376 		.ascii	"resvd880\000"
 21379      64383830 
 21379      00
 21380              	.LASF907:
 21381 0eef 70617261 		.ascii	"parameter_root\000"
 21381      6D657465 
 21381      725F726F 
 21381      6F7400
 21382              	.LASF760:
 21383 0efe 5F5F636F 		.ascii	"__count\000"
 21383      756E7400 
 21384              	.LASF19:
 21385 0f06 75696E74 		.ascii	"uint8_t\000"
 21385      385F7400 
 21386              	.LASF620:
 21387 0f0e 72657376 		.ascii	"resvd14\000"
 21387      64313400 
 21388              	.LASF621:
ARM GAS  C:\Users\JEANCO~1\AppData\Local\Temp\ccxhVNGN.s 			page 390


 21389 0f16 72657376 		.ascii	"resvd18\000"
 21389      64313800 
 21390              	.LASF72:
 21391 0f1e 725F6F6C 		.ascii	"r_older\000"
 21391      64657200 
 21392              	.LASF40:
 21393 0f26 705F7072 		.ascii	"p_prev\000"
 21393      657600
 21394              	.LASF244:
 21395 0f2d 63665F6F 		.ascii	"cf_off_name\000"
 21395      66665F6E 
 21395      616D6500 
 21396              	.LASF514:
 21397 0f39 50574D43 		.ascii	"PWMChannelConfig\000"
 21397      68616E6E 
 21397      656C436F 
 21397      6E666967 
 21397      00
 21398              	.LASF513:
 21399 0f4a 70776D63 		.ascii	"pwmcnt_t\000"
 21399      6E745F74 
 21399      00
 21400              	.LASF679:
 21401 0f53 44494550 		.ascii	"DIEPEMPMSK\000"
 21401      454D504D 
 21401      534B00
 21402              	.LASF918:
 21403 0f5e 52494748 		.ascii	"RIGHT_OUTPUT\000"
 21403      545F4F55 
 21403      54505554 
 21403      00
 21404              	.LASF748:
 21405 0f6b 64636D69 		.ascii	"dcmicallback_t\000"
 21405      63616C6C 
 21405      6261636B 
 21405      5F7400
 21406              	.LASF624:
 21407 0f7a 44494550 		.ascii	"DIEPCTL\000"
 21407      43544C00 
 21408              	.LASF263:
 21409 0f82 656C5F77 		.ascii	"el_wflags\000"
 21409      666C6167 
 21409      7300
 21410              	.LASF580:
 21411 0f8c 6F746770 		.ascii	"otgparams\000"
 21411      6172616D 
 21411      7300
 21412              	.LASF201:
 21413 0f96 74625F73 		.ascii	"tb_size\000"
 21413      697A6500 
 21414              	.LASF325:
 21415 0f9e 50444461 		.ascii	"PDData\000"
 21415      746100
 21416              	.LASF544:
 21417 0fa5 73637261 		.ascii	"scratchpad\000"
 21417      74636870 
 21417      616400
ARM GAS  C:\Users\JEANCO~1\AppData\Local\Temp\ccxhVNGN.s 			page 391


 21418              	.LASF848:
 21419 0fb0 5F637674 		.ascii	"_cvtbuf\000"
 21419      62756600 
 21420              	.LASF713:
 21421 0fb8 6F75745F 		.ascii	"out_state\000"
 21421      73746174 
 21421      6500
 21422              	.LASF267:
 21423 0fc2 696F5F71 		.ascii	"io_queue_t\000"
 21423      75657565 
 21423      5F7400
 21424              	.LASF838:
 21425 0fcd 5F656D65 		.ascii	"_emergency\000"
 21425      7267656E 
 21425      637900
 21426              	.LASF560:
 21427 0fd8 73706973 		.ascii	"spistate_t\000"
 21427      74617465 
 21427      5F7400
 21428              	.LASF459:
 21429 0fe3 4932435F 		.ascii	"I2C_STOP\000"
 21429      53544F50 
 21429      00
 21430              	.LASF1012:
 21431 0fec 63616C63 		.ascii	"calcul_distance\000"
 21431      756C5F64 
 21431      69737461 
 21431      6E636500 
 21432              	.LASF481:
 21433 0ffc 61646472 		.ascii	"addr\000"
 21433      00
 21434              	.LASF124:
 21435 1001 52463052 		.ascii	"RF0R\000"
 21435      00
 21436              	.LASF343:
 21437 1006 4144435F 		.ascii	"ADC_ERR_DMAFAILURE\000"
 21437      4552525F 
 21437      444D4146 
 21437      41494C55 
 21437      524500
 21438              	.LASF558:
 21439 1019 5350495F 		.ascii	"SPI_ACTIVE\000"
 21439      41435449 
 21439      564500
 21440              	.LASF764:
 21441 1024 656E7669 		.ascii	"environ\000"
 21441      726F6E00 
 21442              	.LASF427:
 21443 102c 45585443 		.ascii	"EXTChannelConfig\000"
 21443      68616E6E 
 21443      656C436F 
 21443      6E666967 
 21443      00
 21444              	.LASF308:
 21445 103d 4F535045 		.ascii	"OSPEEDR\000"
 21445      45445200 
 21446              	.LASF391:
ARM GAS  C:\Users\JEANCO~1\AppData\Local\Temp\ccxhVNGN.s 			page 392


 21447 1045 4441435F 		.ascii	"DAC_READY\000"
 21447      52454144 
 21447      5900
 21448              	.LASF648:
 21449 104f 72657376 		.ascii	"resvd30\000"
 21449      64333000 
 21450              	.LASF759:
 21451 1057 5F5F7763 		.ascii	"__wchb\000"
 21451      686200
 21452              	.LASF649:
 21453 105e 72657376 		.ascii	"resvd34\000"
 21453      64333400 
 21454              	.LASF677:
 21455 1066 44564255 		.ascii	"DVBUSPULSE\000"
 21455      5350554C 
 21455      534500
 21456              	.LASF797:
 21457 1071 5F5F746D 		.ascii	"__tm_hour\000"
 21457      5F686F75 
 21457      7200
 21458              	.LASF292:
 21459 107b 424C4B5F 		.ascii	"BLK_STOP\000"
 21459      53544F50 
 21459      00
 21460              	.LASF529:
 21461 1084 53657269 		.ascii	"SerialDriverVMT\000"
 21461      616C4472 
 21461      69766572 
 21461      564D5400 
 21462              	.LASF598:
 21463 1094 5553425F 		.ascii	"USB_EP0_ERROR\000"
 21463      4550305F 
 21463      4552524F 
 21463      5200
 21464              	.LASF1054:
 21465 10a2 61726D5F 		.ascii	"arm_cmplx_mag_f32\000"
 21465      636D706C 
 21465      785F6D61 
 21465      675F6633 
 21465      3200
 21466              	.LASF1023:
 21467 10b4 6D6F7965 		.ascii	"moyenne_left\000"
 21467      6E6E655F 
 21467      6C656674 
 21467      00
 21468              	.LASF757:
 21469 10c1 77696E74 		.ascii	"wint_t\000"
 21469      5F7400
 21470              	.LASF988:
 21471 10c8 6765745F 		.ascii	"get_proxy_buffer_ptr\000"
 21471      70726F78 
 21471      795F6275 
 21471      66666572 
 21471      5F707472 
 21472              	.LASF550:
 21473 10dd 636F6E6E 		.ascii	"connect\000"
 21473      65637400 
ARM GAS  C:\Users\JEANCO~1\AppData\Local\Temp\ccxhVNGN.s 			page 393


 21474              	.LASF125:
 21475 10e5 52463152 		.ascii	"RF1R\000"
 21475      00
 21476              	.LASF346:
 21477 10ea 41444344 		.ascii	"ADCDriver\000"
 21477      72697665 
 21477      7200
 21478              	.LASF691:
 21479 10f4 6E756D5F 		.ascii	"num_endpoints\000"
 21479      656E6470 
 21479      6F696E74 
 21479      7300
 21480              	.LASF369:
 21481 1102 41444343 		.ascii	"ADCConfig\000"
 21481      6F6E6669 
 21481      6700
 21482              	.LASF699:
 21483 110c 746F7473 		.ascii	"totsize\000"
 21483      697A6500 
 21484              	.LASF905:
 21485 1114 5F706172 		.ascii	"_param_val_matrix_s\000"
 21485      616D5F76 
 21485      616C5F6D 
 21485      61747269 
 21485      785F7300 
 21486              	.LASF856:
 21487 1128 5F6E696F 		.ascii	"_niobs\000"
 21487      627300
 21488              	.LASF522:
 21489 112f 53445F52 		.ascii	"SD_READY\000"
 21489      45414459 
 21489      00
 21490              	.LASF614:
 21491 1138 75736267 		.ascii	"usbgetdescriptor_t\000"
 21491      65746465 
 21491      73637269 
 21491      70746F72 
 21491      5F7400
 21492              	.LASF1057:
 21493 114b 474E5520 		.ascii	"GNU C11 7.2.1 20170904 (release) [ARM/embedded-7-br"
 21493      43313120 
 21493      372E322E 
 21493      31203230 
 21493      31373039 
 21494 117e 616E6368 		.ascii	"anch revision 255204] -mcpu=cortex-m4 -mfloat-abi=h"
 21494      20726576 
 21494      6973696F 
 21494      6E203235 
 21494      35323034 
 21495 11b1 61726420 		.ascii	"ard -mfpu=fpv4-sp-d16 -mno-thumb-interwork -mthumb "
 21495      2D6D6670 
 21495      753D6670 
 21495      76342D73 
 21495      702D6431 
 21496 11e4 2D676764 		.ascii	"-ggdb -O2 -fomit-frame-pointer -falign-functions=16"
 21496      62202D4F 
 21496      32202D66 
ARM GAS  C:\Users\JEANCO~1\AppData\Local\Temp\ccxhVNGN.s 			page 394


 21496      6F6D6974 
 21496      2D667261 
 21497 1217 202D666E 		.ascii	" -fno-strict-aliasing -fstack-protector-all -ffunct"
 21497      6F2D7374 
 21497      72696374 
 21497      2D616C69 
 21497      6173696E 
 21498 124a 696F6E2D 		.ascii	"ion-sections -fdata-sections -fno-common -fsingle-p"
 21498      73656374 
 21498      696F6E73 
 21498      202D6664 
 21498      6174612D 
 21499 127d 72656369 		.ascii	"recision-constant\000"
 21499      73696F6E 
 21499      2D636F6E 
 21499      7374616E 
 21499      7400
 21500              	.LASF949:
 21501 128f 6E62725F 		.ascii	"nbr_passage\000"
 21501      70617373 
 21501      61676500 
 21502              	.LASF394:
 21503 129b 4441435F 		.ascii	"DAC_ERROR\000"
 21503      4552524F 
 21503      5200
 21504              	.LASF833:
 21505 12a5 5F657272 		.ascii	"_errno\000"
 21505      6E6F00
 21506              	.LASF784:
 21507 12ac 6D657373 		.ascii	"messagebus_t\000"
 21507      61676562 
 21507      75735F74 
 21507      00
 21508              	.LASF593:
 21509 12b9 5553425F 		.ascii	"USB_EP0_TX\000"
 21509      4550305F 
 21509      545800
 21510              	.LASF572:
 21511 12c4 65703073 		.ascii	"ep0state\000"
 21511      74617465 
 21511      00
 21512              	.LASF896:
 21513 12cd 70617261 		.ascii	"parameter_s\000"
 21513      6D657465 
 21513      725F7300 
 21514              	.LASF770:
 21515 12d9 746F7069 		.ascii	"topic_s\000"
 21515      635F7300 
 21516              	.LASF285:
 21517 12e1 69666372 		.ascii	"ifcr\000"
 21517      00
 21518              	.LASF487:
 21519 12e6 4932535F 		.ascii	"I2S_UNINIT\000"
 21519      554E494E 
 21519      495400
 21520              	.LASF729:
 21521 12f1 62756C6B 		.ascii	"bulk_in\000"
ARM GAS  C:\Users\JEANCO~1\AppData\Local\Temp\ccxhVNGN.s 			page 395


 21521      5F696E00 
 21522              	.LASF314:
 21523 12f9 73746D33 		.ascii	"stm32_gpio_t\000"
 21523      325F6770 
 21523      696F5F74 
 21523      00
 21524              	.LASF217:
 21525 1306 7264796D 		.ascii	"rdymsg\000"
 21525      736700
 21526              	.LASF805:
 21527 130d 5F666E61 		.ascii	"_fnargs\000"
 21527      72677300 
 21528              	.LASF504:
 21529 1315 50574D5F 		.ascii	"PWM_READY\000"
 21529      52454144 
 21529      5900
 21530              	.LASF115:
 21531 131f 54445452 		.ascii	"TDTR\000"
 21531      00
 21532              	.LASF930:
 21533 1324 44455252 		.ascii	"DERRIERE\000"
 21533      49455245 
 21533      00
 21534              	.LASF123:
 21535 132d 43414E5F 		.ascii	"CAN_FilterRegister_TypeDef\000"
 21535      46696C74 
 21535      65725265 
 21535      67697374 
 21535      65725F54 
 21536              	.LASF384:
 21537 1348 6572726F 		.ascii	"error_event\000"
 21537      725F6576 
 21537      656E7400 
 21538              	.LASF359:
 21539 1354 6E756D5F 		.ascii	"num_channels\000"
 21539      6368616E 
 21539      6E656C73 
 21539      00
 21540              	.LASF651:
 21541 1361 72657376 		.ascii	"resvd58\000"
 21541      64353800 
 21542              	.LASF700:
 21543 1369 55534249 		.ascii	"USBInEndpointState\000"
 21543      6E456E64 
 21543      706F696E 
 21543      74537461 
 21543      746500
 21544              	.LASF41:
 21545 137c 705F7072 		.ascii	"p_prio\000"
 21545      696F00
 21546              	.LASF898:
 21547 1383 64656669 		.ascii	"defined\000"
 21547      6E656400 
 21548              	.LASF268:
 21549 138b 696F5F71 		.ascii	"io_queue\000"
 21549      75657565 
 21549      00
ARM GAS  C:\Users\JEANCO~1\AppData\Local\Temp\ccxhVNGN.s 			page 396


 21550              	.LASF1008:
 21551 1394 63616C63 		.ascii	"calcul_angle\000"
 21551      756C5F61 
 21551      6E676C65 
 21551      00
 21552              	.LASF1056:
 21553 13a1 7365745F 		.ascii	"set_led\000"
 21553      6C656400 
 21554              	.LASF322:
 21555 13a9 50414461 		.ascii	"PAData\000"
 21555      746100
 21556              	.LASF17:
 21557 13b0 5F5F7569 		.ascii	"__uint64_t\000"
 21557      6E743634 
 21557      5F7400
 21558              	.LASF790:
 21559 13bb 5F6E6578 		.ascii	"_next\000"
 21559      7400
 21560              	.LASF910:
 21561 13c1 53445531 		.ascii	"SDU1\000"
 21561      00
 21562              	.LASF1014:
 21563 13c6 696E7465 		.ascii	"intensite_transition\000"
 21563      6E736974 
 21563      655F7472 
 21563      616E7369 
 21563      74696F6E 
 21564              	.LASF509:
 21565 13db 70776D63 		.ascii	"pwmcallback_t\000"
 21565      616C6C62 
 21565      61636B5F 
 21565      7400
 21566              	.LASF944:
 21567 13e9 4E554D5F 		.ascii	"NUM_LED\000"
 21567      4C454400 
 21568              	.LASF402:
 21569 13f1 70617261 		.ascii	"params\000"
 21569      6D7300
 21570              	.LASF597:
 21571 13f8 5553425F 		.ascii	"USB_EP0_SENDING_STS\000"
 21571      4550305F 
 21571      53454E44 
 21571      494E475F 
 21571      53545300 
 21572              	.LASF873:
 21573 140c 5F736967 		.ascii	"_signal_buf\000"
 21573      6E616C5F 
 21573      62756600 
 21574              	.LASF731:
 21575 1418 696E745F 		.ascii	"int_in\000"
 21575      696E00
 21576              	.LASF464:
 21577 141f 69326373 		.ascii	"i2cstate_t\000"
 21577      74617465 
 21577      5F7400
 21578              	.LASF819:
 21579 142a 5F636F6F 		.ascii	"_cookie\000"
ARM GAS  C:\Users\JEANCO~1\AppData\Local\Temp\ccxhVNGN.s 			page 397


 21579      6B696500 
 21580              	.LASF889:
 21581 1432 70617261 		.ascii	"parameter_namespace_t\000"
 21581      6D657465 
 21581      725F6E61 
 21581      6D657370 
 21581      6163655F 
 21582              	.LASF599:
 21583 1448 75736265 		.ascii	"usbep0state_t\000"
 21583      70307374 
 21583      6174655F 
 21583      7400
 21584              	.LASF406:
 21585 1456 64616365 		.ascii	"dacerror_t\000"
 21585      72726F72 
 21585      5F7400
 21586              	.LASF127:
 21587 1461 7354784D 		.ascii	"sTxMailBox\000"
 21587      61696C42 
 21587      6F7800
 21588              	.LASF341:
 21589 146c 61646373 		.ascii	"adcsample_t\000"
 21589      616D706C 
 21589      655F7400 
 21590              	.LASF439:
 21591 1478 67707463 		.ascii	"gptcallback_t\000"
 21591      616C6C62 
 21591      61636B5F 
 21591      7400
 21592              	.LASF271:
 21593 1486 715F6275 		.ascii	"q_buffer\000"
 21593      66666572 
 21593      00
 21594              	.LASF39:
 21595 148f 705F6E65 		.ascii	"p_next\000"
 21595      787400
 21596              	.LASF486:
 21597 1496 49324344 		.ascii	"I2CD1\000"
 21597      3100
 21598              	.LASF625:
 21599 149c 72657376 		.ascii	"resvd4\000"
 21599      643400
 21600              	.LASF567:
 21601 14a3 55534244 		.ascii	"USBDriver\000"
 21601      72697665 
 21601      7200
 21602              	.LASF684:
 21603 14ad 72657376 		.ascii	"resvd8C0\000"
 21603      64384330 
 21603      00
 21604              	.LASF721:
 21605 14b6 55534243 		.ascii	"USBConfig\000"
 21605      6F6E6669 
 21605      6700
 21606              	.LASF627:
 21607 14c0 72657376 		.ascii	"resvdC\000"
 21607      644300
ARM GAS  C:\Users\JEANCO~1\AppData\Local\Temp\ccxhVNGN.s 			page 398


 21608              	.LASF516:
 21609 14c7 50574D44 		.ascii	"PWMD2\000"
 21609      3200
 21610              	.LASF517:
 21611 14cd 50574D44 		.ascii	"PWMD3\000"
 21611      3300
 21612              	.LASF518:
 21613 14d3 50574D44 		.ascii	"PWMD4\000"
 21613      3400
 21614              	.LASF519:
 21615 14d9 50574D44 		.ascii	"PWMD5\000"
 21615      3500
 21616              	.LASF1022:
 21617 14df 6D6F7965 		.ascii	"moyenne_right\000"
 21617      6E6E655F 
 21617      72696768 
 21617      7400
 21618              	.LASF527:
 21619 14ed 6F717565 		.ascii	"oqueue\000"
 21619      756500
 21620              	.LASF29:
 21621 14f4 74726566 		.ascii	"trefs_t\000"
 21621      735F7400 
 21622              	.LASF58:
 21623 14fc 705F6D70 		.ascii	"p_mpool\000"
 21623      6F6F6C00 
 21624              	.LASF1002:
 21625 1504 706F696E 		.ascii	"point\000"
 21625      7400
 21626              	.LASF414:
 21627 150a 44414343 		.ascii	"DACConversionGroup\000"
 21627      6F6E7665 
 21627      7273696F 
 21627      6E47726F 
 21627      757000
 21628              	.LASF157:
 21629 151d 43575354 		.ascii	"CWSTRTR\000"
 21629      52545200 
 21630              	.LASF795:
 21631 1525 5F5F746D 		.ascii	"__tm_sec\000"
 21631      5F736563 
 21631      00
 21632              	.LASF714:
 21633 152e 696E5F6D 		.ascii	"in_multiplier\000"
 21633      756C7469 
 21633      706C6965 
 21633      7200
 21634              	.LASF339:
 21635 153c 4144435F 		.ascii	"ADC_ERROR\000"
 21635      4552524F 
 21635      5200
 21636              	.LASF804:
 21637 1546 5F6F6E5F 		.ascii	"_on_exit_args\000"
 21637      65786974 
 21637      5F617267 
 21637      7300
 21638              	.LASF919:
ARM GAS  C:\Users\JEANCO~1\AppData\Local\Temp\ccxhVNGN.s 			page 399


 21639 1554 46524F4E 		.ascii	"FRONT_OUTPUT\000"
 21639      545F4F55 
 21639      54505554 
 21639      00
 21640              	.LASF916:
 21641 1561 4241434B 		.ascii	"BACK_CMPLX_INPUT\000"
 21641      5F434D50 
 21641      4C585F49 
 21641      4E505554 
 21641      00
 21642              	.LASF865:
 21643 1572 5F6C6F63 		.ascii	"_localtime_buf\000"
 21643      616C7469 
 21643      6D655F62 
 21643      756600
 21644              	.LASF27:
 21645 1581 746D6F64 		.ascii	"tmode_t\000"
 21645      655F7400 
 21646              	.LASF743:
 21647 1589 44434D49 		.ascii	"DCMI_ERROR\000"
 21647      5F455252 
 21647      4F5200
 21648              	.LASF337:
 21649 1594 4144435F 		.ascii	"ADC_ACTIVE\000"
 21649      41435449 
 21649      564500
 21650              	.LASF813:
 21651 159f 5F626173 		.ascii	"_base\000"
 21651      6500
 21652              	.LASF106:
 21653 15a5 53515231 		.ascii	"SQR1\000"
 21653      00
 21654              	.LASF107:
 21655 15aa 53515232 		.ascii	"SQR2\000"
 21655      00
 21656              	.LASF108:
 21657 15af 53515233 		.ascii	"SQR3\000"
 21657      00
 21658              	.LASF310:
 21659 15b4 42535252 		.ascii	"BSRR\000"
 21659      00
 21660              	.LASF289:
 21661 15b9 73746D33 		.ascii	"stm32_dma_stream_t\000"
 21661      325F646D 
 21661      615F7374 
 21661      7265616D 
 21661      5F7400
 21662              	.LASF719:
 21663 15cc 72657175 		.ascii	"requests_hook_cb\000"
 21663      65737473 
 21663      5F686F6F 
 21663      6B5F6362 
 21663      00
 21664              	.LASF878:
 21665 15dd 5F776372 		.ascii	"_wcrtomb_state\000"
 21665      746F6D62 
 21665      5F737461 
ARM GAS  C:\Users\JEANCO~1\AppData\Local\Temp\ccxhVNGN.s 			page 400


 21665      746500
 21666              	.LASF536:
 21667 15ec 5344435F 		.ascii	"SDC_MODE_8BIT\000"
 21667      4D4F4445 
 21667      5F384249 
 21667      5400
 21668              	.LASF963:
 21669 15fa 7669745F 		.ascii	"vit_gauche\000"
 21669      67617563 
 21669      686500
 21670              	.LASF1051:
 21671 1605 63685365 		.ascii	"chSemSignalI\000"
 21671      6D536967 
 21671      6E616C49 
 21671      00
 21672              	.LASF697:
 21673 1612 74787369 		.ascii	"txsize\000"
 21673      7A6500
 21674              	.LASF925:
 21675 1619 4241434B 		.ascii	"BACK\000"
 21675      00
 21676              	.LASF410:
 21677 161e 4441435F 		.ascii	"DAC_DHRM_12BIT_LEFT\000"
 21677      4448524D 
 21677      5F313242 
 21677      49545F4C 
 21677      45465400 
 21678              	.LASF913:
 21679 1632 4C454654 		.ascii	"LEFT_CMPLX_INPUT\000"
 21679      5F434D50 
 21679      4C585F49 
 21679      4E505554 
 21679      00
 21680              	.LASF507:
 21681 1643 70657269 		.ascii	"period\000"
 21681      6F6400
 21682              	.LASF945:
 21683 164a 73656E64 		.ascii	"sendToComputer_sem\000"
 21683      546F436F 
 21683      6D707574 
 21683      65725F73 
 21683      656D00
 21684              	.LASF463:
 21685 165d 4932435F 		.ascii	"I2C_LOCKED\000"
 21685      4C4F434B 
 21685      454400
 21686              	.LASF1028:
 21687 1668 63684253 		.ascii	"chBSemSignalI\000"
 21687      656D5369 
 21687      676E616C 
 21687      4900
 21688              	.LASF88:
 21689 1676 6973725F 		.ascii	"isr_cnt\000"
 21689      636E7400 
 21690              	.LASF588:
 21691 167e 5553425F 		.ascii	"USB_READY\000"
 21691      52454144 
ARM GAS  C:\Users\JEANCO~1\AppData\Local\Temp\ccxhVNGN.s 			page 401


 21691      5900
 21692              	.LASF533:
 21693 1688 72656164 		.ascii	"readt\000"
 21693      7400
 21694              	.LASF830:
 21695 168e 5F6D6273 		.ascii	"_mbstate\000"
 21695      74617465 
 21695      00
 21696              	.LASF640:
 21697 1697 47525354 		.ascii	"GRSTCTL\000"
 21697      43544C00 
 21698              	.LASF436:
 21699 169f 67707473 		.ascii	"gptstate_t\000"
 21699      74617465 
 21699      5F7400
 21700              	.LASF788:
 21701 16aa 5F5F554C 		.ascii	"__ULong\000"
 21701      6F6E6700 
 21702              	.LASF87:
 21703 16b2 70616E69 		.ascii	"panic_msg\000"
 21703      635F6D73 
 21703      6700
 21704              	.LASF559:
 21705 16bc 5350495F 		.ascii	"SPI_COMPLETE\000"
 21705      434F4D50 
 21705      4C455445 
 21705      00
 21706              	.LASF926:
 21707 16c9 4D494352 		.ascii	"MICRO_NAME\000"
 21707      4F5F4E41 
 21707      4D4500
 21708              	.LASF176:
 21709 16d4 4454494D 		.ascii	"DTIMER\000"
 21709      455200
 21710              	.LASF71:
 21711 16db 725F6E65 		.ascii	"r_newer\000"
 21711      77657200 
 21712              	.LASF605:
 21713 16e3 5553425F 		.ascii	"USB_EVENT_STALLED\000"
 21713      4556454E 
 21713      545F5354 
 21713      414C4C45 
 21713      4400
 21714              	.LASF251:
 21715 16f5 63686465 		.ascii	"chdebug_t\000"
 21715      6275675F 
 21715      7400
 21716              	.LASF1044:
 21717 16ff 5F646267 		.ascii	"_dbg_check_unlock\000"
 21717      5F636865 
 21717      636B5F75 
 21717      6E6C6F63 
 21717      6B00
 21718              	.LASF703:
 21719 1711 72787369 		.ascii	"rxsize\000"
 21719      7A6500
 21720              	.LASF619:
ARM GAS  C:\Users\JEANCO~1\AppData\Local\Temp\ccxhVNGN.s 			page 402


 21721 1718 48435453 		.ascii	"HCTSIZ\000"
 21721      495A00
 21722              	.LASF602:
 21723 171f 5553425F 		.ascii	"USB_EVENT_CONFIGURED\000"
 21723      4556454E 
 21723      545F434F 
 21723      4E464947 
 21723      55524544 
 21724              	.LASF551:
 21725 1734 64697363 		.ascii	"disconnect\000"
 21725      6F6E6E65 
 21725      637400
 21726              	.LASF768:
 21727 173f 6F70746F 		.ascii	"optopt\000"
 21727      707400
 21728              	.LASF530:
 21729 1746 70757474 		.ascii	"putt\000"
 21729      00
 21730              	.LASF30:
 21731 174b 74736C69 		.ascii	"tslices_t\000"
 21731      6365735F 
 21731      7400
 21732              	.LASF863:
 21733 1755 5F737472 		.ascii	"_strtok_last\000"
 21733      746F6B5F 
 21733      6C617374 
 21733      00
 21734              	.LASF238:
 21735 1762 63685F74 		.ascii	"ch_timesize\000"
 21735      696D6573 
 21735      697A6500 
 21736              	.LASF954:
 21737 176e 6D696346 		.ascii	"micFront_cmplx_input\000"
 21737      726F6E74 
 21737      5F636D70 
 21737      6C785F69 
 21737      6E707574 
 21738              	.LASF584:
 21739 1783 77615F70 		.ascii	"wa_pump\000"
 21739      756D7000 
 21740              	.LASF181:
 21741 178b 4649464F 		.ascii	"FIFOCNT\000"
 21741      434E5400 
 21742              	.LASF266:
 21743 1793 6576656E 		.ascii	"event_source_t\000"
 21743      745F736F 
 21743      75726365 
 21743      5F7400
 21744              	.LASF654:
 21745 17a2 72657376 		.ascii	"resvd140\000"
 21745      64313430 
 21745      00
 21746              	.LASF79:
 21747 17ab 76745F64 		.ascii	"vt_delta\000"
 21747      656C7461 
 21747      00
 21748              	.LASF859:
ARM GAS  C:\Users\JEANCO~1\AppData\Local\Temp\ccxhVNGN.s 			page 403


 21749 17b4 5F736565 		.ascii	"_seed\000"
 21749      6400
 21750              	.LASF202:
 21751 17ba 74625F70 		.ascii	"tb_ptr\000"
 21751      747200
 21752              	.LASF413:
 21753 17c1 74726967 		.ascii	"trigger\000"
 21753      67657200 
 21754              	.LASF822:
 21755 17c9 5F736565 		.ascii	"_seek\000"
 21755      6B00
 21756              	.LASF603:
 21757 17cf 5553425F 		.ascii	"USB_EVENT_SUSPEND\000"
 21757      4556454E 
 21757      545F5355 
 21757      5350454E 
 21757      4400
 21758              	.LASF20:
 21759 17e1 696E7431 		.ascii	"int16_t\000"
 21759      365F7400 
 21760              	.LASF432:
 21761 17e9 4750545F 		.ascii	"GPT_STOP\000"
 21761      53544F50 
 21761      00
 21762              	.LASF114:
 21763 17f2 4144435F 		.ascii	"ADC_TypeDef\000"
 21763      54797065 
 21763      44656600 
 21764              	.LASF12:
 21765 17fe 73686F72 		.ascii	"short unsigned int\000"
 21765      7420756E 
 21765      7369676E 
 21765      65642069 
 21765      6E7400
 21766              	.LASF475:
 21767 1811 6F705F6D 		.ascii	"op_mode\000"
 21767      6F646500 
 21768              	.LASF5:
 21769 1819 7369676E 		.ascii	"signed char\000"
 21769      65642063 
 21769      68617200 
 21770              	.LASF895:
 21771 1825 70617261 		.ascii	"parameter_t\000"
 21771      6D657465 
 21771      725F7400 
 21772              	.LASF542:
 21773 1831 63617264 		.ascii	"cardmode\000"
 21773      6D6F6465 
 21773      00
 21774              	.LASF50:
 21775 183a 705F7072 		.ascii	"p_preempt\000"
 21775      65656D70 
 21775      7400
 21776              	.LASF36:
 21777 1844 75636E74 		.ascii	"ucnt_t\000"
 21777      5F7400
 21778              	.LASF117:
ARM GAS  C:\Users\JEANCO~1\AppData\Local\Temp\ccxhVNGN.s 			page 404


 21779 184b 54444852 		.ascii	"TDHR\000"
 21779      00
 21780              	.LASF335:
 21781 1850 4144435F 		.ascii	"ADC_STOP\000"
 21781      53544F50 
 21781      00
 21782              	.LASF596:
 21783 1859 5553425F 		.ascii	"USB_EP0_RX\000"
 21783      4550305F 
 21783      525800
 21784              	.LASF935:
 21785 1864 5F5F6664 		.ascii	"__fdlibm_ieee\000"
 21785      6C69626D 
 21785      5F696565 
 21785      6500
 21786              	.LASF510:
 21787 1872 70776D6D 		.ascii	"pwmmode_t\000"
 21787      6F64655F 
 21787      7400
 21788              	.LASF577:
 21789 187c 73746174 		.ascii	"status\000"
 21789      757300
 21790              	.LASF177:
 21791 1883 444C454E 		.ascii	"DLEN\000"
 21791      00
 21792              	.LASF535:
 21793 1888 5344435F 		.ascii	"SDC_MODE_4BIT\000"
 21793      4D4F4445 
 21793      5F344249 
 21793      5400
 21794              	.LASF609:
 21795 1896 55534244 		.ascii	"USBDescriptor\000"
 21795      65736372 
 21795      6970746F 
 21795      7200
 21796              	.LASF562:
 21797 18a4 73706963 		.ascii	"spicallback_t\000"
 21797      616C6C62 
 21797      61636B5F 
 21797      7400
 21798              	.LASF1034:
 21799 18b2 5F5F6675 		.ascii	"__func__\000"
 21799      6E635F5F 
 21799      00
 21800              	.LASF846:
 21801 18bb 5F667265 		.ascii	"_freelist\000"
 21801      656C6973 
 21801      7400
 21802              	.LASF578:
 21803 18c5 61646472 		.ascii	"address\000"
 21803      65737300 
 21804              	.LASF53:
 21805 18cd 705F6D73 		.ascii	"p_msgqueue\000"
 21805      67717565 
 21805      756500
 21806              	.LASF248:
 21807 18d8 63665F6F 		.ascii	"cf_off_refs\000"
ARM GAS  C:\Users\JEANCO~1\AppData\Local\Temp\ccxhVNGN.s 			page 405


 21807      66665F72 
 21807      65667300 
 21808              	.LASF961:
 21809 18e4 77615069 		.ascii	"waPiRegulator\000"
 21809      52656775 
 21809      6C61746F 
 21809      7200
 21810              	.LASF546:
 21811 18f2 53444343 		.ascii	"SDCConfig\000"
 21811      6F6E6669 
 21811      6700
 21812              	.LASF229:
 21813 18fc 6D5F6F77 		.ascii	"m_owner\000"
 21813      6E657200 
 21814              	.LASF1027:
 21815 1904 63684253 		.ascii	"chBSemSignal\000"
 21815      656D5369 
 21815      676E616C 
 21815      00
 21816              	.LASF827:
 21817 1911 5F6F6666 		.ascii	"_offset\000"
 21817      73657400 
 21818              	.LASF903:
 21819 1919 5F706172 		.ascii	"_param_val_vector_s\000"
 21819      616D5F76 
 21819      616C5F76 
 21819      6563746F 
 21819      725F7300 
 21820              	.LASF99:
 21821 192d 53797374 		.ascii	"SystemCoreClock\000"
 21821      656D436F 
 21821      7265436C 
 21821      6F636B00 
 21822              	.LASF357:
 21823 193d 61646365 		.ascii	"adcerrorcallback_t\000"
 21823      72726F72 
 21823      63616C6C 
 21823      6261636B 
 21823      5F7400
 21824              	.LASF392:
 21825 1950 4441435F 		.ascii	"DAC_ACTIVE\000"
 21825      41435449 
 21825      564500
 21826              	.LASF347:
 21827 195b 73746174 		.ascii	"state\000"
 21827      6500
 21828              	.LASF236:
 21829 1961 63685F76 		.ascii	"ch_version\000"
 21829      65727369 
 21829      6F6E00
 21830              	.LASF812:
 21831 196c 5F5F7362 		.ascii	"__sbuf\000"
 21831      756600
 21832              	.LASF543:
 21833 1973 7364696F 		.ascii	"sdio\000"
 21833      00
 21834              	.LASF140:
ARM GAS  C:\Users\JEANCO~1\AppData\Local\Temp\ccxhVNGN.s 			page 406


 21835 1978 53575452 		.ascii	"SWTRIGR\000"
 21835      49475200 
 21836              	.LASF595:
 21837 1980 5553425F 		.ascii	"USB_EP0_WAITING_STS\000"
 21837      4550305F 
 21837      57414954 
 21837      494E475F 
 21837      53545300 
 21838              	.LASF168:
 21839 1994 4932435F 		.ascii	"I2C_TypeDef\000"
 21839      54797065 
 21839      44656600 
 21840              	.LASF996:
 21841 19a0 6765745F 		.ascii	"get_max_norm_index\000"
 21841      6D61785F 
 21841      6E6F726D 
 21841      5F696E64 
 21841      657800
 21842              	.LASF121:
 21843 19b3 52444852 		.ascii	"RDHR\000"
 21843      00
 21844              	.LASF767:
 21845 19b8 6F707465 		.ascii	"opterr\000"
 21845      727200
 21846              	.LASF861:
 21847 19bf 5F616464 		.ascii	"_add\000"
 21847      00
 21848              	.LASF446:
 21849 19c4 444D4152 		.ascii	"DMAR\000"
 21849      00
 21850              	.LASF452:
 21851 19c9 63616C6C 		.ascii	"callback\000"
 21851      6261636B 
 21851      00
 21852              	.LASF92:
 21853 19d2 63685F73 		.ascii	"ch_system\000"
 21853      79737465 
 21853      6D00
 21854              	.LASF169:
 21855 19dc 504F5745 		.ascii	"POWER\000"
 21855      5200
 21856              	.LASF832:
 21857 19e2 5F726565 		.ascii	"_reent\000"
 21857      6E7400
 21858              	.LASF90:
 21859 19e9 74726163 		.ascii	"trace_buffer\000"
 21859      655F6275 
 21859      66666572 
 21859      00
 21860              	.LASF872:
 21861 19f6 5F6C3634 		.ascii	"_l64a_buf\000"
 21861      615F6275 
 21861      6600
 21862              	.LASF864:
 21863 1a00 5F617363 		.ascii	"_asctime_buf\000"
 21863      74696D65 
 21863      5F627566 
ARM GAS  C:\Users\JEANCO~1\AppData\Local\Temp\ccxhVNGN.s 			page 407


 21863      00
 21864              	.LASF411:
 21865 1a0d 4441435F 		.ascii	"DAC_DHRM_8BIT_RIGHT\000"
 21865      4448524D 
 21865      5F384249 
 21865      545F5249 
 21865      47485400 
 21866              	.LASF431:
 21867 1a21 4750545F 		.ascii	"GPT_UNINIT\000"
 21867      554E494E 
 21867      495400
 21868              	.LASF758:
 21869 1a2c 5F5F7763 		.ascii	"__wch\000"
 21869      6800
 21870              	.LASF761:
 21871 1a32 5F5F7661 		.ascii	"__value\000"
 21871      6C756500 
 21872              	.LASF224:
 21873 1a3a 63685F73 		.ascii	"ch_semaphore\000"
 21873      656D6170 
 21873      686F7265 
 21873      00
 21874              	.LASF879:
 21875 1a47 5F776373 		.ascii	"_wcsrtombs_state\000"
 21875      72746F6D 
 21875      62735F73 
 21875      74617465 
 21875      00
 21876              	.LASF733:
 21877 1a58 53657269 		.ascii	"SerialUSBDriverVMT\000"
 21877      616C5553 
 21877      42447269 
 21877      76657256 
 21877      4D5400
 21878              	.LASF921:
 21879 1a6b 42554646 		.ascii	"BUFFER_NAME_t\000"
 21879      45525F4E 
 21879      414D455F 
 21879      7400
 21880              	.LASF745:
 21881 1a79 64636D69 		.ascii	"dcmistate_t\000"
 21881      73746174 
 21881      655F7400 
 21882              	.LASF968:
 21883 1a85 636F7272 		.ascii	"correction_proxy\000"
 21883      65637469 
 21883      6F6E5F70 
 21883      726F7879 
 21883      00
 21884              	.LASF628:
 21885 1a96 44494550 		.ascii	"DIEPTSIZ\000"
 21885      5453495A 
 21885      00
 21886              	.LASF1036:
 21887 1a9f 706F7274 		.ascii	"port_unlock\000"
 21887      5F756E6C 
 21887      6F636B00 
ARM GAS  C:\Users\JEANCO~1\AppData\Local\Temp\ccxhVNGN.s 			page 408


 21888              	.LASF901:
 21889 1aab 5F706172 		.ascii	"_param_val_str_s\000"
 21889      616D5F76 
 21889      616C5F73 
 21889      74725F73 
 21889      00
 21890              	.LASF362:
 21891 1abc 736D7072 		.ascii	"smpr1\000"
 21891      3100
 21892              	.LASF363:
 21893 1ac2 736D7072 		.ascii	"smpr2\000"
 21893      3200
 21894              	.LASF1018:
 21895 1ac8 6E6F726D 		.ascii	"norm_right\000"
 21895      5F726967 
 21895      687400
 21896              	.LASF1041:
 21897 1ad3 6C656674 		.ascii	"left_motor_set_speed\000"
 21897      5F6D6F74 
 21897      6F725F73 
 21897      65745F73 
 21897      70656564 
 21898              	.LASF64:
 21899 1ae8 74687265 		.ascii	"threads_queue_t\000"
 21899      6164735F 
 21899      71756575 
 21899      655F7400 
 21900              	.LASF300:
 21901 1af8 626C6B73 		.ascii	"blkstate_t\000"
 21901      74617465 
 21901      5F7400
 21902              	.LASF1060:
 21903 1b03 5F5F6664 		.ascii	"__fdlibm_version\000"
 21903      6C69626D 
 21903      5F766572 
 21903      73696F6E 
 21903      00
 21904              	.LASF1035:
 21905 1b14 63685379 		.ascii	"chSysLock\000"
 21905      734C6F63 
 21905      6B00
 21906              	.LASF51:
 21907 1b1e 705F7469 		.ascii	"p_time\000"
 21907      6D6500
 21908              	.LASF49:
 21909 1b25 705F7265 		.ascii	"p_refs\000"
 21909      667300
 21910              	.LASF706:
 21911 1b2c 65705F6D 		.ascii	"ep_mode\000"
 21911      6F646500 
 21912              	.LASF511:
 21913 1b34 70776D63 		.ascii	"pwmchannel_t\000"
 21913      68616E6E 
 21913      656C5F74 
 21913      00
 21914              	.LASF1063:
 21915 1b41 50695265 		.ascii	"PiRegulator\000"
ARM GAS  C:\Users\JEANCO~1\AppData\Local\Temp\ccxhVNGN.s 			page 409


 21915      67756C61 
 21915      746F7200 
 21916              	.LASF984:
 21917 1b4d 63616C63 		.ascii	"calcul_direction\000"
 21917      756C5F64 
 21917      69726563 
 21917      74696F6E 
 21917      00
 21918              	.LASF116:
 21919 1b5e 54444C52 		.ascii	"TDLR\000"
 21919      00
 21920              	.LASF14:
 21921 1b63 6C6F6E67 		.ascii	"long int\000"
 21921      20696E74 
 21921      00
 21922              	.LASF95:
 21923 1b6c 6D61696E 		.ascii	"mainthread\000"
 21923      74687265 
 21923      616400
 21924              	.LASF1040:
 21925 1b77 72696768 		.ascii	"right_motor_set_speed\000"
 21925      745F6D6F 
 21925      746F725F 
 21925      7365745F 
 21925      73706565 
 21926              	.LASF965:
 21927 1b8d 626F726E 		.ascii	"borne_gauche_min\000"
 21927      655F6761 
 21927      75636865 
 21927      5F6D696E 
 21927      00
 21928              	.LASF574:
 21929 1b9e 6570306E 		.ascii	"ep0n\000"
 21929      00
 21930              	.LASF687:
 21931 1ba3 72657376 		.ascii	"resvdE04\000"
 21931      64453034 
 21931      00
 21932              	.LASF228:
 21933 1bac 6D5F7175 		.ascii	"m_queue\000"
 21933      65756500 
 21934              	.LASF399:
 21935 1bb4 646D6169 		.ascii	"dmairqprio\000"
 21935      72717072 
 21935      696F00
 21936              	.LASF437:
 21937 1bbf 47505444 		.ascii	"GPTDriver\000"
 21937      72697665 
 21937      7200
 21938              	.LASF539:
 21939 1bc9 73646366 		.ascii	"sdcflags_t\000"
 21939      6C616773 
 21939      5F7400
 21940              	.LASF329:
 21941 1bd4 50484461 		.ascii	"PHData\000"
 21941      746100
 21942              	.LASF332:
ARM GAS  C:\Users\JEANCO~1\AppData\Local\Temp\ccxhVNGN.s 			page 410


 21943 1bdb 696F706F 		.ascii	"ioportid_t\000"
 21943      72746964 
 21943      5F7400
 21944              	.LASF781:
 21945 1be6 6D657373 		.ascii	"messagebus_topic_t\000"
 21945      61676562 
 21945      75735F74 
 21945      6F706963 
 21945      5F7400
 21946              	.LASF370:
 21947 1bf9 41444344 		.ascii	"ADCD1\000"
 21947      3100
 21948              	.LASF371:
 21949 1bff 41444344 		.ascii	"ADCD2\000"
 21949      3200
 21950              	.LASF372:
 21951 1c05 41444344 		.ascii	"ADCD3\000"
 21951      3300
 21952              	.LASF655:
 21953 1c0b 48434647 		.ascii	"HCFG\000"
 21953      00
 21954              	.LASF355:
 21955 1c10 646D616D 		.ascii	"dmamode\000"
 21955      6F646500 
 21956              	.LASF210:
 21957 1c18 63756D75 		.ascii	"cumulative\000"
 21957      6C617469 
 21957      766500
 21958              	.LASF857:
 21959 1c23 5F696F62 		.ascii	"_iobs\000"
 21959      7300
 21960              	.LASF566:
 21961 1c29 53504944 		.ascii	"SPID1\000"
 21961      3100
 21962              	.LASF531:
 21963 1c2f 67657474 		.ascii	"gett\000"
 21963      00
 21964              	.LASF1013:
 21965 1c34 696E7465 		.ascii	"intensite_moyenne\000"
 21965      6E736974 
 21965      655F6D6F 
 21965      79656E6E 
 21965      6500
 21966              	.LASF220:
 21967 1c46 77747472 		.ascii	"wttrp\000"
 21967      7000
 21968              	.LASF274:
 21969 1c4c 715F7264 		.ascii	"q_rdptr\000"
 21969      70747200 
 21970              	.LASF194:
 21971 1c54 636F6E74 		.ascii	"context\000"
 21971      65787400 
 21972              	.LASF281:
 21973 1c5c 77726974 		.ascii	"write\000"
 21973      6500
 21974              	.LASF867:
 21975 1c62 5F72616E 		.ascii	"_rand_next\000"
ARM GAS  C:\Users\JEANCO~1\AppData\Local\Temp\ccxhVNGN.s 			page 411


 21975      645F6E65 
 21975      787400
 21976              	.LASF526:
 21977 1c6d 69717565 		.ascii	"iqueue\000"
 21977      756500
 21978              	.LASF708:
 21979 1c74 696E5F63 		.ascii	"in_cb\000"
 21979      6200
 21980              	.LASF633:
 21981 1c7a 444F4550 		.ascii	"DOEPINT\000"
 21981      494E5400 
 21982              	.LASF209:
 21983 1c82 6C617374 		.ascii	"last\000"
 21983      00
 21984              	.LASF311:
 21985 1c87 4C434B52 		.ascii	"LCKR\000"
 21985      00
 21986              	.LASF523:
 21987 1c8c 73647374 		.ascii	"sdstate_t\000"
 21987      6174655F 
 21987      7400
 21988              	.LASF23:
 21989 1c96 75696E74 		.ascii	"uint32_t\000"
 21989      33325F74 
 21989      00
 21990              	.LASF396:
 21991 1c9f 64617461 		.ascii	"dataoffset\000"
 21991      6F666673 
 21991      657400
 21992              	.LASF791:
 21993 1caa 5F6D6178 		.ascii	"_maxwds\000"
 21993      77647300 
 21994              	.LASF298:
 21995 1cb2 424C4B5F 		.ascii	"BLK_WRITING\000"
 21995      57524954 
 21995      494E4700 
 21996              	.LASF120:
 21997 1cbe 52444C52 		.ascii	"RDLR\000"
 21997      00
 21998              	.LASF1005:
 21999 1cc3 63616C63 		.ascii	"calcul_moyenne\000"
 21999      756C5F6D 
 21999      6F79656E 
 21999      6E6500
 22000              	.LASF772:
 22001 1cd2 62756666 		.ascii	"buffer_len\000"
 22001      65725F6C 
 22001      656E00
 22002              	.LASF792:
 22003 1cdd 5F736967 		.ascii	"_sign\000"
 22003      6E00
 22004              	.LASF1037:
 22005 1ce3 706F7274 		.ascii	"port_lock\000"
 22005      5F6C6F63 
 22005      6B00
 22006              	.LASF4:
 22007 1ced 6C6F6E67 		.ascii	"long double\000"
ARM GAS  C:\Users\JEANCO~1\AppData\Local\Temp\ccxhVNGN.s 			page 412


 22007      20646F75 
 22007      626C6500 
 22008              	.LASF192:
 22009 1cf9 72656761 		.ascii	"regarm_t\000"
 22009      726D5F74 
 22009      00
 22010              	.LASF33:
 22011 1d02 6576656E 		.ascii	"eventmask_t\000"
 22011      746D6173 
 22011      6B5F7400 
 22012              	.LASF1026:
 22013 1d0e 736F756E 		.ascii	"sound_remote\000"
 22013      645F7265 
 22013      6D6F7465 
 22013      00
 22014              	.LASF350:
 22015 1d1b 64657074 		.ascii	"depth\000"
 22015      6800
 22016              	.LASF134:
 22017 1d21 46464131 		.ascii	"FFA1R\000"
 22017      5200
 22018              	.LASF589:
 22019 1d27 5553425F 		.ascii	"USB_SELECTED\000"
 22019      53454C45 
 22019      43544544 
 22019      00
 22020              	.LASF1052:
 22021 1d34 63685363 		.ascii	"chSchRescheduleS\000"
 22021      68526573 
 22021      63686564 
 22021      756C6553 
 22021      00
 22022              	.LASF16:
 22023 1d45 6C6F6E67 		.ascii	"long unsigned int\000"
 22023      20756E73 
 22023      69676E65 
 22023      6420696E 
 22023      7400
 22024              	.LASF581:
 22025 1d57 706D6E65 		.ascii	"pmnext\000"
 22025      787400
 22026              	.LASF490:
 22027 1d5e 4932535F 		.ascii	"I2S_ACTIVE\000"
 22027      41435449 
 22027      564500
 22028              	.LASF433:
 22029 1d69 4750545F 		.ascii	"GPT_READY\000"
 22029      52454144 
 22029      5900
 22030              	.LASF395:
 22031 1d73 64616373 		.ascii	"dacstate_t\000"
 22031      74617465 
 22031      5F7400
 22032              	.LASF744:
 22033 1d7e 44434D49 		.ascii	"DCMI_TIMEOUT\000"
 22033      5F54494D 
 22033      454F5554 
ARM GAS  C:\Users\JEANCO~1\AppData\Local\Temp\ccxhVNGN.s 			page 413


 22033      00
 22034              	.LASF197:
 22035 1d8b 73655F74 		.ascii	"se_tp\000"
 22035      7000
 22036              	.LASF971:
 22037 1d91 70756973 		.ascii	"puissance_moyenne\000"
 22037      73616E63 
 22037      655F6D6F 
 22037      79656E6E 
 22037      6500
 22038              	.LASF273:
 22039 1da3 715F7772 		.ascii	"q_wrptr\000"
 22039      70747200 
 22040              	.LASF403:
 22041 1dab 64616373 		.ascii	"dacsample_t\000"
 22041      616D706C 
 22041      655F7400 
 22042              	.LASF983:
 22043 1db7 73756D5F 		.ascii	"sum_error\000"
 22043      6572726F 
 22043      7200
 22044              	.LASF601:
 22045 1dc1 5553425F 		.ascii	"USB_EVENT_ADDRESS\000"
 22045      4556454E 
 22045      545F4144 
 22045      44524553 
 22045      5300
 22046              	.LASF498:
 22047 1dd3 69327363 		.ascii	"i2scfgr\000"
 22047      66677200 
 22048              	.LASF724:
 22049 1ddb 5344555F 		.ascii	"SDU_STOP\000"
 22049      53544F50 
 22049      00
 22050              	.LASF171:
 22051 1de4 52455350 		.ascii	"RESPCMD\000"
 22051      434D4400 
 22052              	.LASF382:
 22053 1dec 72786675 		.ascii	"rxfull_event\000"
 22053      6C6C5F65 
 22053      76656E74 
 22053      00
 22054              	.LASF606:
 22055 1df9 75736265 		.ascii	"usbevent_t\000"
 22055      76656E74 
 22055      5F7400
 22056              	.LASF823:
 22057 1e04 5F636C6F 		.ascii	"_close\000"
 22057      736500
 22058              	.LASF232:
 22059 1e0b 63686172 		.ascii	"char\000"
 22059      00
 22060              	.LASF992:
 22061 1e10 6D61785F 		.ascii	"max_front\000"
 22061      66726F6E 
 22061      7400
 22062              	.LASF735:
ARM GAS  C:\Users\JEANCO~1\AppData\Local\Temp\ccxhVNGN.s 			page 414


 22063 1e1a 44434D49 		.ascii	"DCMI_ERR_OVERFLOW\000"
 22063      5F455252 
 22063      5F4F5645 
 22063      52464C4F 
 22063      5700
 22064              	.LASF155:
 22065 1e2c 45534352 		.ascii	"ESCR\000"
 22065      00
 22066              	.LASF379:
 22067 1e31 43414E43 		.ascii	"CANConfig\000"
 22067      6F6E6669 
 22067      6700
 22068              	.LASF326:
 22069 1e3b 50454461 		.ascii	"PEData\000"
 22069      746100
 22070              	.LASF68:
 22071 1e42 725F7175 		.ascii	"r_queue\000"
 22071      65756500 
 22072              	.LASF855:
 22073 1e4a 5F676C75 		.ascii	"_glue\000"
 22073      6500
 22074              	.LASF785:
 22075 1e50 6D657373 		.ascii	"messagebus_watchgroup_s\000"
 22075      61676562 
 22075      75735F77 
 22075      61746368 
 22075      67726F75 
 22076              	.LASF508:
 22077 1e68 656E6162 		.ascii	"enabled\000"
 22077      6C656400 
 22078              	.LASF404:
 22079 1e70 4441435F 		.ascii	"DAC_ERR_DMAFAILURE\000"
 22079      4552525F 
 22079      444D4146 
 22079      41494C55 
 22079      524500
 22080              	.LASF645:
 22081 1e83 47525846 		.ascii	"GRXFSIZ\000"
 22081      53495A00 
 22082              	.LASF552:
 22083 1e8b 73796E63 		.ascii	"sync\000"
 22083      00
 22084              	.LASF528:
 22085 1e90 75736172 		.ascii	"usart\000"
 22085      7400
 22086              	.LASF1045:
 22087 1e96 5F737461 		.ascii	"_stats_stop_measure_crit_thd\000"
 22087      74735F73 
 22087      746F705F 
 22087      6D656173 
 22087      7572655F 
 22088              	.LASF158:
 22089 1eb3 43575349 		.ascii	"CWSIZER\000"
 22089      5A455200 
 22090              	.LASF538:
 22091 1ebb 7364636D 		.ascii	"sdcmode_t\000"
 22091      6F64655F 
ARM GAS  C:\Users\JEANCO~1\AppData\Local\Temp\ccxhVNGN.s 			page 415


 22091      7400
 22092              	.LASF276:
 22093 1ec5 715F6C69 		.ascii	"q_link\000"
 22093      6E6B00
 22094              	.LASF970:
 22095 1ecc 73706565 		.ascii	"speed_correction\000"
 22095      645F636F 
 22095      72726563 
 22095      74696F6E 
 22095      00
 22096              	.LASF950:
 22097 1edd 636F7465 		.ascii	"cote_max\000"
 22097      5F6D6178 
 22097      00
 22098              	.LASF1021:
 22099 1ee6 6E6F726D 		.ascii	"norm_back\000"
 22099      5F626163 
 22099      6B00
 22100              	.LASF749:
 22101 1ef0 64636D69 		.ascii	"dcmierrorcallback_t\000"
 22101      6572726F 
 22101      7263616C 
 22101      6C626163 
 22101      6B5F7400 
 22102              	.LASF666:
 22103 1f04 44434647 		.ascii	"DCFG\000"
 22103      00
 22104              	.LASF1059:
 22105 1f09 433A5C52 		.ascii	"C:\\Robotique\\Projet_robotique\000"
 22105      6F626F74 
 22105      69717565 
 22105      5C50726F 
 22105      6A65745F 
 22106              	.LASF789:
 22107 1f27 5F426967 		.ascii	"_Bigint\000"
 22107      696E7400 
 22108              	.LASF676:
 22109 1f2f 44564255 		.ascii	"DVBUSDIS\000"
 22109      53444953 
 22109      00
 22110              	.LASF642:
 22111 1f38 47494E54 		.ascii	"GINTMSK\000"
 22111      4D534B00 
 22112              	.LASF647:
 22113 1f40 484E5054 		.ascii	"HNPTXSTS\000"
 22113      58535453 
 22113      00
 22114              	.LASF579:
 22115 1f49 636F6E66 		.ascii	"configuration\000"
 22115      69677572 
 22115      6174696F 
 22115      6E00
 22116              	.LASF850:
 22117 1f57 5F617465 		.ascii	"_atexit0\000"
 22117      78697430 
 22117      00
 22118              	.LASF940:
ARM GAS  C:\Users\JEANCO~1\AppData\Local\Temp\ccxhVNGN.s 			page 416


 22119 1f60 4C454431 		.ascii	"LED1\000"
 22119      00
 22120              	.LASF941:
 22121 1f65 4C454433 		.ascii	"LED3\000"
 22121      00
 22122              	.LASF942:
 22123 1f6a 4C454435 		.ascii	"LED5\000"
 22123      00
 22124              	.LASF943:
 22125 1f6f 4C454437 		.ascii	"LED7\000"
 22125      00
 22126              	.LASF997:
 22127 1f74 65636861 		.ascii	"echantillone_distance\000"
 22127      6E74696C 
 22127      6C6F6E65 
 22127      5F646973 
 22127      74616E63 
 22128              	.LASF321:
 22129 1f8a 73746D33 		.ascii	"stm32_gpio_setup_t\000"
 22129      325F6770 
 22129      696F5F73 
 22129      65747570 
 22129      5F7400
 22130              	.LASF994:
 22131 1f9d 6765745F 		.ascii	"get_audio_buffer_ptr\000"
 22131      61756469 
 22131      6F5F6275 
 22131      66666572 
 22131      5F707472 
 22132              	.LASF917:
 22133 1fb2 4C454654 		.ascii	"LEFT_OUTPUT\000"
 22133      5F4F5554 
 22133      50555400 
 22134              	.LASF1050:
 22135 1fbe 63684462 		.ascii	"chDbgCheckClassI\000"
 22135      67436865 
 22135      636B436C 
 22135      61737349 
 22135      00
 22136              	.LASF290:
 22137 1fcf 5F73746D 		.ascii	"_stm32_dma_streams\000"
 22137      33325F64 
 22137      6D615F73 
 22137      74726561 
 22137      6D7300
 22138              	.LASF142:
 22139 1fe2 44485231 		.ascii	"DHR12L1\000"
 22139      324C3100 
 22140              	.LASF145:
 22141 1fea 44485231 		.ascii	"DHR12L2\000"
 22141      324C3200 
 22142              	.LASF874:
 22143 1ff2 5F676574 		.ascii	"_getdate_err\000"
 22143      64617465 
 22143      5F657272 
 22143      00
 22144              	.LASF915:
ARM GAS  C:\Users\JEANCO~1\AppData\Local\Temp\ccxhVNGN.s 			page 417


 22145 1fff 46524F4E 		.ascii	"FRONT_CMPLX_INPUT\000"
 22145      545F434D 
 22145      504C585F 
 22145      494E5055 
 22145      5400
 22146              	.LASF537:
 22147 2011 73646362 		.ascii	"sdcbusmode_t\000"
 22147      75736D6F 
 22147      64655F74 
 22147      00
 22148              	.LASF794:
 22149 201e 5F5F746D 		.ascii	"__tm\000"
 22149      00
 22150              	.LASF148:
 22151 2023 44485231 		.ascii	"DHR12LD\000"
 22151      324C4400 
 22152              	.LASF356:
 22153 202b 61646363 		.ascii	"adccallback_t\000"
 22153      616C6C62 
 22153      61636B5F 
 22153      7400
 22154              	.LASF787:
 22155 2039 6D657373 		.ascii	"messagebus_watchgroup_t\000"
 22155      61676562 
 22155      75735F77 
 22155      61746368 
 22155      67726F75 
 22156              	.LASF46:
 22157 2051 705F7374 		.ascii	"p_stklimit\000"
 22157      6B6C696D 
 22157      697400
 22158              	.LASF35:
 22159 205c 636E745F 		.ascii	"cnt_t\000"
 22159      7400
 22160              	.LASF422:
 22161 2062 65787473 		.ascii	"extstate_t\000"
 22161      74617465 
 22161      5F7400
 22162              	.LASF594:
 22163 206d 5553425F 		.ascii	"USB_EP0_WAITING_TX0\000"
 22163      4550305F 
 22163      57414954 
 22163      494E475F 
 22163      54583000 
 22164              	.LASF573:
 22165 2081 6570306E 		.ascii	"ep0next\000"
 22165      65787400 
 22166              	.LASF623:
 22167 2089 73746D33 		.ascii	"stm32_otg_host_chn_t\000"
 22167      325F6F74 
 22167      675F686F 
 22167      73745F63 
 22167      686E5F74 
 22168              	.LASF313:
 22169 209e 41465248 		.ascii	"AFRH\000"
 22169      00
 22170              	.LASF771:
ARM GAS  C:\Users\JEANCO~1\AppData\Local\Temp\ccxhVNGN.s 			page 418


 22171 20a3 62756666 		.ascii	"buffer\000"
 22171      657200
 22172              	.LASF312:
 22173 20aa 4146524C 		.ascii	"AFRL\000"
 22173      00
 22174              	.LASF886:
 22175 20af 5F696D70 		.ascii	"_impure_ptr\000"
 22175      7572655F 
 22175      70747200 
 22176              	.LASF249:
 22177 20bb 63665F6F 		.ascii	"cf_off_preempt\000"
 22177      66665F70 
 22177      7265656D 
 22177      707400
 22178              	.LASF883:
 22179 20ca 5F756E75 		.ascii	"_unused\000"
 22179      73656400 
 22180              	.LASF393:
 22181 20d2 4441435F 		.ascii	"DAC_COMPLETE\000"
 22181      434F4D50 
 22181      4C455445 
 22181      00
 22182              	.LASF632:
 22183 20df 444F4550 		.ascii	"DOEPCTL\000"
 22183      43544C00 
 22184              	.LASF618:
 22185 20e7 4843494E 		.ascii	"HCINTMSK\000"
 22185      544D534B 
 22185      00
 22186              	.LASF824:
 22187 20f0 5F756275 		.ascii	"_ubuf\000"
 22187      6600
 22188              	.LASF348:
 22189 20f6 636F6E66 		.ascii	"config\000"
 22189      696700
 22190              	.LASF456:
 22191 20fd 47505444 		.ascii	"GPTD11\000"
 22191      313100
 22192              	.LASF457:
 22193 2104 47505444 		.ascii	"GPTD12\000"
 22193      313200
 22194              	.LASF869:
 22195 210b 5F6D626C 		.ascii	"_mblen_state\000"
 22195      656E5F73 
 22195      74617465 
 22195      00
 22196              	.LASF852:
 22197 2118 5F5F7367 		.ascii	"__sglue\000"
 22197      6C756500 
 22198              	.LASF885:
 22199 2120 5F5F6C6F 		.ascii	"__locale_t\000"
 22199      63616C65 
 22199      5F7400
 22200              	.LASF993:
 22201 212b 6D61785F 		.ascii	"max_back\000"
 22201      6261636B 
 22201      00
ARM GAS  C:\Users\JEANCO~1\AppData\Local\Temp\ccxhVNGN.s 			page 419


 22202              	.LASF294:
 22203 2134 424C4B5F 		.ascii	"BLK_CONNECTING\000"
 22203      434F4E4E 
 22203      45435449 
 22203      4E4700
 22204              	.LASF922:
 22205 2143 4C454654 		.ascii	"LEFT\000"
 22205      00
 22206              	.LASF842:
 22207 2148 5F5F636C 		.ascii	"__cleanup\000"
 22207      65616E75 
 22207      7000
 22208              	.LASF389:
 22209 2152 4441435F 		.ascii	"DAC_UNINIT\000"
 22209      554E494E 
 22209      495400
 22210              	.LASF342:
 22211 215d 6164635F 		.ascii	"adc_channels_num_t\000"
 22211      6368616E 
 22211      6E656C73 
 22211      5F6E756D 
 22211      5F7400
 22212              	.LASF74:
 22213 2170 76746675 		.ascii	"vtfunc_t\000"
 22213      6E635F74 
 22213      00
 22214              	.LASF122:
 22215 2179 43414E5F 		.ascii	"CAN_FIFOMailBox_TypeDef\000"
 22215      4649464F 
 22215      4D61696C 
 22215      426F785F 
 22215      54797065 
 22216              	.LASF152:
 22217 2191 4441435F 		.ascii	"DAC_TypeDef\000"
 22217      54797065 
 22217      44656600 
 22218              	.LASF219:
 22219 219d 77746F62 		.ascii	"wtobjp\000"
 22219      6A7000
 22220              	.LASF756:
 22221 21a4 5F66706F 		.ascii	"_fpos_t\000"
 22221      735F7400 
 22222              	.LASF409:
 22223 21ac 4441435F 		.ascii	"DAC_DHRM_12BIT_RIGHT\000"
 22223      4448524D 
 22223      5F313242 
 22223      49545F52 
 22223      49474854 
 22224              	.LASF817:
 22225 21c1 5F66696C 		.ascii	"_file\000"
 22225      6500
 22226              	.LASF57:
 22227 21c7 705F7265 		.ascii	"p_realprio\000"
 22227      616C7072 
 22227      696F00
 22228              	.LASF541:
 22229 21d2 63617061 		.ascii	"capacity\000"
ARM GAS  C:\Users\JEANCO~1\AppData\Local\Temp\ccxhVNGN.s 			page 420


 22229      63697479 
 22229      00
 22230              	.LASF732:
 22231 21db 53657269 		.ascii	"SerialUSBConfig\000"
 22231      616C5553 
 22231      42436F6E 
 22231      66696700 
 22232              	.LASF275:
 22233 21eb 715F6E6F 		.ascii	"q_notify\000"
 22233      74696679 
 22233      00
 22234              	.LASF222:
 22235 21f4 77746D74 		.ascii	"wtmtxp\000"
 22235      787000
 22236              	.LASF815:
 22237 21fb 5F5F7346 		.ascii	"__sFILE\000"
 22237      494C4500 
 22238              	.LASF1:
 22239 2203 646F7562 		.ascii	"double\000"
 22239      6C6500
 22240              	.LASF811:
 22241 220a 5F666E73 		.ascii	"_fns\000"
 22241      00
 22242              	.LASF750:
 22243 220f 6672616D 		.ascii	"frame_end_cb\000"
 22243      655F656E 
 22243      645F6362 
 22243      00
 22244              	.LASF1065:
 22245 221c 63685654 		.ascii	"chVTGetSystemTimeX\000"
 22245      47657453 
 22245      79737465 
 22245      6D54696D 
 22245      655800
 22246              	.LASF705:
 22247 222f 5553424F 		.ascii	"USBOutEndpointState\000"
 22247      7574456E 
 22247      64706F69 
 22247      6E745374 
 22247      61746500 
 22248              	.LASF662:
 22249 2243 72657376 		.ascii	"resvd41C\000"
 22249      64343143 
 22249      00
 22250              	.LASF897:
 22251 224c 6368616E 		.ascii	"changed\000"
 22251      67656400 
 22252              	.LASF929:
 22253 2254 44455252 		.ascii	"DERRIERE_DROIT\000"
 22253      49455245 
 22253      5F44524F 
 22253      495400
 22254              	.LASF762:
 22255 2263 5F6D6273 		.ascii	"_mbstate_t\000"
 22255      74617465 
 22255      5F7400
 22256              	.LASF880:
ARM GAS  C:\Users\JEANCO~1\AppData\Local\Temp\ccxhVNGN.s 			page 421


 22257 226e 5F685F65 		.ascii	"_h_errno\000"
 22257      72726E6F 
 22257      00
 22258              	.LASF1010:
 22259 2277 7472616E 		.ascii	"transition\000"
 22259      73697469 
 22259      6F6E00
 22260              	.LASF119:
 22261 2282 52445452 		.ascii	"RDTR\000"
 22261      00
 22262              	.LASF302:
 22263 2287 626C6B5F 		.ascii	"blk_num\000"
 22263      6E756D00 
 22264              	.LASF600:
 22265 228f 5553425F 		.ascii	"USB_EVENT_RESET\000"
 22265      4556454E 
 22265      545F5245 
 22265      53455400 
 22266              	.LASF937:
 22267 229f 5F5F6664 		.ascii	"__fdlibm_xopen\000"
 22267      6C69626D 
 22267      5F786F70 
 22267      656E00
 22268              	.LASF969:
 22269 22ae 73706565 		.ascii	"speed\000"
 22269      6400
 22270              	.LASF67:
 22271 22b4 63685F72 		.ascii	"ch_ready_list\000"
 22271      65616479 
 22271      5F6C6973 
 22271      7400
 22272              	.LASF780:
 22273 22c2 67726F75 		.ascii	"group\000"
 22273      7000
 22274              	.LASF309:
 22275 22c8 50555044 		.ascii	"PUPDR\000"
 22275      5200
 22276              	.LASF13:
 22277 22ce 5F5F696E 		.ascii	"__int32_t\000"
 22277      7433325F 
 22277      7400
 22278              	.LASF15:
 22279 22d8 5F5F7569 		.ascii	"__uint32_t\000"
 22279      6E743332 
 22279      5F7400
 22280              	.LASF979:
 22281 22e3 6D6F7965 		.ascii	"moyenne_supp\000"
 22281      6E6E655F 
 22281      73757070 
 22281      00
 22282              	.LASF86:
 22283 22f0 63685F73 		.ascii	"ch_system_debug\000"
 22283      79737465 
 22283      6D5F6465 
 22283      62756700 
 22284              	.LASF1000:
 22285 2300 64617461 		.ascii	"data\000"
ARM GAS  C:\Users\JEANCO~1\AppData\Local\Temp\ccxhVNGN.s 			page 422


 22285      00
 22286              	.LASF673:
 22287 2305 4441494E 		.ascii	"DAINTMSK\000"
 22287      544D534B 
 22287      00
 22288              	.LASF740:
 22289 230e 44434D49 		.ascii	"DCMI_ACTIVE_STREAM\000"
 22289      5F414354 
 22289      4956455F 
 22289      53545245 
 22289      414D00
 22290              	.LASF429:
 22291 2321 45585443 		.ascii	"EXTConfig\000"
 22291      6F6E6669 
 22291      6700
 22292              	.LASF890:
 22293 232b 70617261 		.ascii	"parameter_namespace_s\000"
 22293      6D657465 
 22293      725F6E61 
 22293      6D657370 
 22293      6163655F 
 22294              	.LASF270:
 22295 2341 715F636F 		.ascii	"q_counter\000"
 22295      756E7465 
 22295      7200
 22296              	.LASF592:
 22297 234b 5553425F 		.ascii	"USB_EP0_WAITING_SETUP\000"
 22297      4550305F 
 22297      57414954 
 22297      494E475F 
 22297      53455455 
 22298              	.LASF808:
 22299 2361 5F69735F 		.ascii	"_is_cxa\000"
 22299      63786100 
 22300              	.LASF297:
 22301 2369 424C4B5F 		.ascii	"BLK_READING\000"
 22301      52454144 
 22301      494E4700 
 22302              	.LASF319:
 22303 2375 6166726C 		.ascii	"afrl\000"
 22303      00
 22304              	.LASF695:
 22305 237a 71756575 		.ascii	"queue\000"
 22305      6500
 22306              	.LASF575:
 22307 2380 65703065 		.ascii	"ep0endcb\000"
 22307      6E646362 
 22307      00
 22308              	.LASF947:
 22309 2389 64697374 		.ascii	"distance\000"
 22309      616E6365 
 22309      00
 22310              	.LASF287:
 22311 2392 73656C66 		.ascii	"selfindex\000"
 22311      696E6465 
 22311      7800
 22312              	.LASF256:
ARM GAS  C:\Users\JEANCO~1\AppData\Local\Temp\ccxhVNGN.s 			page 423


 22313 239c 6D757465 		.ascii	"mutex_t\000"
 22313      785F7400 
 22314              	.LASF845:
 22315 23a4 5F703573 		.ascii	"_p5s\000"
 22315      00
 22316              	.LASF55:
 22317 23a9 705F6570 		.ascii	"p_epending\000"
 22317      656E6469 
 22317      6E6700
 22318              	.LASF306:
 22319 23b4 4D4F4445 		.ascii	"MODER\000"
 22319      5200
 22320              	.LASF986:
 22321 23ba 6765745F 		.ascii	"get_max_front_moyenne\000"
 22321      6D61785F 
 22321      66726F6E 
 22321      745F6D6F 
 22321      79656E6E 
 22322              	.LASF491:
 22323 23d0 4932535F 		.ascii	"I2S_COMPLETE\000"
 22323      434F4D50 
 22323      4C455445 
 22323      00
 22324              	.LASF777:
 22325 23dd 77617463 		.ascii	"watchers\000"
 22325      68657273 
 22325      00
 22326              	.LASF126:
 22327 23e6 52455345 		.ascii	"RESERVED0\000"
 22327      52564544 
 22327      3000
 22328              	.LASF129:
 22329 23f0 52455345 		.ascii	"RESERVED1\000"
 22329      52564544 
 22329      3100
 22330              	.LASF131:
 22331 23fa 52455345 		.ascii	"RESERVED2\000"
 22331      52564544 
 22331      3200
 22332              	.LASF133:
 22333 2404 52455345 		.ascii	"RESERVED3\000"
 22333      52564544 
 22333      3300
 22334              	.LASF135:
 22335 240e 52455345 		.ascii	"RESERVED4\000"
 22335      52564544 
 22335      3400
 22336              	.LASF137:
 22337 2418 52455345 		.ascii	"RESERVED5\000"
 22337      52564544 
 22337      3500
 22338              	.LASF716:
 22339 2422 55534245 		.ascii	"USBEndpointConfig\000"
 22339      6E64706F 
 22339      696E7443 
 22339      6F6E6669 
 22339      6700
ARM GAS  C:\Users\JEANCO~1\AppData\Local\Temp\ccxhVNGN.s 			page 424


 22340              	.LASF141:
 22341 2434 44485231 		.ascii	"DHR12R1\000"
 22341      32523100 
 22342              	.LASF144:
 22343 243c 44485231 		.ascii	"DHR12R2\000"
 22343      32523200 
 22344              	.LASF425:
 22345 2444 65787463 		.ascii	"extcallback_t\000"
 22345      616C6C62 
 22345      61636B5F 
 22345      7400
 22346              	.LASF381:
 22347 2452 72787175 		.ascii	"rxqueue\000"
 22347      65756500 
 22348              	.LASF196:
 22349 245a 73655F74 		.ascii	"se_time\000"
 22349      696D6500 
 22350              	.LASF664:
 22351 2462 72657376 		.ascii	"resvd444\000"
 22351      64343434 
 22351      00
 22352              	.LASF333:
 22353 246b 70616C5F 		.ascii	"pal_default_config\000"
 22353      64656661 
 22353      756C745F 
 22353      636F6E66 
 22353      696700
 22354              	.LASF887:
 22355 247e 5F676C6F 		.ascii	"_global_impure_ptr\000"
 22355      62616C5F 
 22355      696D7075 
 22355      72655F70 
 22355      747200
 22356              	.LASF923:
 22357 2491 52494748 		.ascii	"RIGHT\000"
 22357      5400
 22358              	.LASF351:
 22359 2497 67727070 		.ascii	"grpp\000"
 22359      00
 22360              	.LASF147:
 22361 249c 44485231 		.ascii	"DHR12RD\000"
 22361      32524400 
 22362              	.LASF260:
 22363 24a4 656C5F6C 		.ascii	"el_listener\000"
 22363      69737465 
 22363      6E657200 
 22364              	.LASF694:
 22365 24b0 6C696E65 		.ascii	"linear\000"
 22365      617200
 22366              	.LASF739:
 22367 24b7 44434D49 		.ascii	"DCMI_READY\000"
 22367      5F524541 
 22367      445900
 22368              	.LASF920:
 22369 24c2 4241434B 		.ascii	"BACK_OUTPUT\000"
 22369      5F4F5554 
 22369      50555400 
ARM GAS  C:\Users\JEANCO~1\AppData\Local\Temp\ccxhVNGN.s 			page 425


 22370              	.LASF449:
 22371 24ce 73746D33 		.ascii	"stm32_tim_t\000"
 22371      325F7469 
 22371      6D5F7400 
 22372              	.LASF69:
 22373 24da 725F7072 		.ascii	"r_prio\000"
 22373      696F00
 22374              	.LASF154:
 22375 24e1 4D495352 		.ascii	"MISR\000"
 22375      00
 22376              	.LASF98:
 22377 24e6 49544D5F 		.ascii	"ITM_RxBuffer\000"
 22377      52784275 
 22377      66666572 
 22377      00
 22378              	.LASF303:
 22379 24f3 426C6F63 		.ascii	"BlockDeviceInfo\000"
 22379      6B446576 
 22379      69636549 
 22379      6E666F00 
 22380              	.LASF18:
 22381 2503 6C6F6E67 		.ascii	"long long unsigned int\000"
 22381      206C6F6E 
 22381      6720756E 
 22381      7369676E 
 22381      65642069 
 22382              	.LASF183:
 22383 251a 5344494F 		.ascii	"SDIO_TypeDef\000"
 22383      5F547970 
 22383      65446566 
 22383      00
 22384              	.LASF205:
 22385 2527 6F666673 		.ascii	"offset\000"
 22385      657400
 22386              	.LASF1029:
 22387 252e 63685265 		.ascii	"chRegSetThreadName\000"
 22387      67536574 
 22387      54687265 
 22387      61644E61 
 22387      6D6500
 22388              	.LASF783:
 22389 2541 746F7069 		.ascii	"topics\000"
 22389      637300
 22390              	.LASF1033:
 22391 2548 63685379 		.ascii	"chSysUnlock\000"
 22391      73556E6C 
 22391      6F636B00 
 22392              	.LASF160:
 22393 2554 4E445452 		.ascii	"NDTR\000"
 22393      00
 22394              	.LASF265:
 22395 2559 65735F6E 		.ascii	"es_next\000"
 22395      65787400 
 22396              	.LASF866:
 22397 2561 5F67616D 		.ascii	"_gamma_signgam\000"
 22397      6D615F73 
 22397      69676E67 
ARM GAS  C:\Users\JEANCO~1\AppData\Local\Temp\ccxhVNGN.s 			page 426


 22397      616D00
 22398              	.LASF630:
 22399 2570 72657376 		.ascii	"resvd1C\000"
 22399      64314300 
 22400              	.LASF97:
 22401 2578 69646C65 		.ascii	"idle_thread_wa\000"
 22401      5F746872 
 22401      6561645F 
 22401      776100
 22402              	.LASF626:
 22403 2587 44494550 		.ascii	"DIEPINT\000"
 22403      494E5400 
 22404              	.LASF189:
 22405 258f 5350495F 		.ascii	"SPI_TypeDef\000"
 22405      54797065 
 22405      44656600 
 22406              	.LASF80:
 22407 259b 76745F66 		.ascii	"vt_func\000"
 22407      756E6300 
 22408              	.LASF440:
 22409 25a3 534D4352 		.ascii	"SMCR\000"
 22409      00
 22410              	.LASF933:
 22411 25a8 41525245 		.ascii	"ARRET\000"
 22411      5400
 22412              	.LASF671:
 22413 25ae 444F4550 		.ascii	"DOEPMSK\000"
 22413      4D534B00 
 22414              	.LASF76:
 22415 25b6 63685F76 		.ascii	"ch_virtual_timer\000"
 22415      69727475 
 22415      616C5F74 
 22415      696D6572 
 22415      00
 22416              	.LASF48:
 22417 25c7 705F666C 		.ascii	"p_flags\000"
 22417      61677300 
 22418              	.LASF982:
 22419 25cf 6572726F 		.ascii	"error\000"
 22419      7200
 22420              	.LASF223:
 22421 25d5 65776D61 		.ascii	"ewmask\000"
 22421      736B00
 22422              	.LASF262:
 22423 25dc 656C5F66 		.ascii	"el_flags\000"
 22423      6C616773 
 22423      00
 22424              	.LASF1003:
 22425 25e5 75706461 		.ascii	"update_moyenne\000"
 22425      74655F6D 
 22425      6F79656E 
 22425      6E6500
 22426              	.LASF828:
 22427 25f4 5F646174 		.ascii	"_data\000"
 22427      6100
 22428              	.LASF953:
 22429 25fa 6D696352 		.ascii	"micRight_cmplx_input\000"
ARM GAS  C:\Users\JEANCO~1\AppData\Local\Temp\ccxhVNGN.s 			page 427


 22429      69676874 
 22429      5F636D70 
 22429      6C785F69 
 22429      6E707574 
 22430              	.LASF264:
 22431 260f 6576656E 		.ascii	"event_source\000"
 22431      745F736F 
 22431      75726365 
 22431      00
 22432              	.LASF56:
 22433 261c 705F6D74 		.ascii	"p_mtxlist\000"
 22433      786C6973 
 22433      7400
 22434              	.LASF388:
 22435 2626 43414E44 		.ascii	"CAND1\000"
 22435      3100
 22436              	.LASF132:
 22437 262c 46533152 		.ascii	"FS1R\000"
 22437      00
 22438              	.LASF28:
 22439 2631 74737461 		.ascii	"tstate_t\000"
 22439      74655F74 
 22439      00
 22440              	.LASF561:
 22441 263a 53504944 		.ascii	"SPIDriver\000"
 22441      72697665 
 22441      7200
 22442              	.LASF672:
 22443 2644 4441494E 		.ascii	"DAINT\000"
 22443      5400
 22444              	.LASF565:
 22445 264a 53504943 		.ascii	"SPIConfig\000"
 22445      6F6E6669 
 22445      6700
 22446              	.LASF839:
 22447 2654 5F756E73 		.ascii	"_unspecified_locale_info\000"
 22447      70656369 
 22447      66696564 
 22447      5F6C6F63 
 22447      616C655F 
 22448              	.LASF318:
 22449 266d 70757064 		.ascii	"pupdr\000"
 22449      7200
 22450              	.LASF408:
 22451 2673 64616365 		.ascii	"dacerrorcallback_t\000"
 22451      72726F72 
 22451      63616C6C 
 22451      6261636B 
 22451      5F7400
 22452              	.LASF747:
 22453 2686 64636D69 		.ascii	"dcmi\000"
 22453      00
 22454              	.LASF568:
 22455 268b 7472616E 		.ascii	"transmitting\000"
 22455      736D6974 
 22455      74696E67 
 22455      00
ARM GAS  C:\Users\JEANCO~1\AppData\Local\Temp\ccxhVNGN.s 			page 428


 22456              	.LASF428:
 22457 2698 6368616E 		.ascii	"channels\000"
 22457      6E656C73 
 22457      00
 22458              	.LASF170:
 22459 26a1 434C4B43 		.ascii	"CLKCR\000"
 22459      5200
 22460              	.LASF540:
 22461 26a7 53444344 		.ascii	"SDCDriver\000"
 22461      72697665 
 22461      7200
 22462              	.LASF45:
 22463 26b1 705F6E61 		.ascii	"p_name\000"
 22463      6D6500
 22464              	.LASF841:
 22465 26b8 5F5F7364 		.ascii	"__sdidinit\000"
 22465      6964696E 
 22465      697400
 22466              	.LASF524:
 22467 26c3 53657269 		.ascii	"SerialDriver\000"
 22467      616C4472 
 22467      69766572 
 22467      00
 22468              	.LASF110:
 22469 26d0 4A445231 		.ascii	"JDR1\000"
 22469      00
 22470              	.LASF111:
 22471 26d5 4A445232 		.ascii	"JDR2\000"
 22471      00
 22472              	.LASF112:
 22473 26da 4A445233 		.ascii	"JDR3\000"
 22473      00
 22474              	.LASF113:
 22475 26df 4A445234 		.ascii	"JDR4\000"
 22475      00
 22476              	.LASF634:
 22477 26e4 444F4550 		.ascii	"DOEPTSIZ\000"
 22477      5453495A 
 22477      00
 22478              	.LASF336:
 22479 26ed 4144435F 		.ascii	"ADC_READY\000"
 22479      52454144 
 22479      5900
 22480              	.LASF775:
 22481 26f7 6E616D65 		.ascii	"name\000"
 22481      00
 22482              	.LASF255:
 22483 26fc 62696E61 		.ascii	"binary_semaphore_t\000"
 22483      72795F73 
 22483      656D6170 
 22483      686F7265 
 22483      5F7400
 22484              	.LASF1011:
 22485 270f 7472616E 		.ascii	"transition2\000"
 22485      73697469 
 22485      6F6E3200 
 22486              	.LASF763:
ARM GAS  C:\Users\JEANCO~1\AppData\Local\Temp\ccxhVNGN.s 			page 429


 22487 271b 5F666C6F 		.ascii	"_flock_t\000"
 22487      636B5F74 
 22487      00
 22488              	.LASF82:
 22489 2724 76697274 		.ascii	"virtual_timers_list_t\000"
 22489      75616C5F 
 22489      74696D65 
 22489      72735F6C 
 22489      6973745F 
 22490              	.LASF985:
 22491 273a 6765745F 		.ascii	"get_distance_cm\000"
 22491      64697374 
 22491      616E6365 
 22491      5F636D00 
 22492              	.LASF928:
 22493 274a 44455641 		.ascii	"DEVANT_DROIT\000"
 22493      4E545F44 
 22493      524F4954 
 22493      00
 22494              	.LASF658:
 22495 2757 72657376 		.ascii	"resvd40C\000"
 22495      64343043 
 22495      00
 22496              	.LASF358:
 22497 2760 63697263 		.ascii	"circular\000"
 22497      756C6172 
 22497      00
 22498              	.LASF492:
 22499 2769 69327373 		.ascii	"i2sstate_t\000"
 22499      74617465 
 22499      5F7400
 22500              	.LASF315:
 22501 2774 6D6F6465 		.ascii	"moder\000"
 22501      7200
 22502              	.LASF914:
 22503 277a 52494748 		.ascii	"RIGHT_CMPLX_INPUT\000"
 22503      545F434D 
 22503      504C585F 
 22503      494E5055 
 22503      5400
 22504              	.LASF225:
 22505 278c 735F7175 		.ascii	"s_queue\000"
 22505      65756500 
 22506              	.LASF214:
 22507 2794 6D5F6372 		.ascii	"m_crit_thd\000"
 22507      69745F74 
 22507      686400
 22508              	.LASF390:
 22509 279f 4441435F 		.ascii	"DAC_STOP\000"
 22509      53544F50 
 22509      00
 22510              	.LASF665:
 22511 27a8 72657376 		.ascii	"resvd700\000"
 22511      64373030 
 22511      00
 22512              	.LASF187:
 22513 27b1 49325343 		.ascii	"I2SCFGR\000"
ARM GAS  C:\Users\JEANCO~1\AppData\Local\Temp\ccxhVNGN.s 			page 430


 22513      46475200 
 22514              	.LASF728:
 22515 27b9 75736270 		.ascii	"usbp\000"
 22515      00
 22516              	.LASF766:
 22517 27be 6F707469 		.ascii	"optind\000"
 22517      6E6400
 22518              	.LASF233:
 22519 27c5 63685F69 		.ascii	"ch_identifier\000"
 22519      64656E74 
 22519      69666965 
 22519      7200
 22520              	.LASF532:
 22521 27d3 77726974 		.ascii	"writet\000"
 22521      657400
 22522              	.LASF972:
 22523 27da 66726571 		.ascii	"frequence_max\000"
 22523      75656E63 
 22523      655F6D61 
 22523      7800
 22524              	.LASF3:
 22525 27e8 6C6F6E67 		.ascii	"long long int\000"
 22525      206C6F6E 
 22525      6720696E 
 22525      7400
 22526              	.LASF652:
 22527 27f6 48505458 		.ascii	"HPTXFSIZ\000"
 22527      4653495A 
 22527      00
 22528              	.LASF751:
 22529 27ff 7472616E 		.ascii	"transfer_complete_cb\000"
 22529      73666572 
 22529      5F636F6D 
 22529      706C6574 
 22529      655F6362 
 22530              	.LASF240:
 22531 2814 63665F6F 		.ascii	"cf_off_prio\000"
 22531      66665F70 
 22531      72696F00 
 22532              	.LASF831:
 22533 2820 5F666C61 		.ascii	"_flags2\000"
 22533      67733200 
 22534              	.LASF881:
 22535 2828 5F6E6578 		.ascii	"_nextf\000"
 22535      746600
 22536              	.LASF1024:
 22537 282f 6D6F7965 		.ascii	"moyenne_front\000"
 22537      6E6E655F 
 22537      66726F6E 
 22537      7400
 22538              	.LASF211:
 22539 283d 74696D65 		.ascii	"time_measurement_t\000"
 22539      5F6D6561 
 22539      73757265 
 22539      6D656E74 
 22539      5F7400
 22540              	.LASF1031:
ARM GAS  C:\Users\JEANCO~1\AppData\Local\Temp\ccxhVNGN.s 			page 431


 22541 2850 63685654 		.ascii	"chVTGetSystemTime\000"
 22541      47657453 
 22541      79737465 
 22541      6D54696D 
 22541      6500
 22542              	.LASF553:
 22543 2862 6765745F 		.ascii	"get_info\000"
 22543      696E666F 
 22543      00
 22544              	.LASF345:
 22545 286b 61646365 		.ascii	"adcerror_t\000"
 22545      72726F72 
 22545      5F7400
 22546              	.LASF1055:
 22547 2876 636C6561 		.ascii	"clear_leds\000"
 22547      725F6C65 
 22547      647300
 22548              	.LASF718:
 22549 2881 6765745F 		.ascii	"get_descriptor_cb\000"
 22549      64657363 
 22549      72697074 
 22549      6F725F63 
 22549      6200
 22550              	.LASF840:
 22551 2893 5F6C6F63 		.ascii	"_locale\000"
 22551      616C6500 
 22552              	.LASF34:
 22553 289b 6576656E 		.ascii	"eventflags_t\000"
 22553      74666C61 
 22553      67735F74 
 22553      00
 22554              	.LASF557:
 22555 28a8 5350495F 		.ascii	"SPI_READY\000"
 22555      52454144 
 22555      5900
 22556              	.LASF253:
 22557 28b2 73656D61 		.ascii	"semaphore_t\000"
 22557      70686F72 
 22557      655F7400 
 22558              	.LASF128:
 22559 28be 73464946 		.ascii	"sFIFOMailBox\000"
 22559      4F4D6169 
 22559      6C426F78 
 22559      00
 22560              	.LASF545:
 22561 28cb 6275735F 		.ascii	"bus_width\000"
 22561      77696474 
 22561      6800
 22562              	.LASF957:
 22563 28d5 6D696352 		.ascii	"micRight_output\000"
 22563      69676874 
 22563      5F6F7574 
 22563      70757400 
 22564              	.LASF149:
 22565 28e5 44485238 		.ascii	"DHR8RD\000"
 22565      524400
 22566              	.LASF667:
ARM GAS  C:\Users\JEANCO~1\AppData\Local\Temp\ccxhVNGN.s 			page 432


 22567 28ec 4443544C 		.ascii	"DCTL\000"
 22567      00
 22568              	.LASF547:
 22569 28f1 53444344 		.ascii	"SDCDriverVMT\000"
 22569      72697665 
 22569      72564D54 
 22569      00
 22570              	.LASF1032:
 22571 28fe 73797374 		.ascii	"systime\000"
 22571      696D6500 
 22572              	.LASF693:
 22573 2906 74786275 		.ascii	"txbuf\000"
 22573      6600
 22574              	.LASF686:
 22575 290c 50434743 		.ascii	"PCGCCTL\000"
 22575      43544C00 
 22576              	.LASF604:
 22577 2914 5553425F 		.ascii	"USB_EVENT_WAKEUP\000"
 22577      4556454E 
 22577      545F5741 
 22577      4B455550 
 22577      00
 22578              	.LASF868:
 22579 2925 5F723438 		.ascii	"_r48\000"
 22579      00
 22580              	.LASF1038:
 22581 292a 5F5F7365 		.ascii	"__set_BASEPRI\000"
 22581      745F4241 
 22581      53455052 
 22581      4900
 22582              	.LASF932:
 22583 2938 44455641 		.ascii	"DEVANT_GAUCHE\000"
 22583      4E545F47 
 22583      41554348 
 22583      4500
 22584              	.LASF44:
 22585 2946 705F6F6C 		.ascii	"p_older\000"
 22585      64657200 
 22586              	.LASF299:
 22587 294e 424C4B5F 		.ascii	"BLK_SYNCING\000"
 22587      53594E43 
 22587      494E4700 
 22588              	.LASF330:
 22589 295a 50494461 		.ascii	"PIData\000"
 22589      746100
 22590              	.LASF715:
 22591 2961 73657475 		.ascii	"setup_buf\000"
 22591      705F6275 
 22591      6600
 22592              	.LASF455:
 22593 296b 47505444 		.ascii	"GPTD6\000"
 22593      3600
 22594              	.LASF734:
 22595 2971 44434D49 		.ascii	"DCMI_ERR_DMAFAILURE\000"
 22595      5F455252 
 22595      5F444D41 
 22595      4641494C 
ARM GAS  C:\Users\JEANCO~1\AppData\Local\Temp\ccxhVNGN.s 			page 433


 22595      55524500 
 22596              	.LASF361:
 22597 2985 6572726F 		.ascii	"error_cb\000"
 22597      725F6362 
 22597      00
 22598              	.LASF912:
 22599 298e 6E6F726D 		.ascii	"norm\000"
 22599      00
 22600              	.LASF295:
 22601 2993 424C4B5F 		.ascii	"BLK_DISCONNECTING\000"
 22601      44495343 
 22601      4F4E4E45 
 22601      4354494E 
 22601      4700
 22602              	.LASF563:
 22603 29a5 7373706F 		.ascii	"ssport\000"
 22603      727400
 22604              	.LASF902:
 22605 29ac 6275665F 		.ascii	"buf_len\000"
 22605      6C656E00 
 22606              	.LASF280:
 22607 29b4 42617365 		.ascii	"BaseSequentialStreamVMT\000"
 22607      53657175 
 22607      656E7469 
 22607      616C5374 
 22607      7265616D 
 22608              	.LASF60:
 22609 29cc 74687265 		.ascii	"thread_reference_t\000"
 22609      61645F72 
 22609      65666572 
 22609      656E6365 
 22609      5F7400
 22610              	.LASF736:
 22611 29df 64636D69 		.ascii	"dcmierror_t\000"
 22611      6572726F 
 22611      725F7400 
 22612              	.LASF424:
 22613 29eb 65787063 		.ascii	"expchannel_t\000"
 22613      68616E6E 
 22613      656C5F74 
 22613      00
 22614              	.LASF948:
 22615 29f8 72656665 		.ascii	"reference\000"
 22615      72656E63 
 22615      6500
 22616              	.LASF569:
 22617 2a02 72656365 		.ascii	"receiving\000"
 22617      6976696E 
 22617      6700
 22618              	.LASF894:
 22619 2a0c 70617261 		.ascii	"parameter_list\000"
 22619      6D657465 
 22619      725F6C69 
 22619      737400
 22620              	.LASF854:
 22621 2a1b 5F5F4649 		.ascii	"__FILE\000"
 22621      4C4500
ARM GAS  C:\Users\JEANCO~1\AppData\Local\Temp\ccxhVNGN.s 			page 434


 22622              	.LASF1048:
 22623 2a22 63685468 		.ascii	"chThdSleepUntilWindowed\000"
 22623      64536C65 
 22623      6570556E 
 22623      74696C57 
 22623      696E646F 
 22624              	.LASF451:
 22625 2a3a 66726571 		.ascii	"frequency\000"
 22625      75656E63 
 22625      7900
 22626              	.LASF1042:
 22627 2a44 5F737461 		.ascii	"_stats_start_measure_crit_thd\000"
 22627      74735F73 
 22627      74617274 
 22627      5F6D6561 
 22627      73757265 
 22628              	.LASF206:
 22629 2a62 746D5F63 		.ascii	"tm_calibration_t\000"
 22629      616C6962 
 22629      72617469 
 22629      6F6E5F74 
 22629      00
 22630              	.LASF712:
 22631 2a73 696E5F73 		.ascii	"in_state\000"
 22631      74617465 
 22631      00
 22632              	.LASF190:
 22633 2a7c 47545052 		.ascii	"GTPR\000"
 22633      00
 22634              	.LASF1019:
 22635 2a81 6E6F726D 		.ascii	"norm_left\000"
 22635      5F6C6566 
 22635      7400
 22636              	.LASF234:
 22637 2a8b 63685F7A 		.ascii	"ch_zero\000"
 22637      65726F00 
 22638              	.LASF472:
 22639 2a93 46415354 		.ascii	"FAST_DUTY_CYCLE_2\000"
 22639      5F445554 
 22639      595F4359 
 22639      434C455F 
 22639      3200
 22640              	.LASF178:
 22641 2aa5 44435452 		.ascii	"DCTRL\000"
 22641      4C00
 22642              	.LASF239:
 22643 2aab 63685F74 		.ascii	"ch_threadsize\000"
 22643      68726561 
 22643      6473697A 
 22643      6500
 22644              	.LASF167:
 22645 2ab9 464C5452 		.ascii	"FLTR\000"
 22645      00
 22646              	.LASF1053:
 22647 2abe 646F4646 		.ascii	"doFFT_optimized\000"
 22647      545F6F70 
 22647      74696D69 
ARM GAS  C:\Users\JEANCO~1\AppData\Local\Temp\ccxhVNGN.s 			page 435


 22647      7A656400 
 22648              	.LASF939:
 22649 2ace 5F5F6664 		.ascii	"__fdlib_version\000"
 22649      6C69625F 
 22649      76657273 
 22649      696F6E00 
 22650              	.LASF442:
 22651 2ade 43434D52 		.ascii	"CCMR1\000"
 22651      3100
 22652              	.LASF443:
 22653 2ae4 43434D52 		.ascii	"CCMR2\000"
 22653      3200
 22654              	.LASF447:
 22655 2aea 43434D52 		.ascii	"CCMR3\000"
 22655      3300
 22656              	.LASF2:
 22657 2af0 756E7369 		.ascii	"unsigned int\000"
 22657      676E6564 
 22657      20696E74 
 22657      00
 22658              	.LASF365:
 22659 2afd 73717232 		.ascii	"sqr2\000"
 22659      00
 22660              	.LASF366:
 22661 2b02 73717233 		.ascii	"sqr3\000"
 22661      00
 22662              	.LASF746:
 22663 2b07 44434D49 		.ascii	"DCMIDriver\000"
 22663      44726976 
 22663      657200
 22664              	.LASF656:
 22665 2b12 48464952 		.ascii	"HFIR\000"
 22665      00
 22666              	.LASF752:
 22667 2b17 44434D49 		.ascii	"DCMIConfig\000"
 22667      436F6E66 
 22667      696700
 22668              	.LASF1062:
 22669 2b22 70695F72 		.ascii	"pi_regulator_start\000"
 22669      6567756C 
 22669      61746F72 
 22669      5F737461 
 22669      727400
 22670              	.LASF586:
 22671 2b35 5553425F 		.ascii	"USB_UNINIT\000"
 22671      554E494E 
 22671      495400
 22672              	.LASF284:
 22673 2b40 73747265 		.ascii	"stream\000"
 22673      616D00
 22674              	.LASF368:
 22675 2b47 64756D6D 		.ascii	"dummy\000"
 22675      7900
 22676              	.LASF470:
 22677 2b4d 6932636F 		.ascii	"i2copmode_t\000"
 22677      706D6F64 
 22677      655F7400 
ARM GAS  C:\Users\JEANCO~1\AppData\Local\Temp\ccxhVNGN.s 			page 436


 22678              	.LASF973:
 22679 2b59 70756973 		.ascii	"puissance_source\000"
 22679      73616E63 
 22679      655F736F 
 22679      75726365 
 22679      00
 22680              	.LASF962:
 22681 2b6a 7669745F 		.ascii	"vit_droit\000"
 22681      64726F69 
 22681      7400
 22682              	.LASF254:
 22683 2b74 62735F73 		.ascii	"bs_sem\000"
 22683      656D00
 22684              	.LASF156:
 22685 2b7b 45535552 		.ascii	"ESUR\000"
 22685      00
 22686              	.LASF258:
 22687 2b80 6576656E 		.ascii	"event_listener\000"
 22687      745F6C69 
 22687      7374656E 
 22687      657200
 22688              	.LASF860:
 22689 2b8f 5F6D756C 		.ascii	"_mult\000"
 22689      7400
 22690              	.LASF10:
 22691 2b95 73686F72 		.ascii	"short int\000"
 22691      7420696E 
 22691      7400
 22692              	.LASF610:
 22693 2b9f 75736263 		.ascii	"usbcallback_t\000"
 22693      616C6C62 
 22693      61636B5F 
 22693      7400
 22694              	.LASF820:
 22695 2bad 5F726561 		.ascii	"_read\000"
 22695      6400
 22696              	.LASF1047:
 22697 2bb3 73717274 		.ascii	"sqrt\000"
 22697      00
 22698              	.LASF639:
 22699 2bb8 47555342 		.ascii	"GUSBCFG\000"
 22699      43464700 
 22700              	.LASF191:
 22701 2bc0 55534152 		.ascii	"USART_TypeDef\000"
 22701      545F5479 
 22701      70654465 
 22701      6600
 22702              	.LASF279:
 22703 2bce 6F757470 		.ascii	"output_queue_t\000"
 22703      75745F71 
 22703      75657565 
 22703      5F7400
 22704              	.LASF858:
 22705 2bdd 5F72616E 		.ascii	"_rand48\000"
 22705      64343800 
 22706              	.LASF688:
 22707 2be5 73746D33 		.ascii	"stm32_otg_t\000"
ARM GAS  C:\Users\JEANCO~1\AppData\Local\Temp\ccxhVNGN.s 			page 437


 22707      325F6F74 
 22707      675F7400 
 22708              	.LASF803:
 22709 2bf1 5F5F746D 		.ascii	"__tm_isdst\000"
 22709      5F697364 
 22709      737400
 22710              	.LASF493:
 22711 2bfc 49325344 		.ascii	"I2SDriver\000"
 22711      72697665 
 22711      7200
 22712              	.LASF477:
 22713 2c06 64757479 		.ascii	"duty_cycle\000"
 22713      5F637963 
 22713      6C6500
 22714              	.LASF500:
 22715 2c11 49325343 		.ascii	"I2SConfig\000"
 22715      6F6E6669 
 22715      6700
 22716              	.LASF607:
 22717 2c1b 75645F73 		.ascii	"ud_size\000"
 22717      697A6500 
 22718              	.LASF1049:
 22719 2c23 63685365 		.ascii	"chSemWait\000"
 22719      6D576169 
 22719      7400
 22720              	.LASF1004:
 22721 2c2d 6D757374 		.ascii	"mustSend\000"
 22721      53656E64 
 22721      00
 22722              	.LASF710:
 22723 2c36 696E5F6D 		.ascii	"in_maxsize\000"
 22723      61787369 
 22723      7A6500
 22724              	.LASF960:
 22725 2c41 636F6566 		.ascii	"coeff_capteur\000"
 22725      665F6361 
 22725      70746575 
 22725      7200
 22726              	.LASF327:
 22727 2c4f 50464461 		.ascii	"PFData\000"
 22727      746100
 22728              	.LASF420:
 22729 2c56 4558545F 		.ascii	"EXT_STOP\000"
 22729      53544F50 
 22729      00
 22730              	.LASF47:
 22731 2c5f 705F7374 		.ascii	"p_state\000"
 22731      61746500 
 22732              	.LASF501:
 22733 2c67 49325344 		.ascii	"I2SD2\000"
 22733      3200
 22734              	.LASF548:
 22735 2c6d 69735F69 		.ascii	"is_inserted\000"
 22735      6E736572 
 22735      74656400 
 22736              	.LASF63:
 22737 2c79 63685F74 		.ascii	"ch_threads_list\000"
ARM GAS  C:\Users\JEANCO~1\AppData\Local\Temp\ccxhVNGN.s 			page 438


 22737      68726561 
 22737      64735F6C 
 22737      69737400 
 22738              	.LASF179:
 22739 2c89 44434F55 		.ascii	"DCOUNT\000"
 22739      4E5400
 22740              	.LASF164:
 22741 2c90 4F415231 		.ascii	"OAR1\000"
 22741      00
 22742              	.LASF165:
 22743 2c95 4F415232 		.ascii	"OAR2\000"
 22743      00
 22744              	.LASF59:
 22745 2c9a 705F7374 		.ascii	"p_stats\000"
 22745      61747300 
 22746              	.LASF591:
 22747 2ca2 75736273 		.ascii	"usbstate_t\000"
 22747      74617465 
 22747      5F7400
 22748              		.ident	"GCC: (GNU Tools for Arm Embedded Processors 7-2017-q4-major) 7.2.1 20170904 (release) [ARM
ARM GAS  C:\Users\JEANCO~1\AppData\Local\Temp\ccxhVNGN.s 			page 439


DEFINED SYMBOLS
                            *ABS*:00000000 audio_processing.c
C:\Users\JEANCO~1\AppData\Local\Temp\ccxhVNGN.s:18     .text.get_max_norm_index.part.0:00000000 $t
C:\Users\JEANCO~1\AppData\Local\Temp\ccxhVNGN.s:25     .text.get_max_norm_index.part.0:00000000 get_max_norm_index.part.0
C:\Users\JEANCO~1\AppData\Local\Temp\ccxhVNGN.s:178    .text.get_max_norm_index.part.0:000000ac $d
C:\Users\JEANCO~1\AppData\Local\Temp\ccxhVNGN.s:3851   .bss.micBack_output:00000000 micBack_output
C:\Users\JEANCO~1\AppData\Local\Temp\ccxhVNGN.s:3863   .bss.micFront_output:00000000 micFront_output
C:\Users\JEANCO~1\AppData\Local\Temp\ccxhVNGN.s:186    .text.sound_remote:00000000 $t
C:\Users\JEANCO~1\AppData\Local\Temp\ccxhVNGN.s:194    .text.sound_remote:00000000 sound_remote
C:\Users\JEANCO~1\AppData\Local\Temp\ccxhVNGN.s:339    .text.sound_remote:000000b4 $d
C:\Users\JEANCO~1\AppData\Local\Temp\ccxhVNGN.s:350    .text.calcul_distance:00000000 $t
C:\Users\JEANCO~1\AppData\Local\Temp\ccxhVNGN.s:358    .text.calcul_distance:00000000 calcul_distance
C:\Users\JEANCO~1\AppData\Local\Temp\ccxhVNGN.s:437    .text.calcul_distance:00000068 $d
C:\Users\JEANCO~1\AppData\Local\Temp\ccxhVNGN.s:445    .text.calcul_angle:00000000 $t
C:\Users\JEANCO~1\AppData\Local\Temp\ccxhVNGN.s:453    .text.calcul_angle:00000000 calcul_angle
C:\Users\JEANCO~1\AppData\Local\Temp\ccxhVNGN.s:756    .text.calcul_angle:00000198 $d
C:\Users\JEANCO~1\AppData\Local\Temp\ccxhVNGN.s:763    .text.calcul_moyenne:00000000 $t
C:\Users\JEANCO~1\AppData\Local\Temp\ccxhVNGN.s:771    .text.calcul_moyenne:00000000 calcul_moyenne
C:\Users\JEANCO~1\AppData\Local\Temp\ccxhVNGN.s:840    .text.calcul_moyenne:00000038 $d
C:\Users\JEANCO~1\AppData\Local\Temp\ccxhVNGN.s:847    .text.update_moyenne:00000000 $t
C:\Users\JEANCO~1\AppData\Local\Temp\ccxhVNGN.s:855    .text.update_moyenne:00000000 update_moyenne
C:\Users\JEANCO~1\AppData\Local\Temp\ccxhVNGN.s:919    .text.update_moyenne:0000003c $d
C:\Users\JEANCO~1\AppData\Local\Temp\ccxhVNGN.s:925    .text.max_norm:00000000 $t
C:\Users\JEANCO~1\AppData\Local\Temp\ccxhVNGN.s:933    .text.max_norm:00000000 max_norm
C:\Users\JEANCO~1\AppData\Local\Temp\ccxhVNGN.s:1016   .text.max_norm:0000005c $d
C:\Users\JEANCO~1\AppData\Local\Temp\ccxhVNGN.s:1022   .text.wait_send_to_computer:00000000 $t
C:\Users\JEANCO~1\AppData\Local\Temp\ccxhVNGN.s:1030   .text.wait_send_to_computer:00000000 wait_send_to_computer
C:\Users\JEANCO~1\AppData\Local\Temp\ccxhVNGN.s:1077   .text.wait_send_to_computer:00000024 $d
C:\Users\JEANCO~1\AppData\Local\Temp\ccxhVNGN.s:1085   .text.get_max_norm_index:00000000 $t
C:\Users\JEANCO~1\AppData\Local\Temp\ccxhVNGN.s:1093   .text.get_max_norm_index:00000000 get_max_norm_index
C:\Users\JEANCO~1\AppData\Local\Temp\ccxhVNGN.s:1245   .text.get_max_norm_index:000000b0 $d
C:\Users\JEANCO~1\AppData\Local\Temp\ccxhVNGN.s:3887   .bss.micRight_output:00000000 micRight_output
C:\Users\JEANCO~1\AppData\Local\Temp\ccxhVNGN.s:3875   .bss.micLeft_output:00000000 micLeft_output
C:\Users\JEANCO~1\AppData\Local\Temp\ccxhVNGN.s:1253   .text.get_audio_buffer_ptr:00000000 $t
C:\Users\JEANCO~1\AppData\Local\Temp\ccxhVNGN.s:1261   .text.get_audio_buffer_ptr:00000000 get_audio_buffer_ptr
C:\Users\JEANCO~1\AppData\Local\Temp\ccxhVNGN.s:1367   .text.get_audio_buffer_ptr:0000005c $d
C:\Users\JEANCO~1\AppData\Local\Temp\ccxhVNGN.s:3869   .bss.micLeft_cmplx_input:00000000 micLeft_cmplx_input
C:\Users\JEANCO~1\AppData\Local\Temp\ccxhVNGN.s:3881   .bss.micRight_cmplx_input:00000000 micRight_cmplx_input
C:\Users\JEANCO~1\AppData\Local\Temp\ccxhVNGN.s:3845   .bss.micBack_cmplx_input:00000000 micBack_cmplx_input
C:\Users\JEANCO~1\AppData\Local\Temp\ccxhVNGN.s:3857   .bss.micFront_cmplx_input:00000000 micFront_cmplx_input
C:\Users\JEANCO~1\AppData\Local\Temp\ccxhVNGN.s:1380   .text.led_direction:00000000 $t
C:\Users\JEANCO~1\AppData\Local\Temp\ccxhVNGN.s:1388   .text.led_direction:00000000 led_direction
C:\Users\JEANCO~1\AppData\Local\Temp\ccxhVNGN.s:1536   .text.led_direction:00000084 $d
C:\Users\JEANCO~1\AppData\Local\Temp\ccxhVNGN.s:1541   .text.processAudioData:00000000 $t
C:\Users\JEANCO~1\AppData\Local\Temp\ccxhVNGN.s:1549   .text.processAudioData:00000000 processAudioData
C:\Users\JEANCO~1\AppData\Local\Temp\ccxhVNGN.s:2290   .text.processAudioData:000002e0 $d
C:\Users\JEANCO~1\AppData\Local\Temp\ccxhVNGN.s:2313   .text.echantillone_distance:00000000 $t
C:\Users\JEANCO~1\AppData\Local\Temp\ccxhVNGN.s:2321   .text.echantillone_distance:00000000 echantillone_distance
C:\Users\JEANCO~1\AppData\Local\Temp\ccxhVNGN.s:2354   .text.echantillone_distance:0000001c $d
C:\Users\JEANCO~1\AppData\Local\Temp\ccxhVNGN.s:2359   .text.get_max_front_moyenne:00000000 $t
C:\Users\JEANCO~1\AppData\Local\Temp\ccxhVNGN.s:2367   .text.get_max_front_moyenne:00000000 get_max_front_moyenne
C:\Users\JEANCO~1\AppData\Local\Temp\ccxhVNGN.s:2451   .text.get_max_front_moyenne:00000034 $d
C:\Users\JEANCO~1\AppData\Local\Temp\ccxhVNGN.s:2458   .text.get_line_position:00000000 $t
C:\Users\JEANCO~1\AppData\Local\Temp\ccxhVNGN.s:2466   .text.get_line_position:00000000 get_line_position
C:\Users\JEANCO~1\AppData\Local\Temp\ccxhVNGN.s:2504   .text.get_line_position:00000020 $d
C:\Users\JEANCO~1\AppData\Local\Temp\ccxhVNGN.s:2510   .text.get_distance_cm:00000000 $t
C:\Users\JEANCO~1\AppData\Local\Temp\ccxhVNGN.s:2518   .text.get_distance_cm:00000000 get_distance_cm
ARM GAS  C:\Users\JEANCO~1\AppData\Local\Temp\ccxhVNGN.s 			page 440


C:\Users\JEANCO~1\AppData\Local\Temp\ccxhVNGN.s:2551   .text.get_distance_cm:00000020 $d
C:\Users\JEANCO~1\AppData\Local\Temp\ccxhVNGN.s:2557   .text.pi_regulator:00000000 $t
C:\Users\JEANCO~1\AppData\Local\Temp\ccxhVNGN.s:2565   .text.pi_regulator:00000000 pi_regulator
C:\Users\JEANCO~1\AppData\Local\Temp\ccxhVNGN.s:2658   .text.pi_regulator:00000088 $d
C:\Users\JEANCO~1\AppData\Local\Temp\ccxhVNGN.s:2668   .text.pi_regulator_start:00000000 $t
C:\Users\JEANCO~1\AppData\Local\Temp\ccxhVNGN.s:2676   .text.pi_regulator_start:00000000 pi_regulator_start
C:\Users\JEANCO~1\AppData\Local\Temp\ccxhVNGN.s:2723   .text.pi_regulator_start:0000002c $d
C:\Users\JEANCO~1\AppData\Local\Temp\ccxhVNGN.s:3118   .text.PiRegulator:00000000 PiRegulator
C:\Users\JEANCO~1\AppData\Local\Temp\ccxhVNGN.s:2730   .text.calcul_direction:00000000 $t
C:\Users\JEANCO~1\AppData\Local\Temp\ccxhVNGN.s:2738   .text.calcul_direction:00000000 calcul_direction
C:\Users\JEANCO~1\AppData\Local\Temp\ccxhVNGN.s:2961   .text.calcul_direction:000000fc $d
C:\Users\JEANCO~1\AppData\Local\Temp\ccxhVNGN.s:2968   .text.m_a_j_coeff_catpeurs:00000000 $t
C:\Users\JEANCO~1\AppData\Local\Temp\ccxhVNGN.s:2976   .text.m_a_j_coeff_catpeurs:00000000 m_a_j_coeff_catpeurs
C:\Users\JEANCO~1\AppData\Local\Temp\ccxhVNGN.s:3094   .text.m_a_j_coeff_catpeurs:00000080 $d
C:\Users\JEANCO~1\AppData\Local\Temp\ccxhVNGN.s:3111   .text.PiRegulator:00000000 $t
C:\Users\JEANCO~1\AppData\Local\Temp\ccxhVNGN.s:3801   .text.PiRegulator:000002f0 $d
C:\Users\JEANCO~1\AppData\Local\Temp\ccxhVNGN.s:3828   .bss.angle:00000000 $d
C:\Users\JEANCO~1\AppData\Local\Temp\ccxhVNGN.s:3832   .bss.angle:00000000 angle
C:\Users\JEANCO~1\AppData\Local\Temp\ccxhVNGN.s:3835   .bss.coeff_capteur:00000000 $d
C:\Users\JEANCO~1\AppData\Local\Temp\ccxhVNGN.s:3839   .bss.coeff_capteur:00000000 coeff_capteur
C:\Users\JEANCO~1\AppData\Local\Temp\ccxhVNGN.s:3842   .bss.micBack_cmplx_input:00000000 $d
C:\Users\JEANCO~1\AppData\Local\Temp\ccxhVNGN.s:3848   .bss.micBack_output:00000000 $d
C:\Users\JEANCO~1\AppData\Local\Temp\ccxhVNGN.s:3854   .bss.micFront_cmplx_input:00000000 $d
C:\Users\JEANCO~1\AppData\Local\Temp\ccxhVNGN.s:3860   .bss.micFront_output:00000000 $d
C:\Users\JEANCO~1\AppData\Local\Temp\ccxhVNGN.s:3866   .bss.micLeft_cmplx_input:00000000 $d
C:\Users\JEANCO~1\AppData\Local\Temp\ccxhVNGN.s:3872   .bss.micLeft_output:00000000 $d
C:\Users\JEANCO~1\AppData\Local\Temp\ccxhVNGN.s:3878   .bss.micRight_cmplx_input:00000000 $d
C:\Users\JEANCO~1\AppData\Local\Temp\ccxhVNGN.s:3884   .bss.micRight_output:00000000 $d
C:\Users\JEANCO~1\AppData\Local\Temp\ccxhVNGN.s:3890   .bss.moyenne:00000000 $d
C:\Users\JEANCO~1\AppData\Local\Temp\ccxhVNGN.s:3894   .bss.moyenne:00000000 moyenne
C:\Users\JEANCO~1\AppData\Local\Temp\ccxhVNGN.s:3900   .bss.mustSend.14270:00000000 mustSend.14270
C:\Users\JEANCO~1\AppData\Local\Temp\ccxhVNGN.s:3901   .bss.mustSend.14270:00000000 $d
C:\Users\JEANCO~1\AppData\Local\Temp\ccxhVNGN.s:3903   .bss.nb_samples.14269:00000000 $d
C:\Users\JEANCO~1\AppData\Local\Temp\ccxhVNGN.s:3907   .bss.nb_samples.14269:00000000 nb_samples.14269
C:\Users\JEANCO~1\AppData\Local\Temp\ccxhVNGN.s:3910   .bss.nbr_passage:00000000 $d
C:\Users\JEANCO~1\AppData\Local\Temp\ccxhVNGN.s:3914   .bss.nbr_passage:00000000 nbr_passage
C:\Users\JEANCO~1\AppData\Local\Temp\ccxhVNGN.s:3917   .bss.sum_error.14360:00000000 $d
C:\Users\JEANCO~1\AppData\Local\Temp\ccxhVNGN.s:3921   .bss.sum_error.14360:00000000 sum_error.14360
C:\Users\JEANCO~1\AppData\Local\Temp\ccxhVNGN.s:3924   .bss.waPiRegulator:00000000 $d
C:\Users\JEANCO~1\AppData\Local\Temp\ccxhVNGN.s:3928   .bss.waPiRegulator:00000000 waPiRegulator
C:\Users\JEANCO~1\AppData\Local\Temp\ccxhVNGN.s:3931   .data.sendToComputer_sem:00000000 $d
C:\Users\JEANCO~1\AppData\Local\Temp\ccxhVNGN.s:3935   .data.sendToComputer_sem:00000000 sendToComputer_sem
C:\Users\JEANCO~1\AppData\Local\Temp\ccxhVNGN.s:3940   .rodata.__FUNCTION__.14365:00000000 $d
C:\Users\JEANCO~1\AppData\Local\Temp\ccxhVNGN.s:3944   .rodata.__FUNCTION__.14365:00000000 __FUNCTION__.14365
C:\Users\JEANCO~1\AppData\Local\Temp\ccxhVNGN.s:3947   .rodata.__func__.7153:00000000 $d
C:\Users\JEANCO~1\AppData\Local\Temp\ccxhVNGN.s:3951   .rodata.__func__.7153:00000000 __func__.7153

UNDEFINED SYMBOLS
__stack_chk_fail
__stack_chk_guard
left_motor_set_speed
right_motor_set_speed
__aeabi_i2d
__aeabi_dmul
__aeabi_ddiv
__aeabi_dadd
sqrt
ARM GAS  C:\Users\JEANCO~1\AppData\Local\Temp\ccxhVNGN.s 			page 441


chSemWait
clear_leds
set_led
doFFT_optimized
arm_cmplx_mag_f32
_stats_start_measure_crit_thd
_dbg_check_lock
chDbgCheckClassI
chSchRescheduleS
_dbg_check_unlock
_stats_stop_measure_crit_thd
chSysHalt
chSemSignalI
ch
chThdCreateStatic
__aeabi_dcmpun
__aeabi_dcmpge
__aeabi_d2f
get_proxy_buffer_ptr
chThdSleepUntilWindowed
