ARM GAS  C:\Users\adrie\AppData\Local\Temp\cc7EdWgE.s 			page 1


   1              		.cpu cortex-m4
   2              		.eabi_attribute 27, 1
   3              		.eabi_attribute 28, 1
   4              		.eabi_attribute 20, 1
   5              		.eabi_attribute 21, 1
   6              		.eabi_attribute 23, 3
   7              		.eabi_attribute 24, 1
   8              		.eabi_attribute 25, 1
   9              		.eabi_attribute 26, 1
  10              		.eabi_attribute 30, 2
  11              		.eabi_attribute 34, 1
  12              		.eabi_attribute 18, 4
  13              		.file	"audio_processing.c"
  14              		.text
  15              	.Ltext0:
  16              		.cfi_sections	.debug_frame
  17              		.section	.text.get_max_norm_index.part.0,"ax",%progbits
  18              		.align	1
  19              		.p2align 4,,15
  20              		.syntax unified
  21              		.thumb
  22              		.thumb_func
  23              		.fpu fpv4-sp-d16
  24              		.type	get_max_norm_index.part.0, %function
  25              	get_max_norm_index.part.0:
  26              	.LFB308:
  27              		.file 1 "audio_processing.c"
  28              		.loc 1 428 0
  29              		.cfi_startproc
  30              		@ args = 0, pretend = 0, frame = 8
  31              		@ frame_needed = 0, uses_anonymous_args = 0
  32              	.LVL0:
  33 0000 70B5     		push	{r4, r5, r6, lr}
  34              		.cfi_def_cfa_offset 16
  35              		.cfi_offset 4, -16
  36              		.cfi_offset 5, -12
  37              		.cfi_offset 6, -8
  38              		.cfi_offset 14, -4
  39 0002 2A4E     		ldr	r6, .L24
  40 0004 82B0     		sub	sp, sp, #8
  41              		.cfi_def_cfa_offset 24
  42              		.loc 1 428 0
  43 0006 3368     		ldr	r3, [r6]
  44 0008 0193     		str	r3, [sp, #4]
  45              		.loc 1 436 0
  46 000a 0629     		cmp	r1, #6
  47 000c 2BD0     		beq	.L21
  48              		.loc 1 439 0
  49 000e 0729     		cmp	r1, #7
  50 0010 08D0     		beq	.L22
  51              	.LVL1:
  52              	.LBB145:
  53              		.loc 1 444 0
  54 0012 0023     		movs	r3, #0
  55 0014 C0E90033 		strd	r3, r3, [r0]
  56              	.LVL2:
  57              	.L1:
ARM GAS  C:\Users\adrie\AppData\Local\Temp\cc7EdWgE.s 			page 2


  58              	.LBE145:
  59              		.loc 1 446 0
  60 0018 019A     		ldr	r2, [sp, #4]
  61 001a 3368     		ldr	r3, [r6]
  62 001c 9A42     		cmp	r2, r3
  63 001e 43D1     		bne	.L23
  64 0020 02B0     		add	sp, sp, #8
  65              		.cfi_remember_state
  66              		.cfi_def_cfa_offset 16
  67              		@ sp needed
  68 0022 70BD     		pop	{r4, r5, r6, pc}
  69              	.LVL3:
  70              	.L22:
  71              		.cfi_restore_state
  72 0024 224A     		ldr	r2, .L24+4
  73              	.LBB146:
  74              	.LBB147:
  75              		.loc 1 406 0
  76 0026 9FED237A 		vldr.32	s14, .L24+8
  77              		.loc 1 407 0
  78 002a 4FF0FF31 		mov	r1, #-1
  79              	.LVL4:
  80              	.LBB148:
  81              		.loc 1 412 0
  82 002e 0A23     		movs	r3, #10
  83 0030 40F60104 		movw	r4, #2049
  84              	.L10:
  85              	.LVL5:
  86              		.loc 1 413 0
  87 0034 F2EC017A 		vldmia.32	r2!, {s15}
  88 0038 F4EEC77A 		vcmpe.f32	s15, s14
  89 003c F1EE10FA 		vmrs	APSR_nzcv, FPSCR
  90 0040 08DD     		ble	.L8
  91 0042 A3F13305 		sub	r5, r3, #51
  92 0046 B5F56D7F 		cmp	r5, #948
  93 004a 98BF     		it	ls
  94 004c 1946     		movls	r1, r3
  95              	.LVL6:
  96 004e 98BF     		it	ls
  97 0050 B0EE677A 		vmovls.f32	s14, s15
  98              	.LVL7:
  99              	.L8:
 100              		.loc 1 412 0
 101 0054 0133     		adds	r3, r3, #1
 102              	.LVL8:
 103 0056 A342     		cmp	r3, r4
 104 0058 ECD1     		bne	.L10
 105              	.LVL9:
 106              	.LBE148:
 107              		.loc 1 418 0
 108 005a BDEEC77A 		vcvt.s32.f32	s14, s14
 109              	.LVL10:
 110              		.loc 1 420 0
 111 005e 4160     		str	r1, [r0, #4]
 112              	.LVL11:
 113              		.loc 1 418 0
 114 0060 80ED007A 		vstr.32	s14, [r0]	@ int
ARM GAS  C:\Users\adrie\AppData\Local\Temp\cc7EdWgE.s 			page 3


 115 0064 D8E7     		b	.L1
 116              	.LVL12:
 117              	.L21:
 118 0066 144A     		ldr	r2, .L24+12
 119              	.LBE147:
 120              	.LBE146:
 121              	.LBB150:
 122              	.LBB151:
 123              		.loc 1 406 0
 124 0068 9FED127A 		vldr.32	s14, .L24+8
 125              		.loc 1 407 0
 126 006c 4FF0FF31 		mov	r1, #-1
 127              	.LVL13:
 128              	.LBB152:
 129              		.loc 1 412 0
 130 0070 0A23     		movs	r3, #10
 131 0072 40F60104 		movw	r4, #2049
 132              	.L5:
 133              	.LVL14:
 134              		.loc 1 413 0
 135 0076 F2EC017A 		vldmia.32	r2!, {s15}
 136 007a F4EEC77A 		vcmpe.f32	s15, s14
 137 007e F1EE10FA 		vmrs	APSR_nzcv, FPSCR
 138 0082 08DD     		ble	.L3
 139 0084 A3F13305 		sub	r5, r3, #51
 140 0088 B5F56D7F 		cmp	r5, #948
 141 008c 98BF     		it	ls
 142 008e 1946     		movls	r1, r3
 143              	.LVL15:
 144 0090 98BF     		it	ls
 145 0092 B0EE677A 		vmovls.f32	s14, s15
 146              	.LVL16:
 147              	.L3:
 148              		.loc 1 412 0
 149 0096 0133     		adds	r3, r3, #1
 150              	.LVL17:
 151 0098 A342     		cmp	r3, r4
 152 009a ECD1     		bne	.L5
 153              	.LVL18:
 154              	.LBE152:
 155              	.LBE151:
 156              	.LBE150:
 157              	.LBB153:
 158              	.LBB149:
 159              		.loc 1 418 0
 160 009c BDEEC77A 		vcvt.s32.f32	s14, s14
 161              	.LVL19:
 162              		.loc 1 420 0
 163 00a0 4160     		str	r1, [r0, #4]
 164              	.LVL20:
 165              		.loc 1 418 0
 166 00a2 80ED007A 		vstr.32	s14, [r0]	@ int
 167 00a6 B7E7     		b	.L1
 168              	.LVL21:
 169              	.L23:
 170              	.LBE149:
 171              	.LBE153:
ARM GAS  C:\Users\adrie\AppData\Local\Temp\cc7EdWgE.s 			page 4


 172              		.loc 1 446 0
 173 00a8 FFF7FEFF 		bl	__stack_chk_fail
 174              	.LVL22:
 175              	.L25:
 176              		.align	2
 177              	.L24:
 178 00ac 00000000 		.word	__stack_chk_guard
 179 00b0 28000000 		.word	micBack_output+40
 180 00b4 0000C842 		.word	1120403456
 181 00b8 28000000 		.word	micFront_output+40
 182              		.cfi_endproc
 183              	.LFE308:
 184              		.size	get_max_norm_index.part.0, .-get_max_norm_index.part.0
 185              		.section	.text.chprintf.constprop.2,"ax",%progbits
 186              		.align	1
 187              		.p2align 4,,15
 188              		.syntax unified
 189              		.thumb
 190              		.thumb_func
 191              		.fpu fpv4-sp-d16
 192              		.type	chprintf.constprop.2, %function
 193              	chprintf.constprop.2:
 194              	.LFB311:
 195              		.file 2 "../lib/e-puck2_main-processor/ChibiOS//os/hal/lib/streams/chprintf.h"
 196              		.loc 2 69 0
 197              		.cfi_startproc
 198              		@ args = 4, pretend = 12, frame = 8
 199              		@ frame_needed = 0, uses_anonymous_args = 1
 200              	.LVL23:
 201 0000 0EB4     		push	{r1, r2, r3}
 202              		.cfi_def_cfa_offset 12
 203              		.cfi_offset 1, -12
 204              		.cfi_offset 2, -8
 205              		.cfi_offset 3, -4
 206 0002 10B5     		push	{r4, lr}
 207              		.cfi_def_cfa_offset 20
 208              		.cfi_offset 4, -20
 209              		.cfi_offset 14, -16
 210 0004 0A4C     		ldr	r4, .L30
 211              		.loc 2 74 0
 212 0006 0B49     		ldr	r1, .L30+4
 213              		.loc 2 69 0
 214 0008 2368     		ldr	r3, [r4]
 215              		.loc 2 74 0
 216 000a 0B48     		ldr	r0, .L30+8
 217              	.LVL24:
 218              		.loc 2 69 0
 219 000c 83B0     		sub	sp, sp, #12
 220              		.cfi_def_cfa_offset 32
 221              		.loc 2 69 0
 222 000e 0193     		str	r3, [sp, #4]
 223              	.LVL25:
 224              		.loc 2 73 0
 225 0010 06AB     		add	r3, sp, #24
 226              		.loc 2 74 0
 227 0012 1A46     		mov	r2, r3
 228              		.loc 2 73 0
ARM GAS  C:\Users\adrie\AppData\Local\Temp\cc7EdWgE.s 			page 5


 229 0014 0093     		str	r3, [sp]
 230              		.loc 2 74 0
 231 0016 FFF7FEFF 		bl	chvprintf
 232              	.LVL26:
 233              		.loc 2 78 0
 234 001a 019A     		ldr	r2, [sp, #4]
 235 001c 2368     		ldr	r3, [r4]
 236 001e 9A42     		cmp	r2, r3
 237 0020 04D1     		bne	.L29
 238 0022 03B0     		add	sp, sp, #12
 239              		.cfi_remember_state
 240              		.cfi_def_cfa_offset 20
 241              		@ sp needed
 242 0024 BDE81040 		pop	{r4, lr}
 243              		.cfi_restore 14
 244              		.cfi_restore 4
 245              		.cfi_def_cfa_offset 12
 246 0028 03B0     		add	sp, sp, #12
 247              		.cfi_restore 3
 248              		.cfi_restore 2
 249              		.cfi_restore 1
 250              		.cfi_def_cfa_offset 0
 251 002a 7047     		bx	lr
 252              	.L29:
 253              		.cfi_restore_state
 254 002c FFF7FEFF 		bl	__stack_chk_fail
 255              	.LVL27:
 256              	.L31:
 257              		.align	2
 258              	.L30:
 259 0030 00000000 		.word	__stack_chk_guard
 260 0034 00000000 		.word	.LC0
 261 0038 00000000 		.word	SDU1
 262              		.cfi_endproc
 263              	.LFE311:
 264              		.size	chprintf.constprop.2, .-chprintf.constprop.2
 265              		.global	__aeabi_i2d
 266              		.global	__aeabi_dmul
 267              		.global	__aeabi_ddiv
 268              		.global	__aeabi_d2f
 269              		.section	.text.PiRegulator,"ax",%progbits
 270              		.align	1
 271              		.p2align 4,,15
 272              		.syntax unified
 273              		.thumb
 274              		.thumb_func
 275              		.fpu fpv4-sp-d16
 276              		.type	PiRegulator, %function
 277              	PiRegulator:
 278              	.LFB306:
 279              		.loc 1 636 0
 280              		.cfi_startproc
 281              		@ args = 0, pretend = 0, frame = 8
 282              		@ frame_needed = 0, uses_anonymous_args = 0
 283              	.LVL28:
 284 0000 2DE9F04F 		push	{r4, r5, r6, r7, r8, r9, r10, fp, lr}
 285              		.cfi_def_cfa_offset 36
ARM GAS  C:\Users\adrie\AppData\Local\Temp\cc7EdWgE.s 			page 6


 286              		.cfi_offset 4, -36
 287              		.cfi_offset 5, -32
 288              		.cfi_offset 6, -28
 289              		.cfi_offset 7, -24
 290              		.cfi_offset 8, -20
 291              		.cfi_offset 9, -16
 292              		.cfi_offset 10, -12
 293              		.cfi_offset 11, -8
 294              		.cfi_offset 14, -4
 295 0004 2DED048B 		vpush.64	{d8, d9}
 296              		.cfi_def_cfa_offset 52
 297              		.cfi_offset 80, -52
 298              		.cfi_offset 81, -48
 299              		.cfi_offset 82, -44
 300              		.cfi_offset 83, -40
 301              	.LBB187:
 302              	.LBB188:
 303              		.file 3 "../lib/e-puck2_main-processor/ChibiOS//os/rt/include/chregistry.h"
 304              		.loc 3 135 0
 305 0008 DFF818A2 		ldr	r10, .L57+76
 306              	.LBE188:
 307              	.LBE187:
 308              		.loc 1 636 0
 309 000c 764B     		ldr	r3, .L57+16
 310              	.LBB191:
 311              	.LBB189:
 312              		.loc 3 135 0
 313 000e DAF81820 		ldr	r2, [r10, #24]
 314 0012 7649     		ldr	r1, .L57+20
 315              	.LBE189:
 316              	.LBE191:
 317              		.loc 1 636 0
 318 0014 1B68     		ldr	r3, [r3]
 319 0016 764D     		ldr	r5, .L57+24
 320              	.LBB192:
 321              	.LBB193:
 322              	.LBB194:
 323              		.loc 1 389 0
 324 0018 764F     		ldr	r7, .L57+28
 325              	.LBE194:
 326              	.LBE193:
 327              	.LBB204:
 328              	.LBB205:
 329              		.loc 1 611 0
 330 001a 9FED779A 		vldr.32	s18, .L57+32
 331              	.LBE205:
 332              	.LBE204:
 333              	.LBE192:
 334              	.LBB268:
 335              	.LBB190:
 336              		.loc 3 135 0
 337 001e 9161     		str	r1, [r2, #24]
 338              	.LBE190:
 339              	.LBE268:
 340              		.loc 1 636 0
 341 0020 85B0     		sub	sp, sp, #20
 342              		.cfi_def_cfa_offset 72
ARM GAS  C:\Users\adrie\AppData\Local\Temp\cc7EdWgE.s 			page 7


 343              	.LBB269:
 344              		.loc 1 686 0
 345 0022 9FED6D8B 		vldr.64	d8, .L57
 346              	.LBE269:
 347              		.loc 1 636 0
 348 0026 0393     		str	r3, [sp, #12]
 349              	.LVL29:
 350              		.loc 1 647 0
 351 0028 0026     		movs	r6, #0
 352 002a 5BE0     		b	.L48
 353              	.LVL30:
 354              	.L55:
 355              	.LBB270:
 356              		.loc 1 658 0 discriminator 1
 357 002c 8EB9     		cbnz	r6, .L54
 358              		.loc 1 659 0
 359 002e 4FEA8B03 		lsl	r3, fp, #2
 360 0032 07EE103A 		vmov	s14, r3	@ int
 361 0036 DFED717A 		vldr.32	s15, .L57+36
 362 003a B8EEC77A 		vcvt.f32.s32	s14, s14
 363 003e 67EE277A 		vmul.f32	s15, s14, s15
 364 0042 67EE897A 		vmul.f32	s15, s15, s18
 365 0046 67EE897A 		vmul.f32	s15, s15, s18
 366 004a FDEEE77A 		vcvt.s32.f32	s15, s15
 367 004e 17EE906A 		vmov	r6, s15	@ int
 368              	.LVL31:
 369              	.L54:
 370 0052 3046     		mov	r0, r6
 371 0054 FFF7FEFF 		bl	__aeabi_i2d
 372              	.LVL32:
 373 0058 8046     		mov	r8, r0
 374 005a 8946     		mov	r9, r1
 375              	.LVL33:
 376              	.L37:
 377              	.LBB208:
 378              	.LBB209:
 379              		.loc 1 266 0
 380 005c 5846     		mov	r0, fp
 381 005e FFF7FEFF 		bl	__aeabi_i2d
 382              	.LVL34:
 383              		.loc 1 267 0
 384 0062 0022     		movs	r2, #0
 385 0064 664B     		ldr	r3, .L57+40
 386 0066 FFF7FEFF 		bl	__aeabi_dmul
 387              	.LVL35:
 388 006a 5DA3     		adr	r3, .L57+8
 389 006c D3E90023 		ldrd	r2, [r3]
 390 0070 FFF7FEFF 		bl	__aeabi_dmul
 391              	.LVL36:
 392 0074 0246     		mov	r2, r0
 393 0076 0B46     		mov	r3, r1
 394 0078 4046     		mov	r0, r8
 395 007a 4946     		mov	r1, r9
 396 007c FFF7FEFF 		bl	__aeabi_ddiv
 397              	.LVL37:
 398 0080 41EC100B 		vmov	d0, r0, r1
 399 0084 FFF7FEFF 		bl	sqrt
ARM GAS  C:\Users\adrie\AppData\Local\Temp\cc7EdWgE.s 			page 8


 400              	.LVL38:
 401              	.LBE209:
 402              	.LBE208:
 403              		.loc 1 670 0
 404 0088 51EC100B 		vmov	r0, r1, d0
 405 008c FFF7FEFF 		bl	__aeabi_d2f
 406              	.LVL39:
 407              	.LBB210:
 408              	.LBB206:
 409              		.loc 1 611 0
 410 0090 07EE900A 		vmov	s15, r0
 411 0094 77EEC97A 		vsub.f32	s15, s15, s18
 412              	.LVL40:
 413              		.loc 1 617 0
 414 0098 9FED5A7A 		vldr.32	s14, .L57+44
 415 009c F0EEE76A 		vabs.f32	s13, s15
 416 00a0 F4EEC76A 		vcmpe.f32	s13, s14
 417 00a4 F1EE10FA 		vmrs	APSR_nzcv, FPSCR
 418 00a8 0DD4     		bmi	.L42
 419              		.loc 1 621 0
 420 00aa 574B     		ldr	r3, .L57+48
 421              		.loc 1 624 0
 422 00ac DFED576A 		vldr.32	s13, .L57+52
 423              		.loc 1 621 0
 424 00b0 93ED007A 		vldr.32	s14, [r3]
 425 00b4 77EE877A 		vadd.f32	s15, s15, s14
 426              	.LVL41:
 427              		.loc 1 624 0
 428 00b8 F4EEE67A 		vcmpe.f32	s15, s13
 429 00bc F1EE10FA 		vmrs	APSR_nzcv, FPSCR
 430 00c0 74DD     		ble	.L52
 431              		.loc 1 625 0
 432 00c2 C3ED006A 		vstr.32	s13, [r3]
 433              	.L42:
 434              	.LVL42:
 435              	.LBE206:
 436              	.LBE210:
 437              		.loc 1 686 0
 438 00c6 8DED008B 		vstr.64	d8, [sp]
 439 00ca 3246     		mov	r2, r6
 440 00cc 5049     		ldr	r1, .L57+56
 441 00ce 5148     		ldr	r0, .L57+60
 442              	.LVL43:
 443 00d0 FFF7FEFF 		bl	chprintf.constprop.2
 444              	.LVL44:
 445              		.loc 1 690 0
 446 00d4 504B     		ldr	r3, .L57+64
 447 00d6 9B45     		cmp	fp, r3
 448 00d8 61DD     		ble	.L49
 449              	.LVL45:
 450              	.L47:
 451              		.loc 1 703 0
 452 00da 04F10A01 		add	r1, r4, #10
 453 00de 2046     		mov	r0, r4
 454 00e0 FFF7FEFF 		bl	chThdSleepUntilWindowed
 455              	.LVL46:
 456              	.L48:
ARM GAS  C:\Users\adrie\AppData\Local\Temp\cc7EdWgE.s 			page 9


 457              	.LBB211:
 458              	.LBB212:
 459              	.LBB213:
 460              	.LBB214:
 461              	.LBB215:
 462              	.LBB216:
 463              	.LBB217:
 464              		.file 4 "../lib/e-puck2_main-processor/ChibiOS//os/ext/CMSIS/include/core_cmFunc.h"
 465              		.loc 4 546 0
 466 00e4 2023     		movs	r3, #32
 467              		.syntax unified
 468              	@ 546 "../lib/e-puck2_main-processor/ChibiOS//os/ext/CMSIS/include/core_cmFunc.h" 1
 469 00e6 83F31188 		MSR basepri, r3
 470              	@ 0 "" 2
 471              	.LVL47:
 472              		.thumb
 473              		.syntax unified
 474              	.LBE217:
 475              	.LBE216:
 476              	.LBE215:
 477              		.file 5 "../lib/e-puck2_main-processor/ChibiOS//os/rt/include/chsys.h"
 478              		.loc 5 349 0
 479 00ea FFF7FEFF 		bl	_stats_start_measure_crit_thd
 480              	.LVL48:
 481              		.loc 5 350 0
 482 00ee FFF7FEFF 		bl	_dbg_check_lock
 483              	.LVL49:
 484              	.LBE214:
 485              	.LBE213:
 486              	.LBB218:
 487              	.LBB219:
 488              		.file 6 "../lib/e-puck2_main-processor/ChibiOS//os/rt/include/chvt.h"
 489              		.loc 6 231 0
 490 00f2 DAF82840 		ldr	r4, [r10, #40]
 491              	.LBE219:
 492              	.LBE218:
 493              	.LBB220:
 494              	.LBB221:
 495              		.loc 5 360 0
 496 00f6 FFF7FEFF 		bl	_dbg_check_unlock
 497              	.LVL50:
 498              		.loc 5 361 0
 499 00fa FFF7FEFF 		bl	_stats_stop_measure_crit_thd
 500              	.LVL51:
 501              		.loc 5 367 0
 502 00fe DAF80030 		ldr	r3, [r10]
 503 0102 5345     		cmp	r3, r10
 504 0104 08D0     		beq	.L33
 505 0106 DAF81820 		ldr	r2, [r10, #24]
 506 010a 9B68     		ldr	r3, [r3, #8]
 507 010c 9268     		ldr	r2, [r2, #8]
 508 010e 9A42     		cmp	r2, r3
 509 0110 02D2     		bcs	.L33
 510 0112 4248     		ldr	r0, .L57+68
 511 0114 FFF7FEFF 		bl	chSysHalt
 512              	.LVL52:
 513              	.L33:
ARM GAS  C:\Users\adrie\AppData\Local\Temp\cc7EdWgE.s 			page 10


 514              	.LBB222:
 515              	.LBB223:
 516              	.LBB224:
 517              		.loc 4 546 0
 518 0118 0023     		movs	r3, #0
 519              		.syntax unified
 520              	@ 546 "../lib/e-puck2_main-processor/ChibiOS//os/ext/CMSIS/include/core_cmFunc.h" 1
 521 011a 83F31188 		MSR basepri, r3
 522              	@ 0 "" 2
 523              	.LVL53:
 524              		.thumb
 525              		.syntax unified
 526              	.LBE224:
 527              	.LBE223:
 528              	.LBE222:
 529              	.LBE221:
 530              	.LBE220:
 531              	.LBE212:
 532              	.LBE211:
 533              	.LBB225:
 534              	.LBB226:
 535              	.LBB227:
 536              		.loc 1 386 0
 537 011e D5E90620 		ldrd	r2, r0, [r5, #24]
 538              	.LBE227:
 539              	.LBE226:
 540              	.LBE225:
 541              	.LBB236:
 542              	.LBB199:
 543              	.LBB195:
 544 0122 D5E90031 		ldrd	r3, r1, [r5]
 545              	.LBE195:
 546              	.LBE199:
 547              	.LBE236:
 548              	.LBB237:
 549              	.LBB231:
 550              	.LBB228:
 551 0126 0244     		add	r2, r2, r0
 552              	.LVL54:
 553              	.LBE228:
 554              	.LBE231:
 555              	.LBE237:
 556              	.LBB238:
 557              	.LBB200:
 558              	.LBB196:
 559 0128 0B44     		add	r3, r3, r1
 560              	.LVL55:
 561              	.LBE196:
 562              	.LBE200:
 563              	.LBE238:
 564              	.LBB239:
 565              	.LBB232:
 566              	.LBB229:
 567 012a 286A     		ldr	r0, [r5, #32]
 568              	.LBE229:
 569              	.LBE232:
 570              	.LBE239:
ARM GAS  C:\Users\adrie\AppData\Local\Temp\cc7EdWgE.s 			page 11


 571              	.LBB240:
 572              	.LBB201:
 573              	.LBB197:
 574 012c A968     		ldr	r1, [r5, #8]
 575              	.LBE197:
 576              	.LBE201:
 577              	.LBE240:
 578              	.LBB241:
 579              	.LBB233:
 580              	.LBB230:
 581 012e 0244     		add	r2, r2, r0
 582              	.LBE230:
 583              	.LBE233:
 584              	.LBE241:
 585              	.LBB242:
 586              	.LBB202:
 587              	.LBB198:
 588 0130 1944     		add	r1, r1, r3
 589              	.LBE198:
 590              	.LBE202:
 591              	.LBE242:
 592              	.LBB243:
 593              	.LBB244:
 594              	.LBB245:
 595 0132 D5E90930 		ldrd	r3, r0, [r5, #36]
 596 0136 03EB000C 		add	ip, r3, r0
 597              	.LVL56:
 598              	.LBE245:
 599              	.LBE244:
 600              	.LBE243:
 601              	.LBB251:
 602              	.LBB234:
 603              		.loc 1 389 0
 604 013a 87FB023B 		smull	r3, fp, r7, r2
 605              	.LBE234:
 606              	.LBE251:
 607              	.LBB252:
 608              	.LBB248:
 609              	.LBB246:
 610              		.loc 1 386 0
 611 013e EB6A     		ldr	r3, [r5, #44]
 612              	.LBE246:
 613              	.LBE248:
 614              	.LBE252:
 615              	.LBB253:
 616              	.LBB235:
 617              		.loc 1 389 0
 618 0140 ABEBE27B 		sub	fp, fp, r2, asr #31
 619              	.LBE235:
 620              	.LBE253:
 621              	.LBB254:
 622              	.LBB249:
 623              	.LBB247:
 624              		.loc 1 386 0
 625 0144 9C44     		add	ip, ip, r3
 626              	.LBE247:
 627              	.LBE249:
ARM GAS  C:\Users\adrie\AppData\Local\Temp\cc7EdWgE.s 			page 12


 628              	.LBE254:
 629              	.LBB255:
 630              	.LBB203:
 631              		.loc 1 389 0
 632 0146 87FB0123 		smull	r2, r3, r7, r1
 633 014a A3EBE173 		sub	r3, r3, r1, asr #31
 634              	.LBE203:
 635              	.LBE255:
 636              	.LBB256:
 637              	.LBB257:
 638              	.LBB258:
 639              		.loc 1 386 0
 640 014e D5E90312 		ldrd	r1, r2, [r5, #12]
 641 0152 0A44     		add	r2, r2, r1
 642              	.LVL57:
 643 0154 6969     		ldr	r1, [r5, #20]
 644              	.LBE258:
 645              	.LBE257:
 646              	.LBE256:
 647              		.loc 1 656 0
 648 0156 5B44     		add	r3, r3, fp
 649              	.LBB263:
 650              	.LBB260:
 651              	.LBB259:
 652              		.loc 1 386 0
 653 0158 0A44     		add	r2, r2, r1
 654              	.LBE259:
 655              	.LBE260:
 656              	.LBE263:
 657              	.LBB264:
 658              	.LBB250:
 659              		.loc 1 389 0
 660 015a 87FB0C1B 		smull	r1, fp, r7, ip
 661 015e ABEBEC7B 		sub	fp, fp, ip, asr #31
 662              	.LBE250:
 663              	.LBE264:
 664              	.LBB265:
 665              	.LBB261:
 666 0162 87FB0201 		smull	r0, r1, r7, r2
 667              	.LBE261:
 668              	.LBE265:
 669              		.loc 1 656 0
 670 0166 9B44     		add	fp, fp, r3
 671              	.LBB266:
 672              	.LBB262:
 673              		.loc 1 389 0
 674 0168 A1EBE272 		sub	r2, r1, r2, asr #31
 675              	.LBE262:
 676              	.LBE266:
 677              		.loc 1 656 0
 678 016c 1BEB020B 		adds	fp, fp, r2
 679 0170 48BF     		it	mi
 680 0172 0BF1030B 		addmi	fp, fp, #3
 681 0176 4FEAAB0B 		asr	fp, fp, #2
 682              	.LVL58:
 683              		.loc 1 658 0
 684 017a 44F62063 		movw	r3, #20000
ARM GAS  C:\Users\adrie\AppData\Local\Temp\cc7EdWgE.s 			page 13


 685 017e 9B45     		cmp	fp, r3
 686 0180 3FF754AF 		bgt	.L55
 687              		.loc 1 660 0
 688 0184 3FF465AF 		beq	.L54
 689              	.LVL59:
 690              		.loc 1 664 0
 691 0188 BBF1000F 		cmp	fp, #0
 692 018c 1BDC     		bgt	.L56
 693              	.LVL60:
 694              		.loc 1 686 0
 695 018e 8DED008B 		vstr.64	d8, [sp]
 696 0192 0022     		movs	r2, #0
 697 0194 1E49     		ldr	r1, .L57+56
 698 0196 1F48     		ldr	r0, .L57+60
 699 0198 FFF7FEFF 		bl	chprintf.constprop.2
 700              	.LVL61:
 701              		.loc 1 661 0
 702 019c 0026     		movs	r6, #0
 703              	.LVL62:
 704              	.L49:
 705              		.loc 1 698 0
 706 019e 0020     		movs	r0, #0
 707 01a0 FFF7FEFF 		bl	left_motor_set_speed
 708              	.LVL63:
 709              		.loc 1 699 0
 710 01a4 0020     		movs	r0, #0
 711 01a6 FFF7FEFF 		bl	right_motor_set_speed
 712              	.LVL64:
 713 01aa 96E7     		b	.L47
 714              	.LVL65:
 715              	.L52:
 716              	.LBB267:
 717              	.LBB207:
 718              		.loc 1 626 0
 719 01ac 9FED1C7A 		vldr.32	s14, .L57+72
 720              		.loc 1 621 0
 721 01b0 154B     		ldr	r3, .L57+48
 722 01b2 F4EEC77A 		vcmpe.f32	s15, s14
 723 01b6 F1EE10FA 		vmrs	APSR_nzcv, FPSCR
 724 01ba 48BF     		it	mi
 725 01bc F0EE477A 		vmovmi.f32	s15, s14
 726 01c0 C3ED007A 		vstr.32	s15, [r3]
 727 01c4 7FE7     		b	.L42
 728              	.LVL66:
 729              	.L56:
 730              	.LBE207:
 731              	.LBE267:
 732 01c6 4FF00008 		mov	r8, #0
 733 01ca 4FF00009 		mov	r9, #0
 734              		.loc 1 661 0
 735 01ce 0026     		movs	r6, #0
 736 01d0 44E7     		b	.L37
 737              	.L58:
 738 01d2 00BFAFF3 		.align	3
 738      0080
 739              	.L57:
 740 01d8 00000040 		.word	1073741824
ARM GAS  C:\Users\adrie\AppData\Local\Temp\cc7EdWgE.s 			page 14


 741 01dc 3333D33F 		.word	1070805811
 742 01e0 000000C0 		.word	-1073741824
 743 01e4 CA210940 		.word	1074340298
 744 01e8 00000000 		.word	__stack_chk_guard
 745 01ec 00000000 		.word	.LANCHOR0
 746 01f0 00000000 		.word	.LANCHOR2
 747 01f4 56555555 		.word	1431655766
 748 01f8 295C8F3D 		.word	1032805417
 749 01fc DB0F4940 		.word	1078530011
 750 0200 00001040 		.word	1074790400
 751 0204 00007A44 		.word	1148846080
 752 0208 00000000 		.word	.LANCHOR3
 753 020c 92249D43 		.word	1134371986
 754 0210 00000000 		.word	.LC0
 755 0214 00000000 		.word	SDU1
 756 0218 A0860100 		.word	100000
 757 021c 00000000 		.word	.LANCHOR1
 758 0220 92249DC3 		.word	-1013111662
 759 0224 00000000 		.word	ch
 760              	.LBE270:
 761              		.cfi_endproc
 762              	.LFE306:
 763              		.size	PiRegulator, .-PiRegulator
 764              		.section	.text.sound_remote,"ax",%progbits
 765              		.align	1
 766              		.p2align 4,,15
 767              		.global	sound_remote
 768              		.syntax unified
 769              		.thumb
 770              		.thumb_func
 771              		.fpu fpv4-sp-d16
 772              		.type	sound_remote, %function
 773              	sound_remote:
 774              	.LFB290:
 775              		.loc 1 85 0
 776              		.cfi_startproc
 777              		@ args = 0, pretend = 0, frame = 8
 778              		@ frame_needed = 0, uses_anonymous_args = 0
 779              	.LVL67:
 780 0000 10B5     		push	{r4, lr}
 781              		.cfi_def_cfa_offset 8
 782              		.cfi_offset 4, -8
 783              		.cfi_offset 14, -4
 784 0002 2C4C     		ldr	r4, .L84
 785              		.loc 1 86 0
 786 0004 9FED2C7A 		vldr.32	s14, .L84+4
 787              		.loc 1 85 0
 788 0008 2368     		ldr	r3, [r4]
 789 000a 82B0     		sub	sp, sp, #8
 790              		.cfi_def_cfa_offset 16
 791 000c 2830     		adds	r0, r0, #40
 792              	.LVL68:
 793              		.loc 1 85 0
 794 000e 0193     		str	r3, [sp, #4]
 795              	.LVL69:
 796              		.loc 1 87 0
 797 0010 4FF0FF31 		mov	r1, #-1
ARM GAS  C:\Users\adrie\AppData\Local\Temp\cc7EdWgE.s 			page 15


 798              		.loc 1 85 0
 799 0014 0A23     		movs	r3, #10
 800              	.LBB271:
 801              		.loc 1 90 0
 802 0016 40F60102 		movw	r2, #2049
 803              	.LVL70:
 804              	.L62:
 805              		.loc 1 91 0
 806 001a F0EC017A 		vldmia.32	r0!, {s15}
 807 001e F4EEC77A 		vcmpe.f32	s15, s14
 808 0022 F1EE10FA 		vmrs	APSR_nzcv, FPSCR
 809              	.LVL71:
 810              		.loc 1 93 0
 811 0026 C8BF     		it	gt
 812 0028 19B2     		sxthgt	r1, r3
 813              	.LVL72:
 814 002a 03F10103 		add	r3, r3, #1
 815              	.LVL73:
 816              		.loc 1 92 0
 817 002e C8BF     		it	gt
 818 0030 B0EE677A 		vmovgt.f32	s14, s15
 819              	.LVL74:
 820              		.loc 1 90 0
 821 0034 9342     		cmp	r3, r2
 822 0036 F0D1     		bne	.L62
 823              	.LBE271:
 824              		.loc 1 99 0
 825 0038 89B2     		uxth	r1, r1
 826 003a A1F10F03 		sub	r3, r1, #15
 827 003e 022B     		cmp	r3, #2
 828 0040 24D9     		bls	.L80
 829              		.loc 1 104 0
 830 0042 A1F11203 		sub	r3, r1, #18
 831 0046 022B     		cmp	r3, #2
 832 0048 11D9     		bls	.L81
 833              		.loc 1 109 0
 834 004a A1F11603 		sub	r3, r1, #22
 835 004e 022B     		cmp	r3, #2
 836 0050 2CD9     		bls	.L82
 837              		.loc 1 114 0
 838 0052 1939     		subs	r1, r1, #25
 839 0054 0229     		cmp	r1, #2
 840 0056 1CD9     		bls	.L83
 841              		.loc 1 119 0
 842 0058 0020     		movs	r0, #0
 843 005a FFF7FEFF 		bl	left_motor_set_speed
 844              	.LVL75:
 845              		.loc 1 120 0
 846 005e 019A     		ldr	r2, [sp, #4]
 847 0060 2368     		ldr	r3, [r4]
 848 0062 9A42     		cmp	r2, r3
 849 0064 08BF     		it	eq
 850 0066 0020     		moveq	r0, #0
 851 0068 0BD0     		beq	.L76
 852              	.L77:
 853 006a FFF7FEFF 		bl	__stack_chk_fail
 854              	.LVL76:
ARM GAS  C:\Users\adrie\AppData\Local\Temp\cc7EdWgE.s 			page 16


 855              	.L81:
 856              		.loc 1 105 0
 857 006e 1348     		ldr	r0, .L84+8
 858              	.L78:
 859 0070 FFF7FEFF 		bl	left_motor_set_speed
 860              	.LVL77:
 861              		.loc 1 106 0
 862 0074 019A     		ldr	r2, [sp, #4]
 863 0076 2368     		ldr	r3, [r4]
 864 0078 9A42     		cmp	r2, r3
 865 007a 08BF     		it	eq
 866 007c 4FF41670 		moveq	r0, #600
 867 0080 F3D1     		bne	.L77
 868              	.L76:
 869              		.loc 1 123 0
 870 0082 02B0     		add	sp, sp, #8
 871              		.cfi_remember_state
 872              		.cfi_def_cfa_offset 8
 873              		@ sp needed
 874 0084 BDE81040 		pop	{r4, lr}
 875              		.cfi_restore 14
 876              		.cfi_restore 4
 877              		.cfi_def_cfa_offset 0
 878              		.loc 1 120 0
 879 0088 FFF7FEBF 		b	right_motor_set_speed
 880              	.LVL78:
 881              	.L80:
 882              		.cfi_restore_state
 883              		.loc 1 100 0
 884 008c 4FF41670 		mov	r0, #600
 885 0090 EEE7     		b	.L78
 886              	.L83:
 887              		.loc 1 115 0
 888 0092 0A48     		ldr	r0, .L84+8
 889              	.L79:
 890 0094 FFF7FEFF 		bl	left_motor_set_speed
 891              	.LVL79:
 892              		.loc 1 116 0
 893 0098 019A     		ldr	r2, [sp, #4]
 894 009a 2368     		ldr	r3, [r4]
 895 009c 9A42     		cmp	r2, r3
 896 009e E4D1     		bne	.L77
 897 00a0 0648     		ldr	r0, .L84+8
 898              		.loc 1 123 0
 899 00a2 02B0     		add	sp, sp, #8
 900              		.cfi_remember_state
 901              		.cfi_def_cfa_offset 8
 902              		@ sp needed
 903 00a4 BDE81040 		pop	{r4, lr}
 904              		.cfi_restore 14
 905              		.cfi_restore 4
 906              		.cfi_def_cfa_offset 0
 907              		.loc 1 120 0
 908 00a8 FFF7FEBF 		b	right_motor_set_speed
 909              	.LVL80:
 910              	.L82:
 911              		.cfi_restore_state
ARM GAS  C:\Users\adrie\AppData\Local\Temp\cc7EdWgE.s 			page 17


 912              		.loc 1 110 0
 913 00ac 4FF41670 		mov	r0, #600
 914 00b0 F0E7     		b	.L79
 915              	.L85:
 916 00b2 00BF     		.align	2
 917              	.L84:
 918 00b4 00000000 		.word	__stack_chk_guard
 919 00b8 00401C46 		.word	1176256512
 920 00bc A8FDFFFF 		.word	-600
 921              		.cfi_endproc
 922              	.LFE290:
 923              		.size	sound_remote, .-sound_remote
 924              		.section	.text.calcul_distance,"ax",%progbits
 925              		.align	1
 926              		.p2align 4,,15
 927              		.global	calcul_distance
 928              		.syntax unified
 929              		.thumb
 930              		.thumb_func
 931              		.fpu fpv4-sp-d16
 932              		.type	calcul_distance, %function
 933              	calcul_distance:
 934              	.LFB292:
 935              		.loc 1 264 0
 936              		.cfi_startproc
 937              		@ args = 0, pretend = 0, frame = 8
 938              		@ frame_needed = 0, uses_anonymous_args = 0
 939              	.LVL81:
 940 0000 D0B5     		push	{r4, r6, r7, lr}
 941              		.cfi_def_cfa_offset 16
 942              		.cfi_offset 4, -16
 943              		.cfi_offset 6, -12
 944              		.cfi_offset 7, -8
 945              		.cfi_offset 14, -4
 946 0002 174B     		ldr	r3, .L91+8
 947 0004 82B0     		sub	sp, sp, #8
 948              		.cfi_def_cfa_offset 24
 949              		.loc 1 264 0
 950 0006 1A68     		ldr	r2, [r3]
 951 0008 0192     		str	r2, [sp, #4]
 952              		.loc 1 267 0
 953 000a 019A     		ldr	r2, [sp, #4]
 954 000c 1B68     		ldr	r3, [r3]
 955              	.LVL82:
 956 000e 9A42     		cmp	r2, r3
 957 0010 1ED1     		bne	.L90
 958 0012 0446     		mov	r4, r0
 959 0014 0846     		mov	r0, r1
 960              	.LVL83:
 961 0016 FFF7FEFF 		bl	__aeabi_i2d
 962              	.LVL84:
 963 001a 0646     		mov	r6, r0
 964              		.loc 1 266 0
 965 001c 2046     		mov	r0, r4
 966              		.loc 1 267 0
 967 001e 0F46     		mov	r7, r1
 968              		.loc 1 266 0
ARM GAS  C:\Users\adrie\AppData\Local\Temp\cc7EdWgE.s 			page 18


 969 0020 FFF7FEFF 		bl	__aeabi_i2d
 970              	.LVL85:
 971              		.loc 1 267 0
 972 0024 0022     		movs	r2, #0
 973 0026 0F4B     		ldr	r3, .L91+12
 974 0028 FFF7FEFF 		bl	__aeabi_dmul
 975              	.LVL86:
 976 002c 0AA3     		adr	r3, .L91
 977 002e D3E90023 		ldrd	r2, [r3]
 978 0032 FFF7FEFF 		bl	__aeabi_dmul
 979              	.LVL87:
 980 0036 0246     		mov	r2, r0
 981 0038 0B46     		mov	r3, r1
 982 003a 3046     		mov	r0, r6
 983 003c 3946     		mov	r1, r7
 984 003e FFF7FEFF 		bl	__aeabi_ddiv
 985              	.LVL88:
 986 0042 41EC100B 		vmov	d0, r0, r1
 987              		.loc 1 270 0
 988 0046 02B0     		add	sp, sp, #8
 989              		.cfi_remember_state
 990              		.cfi_def_cfa_offset 16
 991              		@ sp needed
 992 0048 BDE8D040 		pop	{r4, r6, r7, lr}
 993              		.cfi_restore 14
 994              		.cfi_restore 7
 995              		.cfi_restore 6
 996              		.cfi_restore 4
 997              		.cfi_def_cfa_offset 0
 998              	.LVL89:
 999              		.loc 1 267 0
 1000 004c FFF7FEBF 		b	sqrt
 1001              	.LVL90:
 1002              	.L90:
 1003              		.cfi_restore_state
 1004 0050 FFF7FEFF 		bl	__stack_chk_fail
 1005              	.LVL91:
 1006              	.L92:
 1007 0054 AFF30080 		.align	3
 1008              	.L91:
 1009 0058 000000C0 		.word	-1073741824
 1010 005c CA210940 		.word	1074340298
 1011 0060 00000000 		.word	__stack_chk_guard
 1012 0064 00001040 		.word	1074790400
 1013              		.cfi_endproc
 1014              	.LFE292:
 1015              		.size	calcul_distance, .-calcul_distance
 1016              		.section	.text.calcul_angle,"ax",%progbits
 1017              		.align	1
 1018              		.p2align 4,,15
 1019              		.global	calcul_angle
 1020              		.syntax unified
 1021              		.thumb
 1022              		.thumb_func
 1023              		.fpu fpv4-sp-d16
 1024              		.type	calcul_angle, %function
 1025              	calcul_angle:
ARM GAS  C:\Users\adrie\AppData\Local\Temp\cc7EdWgE.s 			page 19


 1026              	.LFB293:
 1027              		.loc 1 272 0
 1028              		.cfi_startproc
 1029              		@ args = 0, pretend = 0, frame = 8
 1030              		@ frame_needed = 0, uses_anonymous_args = 0
 1031              	.LVL92:
 1032 0000 30B5     		push	{r4, r5, lr}
 1033              		.cfi_def_cfa_offset 12
 1034              		.cfi_offset 4, -12
 1035              		.cfi_offset 5, -8
 1036              		.cfi_offset 14, -4
 1037 0002 654C     		ldr	r4, .L132
 1038 0004 83B0     		sub	sp, sp, #12
 1039              		.cfi_def_cfa_offset 24
 1040              		.loc 1 272 0
 1041 0006 2568     		ldr	r5, [r4]
 1042 0008 0195     		str	r5, [sp, #4]
 1043              	.LVL93:
 1044              		.loc 1 279 0
 1045 000a 8842     		cmp	r0, r1
 1046 000c 01DB     		blt	.L122
 1047              		.loc 1 279 0 is_stmt 0 discriminator 1
 1048 000e 9042     		cmp	r0, r2
 1049 0010 61DA     		bge	.L126
 1050              	.L122:
 1051              		.loc 1 274 0 is_stmt 1
 1052 0012 FF25     		movs	r5, #255
 1053              	.L94:
 1054              	.LVL94:
 1055              		.loc 1 291 0
 1056 0014 9142     		cmp	r1, r2
 1057 0016 18DB     		blt	.L100
 1058              		.loc 1 291 0 is_stmt 0 discriminator 1
 1059 0018 9942     		cmp	r1, r3
 1060 001a 16DB     		blt	.L100
 1061              		.loc 1 292 0 is_stmt 1
 1062 001c 07EE901A 		vmov	s15, r1	@ int
 1063 0020 9FED5E7A 		vldr.32	s14, .L132+4
 1064 0024 F8EEE77A 		vcvt.f32.s32	s15, s15
 1065 0028 67EE877A 		vmul.f32	s15, s15, s14
 1066 002c FDEEE77A 		vcvt.s32.f32	s15, s15
 1067 0030 17EE905A 		vmov	r5, s15	@ int
 1068              	.LVL95:
 1069              		.loc 1 293 0
 1070 0034 AA42     		cmp	r2, r5
 1071 0036 78DC     		bgt	.L101
 1072              		.loc 1 293 0 is_stmt 0 discriminator 1
 1073 0038 AB42     		cmp	r3, r5
 1074 003a 40F39A80 		ble	.L102
 1075              		.loc 1 295 0 is_stmt 1
 1076 003e AA42     		cmp	r2, r5
 1077 0040 73DA     		bge	.L101
 1078              		.loc 1 299 0
 1079 0042 574B     		ldr	r3, .L132+8
 1080              	.LVL96:
 1081 0044 E122     		movs	r2, #225
 1082              	.LVL97:
ARM GAS  C:\Users\adrie\AppData\Local\Temp\cc7EdWgE.s 			page 20


 1083 0046 1A60     		str	r2, [r3]
 1084              		.loc 1 300 0
 1085 0048 16E0     		b	.L93
 1086              	.LVL98:
 1087              	.L100:
 1088              		.loc 1 304 0
 1089 004a 9A42     		cmp	r2, r3
 1090 004c 1BDA     		bge	.L127
 1091              	.LVL99:
 1092              	.L104:
 1093              		.loc 1 350 0
 1094 004e 8842     		cmp	r0, r1
 1095 0050 C0F28280 		blt	.L110
 1096              		.loc 1 348 0 discriminator 1
 1097 0054 07EE900A 		vmov	s15, r0	@ int
 1098 0058 9FED507A 		vldr.32	s14, .L132+4
 1099 005c F8EEE77A 		vcvt.f32.s32	s15, s15
 1100              	.LVL100:
 1101 0060 67EE877A 		vmul.f32	s15, s15, s14
 1102              	.LVL101:
 1103 0064 FDEEE77A 		vcvt.s32.f32	s15, s15
 1104              		.loc 1 350 0 discriminator 1
 1105 0068 17EE903A 		vmov	r3, s15	@ int
 1106              	.LVL102:
 1107 006c 9942     		cmp	r1, r3
 1108              		.loc 1 351 0 discriminator 1
 1109 006e 4C4B     		ldr	r3, .L132+8
 1110 0070 D4BF     		ite	le
 1111 0072 9D22     		movle	r2, #157
 1112              	.LVL103:
 1113              		.loc 1 354 0 discriminator 1
 1114 0074 B422     		movgt	r2, #180
 1115 0076 1A60     		str	r2, [r3]
 1116              	.LVL104:
 1117              	.L93:
 1118              		.loc 1 380 0
 1119 0078 019A     		ldr	r2, [sp, #4]
 1120 007a 2368     		ldr	r3, [r4]
 1121 007c 9A42     		cmp	r2, r3
 1122 007e 40F08880 		bne	.L128
 1123 0082 03B0     		add	sp, sp, #12
 1124              		.cfi_remember_state
 1125              		.cfi_def_cfa_offset 12
 1126              		@ sp needed
 1127 0084 30BD     		pop	{r4, r5, pc}
 1128              	.LVL105:
 1129              	.L127:
 1130              		.cfi_restore_state
 1131              		.loc 1 305 0
 1132 0086 07EE902A 		vmov	s15, r2	@ int
 1133 008a DFED446A 		vldr.32	s13, .L132+4
 1134 008e B8EEE77A 		vcvt.f32.s32	s14, s15
 1135 0092 27EE267A 		vmul.f32	s14, s14, s13
 1136 0096 BDEEC77A 		vcvt.s32.f32	s14, s14
 1137              		.loc 1 306 0
 1138 009a 17EE10CA 		vmov	ip, s14	@ int
 1139 009e 6345     		cmp	r3, ip
ARM GAS  C:\Users\adrie\AppData\Local\Temp\cc7EdWgE.s 			page 21


 1140 00a0 2FDD     		ble	.L129
 1141              		.loc 1 329 0
 1142 00a2 012D     		cmp	r5, #1
 1143 00a4 54D0     		beq	.L130
 1144              		.loc 1 347 0
 1145 00a6 032D     		cmp	r5, #3
 1146 00a8 D1D0     		beq	.L104
 1147              	.LVL106:
 1148              	.L106:
 1149              		.loc 1 364 0
 1150 00aa 9A42     		cmp	r2, r3
 1151 00ac 4BDC     		bgt	.L112
 1152              		.loc 1 362 0 discriminator 1
 1153 00ae 07EE903A 		vmov	s15, r3	@ int
 1154 00b2 9FED3A7A 		vldr.32	s14, .L132+4
 1155 00b6 F8EEE77A 		vcvt.f32.s32	s15, s15
 1156 00ba 67EE877A 		vmul.f32	s15, s15, s14
 1157 00be FDEEE77A 		vcvt.s32.f32	s15, s15
 1158              		.loc 1 364 0 discriminator 1
 1159 00c2 17EE903A 		vmov	r3, s15	@ int
 1160              	.LVL107:
 1161 00c6 9A42     		cmp	r2, r3
 1162              		.loc 1 365 0 discriminator 1
 1163 00c8 354B     		ldr	r3, .L132+8
 1164 00ca D4BF     		ite	le
 1165 00cc F722     		movle	r2, #247
 1166              	.LVL108:
 1167              		.loc 1 368 0 discriminator 1
 1168 00ce 4FF48772 		movgt	r2, #270
 1169 00d2 1A60     		str	r2, [r3]
 1170              		.loc 1 369 0 discriminator 1
 1171 00d4 D0E7     		b	.L93
 1172              	.LVL109:
 1173              	.L126:
 1174              		.loc 1 279 0 discriminator 2
 1175 00d6 9842     		cmp	r0, r3
 1176 00d8 9BDB     		blt	.L122
 1177              		.loc 1 280 0
 1178 00da 07EE900A 		vmov	s15, r0	@ int
 1179 00de 9FED2F7A 		vldr.32	s14, .L132+4
 1180 00e2 F8EEE77A 		vcvt.f32.s32	s15, s15
 1181 00e6 67EE877A 		vmul.f32	s15, s15, s14
 1182 00ea FDEEE77A 		vcvt.s32.f32	s15, s15
 1183 00ee 17EE905A 		vmov	r5, s15	@ int
 1184              	.LVL110:
 1185              		.loc 1 281 0
 1186 00f2 A942     		cmp	r1, r5
 1187 00f4 34DC     		bgt	.L95
 1188              		.loc 1 281 0 is_stmt 0 discriminator 1
 1189 00f6 AA42     		cmp	r2, r5
 1190 00f8 1EDC     		bgt	.L96
 1191              		.loc 1 281 0 discriminator 2
 1192 00fa AB42     		cmp	r3, r5
 1193 00fc 1ADC     		bgt	.L131
 1194              		.loc 1 282 0 is_stmt 1
 1195 00fe 0125     		movs	r5, #1
 1196              	.LVL111:
ARM GAS  C:\Users\adrie\AppData\Local\Temp\cc7EdWgE.s 			page 22


 1197 0100 88E7     		b	.L94
 1198              	.LVL112:
 1199              	.L129:
 1200 0102 07EE901A 		vmov	s15, r1	@ int
 1201 0106 F8EEE77A 		vcvt.f32.s32	s15, s15
 1202 010a 67EEA67A 		vmul.f32	s15, s15, s13
 1203 010e FDEEE77A 		vcvt.s32.f32	s15, s15
 1204 0112 17EE905A 		vmov	r5, s15	@ int
 1205              	.LVL113:
 1206              	.L105:
 1207              		.loc 1 315 0
 1208 0116 8842     		cmp	r0, r1
 1209              		.loc 1 316 0
 1210 0118 214B     		ldr	r3, .L132+8
 1211              	.LVL114:
 1212              		.loc 1 315 0
 1213 011a 11DC     		bgt	.L108
 1214              		.loc 1 315 0 is_stmt 0 discriminator 1
 1215 011c A842     		cmp	r0, r5
 1216              		.loc 1 316 0 is_stmt 1 discriminator 1
 1217 011e D4BF     		ite	le
 1218 0120 40F25112 		movwle	r2, #337
 1219              	.LVL115:
 1220              		.loc 1 319 0 discriminator 1
 1221 0124 0022     		movgt	r2, #0
 1222 0126 1A60     		str	r2, [r3]
 1223              		.loc 1 320 0 discriminator 1
 1224 0128 A6E7     		b	.L93
 1225              	.LVL116:
 1226              	.L101:
 1227              		.loc 1 296 0
 1228 012a 1D4B     		ldr	r3, .L132+8
 1229              	.LVL117:
 1230 012c 40F23B12 		movw	r2, #315
 1231              	.LVL118:
 1232 0130 1A60     		str	r2, [r3]
 1233              		.loc 1 297 0
 1234 0132 A1E7     		b	.L93
 1235              	.LVL119:
 1236              	.L131:
 1237              		.loc 1 283 0
 1238 0134 AA42     		cmp	r2, r5
 1239 0136 18DB     		blt	.L116
 1240              	.L96:
 1241              		.loc 1 284 0
 1242 0138 194B     		ldr	r3, .L132+8
 1243              	.LVL120:
 1244 013a 2D22     		movs	r2, #45
 1245              	.LVL121:
 1246 013c 1A60     		str	r2, [r3]
 1247              		.loc 1 285 0
 1248 013e 9BE7     		b	.L93
 1249              	.LVL122:
 1250              	.L108:
 1251              		.loc 1 322 0
 1252 0140 1622     		movs	r2, #22
 1253              	.LVL123:
ARM GAS  C:\Users\adrie\AppData\Local\Temp\cc7EdWgE.s 			page 23


 1254 0142 1A60     		str	r2, [r3]
 1255              		.loc 1 324 0
 1256 0144 98E7     		b	.L93
 1257              	.LVL124:
 1258              	.L112:
 1259              		.loc 1 371 0
 1260 0146 164B     		ldr	r3, .L132+8
 1261              	.LVL125:
 1262 0148 4FF49272 		mov	r2, #292
 1263              	.LVL126:
 1264 014c 1A60     		str	r2, [r3]
 1265              		.loc 1 372 0
 1266 014e 93E7     		b	.L93
 1267              	.LVL127:
 1268              	.L130:
 1269              		.loc 1 336 0
 1270 0150 134B     		ldr	r3, .L132+8
 1271              	.LVL128:
 1272 0152 5A22     		movs	r2, #90
 1273              	.LVL129:
 1274 0154 1A60     		str	r2, [r3]
 1275              		.loc 1 337 0
 1276 0156 8FE7     		b	.L93
 1277              	.LVL130:
 1278              	.L110:
 1279              		.loc 1 357 0
 1280 0158 114B     		ldr	r3, .L132+8
 1281              	.LVL131:
 1282 015a CA22     		movs	r2, #202
 1283              	.LVL132:
 1284 015c 1A60     		str	r2, [r3]
 1285              		.loc 1 358 0
 1286 015e 8BE7     		b	.L93
 1287              	.LVL133:
 1288              	.L95:
 1289              		.loc 1 283 0
 1290 0160 AA42     		cmp	r2, r5
 1291 0162 E9DA     		bge	.L96
 1292              		.loc 1 286 0
 1293 0164 AB42     		cmp	r3, r5
 1294 0166 FFF654AF 		blt	.L122
 1295              	.L116:
 1296              		.loc 1 287 0
 1297 016a 0D4B     		ldr	r3, .L132+8
 1298              	.LVL134:
 1299 016c 8722     		movs	r2, #135
 1300              	.LVL135:
 1301 016e 1A60     		str	r2, [r3]
 1302              		.loc 1 288 0
 1303 0170 82E7     		b	.L93
 1304              	.LVL136:
 1305              	.L102:
 1306              		.loc 1 304 0
 1307 0172 9A42     		cmp	r2, r3
 1308 0174 FFF66BAF 		blt	.L104
 1309              	.LVL137:
 1310              		.loc 1 305 0
ARM GAS  C:\Users\adrie\AppData\Local\Temp\cc7EdWgE.s 			page 24


 1311 0178 07EE902A 		vmov	s15, r2	@ int
 1312 017c F8EEE77A 		vcvt.f32.s32	s15, s15
 1313 0180 27EE877A 		vmul.f32	s14, s15, s14
 1314 0184 BDEEC77A 		vcvt.s32.f32	s14, s14
 1315              		.loc 1 306 0
 1316 0188 17EE10CA 		vmov	ip, s14	@ int
 1317 018c 6345     		cmp	r3, ip
 1318 018e C2DD     		ble	.L105
 1319 0190 8BE7     		b	.L106
 1320              	.LVL138:
 1321              	.L128:
 1322              		.loc 1 380 0
 1323 0192 FFF7FEFF 		bl	__stack_chk_fail
 1324              	.LVL139:
 1325              	.L133:
 1326 0196 00BF     		.align	2
 1327              	.L132:
 1328 0198 00000000 		.word	__stack_chk_guard
 1329 019c AE47613F 		.word	1063339950
 1330 01a0 00000000 		.word	.LANCHOR4
 1331              		.cfi_endproc
 1332              	.LFE293:
 1333              		.size	calcul_angle, .-calcul_angle
 1334              		.section	.text.calcul_moyenne,"ax",%progbits
 1335              		.align	1
 1336              		.p2align 4,,15
 1337              		.global	calcul_moyenne
 1338              		.syntax unified
 1339              		.thumb
 1340              		.thumb_func
 1341              		.fpu fpv4-sp-d16
 1342              		.type	calcul_moyenne, %function
 1343              	calcul_moyenne:
 1344              	.LFB294:
 1345              		.loc 1 383 0
 1346              		.cfi_startproc
 1347              		@ args = 0, pretend = 0, frame = 8
 1348              		@ frame_needed = 0, uses_anonymous_args = 0
 1349              	.LVL140:
 1350 0000 30B5     		push	{r4, r5, lr}
 1351              		.cfi_def_cfa_offset 12
 1352              		.cfi_offset 4, -12
 1353              		.cfi_offset 5, -8
 1354              		.cfi_offset 14, -4
 1355 0002 0D49     		ldr	r1, .L138
 1356              	.LBB272:
 1357              		.loc 1 386 0
 1358 0004 0D4B     		ldr	r3, .L138+4
 1359              	.LBE272:
 1360              		.loc 1 383 0
 1361 0006 0C68     		ldr	r4, [r1]
 1362              		.loc 1 389 0
 1363 0008 0D4A     		ldr	r2, .L138+8
 1364              		.loc 1 383 0
 1365 000a 83B0     		sub	sp, sp, #12
 1366              		.cfi_def_cfa_offset 24
 1367              	.LBB273:
ARM GAS  C:\Users\adrie\AppData\Local\Temp\cc7EdWgE.s 			page 25


 1368              		.loc 1 386 0
 1369 000c 00EB4000 		add	r0, r0, r0, lsl #1
 1370              	.LVL141:
 1371 0010 8000     		lsls	r0, r0, #2
 1372              	.LBE273:
 1373              		.loc 1 383 0
 1374 0012 0194     		str	r4, [sp, #4]
 1375              	.LVL142:
 1376              	.LBB274:
 1377              		.loc 1 386 0
 1378 0014 1C18     		adds	r4, r3, r0
 1379 0016 1B58     		ldr	r3, [r3, r0]
 1380 0018 D4E90150 		ldrd	r5, r0, [r4, #4]
 1381              	.LBE274:
 1382              		.loc 1 390 0
 1383 001c 019C     		ldr	r4, [sp, #4]
 1384 001e 0968     		ldr	r1, [r1]
 1385              	.LBB275:
 1386              		.loc 1 386 0
 1387 0020 2B44     		add	r3, r3, r5
 1388              	.LVL143:
 1389 0022 0344     		add	r3, r3, r0
 1390              	.LBE275:
 1391              		.loc 1 389 0
 1392 0024 82FB0320 		smull	r2, r0, r2, r3
 1393              		.loc 1 390 0
 1394 0028 8C42     		cmp	r4, r1
 1395 002a A0EBE370 		sub	r0, r0, r3, asr #31
 1396 002e 01D1     		bne	.L137
 1397 0030 03B0     		add	sp, sp, #12
 1398              		.cfi_remember_state
 1399              		.cfi_def_cfa_offset 12
 1400              		@ sp needed
 1401 0032 30BD     		pop	{r4, r5, pc}
 1402              	.L137:
 1403              		.cfi_restore_state
 1404 0034 FFF7FEFF 		bl	__stack_chk_fail
 1405              	.LVL144:
 1406              	.L139:
 1407              		.align	2
 1408              	.L138:
 1409 0038 00000000 		.word	__stack_chk_guard
 1410 003c 00000000 		.word	.LANCHOR2
 1411 0040 56555555 		.word	1431655766
 1412              		.cfi_endproc
 1413              	.LFE294:
 1414              		.size	calcul_moyenne, .-calcul_moyenne
 1415              		.section	.text.update_moyenne,"ax",%progbits
 1416              		.align	1
 1417              		.p2align 4,,15
 1418              		.global	update_moyenne
 1419              		.syntax unified
 1420              		.thumb
 1421              		.thumb_func
 1422              		.fpu fpv4-sp-d16
 1423              		.type	update_moyenne, %function
 1424              	update_moyenne:
ARM GAS  C:\Users\adrie\AppData\Local\Temp\cc7EdWgE.s 			page 26


 1425              	.LFB295:
 1426              		.loc 1 393 0
 1427              		.cfi_startproc
 1428              		@ args = 4, pretend = 0, frame = 8
 1429              		@ frame_needed = 0, uses_anonymous_args = 0
 1430              	.LVL145:
 1431 0000 F0B5     		push	{r4, r5, r6, r7, lr}
 1432              		.cfi_def_cfa_offset 20
 1433              		.cfi_offset 4, -20
 1434              		.cfi_offset 5, -16
 1435              		.cfi_offset 6, -12
 1436              		.cfi_offset 7, -8
 1437              		.cfi_offset 14, -4
 1438 0002 0E4C     		ldr	r4, .L145
 1439 0004 83B0     		sub	sp, sp, #12
 1440              		.cfi_def_cfa_offset 32
 1441              		.loc 1 393 0
 1442 0006 2568     		ldr	r5, [r4]
 1443 0008 089E     		ldr	r6, [sp, #32]
 1444 000a 0195     		str	r5, [sp, #4]
 1445              		.loc 1 394 0
 1446 000c 0328     		cmp	r0, #3
 1447 000e 0DD8     		bhi	.L140
 1448              		.loc 1 395 0
 1449 0010 0B4D     		ldr	r5, .L145+4
 1450 0012 00F1FF3C 		add	ip, r0, #-1
 1451              		.loc 1 397 0
 1452 0016 871C     		adds	r7, r0, #2
 1453              		.loc 1 395 0
 1454 0018 45F82C20 		str	r2, [r5, ip, lsl #2]
 1455              		.loc 1 398 0
 1456 001c 421D     		adds	r2, r0, #5
 1457              	.LVL146:
 1458              		.loc 1 399 0
 1459 001e 0830     		adds	r0, r0, #8
 1460              	.LVL147:
 1461              		.loc 1 397 0
 1462 0020 45F82710 		str	r1, [r5, r7, lsl #2]
 1463              		.loc 1 398 0
 1464 0024 45F82230 		str	r3, [r5, r2, lsl #2]
 1465              		.loc 1 399 0
 1466 0028 45F82060 		str	r6, [r5, r0, lsl #2]
 1467              	.LVL148:
 1468              	.L140:
 1469              		.loc 1 404 0
 1470 002c 019A     		ldr	r2, [sp, #4]
 1471 002e 2368     		ldr	r3, [r4]
 1472              	.LVL149:
 1473 0030 9A42     		cmp	r2, r3
 1474 0032 01D1     		bne	.L144
 1475 0034 03B0     		add	sp, sp, #12
 1476              		.cfi_remember_state
 1477              		.cfi_def_cfa_offset 20
 1478              		@ sp needed
 1479 0036 F0BD     		pop	{r4, r5, r6, r7, pc}
 1480              	.LVL150:
 1481              	.L144:
ARM GAS  C:\Users\adrie\AppData\Local\Temp\cc7EdWgE.s 			page 27


 1482              		.cfi_restore_state
 1483 0038 FFF7FEFF 		bl	__stack_chk_fail
 1484              	.LVL151:
 1485              	.L146:
 1486              		.align	2
 1487              	.L145:
 1488 003c 00000000 		.word	__stack_chk_guard
 1489 0040 00000000 		.word	.LANCHOR2
 1490              		.cfi_endproc
 1491              	.LFE295:
 1492              		.size	update_moyenne, .-update_moyenne
 1493              		.section	.text.max_norm,"ax",%progbits
 1494              		.align	1
 1495              		.p2align 4,,15
 1496              		.global	max_norm
 1497              		.syntax unified
 1498              		.thumb
 1499              		.thumb_func
 1500              		.fpu fpv4-sp-d16
 1501              		.type	max_norm, %function
 1502              	max_norm:
 1503              	.LFB296:
 1504              		.loc 1 405 0
 1505              		.cfi_startproc
 1506              		@ args = 0, pretend = 0, frame = 8
 1507              		@ frame_needed = 0, uses_anonymous_args = 0
 1508              	.LVL152:
 1509 0000 70B5     		push	{r4, r5, r6, lr}
 1510              		.cfi_def_cfa_offset 16
 1511              		.cfi_offset 4, -16
 1512              		.cfi_offset 5, -12
 1513              		.cfi_offset 6, -8
 1514              		.cfi_offset 14, -4
 1515 0002 164E     		ldr	r6, .L157
 1516              		.loc 1 406 0
 1517 0004 9FED167A 		vldr.32	s14, .L157+4
 1518              		.loc 1 405 0
 1519 0008 3368     		ldr	r3, [r6]
 1520 000a 82B0     		sub	sp, sp, #8
 1521              		.cfi_def_cfa_offset 24
 1522 000c 2831     		adds	r1, r1, #40
 1523              	.LVL153:
 1524              		.loc 1 405 0
 1525 000e 0193     		str	r3, [sp, #4]
 1526              	.LVL154:
 1527              		.loc 1 407 0
 1528 0010 4FF0FF32 		mov	r2, #-1
 1529              	.LBB276:
 1530              		.loc 1 412 0
 1531 0014 0A23     		movs	r3, #10
 1532 0016 40F60104 		movw	r4, #2049
 1533              	.LVL155:
 1534              	.L150:
 1535              		.loc 1 413 0
 1536 001a F1EC017A 		vldmia.32	r1!, {s15}
 1537 001e F4EEC77A 		vcmpe.f32	s15, s14
 1538 0022 F1EE10FA 		vmrs	APSR_nzcv, FPSCR
ARM GAS  C:\Users\adrie\AppData\Local\Temp\cc7EdWgE.s 			page 28


 1539 0026 08DD     		ble	.L148
 1540              		.loc 1 413 0 is_stmt 0 discriminator 1
 1541 0028 A3F13305 		sub	r5, r3, #51
 1542 002c B5F56D7F 		cmp	r5, #948
 1543 0030 98BF     		it	ls
 1544 0032 1A46     		movls	r2, r3
 1545              	.LVL156:
 1546 0034 98BF     		it	ls
 1547 0036 B0EE677A 		vmovls.f32	s14, s15
 1548              	.LVL157:
 1549              	.L148:
 1550              		.loc 1 412 0 is_stmt 1 discriminator 2
 1551 003a 0133     		adds	r3, r3, #1
 1552              	.LVL158:
 1553 003c A342     		cmp	r3, r4
 1554 003e ECD1     		bne	.L150
 1555              	.LVL159:
 1556              	.LBE276:
 1557              		.loc 1 421 0
 1558 0040 0199     		ldr	r1, [sp, #4]
 1559 0042 3368     		ldr	r3, [r6]
 1560              	.LVL160:
 1561              		.loc 1 420 0
 1562 0044 4260     		str	r2, [r0, #4]
 1563              	.LVL161:
 1564              		.loc 1 418 0
 1565 0046 BDEEC77A 		vcvt.s32.f32	s14, s14
 1566              	.LVL162:
 1567              		.loc 1 421 0
 1568 004a 9942     		cmp	r1, r3
 1569              		.loc 1 418 0
 1570 004c 80ED007A 		vstr.32	s14, [r0]	@ int
 1571              		.loc 1 421 0
 1572 0050 01D1     		bne	.L156
 1573 0052 02B0     		add	sp, sp, #8
 1574              		.cfi_remember_state
 1575              		.cfi_def_cfa_offset 16
 1576              		@ sp needed
 1577 0054 70BD     		pop	{r4, r5, r6, pc}
 1578              	.L156:
 1579              		.cfi_restore_state
 1580 0056 FFF7FEFF 		bl	__stack_chk_fail
 1581              	.LVL163:
 1582              	.L158:
 1583 005a 00BF     		.align	2
 1584              	.L157:
 1585 005c 00000000 		.word	__stack_chk_guard
 1586 0060 0000C842 		.word	1120403456
 1587              		.cfi_endproc
 1588              	.LFE296:
 1589              		.size	max_norm, .-max_norm
 1590              		.section	.text.wait_send_to_computer,"ax",%progbits
 1591              		.align	1
 1592              		.p2align 4,,15
 1593              		.global	wait_send_to_computer
 1594              		.syntax unified
 1595              		.thumb
ARM GAS  C:\Users\adrie\AppData\Local\Temp\cc7EdWgE.s 			page 29


 1596              		.thumb_func
 1597              		.fpu fpv4-sp-d16
 1598              		.type	wait_send_to_computer, %function
 1599              	wait_send_to_computer:
 1600              	.LFB297:
 1601              		.loc 1 424 0
 1602              		.cfi_startproc
 1603              		@ args = 0, pretend = 0, frame = 8
 1604              		@ frame_needed = 0, uses_anonymous_args = 0
 1605 0000 00B5     		push	{lr}
 1606              		.cfi_def_cfa_offset 4
 1607              		.cfi_offset 14, -4
 1608 0002 084B     		ldr	r3, .L164
 1609 0004 83B0     		sub	sp, sp, #12
 1610              		.cfi_def_cfa_offset 16
 1611              		.loc 1 424 0
 1612 0006 1A68     		ldr	r2, [r3]
 1613 0008 0192     		str	r2, [sp, #4]
 1614              	.LVL164:
 1615              	.LBB277:
 1616              	.LBB278:
 1617              		.file 7 "../lib/e-puck2_main-processor/ChibiOS//os/rt/include/chbsem.h"
 1618              		.loc 7 143 0
 1619 000a 019A     		ldr	r2, [sp, #4]
 1620 000c 1B68     		ldr	r3, [r3]
 1621 000e 9A42     		cmp	r2, r3
 1622 0010 05D1     		bne	.L163
 1623 0012 0548     		ldr	r0, .L164+4
 1624              	.LBE278:
 1625              	.LBE277:
 1626              		.loc 1 426 0
 1627 0014 03B0     		add	sp, sp, #12
 1628              		.cfi_remember_state
 1629              		.cfi_def_cfa_offset 4
 1630              		@ sp needed
 1631 0016 5DF804EB 		ldr	lr, [sp], #4
 1632              		.cfi_restore 14
 1633              		.cfi_def_cfa_offset 0
 1634              	.LBB280:
 1635              	.LBB279:
 1636              		.loc 7 143 0
 1637 001a FFF7FEBF 		b	chSemWait
 1638              	.LVL165:
 1639              	.L163:
 1640              		.cfi_restore_state
 1641 001e FFF7FEFF 		bl	__stack_chk_fail
 1642              	.LVL166:
 1643              	.L165:
 1644 0022 00BF     		.align	2
 1645              	.L164:
 1646 0024 00000000 		.word	__stack_chk_guard
 1647 0028 00000000 		.word	.LANCHOR5
 1648              	.LBE279:
 1649              	.LBE280:
 1650              		.cfi_endproc
 1651              	.LFE297:
 1652              		.size	wait_send_to_computer, .-wait_send_to_computer
ARM GAS  C:\Users\adrie\AppData\Local\Temp\cc7EdWgE.s 			page 30


 1653              		.section	.text.get_max_norm_index,"ax",%progbits
 1654              		.align	1
 1655              		.p2align 4,,15
 1656              		.global	get_max_norm_index
 1657              		.syntax unified
 1658              		.thumb
 1659              		.thumb_func
 1660              		.fpu fpv4-sp-d16
 1661              		.type	get_max_norm_index, %function
 1662              	get_max_norm_index:
 1663              	.LFB298:
 1664              		.loc 1 428 0
 1665              		.cfi_startproc
 1666              		@ args = 0, pretend = 0, frame = 8
 1667              		@ frame_needed = 0, uses_anonymous_args = 0
 1668              	.LVL167:
 1669 0000 70B5     		push	{r4, r5, r6, lr}
 1670              		.cfi_def_cfa_offset 16
 1671              		.cfi_offset 4, -16
 1672              		.cfi_offset 5, -12
 1673              		.cfi_offset 6, -8
 1674              		.cfi_offset 14, -4
 1675 0002 2B4D     		ldr	r5, .L188
 1676 0004 82B0     		sub	sp, sp, #8
 1677              		.cfi_def_cfa_offset 24
 1678              		.loc 1 428 0
 1679 0006 2A68     		ldr	r2, [r5]
 1680 0008 0192     		str	r2, [sp, #4]
 1681              		.loc 1 430 0
 1682 000a 0429     		cmp	r1, #4
 1683              		.loc 1 428 0
 1684 000c 0446     		mov	r4, r0
 1685              		.loc 1 430 0
 1686 000e 2BD0     		beq	.L185
 1687              		.loc 1 433 0
 1688 0010 0529     		cmp	r1, #5
 1689 0012 08D0     		beq	.L186
 1690 0014 FFF7FEFF 		bl	get_max_norm_index.part.0
 1691              	.LVL168:
 1692              	.L166:
 1693              		.loc 1 446 0
 1694 0018 019A     		ldr	r2, [sp, #4]
 1695 001a 2B68     		ldr	r3, [r5]
 1696 001c 9A42     		cmp	r2, r3
 1697 001e 2046     		mov	r0, r4
 1698 0020 43D1     		bne	.L187
 1699              	.LVL169:
 1700 0022 02B0     		add	sp, sp, #8
 1701              		.cfi_remember_state
 1702              		.cfi_def_cfa_offset 16
 1703              		@ sp needed
 1704 0024 70BD     		pop	{r4, r5, r6, pc}
 1705              	.LVL170:
 1706              	.L186:
 1707              		.cfi_restore_state
 1708 0026 234A     		ldr	r2, .L188+4
 1709              	.LBB281:
ARM GAS  C:\Users\adrie\AppData\Local\Temp\cc7EdWgE.s 			page 31


 1710              	.LBB282:
 1711              		.loc 1 406 0
 1712 0028 9FED237A 		vldr.32	s14, .L188+8
 1713              		.loc 1 407 0
 1714 002c 4FF0FF31 		mov	r1, #-1
 1715              	.LVL171:
 1716              	.LBB283:
 1717              		.loc 1 412 0
 1718 0030 0A23     		movs	r3, #10
 1719 0032 40F60100 		movw	r0, #2049
 1720              	.LVL172:
 1721              	.L175:
 1722              		.loc 1 413 0
 1723 0036 F2EC017A 		vldmia.32	r2!, {s15}
 1724 003a F4EEC77A 		vcmpe.f32	s15, s14
 1725 003e F1EE10FA 		vmrs	APSR_nzcv, FPSCR
 1726 0042 08DD     		ble	.L173
 1727 0044 A3F13306 		sub	r6, r3, #51
 1728 0048 B6F56D7F 		cmp	r6, #948
 1729 004c 98BF     		it	ls
 1730 004e 1946     		movls	r1, r3
 1731              	.LVL173:
 1732 0050 98BF     		it	ls
 1733 0052 B0EE677A 		vmovls.f32	s14, s15
 1734              	.LVL174:
 1735              	.L173:
 1736              		.loc 1 412 0
 1737 0056 0133     		adds	r3, r3, #1
 1738              	.LVL175:
 1739 0058 8342     		cmp	r3, r0
 1740 005a ECD1     		bne	.L175
 1741              	.LVL176:
 1742              	.LBE283:
 1743              		.loc 1 418 0
 1744 005c BDEEC77A 		vcvt.s32.f32	s14, s14
 1745              	.LVL177:
 1746              		.loc 1 420 0
 1747 0060 6160     		str	r1, [r4, #4]
 1748              	.LVL178:
 1749              		.loc 1 418 0
 1750 0062 84ED007A 		vstr.32	s14, [r4]	@ int
 1751 0066 D7E7     		b	.L166
 1752              	.LVL179:
 1753              	.L185:
 1754 0068 144A     		ldr	r2, .L188+12
 1755              	.LBE282:
 1756              	.LBE281:
 1757              	.LBB285:
 1758              	.LBB286:
 1759              		.loc 1 406 0
 1760 006a 9FED137A 		vldr.32	s14, .L188+8
 1761              		.loc 1 407 0
 1762 006e 4FF0FF31 		mov	r1, #-1
 1763              	.LVL180:
 1764              	.LBB287:
 1765              		.loc 1 412 0
 1766 0072 0A23     		movs	r3, #10
ARM GAS  C:\Users\adrie\AppData\Local\Temp\cc7EdWgE.s 			page 32


 1767 0074 40F60100 		movw	r0, #2049
 1768              	.LVL181:
 1769              	.L170:
 1770              		.loc 1 413 0
 1771 0078 F2EC017A 		vldmia.32	r2!, {s15}
 1772 007c F4EEC77A 		vcmpe.f32	s15, s14
 1773 0080 F1EE10FA 		vmrs	APSR_nzcv, FPSCR
 1774 0084 08DD     		ble	.L168
 1775 0086 A3F13306 		sub	r6, r3, #51
 1776 008a B6F56D7F 		cmp	r6, #948
 1777 008e 98BF     		it	ls
 1778 0090 1946     		movls	r1, r3
 1779              	.LVL182:
 1780 0092 98BF     		it	ls
 1781 0094 B0EE677A 		vmovls.f32	s14, s15
 1782              	.LVL183:
 1783              	.L168:
 1784              		.loc 1 412 0
 1785 0098 0133     		adds	r3, r3, #1
 1786              	.LVL184:
 1787 009a 8342     		cmp	r3, r0
 1788 009c ECD1     		bne	.L170
 1789              	.LVL185:
 1790              	.LBE287:
 1791              	.LBE286:
 1792              	.LBE285:
 1793              	.LBB288:
 1794              	.LBB284:
 1795              		.loc 1 418 0
 1796 009e BDEEC77A 		vcvt.s32.f32	s14, s14
 1797              	.LVL186:
 1798              		.loc 1 420 0
 1799 00a2 6160     		str	r1, [r4, #4]
 1800              	.LVL187:
 1801              		.loc 1 418 0
 1802 00a4 84ED007A 		vstr.32	s14, [r4]	@ int
 1803 00a8 B6E7     		b	.L166
 1804              	.LVL188:
 1805              	.L187:
 1806              	.LBE284:
 1807              	.LBE288:
 1808              		.loc 1 446 0
 1809 00aa FFF7FEFF 		bl	__stack_chk_fail
 1810              	.LVL189:
 1811              	.L189:
 1812 00ae 00BF     		.align	2
 1813              	.L188:
 1814 00b0 00000000 		.word	__stack_chk_guard
 1815 00b4 28000000 		.word	micRight_output+40
 1816 00b8 0000C842 		.word	1120403456
 1817 00bc 28000000 		.word	micLeft_output+40
 1818              		.cfi_endproc
 1819              	.LFE298:
 1820              		.size	get_max_norm_index, .-get_max_norm_index
 1821              		.section	.text.get_audio_buffer_ptr,"ax",%progbits
 1822              		.align	1
 1823              		.p2align 4,,15
ARM GAS  C:\Users\adrie\AppData\Local\Temp\cc7EdWgE.s 			page 33


 1824              		.global	get_audio_buffer_ptr
 1825              		.syntax unified
 1826              		.thumb
 1827              		.thumb_func
 1828              		.fpu fpv4-sp-d16
 1829              		.type	get_audio_buffer_ptr, %function
 1830              	get_audio_buffer_ptr:
 1831              	.LFB299:
 1832              		.loc 1 448 0
 1833              		.cfi_startproc
 1834              		@ args = 0, pretend = 0, frame = 8
 1835              		@ frame_needed = 0, uses_anonymous_args = 0
 1836              	.LVL190:
 1837 0000 00B5     		push	{lr}
 1838              		.cfi_def_cfa_offset 4
 1839              		.cfi_offset 14, -4
 1840 0002 164B     		ldr	r3, .L203
 1841 0004 83B0     		sub	sp, sp, #12
 1842              		.cfi_def_cfa_offset 16
 1843              		.loc 1 448 0
 1844 0006 1A68     		ldr	r2, [r3]
 1845 0008 0192     		str	r2, [sp, #4]
 1846              		.loc 1 449 0
 1847 000a 88B1     		cbz	r0, .L193
 1848              		.loc 1 452 0
 1849 000c 0128     		cmp	r0, #1
 1850 000e 17D0     		beq	.L194
 1851              		.loc 1 455 0
 1852 0010 0228     		cmp	r0, #2
 1853 0012 19D0     		beq	.L195
 1854              		.loc 1 458 0
 1855 0014 0328     		cmp	r0, #3
 1856 0016 15D0     		beq	.L196
 1857              		.loc 1 461 0
 1858 0018 0428     		cmp	r0, #4
 1859 001a 17D0     		beq	.L197
 1860              		.loc 1 464 0
 1861 001c 0528     		cmp	r0, #5
 1862 001e 17D0     		beq	.L198
 1863              		.loc 1 467 0
 1864 0020 0628     		cmp	r0, #6
 1865 0022 17D0     		beq	.L199
 1866              		.loc 1 474 0
 1867 0024 0E4A     		ldr	r2, .L203+4
 1868              		.loc 1 470 0
 1869 0026 0728     		cmp	r0, #7
 1870              		.loc 1 474 0
 1871 0028 0CBF     		ite	eq
 1872 002a 1046     		moveq	r0, r2
 1873              	.LVL191:
 1874 002c 0020     		movne	r0, #0
 1875 002e 00E0     		b	.L190
 1876              	.LVL192:
 1877              	.L193:
 1878              		.loc 1 450 0
 1879 0030 0C48     		ldr	r0, .L203+8
 1880              	.LVL193:
ARM GAS  C:\Users\adrie\AppData\Local\Temp\cc7EdWgE.s 			page 34


 1881              	.L190:
 1882              		.loc 1 476 0
 1883 0032 019A     		ldr	r2, [sp, #4]
 1884 0034 1B68     		ldr	r3, [r3]
 1885 0036 9A42     		cmp	r2, r3
 1886 0038 0ED1     		bne	.L202
 1887 003a 03B0     		add	sp, sp, #12
 1888              		.cfi_remember_state
 1889              		.cfi_def_cfa_offset 4
 1890              		@ sp needed
 1891 003c 5DF804FB 		ldr	pc, [sp], #4
 1892              	.LVL194:
 1893              	.L194:
 1894              		.cfi_restore_state
 1895              		.loc 1 453 0
 1896 0040 0948     		ldr	r0, .L203+12
 1897              	.LVL195:
 1898 0042 F6E7     		b	.L190
 1899              	.LVL196:
 1900              	.L196:
 1901              		.loc 1 459 0
 1902 0044 0948     		ldr	r0, .L203+16
 1903              	.LVL197:
 1904 0046 F4E7     		b	.L190
 1905              	.LVL198:
 1906              	.L195:
 1907              		.loc 1 456 0
 1908 0048 0948     		ldr	r0, .L203+20
 1909              	.LVL199:
 1910 004a F2E7     		b	.L190
 1911              	.LVL200:
 1912              	.L197:
 1913              		.loc 1 462 0
 1914 004c 0948     		ldr	r0, .L203+24
 1915              	.LVL201:
 1916 004e F0E7     		b	.L190
 1917              	.LVL202:
 1918              	.L198:
 1919              		.loc 1 465 0
 1920 0050 0948     		ldr	r0, .L203+28
 1921              	.LVL203:
 1922 0052 EEE7     		b	.L190
 1923              	.LVL204:
 1924              	.L199:
 1925              		.loc 1 468 0
 1926 0054 0948     		ldr	r0, .L203+32
 1927              	.LVL205:
 1928 0056 ECE7     		b	.L190
 1929              	.L202:
 1930              		.loc 1 476 0
 1931 0058 FFF7FEFF 		bl	__stack_chk_fail
 1932              	.LVL206:
 1933              	.L204:
 1934              		.align	2
 1935              	.L203:
 1936 005c 00000000 		.word	__stack_chk_guard
 1937 0060 00000000 		.word	micBack_output
ARM GAS  C:\Users\adrie\AppData\Local\Temp\cc7EdWgE.s 			page 35


 1938 0064 00000000 		.word	micLeft_cmplx_input
 1939 0068 00000000 		.word	micRight_cmplx_input
 1940 006c 00000000 		.word	micBack_cmplx_input
 1941 0070 00000000 		.word	micFront_cmplx_input
 1942 0074 00000000 		.word	micLeft_output
 1943 0078 00000000 		.word	micRight_output
 1944 007c 00000000 		.word	micFront_output
 1945              		.cfi_endproc
 1946              	.LFE299:
 1947              		.size	get_audio_buffer_ptr, .-get_audio_buffer_ptr
 1948              		.section	.text.led_direction,"ax",%progbits
 1949              		.align	1
 1950              		.p2align 4,,15
 1951              		.global	led_direction
 1952              		.syntax unified
 1953              		.thumb
 1954              		.thumb_func
 1955              		.fpu fpv4-sp-d16
 1956              		.type	led_direction, %function
 1957              	led_direction:
 1958              	.LFB300:
 1959              		.loc 1 479 0
 1960              		.cfi_startproc
 1961              		@ args = 0, pretend = 0, frame = 8
 1962              		@ frame_needed = 0, uses_anonymous_args = 0
 1963              	.LVL207:
 1964 0000 2DE9F041 		push	{r4, r5, r6, r7, r8, lr}
 1965              		.cfi_def_cfa_offset 24
 1966              		.cfi_offset 4, -24
 1967              		.cfi_offset 5, -20
 1968              		.cfi_offset 6, -16
 1969              		.cfi_offset 7, -12
 1970              		.cfi_offset 8, -8
 1971              		.cfi_offset 14, -4
 1972 0004 1F4D     		ldr	r5, .L220
 1973 0006 82B0     		sub	sp, sp, #8
 1974              		.cfi_def_cfa_offset 32
 1975              		.loc 1 479 0
 1976 0008 0646     		mov	r6, r0
 1977 000a 0C46     		mov	r4, r1
 1978 000c 2968     		ldr	r1, [r5]
 1979              	.LVL208:
 1980 000e 0191     		str	r1, [sp, #4]
 1981 0010 1746     		mov	r7, r2
 1982 0012 9846     		mov	r8, r3
 1983              		.loc 1 480 0
 1984 0014 FFF7FEFF 		bl	clear_leds
 1985              	.LVL209:
 1986              		.loc 1 481 0
 1987 0018 A642     		cmp	r6, r4
 1988 001a 10DB     		blt	.L206
 1989              		.loc 1 481 0 is_stmt 0 discriminator 1
 1990 001c BE42     		cmp	r6, r7
 1991 001e 0CDA     		bge	.L217
 1992              	.L207:
 1993              		.loc 1 489 0 is_stmt 1
 1994 0020 4745     		cmp	r7, r8
ARM GAS  C:\Users\adrie\AppData\Local\Temp\cc7EdWgE.s 			page 36


 1995 0022 10DB     		blt	.L209
 1996              		.loc 1 490 0
 1997 0024 019A     		ldr	r2, [sp, #4]
 1998 0026 2B68     		ldr	r3, [r5]
 1999 0028 9A42     		cmp	r2, r3
 2000 002a 29D1     		bne	.L216
 2001 002c 0121     		movs	r1, #1
 2002 002e 0020     		movs	r0, #0
 2003              		.loc 1 498 0
 2004 0030 02B0     		add	sp, sp, #8
 2005              		.cfi_remember_state
 2006              		.cfi_def_cfa_offset 24
 2007              		@ sp needed
 2008 0032 BDE8F041 		pop	{r4, r5, r6, r7, r8, lr}
 2009              		.cfi_restore 14
 2010              		.cfi_restore 8
 2011              		.cfi_restore 7
 2012              		.cfi_restore 6
 2013              		.cfi_restore 5
 2014              		.cfi_restore 4
 2015              		.cfi_def_cfa_offset 0
 2016              	.LVL210:
 2017              		.loc 1 494 0
 2018 0036 FFF7FEBF 		b	set_led
 2019              	.LVL211:
 2020              	.L217:
 2021              		.cfi_restore_state
 2022              		.loc 1 481 0 discriminator 2
 2023 003a 4645     		cmp	r6, r8
 2024 003c 0EDA     		bge	.L218
 2025              	.L206:
 2026              		.loc 1 485 0
 2027 003e BC42     		cmp	r4, r7
 2028 0040 EEDB     		blt	.L207
 2029              		.loc 1 485 0 is_stmt 0 discriminator 1
 2030 0042 4445     		cmp	r4, r8
 2031 0044 11DA     		bge	.L219
 2032              	.L209:
 2033              		.loc 1 494 0 is_stmt 1
 2034 0046 019A     		ldr	r2, [sp, #4]
 2035 0048 2B68     		ldr	r3, [r5]
 2036 004a 9A42     		cmp	r2, r3
 2037 004c 18D1     		bne	.L216
 2038 004e 0121     		movs	r1, #1
 2039 0050 0220     		movs	r0, #2
 2040              	.L215:
 2041              		.loc 1 498 0
 2042 0052 02B0     		add	sp, sp, #8
 2043              		.cfi_remember_state
 2044              		.cfi_def_cfa_offset 24
 2045              		@ sp needed
 2046 0054 BDE8F041 		pop	{r4, r5, r6, r7, r8, lr}
 2047              		.cfi_restore 14
 2048              		.cfi_restore 8
 2049              		.cfi_restore 7
 2050              		.cfi_restore 6
 2051              		.cfi_restore 5
ARM GAS  C:\Users\adrie\AppData\Local\Temp\cc7EdWgE.s 			page 37


 2052              		.cfi_restore 4
 2053              		.cfi_def_cfa_offset 0
 2054              	.LVL212:
 2055              		.loc 1 494 0
 2056 0058 FFF7FEBF 		b	set_led
 2057              	.LVL213:
 2058              	.L218:
 2059              		.cfi_restore_state
 2060              	.LBB291:
 2061              	.LBB292:
 2062              		.loc 1 482 0
 2063 005c 019A     		ldr	r2, [sp, #4]
 2064 005e 2B68     		ldr	r3, [r5]
 2065 0060 9A42     		cmp	r2, r3
 2066 0062 0DD1     		bne	.L216
 2067 0064 0121     		movs	r1, #1
 2068 0066 0846     		mov	r0, r1
 2069 0068 F3E7     		b	.L215
 2070              	.LVL214:
 2071              	.L219:
 2072              	.LBE292:
 2073              	.LBE291:
 2074              		.loc 1 486 0
 2075 006a 019A     		ldr	r2, [sp, #4]
 2076 006c 2B68     		ldr	r3, [r5]
 2077 006e 9A42     		cmp	r2, r3
 2078 0070 06D1     		bne	.L216
 2079 0072 0121     		movs	r1, #1
 2080 0074 0320     		movs	r0, #3
 2081              		.loc 1 498 0
 2082 0076 02B0     		add	sp, sp, #8
 2083              		.cfi_remember_state
 2084              		.cfi_def_cfa_offset 24
 2085              		@ sp needed
 2086 0078 BDE8F041 		pop	{r4, r5, r6, r7, r8, lr}
 2087              		.cfi_restore 14
 2088              		.cfi_restore 8
 2089              		.cfi_restore 7
 2090              		.cfi_restore 6
 2091              		.cfi_restore 5
 2092              		.cfi_restore 4
 2093              		.cfi_def_cfa_offset 0
 2094              	.LVL215:
 2095              		.loc 1 494 0
 2096 007c FFF7FEBF 		b	set_led
 2097              	.LVL216:
 2098              	.L216:
 2099              		.cfi_restore_state
 2100 0080 FFF7FEFF 		bl	__stack_chk_fail
 2101              	.LVL217:
 2102              	.L221:
 2103              		.align	2
 2104              	.L220:
 2105 0084 00000000 		.word	__stack_chk_guard
 2106              		.cfi_endproc
 2107              	.LFE300:
 2108              		.size	led_direction, .-led_direction
ARM GAS  C:\Users\adrie\AppData\Local\Temp\cc7EdWgE.s 			page 38


 2109              		.section	.text.processAudioData,"ax",%progbits
 2110              		.align	1
 2111              		.p2align 4,,15
 2112              		.global	processAudioData
 2113              		.syntax unified
 2114              		.thumb
 2115              		.thumb_func
 2116              		.fpu fpv4-sp-d16
 2117              		.type	processAudioData, %function
 2118              	processAudioData:
 2119              	.LFB291:
 2120              		.loc 1 134 0
 2121              		.cfi_startproc
 2122              		@ args = 0, pretend = 0, frame = 72
 2123              		@ frame_needed = 0, uses_anonymous_args = 0
 2124              	.LVL218:
 2125 0000 2DE9F04F 		push	{r4, r5, r6, r7, r8, r9, r10, fp, lr}
 2126              		.cfi_def_cfa_offset 36
 2127              		.cfi_offset 4, -36
 2128              		.cfi_offset 5, -32
 2129              		.cfi_offset 6, -28
 2130              		.cfi_offset 7, -24
 2131              		.cfi_offset 8, -20
 2132              		.cfi_offset 9, -16
 2133              		.cfi_offset 10, -12
 2134              		.cfi_offset 11, -8
 2135              		.cfi_offset 14, -4
 2136 0004 B04C     		ldr	r4, .L239
 2137 0006 B14E     		ldr	r6, .L239+4
 2138 0008 2368     		ldr	r3, [r4]
 2139 000a 3288     		ldrh	r2, [r6]
 2140 000c 93B0     		sub	sp, sp, #76
 2141              		.cfi_def_cfa_offset 112
 2142              		.loc 1 134 0
 2143 000e 1193     		str	r3, [sp, #68]
 2144              	.LVL219:
 2145              	.LBB332:
 2146              		.loc 1 148 0
 2147 0010 0029     		cmp	r1, #0
 2148 0012 00F0EF80 		beq	.L223
 2149 0016 DFF8BC92 		ldr	r9, .L239+12
 2150 001a DFF8BC82 		ldr	r8, .L239+16
 2151 001e DFF8C0E2 		ldr	lr, .L239+24
 2152 0022 DFF8B8C2 		ldr	ip, .L239+20
 2153              		.loc 1 157 0
 2154 0026 DFEDAA7A 		vldr.32	s15, .L239+8
 2155              		.loc 1 148 0
 2156 002a 0027     		movs	r7, #0
 2157 002c 04E0     		b	.L226
 2158              	.LVL220:
 2159              	.L224:
 2160              		.loc 1 148 0 is_stmt 0 discriminator 2
 2161 002e 0437     		adds	r7, r7, #4
 2162              	.LVL221:
 2163 0030 BFB2     		uxth	r7, r7
 2164              	.LVL222:
 2165 0032 B942     		cmp	r1, r7
ARM GAS  C:\Users\adrie\AppData\Local\Temp\cc7EdWgE.s 			page 39


 2166 0034 40F2D680 		bls	.L236
 2167              	.LVL223:
 2168              	.L226:
 2169              		.loc 1 150 0 is_stmt 1
 2170 0038 30F91730 		ldrsh	r3, [r0, r7, lsl #1]
 2171 003c 07EE103A 		vmov	s14, r3	@ int
 2172 0040 9500     		lsls	r5, r2, #2
 2173 0042 B8EEC77A 		vcvt.f32.s32	s14, s14
 2174 0046 09EB050A 		add	r10, r9, r5
 2175              		.loc 1 151 0
 2176 004a 00EB4703 		add	r3, r0, r7, lsl #1
 2177              		.loc 1 150 0
 2178 004e 8AED007A 		vstr.32	s14, [r10]
 2179              		.loc 1 151 0
 2180 0052 B3F902A0 		ldrsh	r10, [r3, #2]
 2181 0056 07EE10AA 		vmov	s14, r10	@ int
 2182 005a B8EEC77A 		vcvt.f32.s32	s14, s14
 2183 005e 08EB050A 		add	r10, r8, r5
 2184 0062 8AED007A 		vstr.32	s14, [r10]
 2185              		.loc 1 152 0
 2186 0066 B3F904A0 		ldrsh	r10, [r3, #4]
 2187 006a 07EE10AA 		vmov	s14, r10	@ int
 2188 006e B8EEC77A 		vcvt.f32.s32	s14, s14
 2189 0072 0EEB050A 		add	r10, lr, r5
 2190 0076 8AED007A 		vstr.32	s14, [r10]
 2191              		.loc 1 153 0
 2192 007a B3F90630 		ldrsh	r3, [r3, #6]
 2193 007e 07EE103A 		vmov	s14, r3	@ int
 2194              		.loc 1 157 0
 2195 0082 531C     		adds	r3, r2, #1
 2196 0084 9BB2     		uxth	r3, r3
 2197              		.loc 1 153 0
 2198 0086 B8EEC77A 		vcvt.f32.s32	s14, s14
 2199              		.loc 1 162 0
 2200 008a 0232     		adds	r2, r2, #2
 2201              		.loc 1 157 0
 2202 008c 9B00     		lsls	r3, r3, #2
 2203              		.loc 1 153 0
 2204 008e 6544     		add	r5, r5, ip
 2205              		.loc 1 162 0
 2206 0090 92B2     		uxth	r2, r2
 2207              		.loc 1 153 0
 2208 0092 85ED007A 		vstr.32	s14, [r5]
 2209              		.loc 1 157 0
 2210 0096 09EB030B 		add	fp, r9, r3
 2211              		.loc 1 158 0
 2212 009a 08EB030A 		add	r10, r8, r3
 2213              		.loc 1 159 0
 2214 009e 0EEB0305 		add	r5, lr, r3
 2215              		.loc 1 165 0
 2216 00a2 B2F5006F 		cmp	r2, #2048
 2217              		.loc 1 160 0
 2218 00a6 6344     		add	r3, r3, ip
 2219              		.loc 1 157 0
 2220 00a8 CBED007A 		vstr.32	s15, [fp]
 2221              		.loc 1 158 0
 2222 00ac CAED007A 		vstr.32	s15, [r10]
ARM GAS  C:\Users\adrie\AppData\Local\Temp\cc7EdWgE.s 			page 40


 2223              		.loc 1 159 0
 2224 00b0 C5ED007A 		vstr.32	s15, [r5]
 2225              		.loc 1 160 0
 2226 00b4 C3ED007A 		vstr.32	s15, [r3]
 2227              		.loc 1 165 0
 2228 00b8 B9D3     		bcc	.L224
 2229 00ba 3280     		strh	r2, [r6]	@ movhi
 2230              	.LVL224:
 2231              	.L225:
 2232              	.LBE332:
 2233              	.LBB333:
 2234              		.loc 1 177 0
 2235 00bc 8549     		ldr	r1, .L239+12
 2236              	.LVL225:
 2237 00be 4FF48060 		mov	r0, #1024
 2238              	.LVL226:
 2239 00c2 FFF7FEFF 		bl	doFFT_optimized
 2240              	.LVL227:
 2241              		.loc 1 178 0
 2242 00c6 8449     		ldr	r1, .L239+16
 2243 00c8 4FF48060 		mov	r0, #1024
 2244 00cc FFF7FEFF 		bl	doFFT_optimized
 2245              	.LVL228:
 2246              		.loc 1 179 0
 2247 00d0 8249     		ldr	r1, .L239+20
 2248 00d2 4FF48060 		mov	r0, #1024
 2249 00d6 FFF7FEFF 		bl	doFFT_optimized
 2250              	.LVL229:
 2251              		.loc 1 180 0
 2252 00da 8149     		ldr	r1, .L239+24
 2253 00dc 4FF48060 		mov	r0, #1024
 2254 00e0 FFF7FEFF 		bl	doFFT_optimized
 2255              	.LVL230:
 2256              		.loc 1 190 0
 2257 00e4 4FF48062 		mov	r2, #1024
 2258 00e8 7E49     		ldr	r1, .L239+28
 2259 00ea 7A48     		ldr	r0, .L239+12
 2260 00ec FFF7FEFF 		bl	arm_cmplx_mag_f32
 2261              	.LVL231:
 2262              		.loc 1 191 0
 2263 00f0 4FF48062 		mov	r2, #1024
 2264 00f4 7C49     		ldr	r1, .L239+32
 2265 00f6 7848     		ldr	r0, .L239+16
 2266 00f8 FFF7FEFF 		bl	arm_cmplx_mag_f32
 2267              	.LVL232:
 2268              		.loc 1 192 0
 2269 00fc 4FF48062 		mov	r2, #1024
 2270 0100 7A49     		ldr	r1, .L239+36
 2271 0102 7648     		ldr	r0, .L239+20
 2272 0104 FFF7FEFF 		bl	arm_cmplx_mag_f32
 2273              	.LVL233:
 2274              		.loc 1 193 0
 2275 0108 4FF48062 		mov	r2, #1024
 2276 010c 7849     		ldr	r1, .L239+40
 2277 010e 7448     		ldr	r0, .L239+24
 2278 0110 FFF7FEFF 		bl	arm_cmplx_mag_f32
 2279              	.LVL234:
ARM GAS  C:\Users\adrie\AppData\Local\Temp\cc7EdWgE.s 			page 41


 2280              		.loc 1 198 0
 2281 0114 0521     		movs	r1, #5
 2282 0116 01A8     		add	r0, sp, #4
 2283 0118 FFF7FEFF 		bl	get_max_norm_index
 2284              	.LVL235:
 2285              		.loc 1 199 0
 2286 011c 0421     		movs	r1, #4
 2287 011e 03A8     		add	r0, sp, #12
 2288              		.loc 1 198 0
 2289 0120 DDF804A0 		ldr	r10, [sp, #4]
 2290              	.LVL236:
 2291              		.loc 1 199 0
 2292 0124 FFF7FEFF 		bl	get_max_norm_index
 2293              	.LVL237:
 2294              	.LBB334:
 2295              	.LBB335:
 2296 0128 0621     		movs	r1, #6
 2297 012a 05A8     		add	r0, sp, #20
 2298              	.LBE335:
 2299              	.LBE334:
 2300 012c 039D     		ldr	r5, [sp, #12]
 2301              	.LVL238:
 2302              	.LBB337:
 2303              	.LBB336:
 2304 012e FFF7FEFF 		bl	get_max_norm_index.part.0
 2305              	.LVL239:
 2306              	.LBE336:
 2307              	.LBE337:
 2308              	.LBB338:
 2309              	.LBB339:
 2310 0132 0721     		movs	r1, #7
 2311 0134 07A8     		add	r0, sp, #28
 2312              	.LBE339:
 2313              	.LBE338:
 2314              		.loc 1 200 0
 2315 0136 DDF81490 		ldr	r9, [sp, #20]
 2316              	.LVL240:
 2317              	.LBB341:
 2318              	.LBB340:
 2319 013a FFF7FEFF 		bl	get_max_norm_index.part.0
 2320              	.LVL241:
 2321              	.LBE340:
 2322              	.LBE341:
 2323              		.loc 1 202 0
 2324 013e 0521     		movs	r1, #5
 2325 0140 09A8     		add	r0, sp, #36
 2326              		.loc 1 201 0
 2327 0142 DDF81C80 		ldr	r8, [sp, #28]
 2328              	.LVL242:
 2329              		.loc 1 202 0
 2330 0146 FFF7FEFF 		bl	get_max_norm_index
 2331              	.LVL243:
 2332              		.loc 1 203 0
 2333 014a 0421     		movs	r1, #4
 2334 014c 0BA8     		add	r0, sp, #44
 2335 014e FFF7FEFF 		bl	get_max_norm_index
 2336              	.LVL244:
ARM GAS  C:\Users\adrie\AppData\Local\Temp\cc7EdWgE.s 			page 42


 2337              	.LBB342:
 2338              	.LBB343:
 2339 0152 0621     		movs	r1, #6
 2340 0154 0DA8     		add	r0, sp, #52
 2341 0156 FFF7FEFF 		bl	get_max_norm_index.part.0
 2342              	.LVL245:
 2343              	.LBE343:
 2344              	.LBE342:
 2345              	.LBB344:
 2346              	.LBB345:
 2347 015a 0721     		movs	r1, #7
 2348 015c 0FA8     		add	r0, sp, #60
 2349 015e FFF7FEFF 		bl	get_max_norm_index.part.0
 2350              	.LVL246:
 2351              	.LBE345:
 2352              	.LBE344:
 2353              		.loc 1 211 0
 2354 0162 644B     		ldr	r3, .L239+44
 2355 0164 1B78     		ldrb	r3, [r3]	@ zero_extendqisi2
 2356              	.LVL247:
 2357              	.LBB346:
 2358              	.LBB347:
 2359              		.loc 1 394 0
 2360 0166 032B     		cmp	r3, #3
 2361 0168 48D8     		bhi	.L228
 2362              	.LBE347:
 2363              	.LBE346:
 2364              		.loc 1 199 0
 2365 016a 07EE905A 		vmov	s15, r5	@ int
 2366 016e 9FED626A 		vldr.32	s12, .L239+48
 2367              		.loc 1 212 0
 2368 0172 6249     		ldr	r1, .L239+52
 2369              	.LBB353:
 2370              	.LBB348:
 2371              		.loc 1 395 0
 2372 0174 624D     		ldr	r5, .L239+56
 2373              	.LVL248:
 2374              	.LBE348:
 2375              	.LBE353:
 2376              		.loc 1 212 0
 2377 0176 0A68     		ldr	r2, [r1]
 2378              		.loc 1 199 0
 2379 0178 F8EEE76A 		vcvt.f32.s32	s13, s15
 2380              	.LVL249:
 2381              		.loc 1 198 0
 2382 017c 07EE90AA 		vmov	s15, r10	@ int
 2383              		.loc 1 199 0
 2384 0180 66EE866A 		vmul.f32	s13, s13, s12
 2385              	.LVL250:
 2386              		.loc 1 198 0
 2387 0184 B8EEE77A 		vcvt.f32.s32	s14, s15
 2388              	.LVL251:
 2389              		.loc 1 201 0
 2390 0188 07EE908A 		vmov	s15, r8	@ int
 2391              		.loc 1 198 0
 2392 018c 27EE067A 		vmul.f32	s14, s14, s12
 2393              	.LVL252:
ARM GAS  C:\Users\adrie\AppData\Local\Temp\cc7EdWgE.s 			page 43


 2394              		.loc 1 201 0
 2395 0190 F8EEE77A 		vcvt.f32.s32	s15, s15
 2396              	.LVL253:
 2397              		.loc 1 199 0
 2398 0194 FDEEE66A 		vcvt.s32.f32	s13, s13
 2399              	.LBB354:
 2400              	.LBB349:
 2401              		.loc 1 395 0
 2402 0198 03F1FF30 		add	r0, r3, #-1
 2403              	.LBE349:
 2404              	.LBE354:
 2405              		.loc 1 212 0
 2406 019c 02F1010C 		add	ip, r2, #1
 2407              		.loc 1 201 0
 2408 01a0 67EE867A 		vmul.f32	s15, s15, s12
 2409              	.LVL254:
 2410              		.loc 1 199 0
 2411 01a4 0246     		mov	r2, r0
 2412              		.loc 1 198 0
 2413 01a6 BDEEC77A 		vcvt.s32.f32	s14, s14
 2414              		.loc 1 199 0
 2415 01aa 16EE900A 		vmov	r0, s13	@ int
 2416              		.loc 1 198 0
 2417 01ae 17EE107A 		vmov	r7, s14	@ int
 2418              		.loc 1 199 0
 2419 01b2 45F82200 		str	r0, [r5, r2, lsl #2]
 2420              		.loc 1 201 0
 2421 01b6 FDEEE77A 		vcvt.s32.f32	s15, s15
 2422              	.LBB355:
 2423              	.LBB350:
 2424              		.loc 1 397 0
 2425 01ba 03F10202 		add	r2, r3, #2
 2426              		.loc 1 398 0
 2427 01be 03F10500 		add	r0, r3, #5
 2428              	.LBE350:
 2429              	.LBE355:
 2430              		.loc 1 198 0
 2431 01c2 45F82270 		str	r7, [r5, r2, lsl #2]
 2432              		.loc 1 212 0
 2433 01c6 C1F800C0 		str	ip, [r1]
 2434              	.LBB356:
 2435              	.LBB351:
 2436              		.loc 1 399 0
 2437 01ca 03F10802 		add	r2, r3, #8
 2438              	.LBE351:
 2439              	.LBE356:
 2440              		.loc 1 201 0
 2441 01ce 17EE901A 		vmov	r1, s15	@ int
 2442              	.LBB357:
 2443              	.LBB352:
 2444              		.loc 1 398 0
 2445 01d2 45F82090 		str	r9, [r5, r0, lsl #2]
 2446              	.LBE352:
 2447              	.LBE357:
 2448              		.loc 1 201 0
 2449 01d6 45F82210 		str	r1, [r5, r2, lsl #2]
 2450              	.LVL255:
ARM GAS  C:\Users\adrie\AppData\Local\Temp\cc7EdWgE.s 			page 44


 2451              		.loc 1 216 0
 2452 01da 14D0     		beq	.L232
 2453              	.LVL256:
 2454              	.L229:
 2455              		.loc 1 256 0
 2456 01dc 4549     		ldr	r1, .L239+44
 2457 01de 0133     		adds	r3, r3, #1
 2458              		.loc 1 255 0
 2459 01e0 0022     		movs	r2, #0
 2460              		.loc 1 256 0
 2461 01e2 0B70     		strb	r3, [r1]
 2462              	.LVL257:
 2463              	.L236:
 2464              		.loc 1 255 0
 2465 01e4 3280     		strh	r2, [r6]	@ movhi
 2466              	.L222:
 2467              	.LBE333:
 2468              		.loc 1 262 0
 2469 01e6 119A     		ldr	r2, [sp, #68]
 2470 01e8 2368     		ldr	r3, [r4]
 2471 01ea 9A42     		cmp	r2, r3
 2472 01ec 6AD1     		bne	.L237
 2473 01ee 13B0     		add	sp, sp, #76
 2474              		.cfi_remember_state
 2475              		.cfi_def_cfa_offset 36
 2476              		@ sp needed
 2477 01f0 BDE8F08F 		pop	{r4, r5, r6, r7, r8, r9, r10, fp, pc}
 2478              	.LVL258:
 2479              	.L223:
 2480              		.cfi_restore_state
 2481              		.loc 1 170 0
 2482 01f4 B2F5006F 		cmp	r2, #2048
 2483 01f8 F5D3     		bcc	.L222
 2484 01fa 5FE7     		b	.L225
 2485              	.LVL259:
 2486              	.L228:
 2487              	.LBB438:
 2488              		.loc 1 212 0
 2489 01fc 3F4A     		ldr	r2, .L239+52
 2490 01fe 404D     		ldr	r5, .L239+56
 2491              	.LVL260:
 2492 0200 1368     		ldr	r3, [r2]
 2493 0202 0133     		adds	r3, r3, #1
 2494 0204 1360     		str	r3, [r2]
 2495              	.L232:
 2496              	.LVL261:
 2497              	.LBB358:
 2498              	.LBB359:
 2499              	.LBB360:
 2500              	.LBB361:
 2501              	.LBB362:
 2502              	.LBB363:
 2503              	.LBB364:
 2504              	.LBB365:
 2505              		.loc 4 546 0
 2506 0206 2023     		movs	r3, #32
 2507              		.syntax unified
ARM GAS  C:\Users\adrie\AppData\Local\Temp\cc7EdWgE.s 			page 45


 2508              	@ 546 "../lib/e-puck2_main-processor/ChibiOS//os/ext/CMSIS/include/core_cmFunc.h" 1
 2509 0208 83F31188 		MSR basepri, r3
 2510              	@ 0 "" 2
 2511              	.LVL262:
 2512              		.thumb
 2513              		.syntax unified
 2514              	.LBE365:
 2515              	.LBE364:
 2516              	.LBE363:
 2517              		.loc 5 349 0
 2518 020c FFF7FEFF 		bl	_stats_start_measure_crit_thd
 2519              	.LVL263:
 2520              		.loc 5 350 0
 2521 0210 FFF7FEFF 		bl	_dbg_check_lock
 2522              	.LVL264:
 2523              	.LBE362:
 2524              	.LBE361:
 2525              	.LBB366:
 2526              	.LBB367:
 2527              		.loc 7 268 0
 2528 0214 FFF7FEFF 		bl	chDbgCheckClassI
 2529              	.LVL265:
 2530              		.loc 7 270 0
 2531 0218 3A48     		ldr	r0, .L239+60
 2532 021a 8368     		ldr	r3, [r0, #8]
 2533 021c 002B     		cmp	r3, #0
 2534 021e 4EDD     		ble	.L238
 2535              	.L230:
 2536              	.LVL266:
 2537              	.LBE367:
 2538              	.LBE366:
 2539              		.loc 7 286 0
 2540 0220 FFF7FEFF 		bl	chSchRescheduleS
 2541              	.LVL267:
 2542              	.LBB369:
 2543              	.LBB370:
 2544              		.loc 5 360 0
 2545 0224 FFF7FEFF 		bl	_dbg_check_unlock
 2546              	.LVL268:
 2547              		.loc 5 361 0
 2548 0228 FFF7FEFF 		bl	_stats_stop_measure_crit_thd
 2549              	.LVL269:
 2550              		.loc 5 367 0
 2551 022c 364B     		ldr	r3, .L239+64
 2552 022e 1A68     		ldr	r2, [r3]
 2553 0230 9A42     		cmp	r2, r3
 2554 0232 07D0     		beq	.L231
 2555 0234 9969     		ldr	r1, [r3, #24]
 2556 0236 9368     		ldr	r3, [r2, #8]
 2557 0238 8A68     		ldr	r2, [r1, #8]
 2558 023a 9A42     		cmp	r2, r3
 2559 023c 02D2     		bcs	.L231
 2560 023e 3348     		ldr	r0, .L239+68
 2561 0240 FFF7FEFF 		bl	chSysHalt
 2562              	.LVL270:
 2563              	.L231:
 2564              	.LBB371:
ARM GAS  C:\Users\adrie\AppData\Local\Temp\cc7EdWgE.s 			page 46


 2565              	.LBB372:
 2566              	.LBB373:
 2567              		.loc 4 546 0
 2568 0244 4FF0000C 		mov	ip, #0
 2569              		.syntax unified
 2570              	@ 546 "../lib/e-puck2_main-processor/ChibiOS//os/ext/CMSIS/include/core_cmFunc.h" 1
 2571 0248 8CF31188 		MSR basepri, ip
 2572              	@ 0 "" 2
 2573              	.LVL271:
 2574              		.thumb
 2575              		.syntax unified
 2576              	.LBE373:
 2577              	.LBE372:
 2578              	.LBE371:
 2579              	.LBE370:
 2580              	.LBE369:
 2581              	.LBE360:
 2582              	.LBE359:
 2583              		.loc 1 220 0
 2584 024c 294F     		ldr	r7, .L239+44
 2585              	.LBB376:
 2586              	.LBB377:
 2587              	.LBB378:
 2588              		.loc 1 386 0
 2589 024e D5F814E0 		ldr	lr, [r5, #20]
 2590              	.LBE378:
 2591              	.LBE377:
 2592              	.LBE376:
 2593              		.loc 1 220 0
 2594 0252 87F800C0 		strb	ip, [r7]
 2595              	.LVL272:
 2596              	.LBB387:
 2597              	.LBB382:
 2598              	.LBB379:
 2599              		.loc 1 386 0
 2600 0256 D5E9030B 		ldrd	r0, fp, [r5, #12]
 2601              	.LBE379:
 2602              	.LBE382:
 2603              	.LBE387:
 2604              	.LBB388:
 2605              	.LBB389:
 2606              	.LBB390:
 2607 025a D5E900A1 		ldrd	r10, r1, [r5]
 2608              	.LVL273:
 2609              	.LBE390:
 2610              	.LBE389:
 2611              	.LBE388:
 2612              	.LBB399:
 2613              	.LBB400:
 2614              	.LBB401:
 2615 025e D5E90692 		ldrd	r9, r2, [r5, #24]
 2616              	.LVL274:
 2617              	.LBE401:
 2618              	.LBE400:
 2619              	.LBE399:
 2620              	.LBB410:
 2621              	.LBB411:
ARM GAS  C:\Users\adrie\AppData\Local\Temp\cc7EdWgE.s 			page 47


 2622              	.LBB412:
 2623 0262 D5E90983 		ldrd	r8, r3, [r5, #36]
 2624              	.LVL275:
 2625              	.LBE412:
 2626              	.LBE411:
 2627              	.LBE410:
 2628              	.LBB419:
 2629              	.LBB394:
 2630              	.LBB391:
 2631 0266 D5F808C0 		ldr	ip, [r5, #8]
 2632              	.LBE391:
 2633              	.LBE394:
 2634              	.LBE419:
 2635              	.LBB420:
 2636              	.LBB405:
 2637              	.LBB402:
 2638 026a 2F6A     		ldr	r7, [r5, #32]
 2639              	.LBE402:
 2640              	.LBE405:
 2641              	.LBE420:
 2642              	.LBB421:
 2643              	.LBB415:
 2644              	.LBB413:
 2645 026c ED6A     		ldr	r5, [r5, #44]
 2646              	.LBE413:
 2647              	.LBE415:
 2648              	.LBE421:
 2649              	.LBB422:
 2650              	.LBB383:
 2651              	.LBB380:
 2652 026e 8344     		add	fp, fp, r0
 2653              	.LVL276:
 2654              	.LBE380:
 2655              	.LBE383:
 2656              	.LBE422:
 2657              	.LBB423:
 2658              	.LBB395:
 2659              	.LBB392:
 2660 0270 5144     		add	r1, r1, r10
 2661              	.LBE392:
 2662              	.LBE395:
 2663              	.LBE423:
 2664              	.LBB424:
 2665              	.LBB384:
 2666              		.loc 1 389 0
 2667 0272 2748     		ldr	r0, .L239+72
 2668              	.LBE384:
 2669              	.LBE424:
 2670              	.LBB425:
 2671              	.LBB406:
 2672              	.LBB403:
 2673              		.loc 1 386 0
 2674 0274 4A44     		add	r2, r2, r9
 2675              	.LBE403:
 2676              	.LBE406:
 2677              	.LBE425:
 2678              	.LBB426:
ARM GAS  C:\Users\adrie\AppData\Local\Temp\cc7EdWgE.s 			page 48


 2679              	.LBB416:
 2680              	.LBB414:
 2681 0276 4344     		add	r3, r3, r8
 2682 0278 2B44     		add	r3, r3, r5
 2683              	.LBE414:
 2684              	.LBE416:
 2685              	.LBE426:
 2686              	.LBB427:
 2687              	.LBB396:
 2688              	.LBB393:
 2689 027a 6144     		add	r1, r1, ip
 2690              	.LBE393:
 2691              	.LBE396:
 2692              	.LBE427:
 2693              	.LBB428:
 2694              	.LBB407:
 2695              	.LBB404:
 2696 027c 3A44     		add	r2, r2, r7
 2697              	.LBE404:
 2698              	.LBE407:
 2699              	.LBE428:
 2700              	.LBB429:
 2701              	.LBB385:
 2702              	.LBB381:
 2703 027e F344     		add	fp, fp, lr
 2704              	.LVL277:
 2705              	.LBE381:
 2706              		.loc 1 389 0
 2707 0280 80FB0B5E 		smull	r5, lr, r0, fp
 2708              	.LBE385:
 2709              	.LBE429:
 2710              	.LBB430:
 2711              	.LBB397:
 2712 0284 80FB015A 		smull	r5, r10, r0, r1
 2713              	.LBE397:
 2714              	.LBE430:
 2715              	.LBB431:
 2716              	.LBB408:
 2717 0288 80FB0259 		smull	r5, r9, r0, r2
 2718              	.LBE408:
 2719              	.LBE431:
 2720              	.LBB432:
 2721              	.LBB417:
 2722 028c 80FB0305 		smull	r0, r5, r0, r3
 2723              	.LBE417:
 2724              	.LBE432:
 2725              	.LBB433:
 2726              	.LBB386:
 2727 0290 AEEBEB7B 		sub	fp, lr, fp, asr #31
 2728              	.LVL278:
 2729              	.LBE386:
 2730              	.LBE433:
 2731              	.LBB434:
 2732              	.LBB398:
 2733 0294 AAEBE17A 		sub	r10, r10, r1, asr #31
 2734              	.LVL279:
 2735              	.LBE398:
ARM GAS  C:\Users\adrie\AppData\Local\Temp\cc7EdWgE.s 			page 49


 2736              	.LBE434:
 2737              	.LBB435:
 2738              	.LBB409:
 2739 0298 A9EBE279 		sub	r9, r9, r2, asr #31
 2740              	.LVL280:
 2741              	.LBE409:
 2742              	.LBE435:
 2743              	.LBB436:
 2744              	.LBB418:
 2745 029c A5EBE375 		sub	r5, r5, r3, asr #31
 2746              	.LVL281:
 2747              	.LBE418:
 2748              	.LBE436:
 2749              		.loc 1 229 0
 2750 02a0 5846     		mov	r0, fp
 2751 02a2 5146     		mov	r1, r10
 2752 02a4 4A46     		mov	r2, r9
 2753 02a6 2B46     		mov	r3, r5
 2754 02a8 FFF7FEFF 		bl	led_direction
 2755              	.LVL282:
 2756              		.loc 1 231 0
 2757 02ac 2B46     		mov	r3, r5
 2758 02ae 4A46     		mov	r2, r9
 2759 02b0 5146     		mov	r1, r10
 2760 02b2 5846     		mov	r0, fp
 2761 02b4 FFF7FEFF 		bl	calcul_angle
 2762              	.LVL283:
 2763 02b8 0E4B     		ldr	r3, .L239+44
 2764 02ba 1B78     		ldrb	r3, [r3]	@ zero_extendqisi2
 2765 02bc 8EE7     		b	.L229
 2766              	.LVL284:
 2767              	.L238:
 2768              	.LBB437:
 2769              	.LBB375:
 2770              	.LBB374:
 2771              	.LBB368:
 2772              		.loc 7 271 0
 2773 02be FFF7FEFF 		bl	chSemSignalI
 2774              	.LVL285:
 2775 02c2 ADE7     		b	.L230
 2776              	.LVL286:
 2777              	.L237:
 2778              	.LBE368:
 2779              	.LBE374:
 2780              	.LBE375:
 2781              	.LBE437:
 2782              	.LBE358:
 2783              	.LBE438:
 2784              		.loc 1 262 0
 2785 02c4 FFF7FEFF 		bl	__stack_chk_fail
 2786              	.LVL287:
 2787              	.L240:
 2788              		.align	2
 2789              	.L239:
 2790 02c8 00000000 		.word	__stack_chk_guard
 2791 02cc 00000000 		.word	.LANCHOR6
 2792 02d0 00000000 		.word	0
ARM GAS  C:\Users\adrie\AppData\Local\Temp\cc7EdWgE.s 			page 50


 2793 02d4 00000000 		.word	micRight_cmplx_input
 2794 02d8 00000000 		.word	micLeft_cmplx_input
 2795 02dc 00000000 		.word	micFront_cmplx_input
 2796 02e0 00000000 		.word	micBack_cmplx_input
 2797 02e4 00000000 		.word	micRight_output
 2798 02e8 00000000 		.word	micLeft_output
 2799 02ec 00000000 		.word	micFront_output
 2800 02f0 00000000 		.word	micBack_output
 2801 02f4 00000000 		.word	.LANCHOR7
 2802 02f8 A4707D3F 		.word	1065185444
 2803 02fc 00000000 		.word	.LANCHOR8
 2804 0300 00000000 		.word	.LANCHOR2
 2805 0304 00000000 		.word	.LANCHOR5
 2806 0308 00000000 		.word	ch
 2807 030c 00000000 		.word	.LANCHOR1
 2808 0310 56555555 		.word	1431655766
 2809              		.cfi_endproc
 2810              	.LFE291:
 2811              		.size	processAudioData, .-processAudioData
 2812              		.section	.text.echantillone_distance,"ax",%progbits
 2813              		.align	1
 2814              		.p2align 4,,15
 2815              		.global	echantillone_distance
 2816              		.syntax unified
 2817              		.thumb
 2818              		.thumb_func
 2819              		.fpu fpv4-sp-d16
 2820              		.type	echantillone_distance, %function
 2821              	echantillone_distance:
 2822              	.LFB301:
 2823              		.loc 1 580 0
 2824              		.cfi_startproc
 2825              		@ args = 0, pretend = 0, frame = 8
 2826              		@ frame_needed = 0, uses_anonymous_args = 0
 2827              	.LVL288:
 2828 0000 00B5     		push	{lr}
 2829              		.cfi_def_cfa_offset 4
 2830              		.cfi_offset 14, -4
 2831 0002 064B     		ldr	r3, .L245
 2832 0004 83B0     		sub	sp, sp, #12
 2833              		.cfi_def_cfa_offset 16
 2834              		.loc 1 580 0
 2835 0006 1A68     		ldr	r2, [r3]
 2836 0008 0192     		str	r2, [sp, #4]
 2837              		.loc 1 588 0
 2838 000a 019A     		ldr	r2, [sp, #4]
 2839 000c 1B68     		ldr	r3, [r3]
 2840 000e 9A42     		cmp	r2, r3
 2841 0010 02D1     		bne	.L244
 2842 0012 03B0     		add	sp, sp, #12
 2843              		.cfi_remember_state
 2844              		.cfi_def_cfa_offset 4
 2845              		@ sp needed
 2846 0014 5DF804FB 		ldr	pc, [sp], #4
 2847              	.L244:
 2848              		.cfi_restore_state
 2849 0018 FFF7FEFF 		bl	__stack_chk_fail
ARM GAS  C:\Users\adrie\AppData\Local\Temp\cc7EdWgE.s 			page 51


 2850              	.LVL289:
 2851              	.L246:
 2852              		.align	2
 2853              	.L245:
 2854 001c 00000000 		.word	__stack_chk_guard
 2855              		.cfi_endproc
 2856              	.LFE301:
 2857              		.size	echantillone_distance, .-echantillone_distance
 2858              		.section	.text.get_max_front_moyenne,"ax",%progbits
 2859              		.align	1
 2860              		.p2align 4,,15
 2861              		.global	get_max_front_moyenne
 2862              		.syntax unified
 2863              		.thumb
 2864              		.thumb_func
 2865              		.fpu fpv4-sp-d16
 2866              		.type	get_max_front_moyenne, %function
 2867              	get_max_front_moyenne:
 2868              	.LFB302:
 2869              		.loc 1 590 0
 2870              		.cfi_startproc
 2871              		@ args = 0, pretend = 0, frame = 8
 2872              		@ frame_needed = 0, uses_anonymous_args = 0
 2873 0000 30B5     		push	{r4, r5, lr}
 2874              		.cfi_def_cfa_offset 12
 2875              		.cfi_offset 4, -12
 2876              		.cfi_offset 5, -8
 2877              		.cfi_offset 14, -4
 2878              	.LBB439:
 2879              	.LBB440:
 2880              	.LBB441:
 2881              		.loc 1 386 0
 2882 0002 0B4A     		ldr	r2, .L251
 2883              	.LBE441:
 2884              	.LBE440:
 2885              	.LBE439:
 2886              		.loc 1 590 0
 2887 0004 0B49     		ldr	r1, .L251+4
 2888              	.LBB449:
 2889              	.LBB445:
 2890              	.LBB442:
 2891              		.loc 1 386 0
 2892 0006 156A     		ldr	r5, [r2, #32]
 2893 0008 D2E90630 		ldrd	r3, r0, [r2, #24]
 2894              	.LBE442:
 2895              	.LBE445:
 2896              	.LBE449:
 2897              		.loc 1 590 0
 2898 000c 83B0     		sub	sp, sp, #12
 2899              		.cfi_def_cfa_offset 24
 2900              		.loc 1 590 0
 2901 000e 0A68     		ldr	r2, [r1]
 2902 0010 0192     		str	r2, [sp, #4]
 2903              	.LVL290:
 2904              	.LBB450:
 2905              	.LBB446:
 2906              	.LBB443:
ARM GAS  C:\Users\adrie\AppData\Local\Temp\cc7EdWgE.s 			page 52


 2907              		.loc 1 386 0
 2908 0012 0344     		add	r3, r3, r0
 2909              	.LVL291:
 2910              	.LBE443:
 2911              	.LBE446:
 2912              	.LBE450:
 2913              		.loc 1 592 0
 2914 0014 019C     		ldr	r4, [sp, #4]
 2915              	.LBB451:
 2916              	.LBB447:
 2917              		.loc 1 389 0
 2918 0016 0848     		ldr	r0, .L251+8
 2919              	.LBE447:
 2920              	.LBE451:
 2921              		.loc 1 592 0
 2922 0018 0A68     		ldr	r2, [r1]
 2923              	.LBB452:
 2924              	.LBB448:
 2925              	.LBB444:
 2926              		.loc 1 386 0
 2927 001a 2B44     		add	r3, r3, r5
 2928              	.LBE444:
 2929              		.loc 1 389 0
 2930 001c 80FB0310 		smull	r1, r0, r0, r3
 2931              	.LBE448:
 2932              	.LBE452:
 2933              		.loc 1 592 0
 2934 0020 9442     		cmp	r4, r2
 2935 0022 A0EBE370 		sub	r0, r0, r3, asr #31
 2936 0026 01D1     		bne	.L250
 2937 0028 03B0     		add	sp, sp, #12
 2938              		.cfi_remember_state
 2939              		.cfi_def_cfa_offset 12
 2940              		@ sp needed
 2941 002a 30BD     		pop	{r4, r5, pc}
 2942              	.L250:
 2943              		.cfi_restore_state
 2944 002c FFF7FEFF 		bl	__stack_chk_fail
 2945              	.LVL292:
 2946              	.L252:
 2947              		.align	2
 2948              	.L251:
 2949 0030 00000000 		.word	.LANCHOR2
 2950 0034 00000000 		.word	__stack_chk_guard
 2951 0038 56555555 		.word	1431655766
 2952              		.cfi_endproc
 2953              	.LFE302:
 2954              		.size	get_max_front_moyenne, .-get_max_front_moyenne
 2955              		.section	.text.get_line_position,"ax",%progbits
 2956              		.align	1
 2957              		.p2align 4,,15
 2958              		.global	get_line_position
 2959              		.syntax unified
 2960              		.thumb
 2961              		.thumb_func
 2962              		.fpu fpv4-sp-d16
 2963              		.type	get_line_position, %function
ARM GAS  C:\Users\adrie\AppData\Local\Temp\cc7EdWgE.s 			page 53


 2964              	get_line_position:
 2965              	.LFB303:
 2966              		.loc 1 594 0
 2967              		.cfi_startproc
 2968              		@ args = 0, pretend = 0, frame = 8
 2969              		@ frame_needed = 0, uses_anonymous_args = 0
 2970 0000 00B5     		push	{lr}
 2971              		.cfi_def_cfa_offset 4
 2972              		.cfi_offset 14, -4
 2973 0002 074B     		ldr	r3, .L257
 2974              		.loc 1 595 0
 2975 0004 0749     		ldr	r1, .L257+4
 2976              		.loc 1 594 0
 2977 0006 1A68     		ldr	r2, [r3]
 2978              		.loc 1 596 0
 2979 0008 0868     		ldr	r0, [r1]
 2980              		.loc 1 594 0
 2981 000a 83B0     		sub	sp, sp, #12
 2982              		.cfi_def_cfa_offset 16
 2983              		.loc 1 594 0
 2984 000c 0192     		str	r2, [sp, #4]
 2985              		.loc 1 596 0
 2986 000e 019A     		ldr	r2, [sp, #4]
 2987 0010 1B68     		ldr	r3, [r3]
 2988 0012 9A42     		cmp	r2, r3
 2989 0014 02D1     		bne	.L256
 2990 0016 03B0     		add	sp, sp, #12
 2991              		.cfi_remember_state
 2992              		.cfi_def_cfa_offset 4
 2993              		@ sp needed
 2994 0018 5DF804FB 		ldr	pc, [sp], #4
 2995              	.L256:
 2996              		.cfi_restore_state
 2997 001c FFF7FEFF 		bl	__stack_chk_fail
 2998              	.LVL293:
 2999              	.L258:
 3000              		.align	2
 3001              	.L257:
 3002 0020 00000000 		.word	__stack_chk_guard
 3003 0024 00000000 		.word	.LANCHOR4
 3004              		.cfi_endproc
 3005              	.LFE303:
 3006              		.size	get_line_position, .-get_line_position
 3007              		.section	.text.get_distance_cm,"ax",%progbits
 3008              		.align	1
 3009              		.p2align 4,,15
 3010              		.global	get_distance_cm
 3011              		.syntax unified
 3012              		.thumb
 3013              		.thumb_func
 3014              		.fpu fpv4-sp-d16
 3015              		.type	get_distance_cm, %function
 3016              	get_distance_cm:
 3017              	.LFB304:
 3018              		.loc 1 598 0
 3019              		.cfi_startproc
 3020              		@ args = 0, pretend = 0, frame = 8
ARM GAS  C:\Users\adrie\AppData\Local\Temp\cc7EdWgE.s 			page 54


 3021              		@ frame_needed = 0, uses_anonymous_args = 0
 3022 0000 00B5     		push	{lr}
 3023              		.cfi_def_cfa_offset 4
 3024              		.cfi_offset 14, -4
 3025 0002 074B     		ldr	r3, .L263
 3026 0004 83B0     		sub	sp, sp, #12
 3027              		.cfi_def_cfa_offset 16
 3028              		.loc 1 598 0
 3029 0006 1A68     		ldr	r2, [r3]
 3030 0008 0192     		str	r2, [sp, #4]
 3031              		.loc 1 600 0
 3032 000a 019A     		ldr	r2, [sp, #4]
 3033 000c 1B68     		ldr	r3, [r3]
 3034 000e 9A42     		cmp	r2, r3
 3035 0010 04D1     		bne	.L262
 3036 0012 9FED040A 		vldr.32	s0, .L263+4
 3037 0016 03B0     		add	sp, sp, #12
 3038              		.cfi_remember_state
 3039              		.cfi_def_cfa_offset 4
 3040              		@ sp needed
 3041 0018 5DF804FB 		ldr	pc, [sp], #4
 3042              	.L262:
 3043              		.cfi_restore_state
 3044 001c FFF7FEFF 		bl	__stack_chk_fail
 3045              	.LVL294:
 3046              	.L264:
 3047              		.align	2
 3048              	.L263:
 3049 0020 00000000 		.word	__stack_chk_guard
 3050 0024 00000000 		.word	0
 3051              		.cfi_endproc
 3052              	.LFE304:
 3053              		.size	get_distance_cm, .-get_distance_cm
 3054              		.section	.text.pi_regulator,"ax",%progbits
 3055              		.align	1
 3056              		.p2align 4,,15
 3057              		.global	pi_regulator
 3058              		.syntax unified
 3059              		.thumb
 3060              		.thumb_func
 3061              		.fpu fpv4-sp-d16
 3062              		.type	pi_regulator, %function
 3063              	pi_regulator:
 3064              	.LFB305:
 3065              		.loc 1 604 0
 3066              		.cfi_startproc
 3067              		@ args = 0, pretend = 0, frame = 8
 3068              		@ frame_needed = 0, uses_anonymous_args = 0
 3069              	.LVL295:
 3070 0000 00B5     		push	{lr}
 3071              		.cfi_def_cfa_offset 4
 3072              		.cfi_offset 14, -4
 3073              		.loc 1 611 0
 3074 0002 70EE600A 		vsub.f32	s1, s0, s1
 3075              	.LVL296:
 3076              		.loc 1 617 0
 3077 0006 DFED227A 		vldr.32	s15, .L278
ARM GAS  C:\Users\adrie\AppData\Local\Temp\cc7EdWgE.s 			page 55


 3078              		.loc 1 604 0
 3079 000a 224B     		ldr	r3, .L278+4
 3080              		.loc 1 617 0
 3081 000c B0EEE07A 		vabs.f32	s14, s1
 3082              		.loc 1 604 0
 3083 0010 83B0     		sub	sp, sp, #12
 3084              		.cfi_def_cfa_offset 16
 3085              		.loc 1 617 0
 3086 0012 B4EEE77A 		vcmpe.f32	s14, s15
 3087              		.loc 1 604 0
 3088 0016 1A68     		ldr	r2, [r3]
 3089 0018 0192     		str	r2, [sp, #4]
 3090              	.LVL297:
 3091              		.loc 1 617 0
 3092 001a F1EE10FA 		vmrs	APSR_nzcv, FPSCR
 3093 001e 2BD4     		bmi	.L272
 3094              		.loc 1 621 0
 3095 0020 1D4A     		ldr	r2, .L278+8
 3096              		.loc 1 624 0
 3097 0022 9FED1E7A 		vldr.32	s14, .L278+12
 3098              		.loc 1 621 0
 3099 0026 D2ED007A 		vldr.32	s15, [r2]
 3100 002a 70EEA77A 		vadd.f32	s15, s1, s15
 3101              		.loc 1 624 0
 3102 002e F4EEC77A 		vcmpe.f32	s15, s14
 3103 0032 F1EE10FA 		vmrs	APSR_nzcv, FPSCR
 3104 0036 13DD     		ble	.L274
 3105 0038 DFED197A 		vldr.32	s15, .L278+16
 3106              		.loc 1 625 0
 3107 003c 82ED007A 		vstr.32	s14, [r2]
 3108              	.L269:
 3109              	.LVL298:
 3110              		.loc 1 630 0
 3111 0040 9FED187A 		vldr.32	s14, .L278+20
 3112 0044 E0EE877A 		vfma.f32	s15, s1, s14
 3113              	.LVL299:
 3114              		.loc 1 632 0
 3115 0048 FDEEE77A 		vcvt.s32.f32	s15, s15
 3116              	.LVL300:
 3117 004c 17EE902A 		vmov	r2, s15	@ int
 3118 0050 10B2     		sxth	r0, r2
 3119              	.L266:
 3120              		.loc 1 633 0
 3121 0052 019A     		ldr	r2, [sp, #4]
 3122 0054 1B68     		ldr	r3, [r3]
 3123 0056 9A42     		cmp	r2, r3
 3124 0058 17D1     		bne	.L276
 3125 005a 03B0     		add	sp, sp, #12
 3126              		.cfi_remember_state
 3127              		.cfi_def_cfa_offset 4
 3128              		@ sp needed
 3129 005c 5DF804FB 		ldr	pc, [sp], #4
 3130              	.LVL301:
 3131              	.L274:
 3132              		.cfi_restore_state
 3133              		.loc 1 626 0
 3134 0060 9FED117A 		vldr.32	s14, .L278+24
ARM GAS  C:\Users\adrie\AppData\Local\Temp\cc7EdWgE.s 			page 56


 3135 0064 F4EEC77A 		vcmpe.f32	s15, s14
 3136 0068 F1EE10FA 		vmrs	APSR_nzcv, FPSCR
 3137 006c 06D5     		bpl	.L277
 3138              		.loc 1 627 0
 3139 006e DFED0F7A 		vldr.32	s15, .L278+28
 3140 0072 82ED007A 		vstr.32	s14, [r2]
 3141 0076 E3E7     		b	.L269
 3142              	.L272:
 3143              		.loc 1 618 0
 3144 0078 0020     		movs	r0, #0
 3145 007a EAE7     		b	.L266
 3146              	.L277:
 3147 007c B0EE0C7A 		vmov.f32	s14, #3.5e+0
 3148              		.loc 1 621 0
 3149 0080 C2ED007A 		vstr.32	s15, [r2]
 3150 0084 67EE877A 		vmul.f32	s15, s15, s14
 3151 0088 DAE7     		b	.L269
 3152              	.LVL302:
 3153              	.L276:
 3154              		.loc 1 633 0
 3155 008a FFF7FEFF 		bl	__stack_chk_fail
 3156              	.LVL303:
 3157              	.L279:
 3158 008e 00BF     		.align	2
 3159              	.L278:
 3160 0090 00007A44 		.word	1148846080
 3161 0094 00000000 		.word	__stack_chk_guard
 3162 0098 00000000 		.word	.LANCHOR3
 3163 009c 92249D43 		.word	1134371986
 3164 00a0 00808944 		.word	1149861888
 3165 00a4 00004844 		.word	1145569280
 3166 00a8 92249DC3 		.word	-1013111662
 3167 00ac 008089C4 		.word	-997621760
 3168              		.cfi_endproc
 3169              	.LFE305:
 3170              		.size	pi_regulator, .-pi_regulator
 3171              		.section	.text.pi_regulator_start,"ax",%progbits
 3172              		.align	1
 3173              		.p2align 4,,15
 3174              		.global	pi_regulator_start
 3175              		.syntax unified
 3176              		.thumb
 3177              		.thumb_func
 3178              		.fpu fpv4-sp-d16
 3179              		.type	pi_regulator_start, %function
 3180              	pi_regulator_start:
 3181              	.LFB307:
 3182              		.loc 1 707 0
 3183              		.cfi_startproc
 3184              		@ args = 0, pretend = 0, frame = 8
 3185              		@ frame_needed = 0, uses_anonymous_args = 0
 3186 0000 10B5     		push	{r4, lr}
 3187              		.cfi_def_cfa_offset 8
 3188              		.cfi_offset 4, -8
 3189              		.cfi_offset 14, -4
 3190 0002 0A4C     		ldr	r4, .L284
 3191              		.loc 1 708 0
ARM GAS  C:\Users\adrie\AppData\Local\Temp\cc7EdWgE.s 			page 57


 3192 0004 0A4B     		ldr	r3, .L284+4
 3193              		.loc 1 707 0
 3194 0006 2268     		ldr	r2, [r4]
 3195              		.loc 1 708 0
 3196 0008 0A48     		ldr	r0, .L284+8
 3197              		.loc 1 707 0
 3198 000a 84B0     		sub	sp, sp, #16
 3199              		.cfi_def_cfa_offset 24
 3200              		.loc 1 708 0
 3201 000c 4FF41E71 		mov	r1, #632
 3202              		.loc 1 707 0
 3203 0010 0392     		str	r2, [sp, #12]
 3204              		.loc 1 708 0
 3205 0012 0022     		movs	r2, #0
 3206 0014 0092     		str	r2, [sp]
 3207 0016 4022     		movs	r2, #64
 3208 0018 FFF7FEFF 		bl	chThdCreateStatic
 3209              	.LVL304:
 3210              		.loc 1 709 0
 3211 001c 039A     		ldr	r2, [sp, #12]
 3212 001e 2368     		ldr	r3, [r4]
 3213 0020 9A42     		cmp	r2, r3
 3214 0022 01D1     		bne	.L283
 3215 0024 04B0     		add	sp, sp, #16
 3216              		.cfi_remember_state
 3217              		.cfi_def_cfa_offset 8
 3218              		@ sp needed
 3219 0026 10BD     		pop	{r4, pc}
 3220              	.L283:
 3221              		.cfi_restore_state
 3222 0028 FFF7FEFF 		bl	__stack_chk_fail
 3223              	.LVL305:
 3224              	.L285:
 3225              		.align	2
 3226              	.L284:
 3227 002c 00000000 		.word	__stack_chk_guard
 3228 0030 00000000 		.word	PiRegulator
 3229 0034 00000000 		.word	.LANCHOR9
 3230              		.cfi_endproc
 3231              	.LFE307:
 3232              		.size	pi_regulator_start, .-pi_regulator_start
 3233              		.section	.bss.angle,"aw",%nobits
 3234              		.align	2
 3235              		.set	.LANCHOR4,. + 0
 3236              		.type	angle, %object
 3237              		.size	angle, 4
 3238              	angle:
 3239 0000 00000000 		.space	4
 3240              		.section	.bss.micBack_cmplx_input,"aw",%nobits
 3241              		.align	2
 3242              		.type	micBack_cmplx_input, %object
 3243              		.size	micBack_cmplx_input, 8192
 3244              	micBack_cmplx_input:
 3245 0000 00000000 		.space	8192
 3245      00000000 
 3245      00000000 
 3245      00000000 
ARM GAS  C:\Users\adrie\AppData\Local\Temp\cc7EdWgE.s 			page 58


 3245      00000000 
 3246              		.section	.bss.micBack_output,"aw",%nobits
 3247              		.align	2
 3248              		.type	micBack_output, %object
 3249              		.size	micBack_output, 4096
 3250              	micBack_output:
 3251 0000 00000000 		.space	4096
 3251      00000000 
 3251      00000000 
 3251      00000000 
 3251      00000000 
 3252              		.section	.bss.micFront_cmplx_input,"aw",%nobits
 3253              		.align	2
 3254              		.type	micFront_cmplx_input, %object
 3255              		.size	micFront_cmplx_input, 8192
 3256              	micFront_cmplx_input:
 3257 0000 00000000 		.space	8192
 3257      00000000 
 3257      00000000 
 3257      00000000 
 3257      00000000 
 3258              		.section	.bss.micFront_output,"aw",%nobits
 3259              		.align	2
 3260              		.type	micFront_output, %object
 3261              		.size	micFront_output, 4096
 3262              	micFront_output:
 3263 0000 00000000 		.space	4096
 3263      00000000 
 3263      00000000 
 3263      00000000 
 3263      00000000 
 3264              		.section	.bss.micLeft_cmplx_input,"aw",%nobits
 3265              		.align	2
 3266              		.type	micLeft_cmplx_input, %object
 3267              		.size	micLeft_cmplx_input, 8192
 3268              	micLeft_cmplx_input:
 3269 0000 00000000 		.space	8192
 3269      00000000 
 3269      00000000 
 3269      00000000 
 3269      00000000 
 3270              		.section	.bss.micLeft_output,"aw",%nobits
 3271              		.align	2
 3272              		.type	micLeft_output, %object
 3273              		.size	micLeft_output, 4096
 3274              	micLeft_output:
 3275 0000 00000000 		.space	4096
 3275      00000000 
 3275      00000000 
 3275      00000000 
 3275      00000000 
 3276              		.section	.bss.micRight_cmplx_input,"aw",%nobits
 3277              		.align	2
 3278              		.type	micRight_cmplx_input, %object
 3279              		.size	micRight_cmplx_input, 8192
 3280              	micRight_cmplx_input:
 3281 0000 00000000 		.space	8192
ARM GAS  C:\Users\adrie\AppData\Local\Temp\cc7EdWgE.s 			page 59


 3281      00000000 
 3281      00000000 
 3281      00000000 
 3281      00000000 
 3282              		.section	.bss.micRight_output,"aw",%nobits
 3283              		.align	2
 3284              		.type	micRight_output, %object
 3285              		.size	micRight_output, 4096
 3286              	micRight_output:
 3287 0000 00000000 		.space	4096
 3287      00000000 
 3287      00000000 
 3287      00000000 
 3287      00000000 
 3288              		.section	.bss.moyenne,"aw",%nobits
 3289              		.align	2
 3290              		.set	.LANCHOR2,. + 0
 3291              		.type	moyenne, %object
 3292              		.size	moyenne, 48
 3293              	moyenne:
 3294 0000 00000000 		.space	48
 3294      00000000 
 3294      00000000 
 3294      00000000 
 3294      00000000 
 3295              		.section	.bss.mustSend.14256,"aw",%nobits
 3296              		.set	.LANCHOR7,. + 0
 3297              		.type	mustSend.14256, %object
 3298              		.size	mustSend.14256, 1
 3299              	mustSend.14256:
 3300 0000 00       		.space	1
 3301              		.section	.bss.nb_samples.14255,"aw",%nobits
 3302              		.align	1
 3303              		.set	.LANCHOR6,. + 0
 3304              		.type	nb_samples.14255, %object
 3305              		.size	nb_samples.14255, 2
 3306              	nb_samples.14255:
 3307 0000 0000     		.space	2
 3308              		.section	.bss.nbr_passage,"aw",%nobits
 3309              		.align	2
 3310              		.set	.LANCHOR8,. + 0
 3311              		.type	nbr_passage, %object
 3312              		.size	nbr_passage, 4
 3313              	nbr_passage:
 3314 0000 00000000 		.space	4
 3315              		.section	.bss.sum_error.14346,"aw",%nobits
 3316              		.align	2
 3317              		.set	.LANCHOR3,. + 0
 3318              		.type	sum_error.14346, %object
 3319              		.size	sum_error.14346, 4
 3320              	sum_error.14346:
 3321 0000 00000000 		.space	4
 3322              		.section	.bss.waPiRegulator,"aw",%nobits
 3323              		.align	3
 3324              		.set	.LANCHOR9,. + 0
 3325              		.type	waPiRegulator, %object
 3326              		.size	waPiRegulator, 632
ARM GAS  C:\Users\adrie\AppData\Local\Temp\cc7EdWgE.s 			page 60


 3327              	waPiRegulator:
 3328 0000 00000000 		.space	632
 3328      00000000 
 3328      00000000 
 3328      00000000 
 3328      00000000 
 3329              		.section	.data.sendToComputer_sem,"aw",%progbits
 3330              		.align	2
 3331              		.set	.LANCHOR5,. + 0
 3332              		.type	sendToComputer_sem, %object
 3333              		.size	sendToComputer_sem, 12
 3334              	sendToComputer_sem:
 3335 0000 00000000 		.word	sendToComputer_sem
 3336 0004 00000000 		.word	sendToComputer_sem
 3337 0008 00000000 		.word	0
 3338              		.section	.rodata.__FUNCTION__.14351,"a",%progbits
 3339              		.align	2
 3340              		.set	.LANCHOR0,. + 0
 3341              		.type	__FUNCTION__.14351, %object
 3342              		.size	__FUNCTION__.14351, 12
 3343              	__FUNCTION__.14351:
 3344 0000 50695265 		.ascii	"PiRegulator\000"
 3344      67756C61 
 3344      746F7200 
 3345              		.section	.rodata.__func__.7153,"a",%progbits
 3346              		.align	2
 3347              		.set	.LANCHOR1,. + 0
 3348              		.type	__func__.7153, %object
 3349              		.size	__func__.7153, 12
 3350              	__func__.7153:
 3351 0000 63685379 		.ascii	"chSysUnlock\000"
 3351      73556E6C 
 3351      6F636B00 
 3352              		.section	.rodata.chprintf.constprop.2.str1.4,"aMS",%progbits,1
 3353              		.align	2
 3354              	.LC0:
 3355 0000 70756973 		.ascii	"puissance_source = %d, DISTANCE = %d \012\000"
 3355      73616E63 
 3355      655F736F 
 3355      75726365 
 3355      203D2025 
 3356              		.text
 3357              	.Letext0:
 3358              		.file 8 "c:\\users\\adrie\\onedrive\\documents\\eclipse\\eclipse_e-puck2\\tools\\gcc-arm-none-eabi
 3359              		.file 9 "c:\\users\\adrie\\onedrive\\documents\\eclipse\\eclipse_e-puck2\\tools\\gcc-arm-none-eabi
 3360              		.file 10 "c:\\users\\adrie\\onedrive\\documents\\eclipse\\eclipse_e-puck2\\tools\\gcc-arm-none-eab
 3361              		.file 11 "../lib/e-puck2_main-processor/ChibiOS//os/rt/ports/ARMCMx/compilers/GCC/chtypes.h"
 3362              		.file 12 "../lib/e-puck2_main-processor/ChibiOS//os/rt/include/chsystypes.h"
 3363              		.file 13 "../lib/e-puck2_main-processor/ChibiOS//os/rt/include/chschd.h"
 3364              		.file 14 "../lib/e-puck2_main-processor/ChibiOS//os/ext/CMSIS/include/core_cm4.h"
 3365              		.file 15 "../lib/e-puck2_main-processor/ChibiOS//os/ext/CMSIS/ST/system_stm32f4xx.h"
 3366              		.file 16 "../lib/e-puck2_main-processor/ChibiOS//os/ext/CMSIS/ST/stm32f407xx.h"
 3367              		.file 17 "../lib/e-puck2_main-processor/ChibiOS//os/rt/ports/ARMCMx/chcore.h"
 3368              		.file 18 "../lib/e-puck2_main-processor/ChibiOS//os/rt/ports/ARMCMx/chcore_v7m.h"
 3369              		.file 19 "../lib/e-puck2_main-processor/ChibiOS//os/rt/include/chdebug.h"
 3370              		.file 20 "../lib/e-puck2_main-processor/ChibiOS//os/rt/include/chtm.h"
 3371              		.file 21 "../lib/e-puck2_main-processor/ChibiOS//os/rt/include/chstats.h"
ARM GAS  C:\Users\adrie\AppData\Local\Temp\cc7EdWgE.s 			page 61


 3372              		.file 22 "../lib/e-puck2_main-processor/ChibiOS//os/rt/include/chsem.h"
 3373              		.file 23 "../lib/e-puck2_main-processor/ChibiOS//os/rt/include/chmtx.h"
 3374              		.file 24 "../lib/e-puck2_main-processor/ChibiOS//os/rt/include/chevents.h"
 3375              		.file 25 "../lib/e-puck2_main-processor/ChibiOS//os/rt/include/chqueues.h"
 3376              		.file 26 "../lib/e-puck2_main-processor/ChibiOS//os/rt/include/chstreams.h"
 3377              		.file 27 "../lib/e-puck2_main-processor/ChibiOS//os/hal/ports/STM32/STM32F4xx/stm32_dma.h"
 3378              		.file 28 "../lib/e-puck2_main-processor/ChibiOS//os/hal/include/hal_ioblock.h"
 3379              		.file 29 "../lib/e-puck2_main-processor/ChibiOS//os/hal/ports/STM32/LLD/GPIOv2/pal_lld.h"
 3380              		.file 30 "../lib/e-puck2_main-processor/ChibiOS//os/hal/include/adc.h"
 3381              		.file 31 "../lib/e-puck2_main-processor/ChibiOS//os/hal/ports/STM32/STM32F4xx/adc_lld.h"
 3382              		.file 32 "../lib/e-puck2_main-processor/ChibiOS//os/hal/include/can.h"
 3383              		.file 33 "../lib/e-puck2_main-processor/ChibiOS//os/hal/ports/STM32/LLD/can_lld.h"
 3384              		.file 34 "../lib/e-puck2_main-processor/ChibiOS//os/hal/include/dac.h"
 3385              		.file 35 "../lib/e-puck2_main-processor/ChibiOS//os/hal/ports/STM32/LLD/DACv1/dac_lld.h"
 3386              		.file 36 "../lib/e-puck2_main-processor/ChibiOS//os/hal/include/ext.h"
 3387              		.file 37 "../lib/e-puck2_main-processor/ChibiOS//os/hal/ports/STM32/LLD/ext_lld.h"
 3388              		.file 38 "../lib/e-puck2_main-processor/ChibiOS//os/hal/include/gpt.h"
 3389              		.file 39 "../lib/e-puck2_main-processor/ChibiOS//os/hal/ports/STM32/LLD/TIMv1/gpt_lld.h"
 3390              		.file 40 "../lib/e-puck2_main-processor/ChibiOS//os/hal/ports/STM32/LLD/TIMv1/stm32_tim.h"
 3391              		.file 41 "../lib/e-puck2_main-processor/ChibiOS//os/hal/include/i2c.h"
 3392              		.file 42 "../lib/e-puck2_main-processor/ChibiOS//os/hal/ports/STM32/LLD/I2Cv1/i2c_lld.h"
 3393              		.file 43 "../lib/e-puck2_main-processor/ChibiOS//os/hal/include/i2s.h"
 3394              		.file 44 "../lib/e-puck2_main-processor/ChibiOS//os/hal/ports/STM32/LLD/SPIv1/i2s_lld.h"
 3395              		.file 45 "../lib/e-puck2_main-processor/ChibiOS//os/hal/include/pwm.h"
 3396              		.file 46 "../lib/e-puck2_main-processor/ChibiOS//os/hal/ports/STM32/LLD/TIMv1/pwm_lld.h"
 3397              		.file 47 "../lib/e-puck2_main-processor/ChibiOS//os/hal/include/serial.h"
 3398              		.file 48 "../lib/e-puck2_main-processor/ChibiOS//os/hal/ports/STM32/LLD/USARTv1/serial_lld.h"
 3399              		.file 49 "../lib/e-puck2_main-processor/ChibiOS//os/hal/include/sdc.h"
 3400              		.file 50 "../lib/e-puck2_main-processor/ChibiOS//os/hal/ports/STM32/LLD/sdc_lld.h"
 3401              		.file 51 "../lib/e-puck2_main-processor/ChibiOS//os/hal/include/spi.h"
 3402              		.file 52 "../lib/e-puck2_main-processor/ChibiOS//os/hal/ports/STM32/LLD/SPIv1/spi_lld.h"
 3403              		.file 53 "../lib/e-puck2_main-processor/ChibiOS//os/hal/include/usb.h"
 3404              		.file 54 "../lib/e-puck2_main-processor/ChibiOS//os/hal/ports/STM32/LLD/OTGv1/usb_lld.h"
 3405              		.file 55 "../lib/e-puck2_main-processor/ChibiOS//os/hal/ports/STM32/LLD/OTGv1/stm32_otg.h"
 3406              		.file 56 "../lib/e-puck2_main-processor/ChibiOS//os/hal/include/serial_usb.h"
 3407              		.file 57 "../lib/e-puck2_main-processor/ChibiOS_ext/os/hal/include/../ports/STM32/STM32F4xx/dcmi_l
 3408              		.file 58 "c:\\users\\adrie\\onedrive\\documents\\eclipse\\eclipse_e-puck2\\tools\\gcc-arm-none-eab
 3409              		.file 59 "c:\\users\\adrie\\onedrive\\documents\\eclipse\\eclipse_e-puck2\\tools\\gcc-arm-none-eab
 3410              		.file 60 "<built-in>"
 3411              		.file 61 "c:\\users\\adrie\\onedrive\\documents\\eclipse\\eclipse_e-puck2\\tools\\gcc-arm-none-eab
 3412              		.file 62 "../lib/e-puck2_main-processor/src/msgbus/messagebus.h"
 3413              		.file 63 "c:\\users\\adrie\\onedrive\\documents\\eclipse\\eclipse_e-puck2\\tools\\gcc-arm-none-eab
 3414              		.file 64 "c:\\users\\adrie\\onedrive\\documents\\eclipse\\eclipse_e-puck2\\tools\\gcc-arm-none-eab
 3415              		.file 65 "../lib/e-puck2_main-processor/src/parameter/parameter.h"
 3416              		.file 66 "./main.h"
 3417              		.file 67 "../lib/e-puck2_main-processor/src/usbcfg.h"
 3418              		.file 68 "c:\\users\\adrie\\onedrive\\documents\\eclipse\\eclipse_e-puck2\\tools\\gcc-arm-none-eab
 3419              		.file 69 "./audio_processing.h"
 3420              		.file 70 "c:\\users\\adrie\\onedrive\\documents\\eclipse\\eclipse_e-puck2\\tools\\gcc-arm-none-eab
 3421              		.file 71 "../lib/e-puck2_main-processor/src/leds.h"
 3422              		.file 72 "../lib/e-puck2_main-processor/ChibiOS//os/rt/include/chthreads.h"
 3423              		.file 73 "../lib/e-puck2_main-processor/src/motors.h"
 3424              		.file 74 "./fft.h"
 3425              		.file 75 "../lib/e-puck2_main-processor/ChibiOS//os/ext/CMSIS/include/arm_math.h"
 3426              		.section	.debug_info,"",%progbits
 3427              	.Ldebug_info0:
 3428 0000 085C0000 		.4byte	0x5c08
ARM GAS  C:\Users\adrie\AppData\Local\Temp\cc7EdWgE.s 			page 62


 3429 0004 0400     		.2byte	0x4
 3430 0006 00000000 		.4byte	.Ldebug_abbrev0
 3431 000a 04       		.byte	0x4
 3432 000b 01       		.uleb128 0x1
 3433 000c 06110000 		.4byte	.LASF1042
 3434 0010 0C       		.byte	0xc
 3435 0011 C00B0000 		.4byte	.LASF1043
 3436 0015 89070000 		.4byte	.LASF1044
 3437 0019 90040000 		.4byte	.Ldebug_ranges0+0x490
 3438 001d 00000000 		.4byte	0
 3439 0021 00000000 		.4byte	.Ldebug_line0
 3440 0025 02       		.uleb128 0x2
 3441 0026 04       		.byte	0x4
 3442 0027 04       		.byte	0x4
 3443 0028 350B0000 		.4byte	.LASF0
 3444 002c 03       		.uleb128 0x3
 3445 002d 04       		.byte	0x4
 3446 002e 05       		.byte	0x5
 3447 002f 696E7400 		.ascii	"int\000"
 3448 0033 02       		.uleb128 0x2
 3449 0034 08       		.byte	0x8
 3450 0035 04       		.byte	0x4
 3451 0036 72210000 		.4byte	.LASF1
 3452 003a 04       		.uleb128 0x4
 3453 003b A20E0000 		.4byte	.LASF6
 3454 003f 08       		.byte	0x8
 3455 0040 D8       		.byte	0xd8
 3456 0041 45000000 		.4byte	0x45
 3457 0045 02       		.uleb128 0x2
 3458 0046 04       		.byte	0x4
 3459 0047 07       		.byte	0x7
 3460 0048 272A0000 		.4byte	.LASF2
 3461 004c 02       		.uleb128 0x2
 3462 004d 08       		.byte	0x8
 3463 004e 05       		.byte	0x5
 3464 004f 2D270000 		.4byte	.LASF3
 3465 0053 02       		.uleb128 0x2
 3466 0054 08       		.byte	0x8
 3467 0055 04       		.byte	0x4
 3468 0056 711C0000 		.4byte	.LASF4
 3469 005a 02       		.uleb128 0x2
 3470 005b 01       		.byte	0x1
 3471 005c 06       		.byte	0x6
 3472 005d D0170000 		.4byte	.LASF5
 3473 0061 04       		.uleb128 0x4
 3474 0062 F6000000 		.4byte	.LASF7
 3475 0066 09       		.byte	0x9
 3476 0067 2B       		.byte	0x2b
 3477 0068 6C000000 		.4byte	0x6c
 3478 006c 02       		.uleb128 0x2
 3479 006d 01       		.byte	0x1
 3480 006e 08       		.byte	0x8
 3481 006f 9D0A0000 		.4byte	.LASF8
 3482 0073 04       		.uleb128 0x4
 3483 0074 C3080000 		.4byte	.LASF9
 3484 0078 09       		.byte	0x9
 3485 0079 37       		.byte	0x37
ARM GAS  C:\Users\adrie\AppData\Local\Temp\cc7EdWgE.s 			page 63


 3486 007a 7E000000 		.4byte	0x7e
 3487 007e 02       		.uleb128 0x2
 3488 007f 02       		.byte	0x2
 3489 0080 05       		.byte	0x5
 3490 0081 C22A0000 		.4byte	.LASF10
 3491 0085 04       		.uleb128 0x4
 3492 0086 CD080000 		.4byte	.LASF11
 3493 008a 09       		.byte	0x9
 3494 008b 39       		.byte	0x39
 3495 008c 90000000 		.4byte	0x90
 3496 0090 02       		.uleb128 0x2
 3497 0091 02       		.byte	0x2
 3498 0092 07       		.byte	0x7
 3499 0093 B5170000 		.4byte	.LASF12
 3500 0097 04       		.uleb128 0x4
 3501 0098 2E220000 		.4byte	.LASF13
 3502 009c 09       		.byte	0x9
 3503 009d 4D       		.byte	0x4d
 3504 009e A2000000 		.4byte	0xa2
 3505 00a2 02       		.uleb128 0x2
 3506 00a3 04       		.byte	0x4
 3507 00a4 05       		.byte	0x5
 3508 00a5 F81A0000 		.4byte	.LASF14
 3509 00a9 04       		.uleb128 0x4
 3510 00aa 38220000 		.4byte	.LASF15
 3511 00ae 09       		.byte	0x9
 3512 00af 4F       		.byte	0x4f
 3513 00b0 B4000000 		.4byte	0xb4
 3514 00b4 02       		.uleb128 0x2
 3515 00b5 04       		.byte	0x4
 3516 00b6 07       		.byte	0x7
 3517 00b7 C91C0000 		.4byte	.LASF16
 3518 00bb 04       		.uleb128 0x4
 3519 00bc 62130000 		.4byte	.LASF17
 3520 00c0 09       		.byte	0x9
 3521 00c1 69       		.byte	0x69
 3522 00c2 C6000000 		.4byte	0xc6
 3523 00c6 02       		.uleb128 0x2
 3524 00c7 08       		.byte	0x8
 3525 00c8 07       		.byte	0x7
 3526 00c9 56240000 		.4byte	.LASF18
 3527 00cd 04       		.uleb128 0x4
 3528 00ce D60E0000 		.4byte	.LASF19
 3529 00d2 0A       		.byte	0xa
 3530 00d3 18       		.byte	0x18
 3531 00d4 61000000 		.4byte	0x61
 3532 00d8 05       		.uleb128 0x5
 3533 00d9 CD000000 		.4byte	0xcd
 3534 00dd 04       		.uleb128 0x4
 3535 00de 98170000 		.4byte	.LASF20
 3536 00e2 0A       		.byte	0xa
 3537 00e3 20       		.byte	0x20
 3538 00e4 73000000 		.4byte	0x73
 3539 00e8 04       		.uleb128 0x4
 3540 00e9 1B020000 		.4byte	.LASF21
 3541 00ed 0A       		.byte	0xa
 3542 00ee 24       		.byte	0x24
ARM GAS  C:\Users\adrie\AppData\Local\Temp\cc7EdWgE.s 			page 64


 3543 00ef 85000000 		.4byte	0x85
 3544 00f3 04       		.uleb128 0x4
 3545 00f4 14040000 		.4byte	.LASF22
 3546 00f8 0A       		.byte	0xa
 3547 00f9 2C       		.byte	0x2c
 3548 00fa 97000000 		.4byte	0x97
 3549 00fe 06       		.uleb128 0x6
 3550 00ff F3000000 		.4byte	0xf3
 3551 0103 04       		.uleb128 0x4
 3552 0104 1A1C0000 		.4byte	.LASF23
 3553 0108 0A       		.byte	0xa
 3554 0109 30       		.byte	0x30
 3555 010a A9000000 		.4byte	0xa9
 3556 010e 06       		.uleb128 0x6
 3557 010f 03010000 		.4byte	0x103
 3558 0113 05       		.uleb128 0x5
 3559 0114 0E010000 		.4byte	0x10e
 3560 0118 04       		.uleb128 0x4
 3561 0119 1B0C0000 		.4byte	.LASF24
 3562 011d 0A       		.byte	0xa
 3563 011e 3C       		.byte	0x3c
 3564 011f BB000000 		.4byte	0xbb
 3565 0123 04       		.uleb128 0x4
 3566 0124 0F0E0000 		.4byte	.LASF25
 3567 0128 0B       		.byte	0xb
 3568 0129 45       		.byte	0x45
 3569 012a 03010000 		.4byte	0x103
 3570 012e 04       		.uleb128 0x4
 3571 012f 79060000 		.4byte	.LASF26
 3572 0133 0B       		.byte	0xb
 3573 0134 46       		.byte	0x46
 3574 0135 18010000 		.4byte	0x118
 3575 0139 04       		.uleb128 0x4
 3576 013a 43150000 		.4byte	.LASF27
 3577 013e 0B       		.byte	0xb
 3578 013f 48       		.byte	0x48
 3579 0140 CD000000 		.4byte	0xcd
 3580 0144 04       		.uleb128 0x4
 3581 0145 7E250000 		.4byte	.LASF28
 3582 0149 0B       		.byte	0xb
 3583 014a 49       		.byte	0x49
 3584 014b CD000000 		.4byte	0xcd
 3585 014f 04       		.uleb128 0x4
 3586 0150 B6140000 		.4byte	.LASF29
 3587 0154 0B       		.byte	0xb
 3588 0155 4A       		.byte	0x4a
 3589 0156 CD000000 		.4byte	0xcd
 3590 015a 04       		.uleb128 0x4
 3591 015b 02170000 		.4byte	.LASF30
 3592 015f 0B       		.byte	0xb
 3593 0160 4B       		.byte	0x4b
 3594 0161 CD000000 		.4byte	0xcd
 3595 0165 04       		.uleb128 0x4
 3596 0166 50070000 		.4byte	.LASF31
 3597 016a 0B       		.byte	0xb
 3598 016b 4C       		.byte	0x4c
 3599 016c 03010000 		.4byte	0x103
ARM GAS  C:\Users\adrie\AppData\Local\Temp\cc7EdWgE.s 			page 65


 3600 0170 04       		.uleb128 0x4
 3601 0171 97000000 		.4byte	.LASF32
 3602 0175 0B       		.byte	0xb
 3603 0176 4D       		.byte	0x4d
 3604 0177 F3000000 		.4byte	0xf3
 3605 017b 04       		.uleb128 0x4
 3606 017c 861C0000 		.4byte	.LASF33
 3607 0180 0B       		.byte	0xb
 3608 0181 4F       		.byte	0x4f
 3609 0182 03010000 		.4byte	0x103
 3610 0186 04       		.uleb128 0x4
 3611 0187 E0270000 		.4byte	.LASF34
 3612 018b 0B       		.byte	0xb
 3613 018c 50       		.byte	0x50
 3614 018d 03010000 		.4byte	0x103
 3615 0191 04       		.uleb128 0x4
 3616 0192 CB1F0000 		.4byte	.LASF35
 3617 0196 0B       		.byte	0xb
 3618 0197 51       		.byte	0x51
 3619 0198 F3000000 		.4byte	0xf3
 3620 019c 04       		.uleb128 0x4
 3621 019d FB170000 		.4byte	.LASF36
 3622 01a1 0B       		.byte	0xb
 3623 01a2 52       		.byte	0x52
 3624 01a3 03010000 		.4byte	0x103
 3625 01a7 04       		.uleb128 0x4
 3626 01a8 3F040000 		.4byte	.LASF37
 3627 01ac 0C       		.byte	0xc
 3628 01ad 33       		.byte	0x33
 3629 01ae 03010000 		.4byte	0x103
 3630 01b2 06       		.uleb128 0x6
 3631 01b3 A7010000 		.4byte	0x1a7
 3632 01b7 04       		.uleb128 0x4
 3633 01b8 B2030000 		.4byte	.LASF38
 3634 01bc 0C       		.byte	0xc
 3635 01bd 3F       		.byte	0x3f
 3636 01be C2010000 		.4byte	0x1c2
 3637 01c2 07       		.uleb128 0x7
 3638 01c3 F10A0000 		.4byte	.LASF62
 3639 01c7 68       		.byte	0x68
 3640 01c8 0D       		.byte	0xd
 3641 01c9 C2       		.byte	0xc2
 3642 01ca E0020000 		.4byte	0x2e0
 3643 01ce 08       		.uleb128 0x8
 3644 01cf 51140000 		.4byte	.LASF39
 3645 01d3 0D       		.byte	0xd
 3646 01d4 C3       		.byte	0xc3
 3647 01d5 EB020000 		.4byte	0x2eb
 3648 01d9 00       		.byte	0
 3649 01da 08       		.uleb128 0x8
 3650 01db F60E0000 		.4byte	.LASF40
 3651 01df 0D       		.byte	0xd
 3652 01e0 C5       		.byte	0xc5
 3653 01e1 EB020000 		.4byte	0x2eb
 3654 01e5 04       		.byte	0x4
 3655 01e6 08       		.uleb128 0x8
 3656 01e7 2E130000 		.4byte	.LASF41
ARM GAS  C:\Users\adrie\AppData\Local\Temp\cc7EdWgE.s 			page 66


 3657 01eb 0D       		.byte	0xd
 3658 01ec C7       		.byte	0xc7
 3659 01ed 65010000 		.4byte	0x165
 3660 01f1 08       		.byte	0x8
 3661 01f2 08       		.uleb128 0x8
 3662 01f3 910B0000 		.4byte	.LASF42
 3663 01f7 0D       		.byte	0xd
 3664 01f8 C8       		.byte	0xc8
 3665 01f9 970D0000 		.4byte	0xd97
 3666 01fd 0C       		.byte	0xc
 3667 01fe 08       		.uleb128 0x8
 3668 01ff CD020000 		.4byte	.LASF43
 3669 0203 0D       		.byte	0xd
 3670 0204 CA       		.byte	0xca
 3671 0205 EB020000 		.4byte	0x2eb
 3672 0209 10       		.byte	0x10
 3673 020a 08       		.uleb128 0x8
 3674 020b 7D280000 		.4byte	.LASF44
 3675 020f 0D       		.byte	0xd
 3676 0210 CB       		.byte	0xcb
 3677 0211 EB020000 		.4byte	0x2eb
 3678 0215 14       		.byte	0x14
 3679 0216 08       		.uleb128 0x8
 3680 0217 FE250000 		.4byte	.LASF45
 3681 021b 0D       		.byte	0xd
 3682 021c D2       		.byte	0xd2
 3683 021d 0D110000 		.4byte	0x110d
 3684 0221 18       		.byte	0x18
 3685 0222 08       		.uleb128 0x8
 3686 0223 C01F0000 		.4byte	.LASF46
 3687 0227 0D       		.byte	0xd
 3688 0228 D8       		.byte	0xd8
 3689 0229 24110000 		.4byte	0x1124
 3690 022d 1C       		.byte	0x1c
 3691 022e 08       		.uleb128 0x8
 3692 022f 882B0000 		.4byte	.LASF47
 3693 0233 0D       		.byte	0xd
 3694 0234 DD       		.byte	0xdd
 3695 0235 44010000 		.4byte	0x144
 3696 0239 20       		.byte	0x20
 3697 023a 08       		.uleb128 0x8
 3698 023b 14250000 		.4byte	.LASF48
 3699 023f 0D       		.byte	0xd
 3700 0240 E1       		.byte	0xe1
 3701 0241 39010000 		.4byte	0x139
 3702 0245 21       		.byte	0x21
 3703 0246 08       		.uleb128 0x8
 3704 0247 CB1A0000 		.4byte	.LASF49
 3705 024b 0D       		.byte	0xd
 3706 024c E6       		.byte	0xe6
 3707 024d 4F010000 		.4byte	0x14f
 3708 0251 22       		.byte	0x22
 3709 0252 08       		.uleb128 0x8
 3710 0253 F1170000 		.4byte	.LASF50
 3711 0257 0D       		.byte	0xd
 3712 0258 EC       		.byte	0xec
 3713 0259 5A010000 		.4byte	0x15a
ARM GAS  C:\Users\adrie\AppData\Local\Temp\cc7EdWgE.s 			page 67


 3714 025d 23       		.byte	0x23
 3715 025e 08       		.uleb128 0x8
 3716 025f C41A0000 		.4byte	.LASF51
 3717 0263 0D       		.byte	0xd
 3718 0264 F3       		.byte	0xf3
 3719 0265 B2010000 		.4byte	0x1b2
 3720 0269 24       		.byte	0x24
 3721 026a 09       		.uleb128 0x9
 3722 026b 705F7500 		.ascii	"p_u\000"
 3723 026f 0D       		.byte	0xd
 3724 0270 3101     		.2byte	0x131
 3725 0272 3C100000 		.4byte	0x103c
 3726 0276 28       		.byte	0x28
 3727 0277 0A       		.uleb128 0xa
 3728 0278 CD050000 		.4byte	.LASF52
 3729 027c 0D       		.byte	0xd
 3730 027d 3601     		.2byte	0x136
 3731 027f F1020000 		.4byte	0x2f1
 3732 0283 2C       		.byte	0x2c
 3733 0284 0A       		.uleb128 0xa
 3734 0285 84180000 		.4byte	.LASF53
 3735 0289 0D       		.byte	0xd
 3736 028a 3C01     		.2byte	0x13c
 3737 028c 15030000 		.4byte	0x315
 3738 0290 30       		.byte	0x30
 3739 0291 0A       		.uleb128 0xa
 3740 0292 F0080000 		.4byte	.LASF54
 3741 0296 0D       		.byte	0xd
 3742 0297 4001     		.2byte	0x140
 3743 0299 70010000 		.4byte	0x170
 3744 029d 38       		.byte	0x38
 3745 029e 0A       		.uleb128 0xa
 3746 029f FC220000 		.4byte	.LASF55
 3747 02a3 0D       		.byte	0xd
 3748 02a4 4601     		.2byte	0x146
 3749 02a6 7B010000 		.4byte	0x17b
 3750 02aa 3C       		.byte	0x3c
 3751 02ab 0A       		.uleb128 0xa
 3752 02ac 69250000 		.4byte	.LASF56
 3753 02b0 0D       		.byte	0xd
 3754 02b1 4D01     		.2byte	0x14d
 3755 02b3 07110000 		.4byte	0x1107
 3756 02b7 40       		.byte	0x40
 3757 02b8 0A       		.uleb128 0xa
 3758 02b9 36210000 		.4byte	.LASF57
 3759 02bd 0D       		.byte	0xd
 3760 02be 5101     		.2byte	0x151
 3761 02c0 65010000 		.4byte	0x165
 3762 02c4 44       		.byte	0x44
 3763 02c5 0A       		.uleb128 0xa
 3764 02c6 BE140000 		.4byte	.LASF58
 3765 02ca 0D       		.byte	0xd
 3766 02cb 5801     		.2byte	0x158
 3767 02cd C8030000 		.4byte	0x3c8
 3768 02d1 48       		.byte	0x48
 3769 02d2 0A       		.uleb128 0xa
 3770 02d3 C32B0000 		.4byte	.LASF59
ARM GAS  C:\Users\adrie\AppData\Local\Temp\cc7EdWgE.s 			page 68


 3771 02d7 0D       		.byte	0xd
 3772 02d8 5E01     		.2byte	0x15e
 3773 02da ED0F0000 		.4byte	0xfed
 3774 02de 50       		.byte	0x50
 3775 02df 00       		.byte	0
 3776 02e0 04       		.uleb128 0x4
 3777 02e1 03290000 		.4byte	.LASF60
 3778 02e5 0C       		.byte	0xc
 3779 02e6 44       		.byte	0x44
 3780 02e7 EB020000 		.4byte	0x2eb
 3781 02eb 0B       		.uleb128 0xb
 3782 02ec 04       		.byte	0x4
 3783 02ed B7010000 		.4byte	0x1b7
 3784 02f1 04       		.uleb128 0x4
 3785 02f2 0C060000 		.4byte	.LASF61
 3786 02f6 0C       		.byte	0xc
 3787 02f7 49       		.byte	0x49
 3788 02f8 FC020000 		.4byte	0x2fc
 3789 02fc 07       		.uleb128 0x7
 3790 02fd A22B0000 		.4byte	.LASF63
 3791 0301 04       		.byte	0x4
 3792 0302 0D       		.byte	0xd
 3793 0303 B0       		.byte	0xb0
 3794 0304 15030000 		.4byte	0x315
 3795 0308 08       		.uleb128 0x8
 3796 0309 51140000 		.4byte	.LASF39
 3797 030d 0D       		.byte	0xd
 3798 030e B1       		.byte	0xb1
 3799 030f EB020000 		.4byte	0x2eb
 3800 0313 00       		.byte	0
 3801 0314 00       		.byte	0
 3802 0315 04       		.uleb128 0x4
 3803 0316 8E1A0000 		.4byte	.LASF64
 3804 031a 0C       		.byte	0xc
 3805 031b 50       		.byte	0x50
 3806 031c 20030000 		.4byte	0x320
 3807 0320 07       		.uleb128 0x7
 3808 0321 A4020000 		.4byte	.LASF65
 3809 0325 08       		.byte	0x8
 3810 0326 0D       		.byte	0xd
 3811 0327 B7       		.byte	0xb7
 3812 0328 45030000 		.4byte	0x345
 3813 032c 08       		.uleb128 0x8
 3814 032d 51140000 		.4byte	.LASF39
 3815 0331 0D       		.byte	0xd
 3816 0332 B8       		.byte	0xb8
 3817 0333 EB020000 		.4byte	0x2eb
 3818 0337 00       		.byte	0
 3819 0338 08       		.uleb128 0x8
 3820 0339 F60E0000 		.4byte	.LASF40
 3821 033d 0D       		.byte	0xd
 3822 033e B9       		.byte	0xb9
 3823 033f EB020000 		.4byte	0x2eb
 3824 0343 04       		.byte	0x4
 3825 0344 00       		.byte	0
 3826 0345 04       		.uleb128 0x4
 3827 0346 E40A0000 		.4byte	.LASF66
ARM GAS  C:\Users\adrie\AppData\Local\Temp\cc7EdWgE.s 			page 69


 3828 034a 0C       		.byte	0xc
 3829 034b 57       		.byte	0x57
 3830 034c 50030000 		.4byte	0x350
 3831 0350 0C       		.uleb128 0xc
 3832 0351 14220000 		.4byte	.LASF67
 3833 0355 1C       		.byte	0x1c
 3834 0356 0D       		.byte	0xd
 3835 0357 9001     		.2byte	0x190
 3836 0359 AC030000 		.4byte	0x3ac
 3837 035d 0A       		.uleb128 0xa
 3838 035e C61D0000 		.4byte	.LASF68
 3839 0362 0D       		.byte	0xd
 3840 0363 9101     		.2byte	0x191
 3841 0365 15030000 		.4byte	0x315
 3842 0369 00       		.byte	0
 3843 036a 0A       		.uleb128 0xa
 3844 036b 2D240000 		.4byte	.LASF69
 3845 036f 0D       		.byte	0xd
 3846 0370 9201     		.2byte	0x192
 3847 0372 65010000 		.4byte	0x165
 3848 0376 08       		.byte	0x8
 3849 0377 0A       		.uleb128 0xa
 3850 0378 DB0D0000 		.4byte	.LASF70
 3851 037c 0D       		.byte	0xd
 3852 037d 9401     		.2byte	0x194
 3853 037f 970D0000 		.4byte	0xd97
 3854 0383 0C       		.byte	0xc
 3855 0384 0A       		.uleb128 0xa
 3856 0385 92160000 		.4byte	.LASF71
 3857 0389 0D       		.byte	0xd
 3858 038a 9701     		.2byte	0x197
 3859 038c EB020000 		.4byte	0x2eb
 3860 0390 10       		.byte	0x10
 3861 0391 0A       		.uleb128 0xa
 3862 0392 EE0E0000 		.4byte	.LASF72
 3863 0396 0D       		.byte	0xd
 3864 0397 9801     		.2byte	0x198
 3865 0399 EB020000 		.4byte	0x2eb
 3866 039d 14       		.byte	0x14
 3867 039e 0A       		.uleb128 0xa
 3868 039f B60B0000 		.4byte	.LASF73
 3869 03a3 0D       		.byte	0xd
 3870 03a4 9B01     		.2byte	0x19b
 3871 03a6 EB020000 		.4byte	0x2eb
 3872 03aa 18       		.byte	0x18
 3873 03ab 00       		.byte	0
 3874 03ac 04       		.uleb128 0x4
 3875 03ad DF200000 		.4byte	.LASF74
 3876 03b1 0C       		.byte	0xc
 3877 03b2 5C       		.byte	0x5c
 3878 03b3 B7030000 		.4byte	0x3b7
 3879 03b7 0B       		.uleb128 0xb
 3880 03b8 04       		.byte	0x4
 3881 03b9 BD030000 		.4byte	0x3bd
 3882 03bd 0D       		.uleb128 0xd
 3883 03be C8030000 		.4byte	0x3c8
 3884 03c2 0E       		.uleb128 0xe
ARM GAS  C:\Users\adrie\AppData\Local\Temp\cc7EdWgE.s 			page 70


 3885 03c3 C8030000 		.4byte	0x3c8
 3886 03c7 00       		.byte	0
 3887 03c8 0F       		.uleb128 0xf
 3888 03c9 04       		.byte	0x4
 3889 03ca 04       		.uleb128 0x4
 3890 03cb BF0D0000 		.4byte	.LASF75
 3891 03cf 0C       		.byte	0xc
 3892 03d0 61       		.byte	0x61
 3893 03d1 D5030000 		.4byte	0x3d5
 3894 03d5 0C       		.uleb128 0xc
 3895 03d6 03250000 		.4byte	.LASF76
 3896 03da 14       		.byte	0x14
 3897 03db 0D       		.byte	0xd
 3898 03dc 6B01     		.2byte	0x16b
 3899 03de 24040000 		.4byte	0x424
 3900 03e2 0A       		.uleb128 0xa
 3901 03e3 E10D0000 		.4byte	.LASF77
 3902 03e7 0D       		.byte	0xd
 3903 03e8 6C01     		.2byte	0x16c
 3904 03ea 2A110000 		.4byte	0x112a
 3905 03ee 00       		.byte	0
 3906 03ef 0A       		.uleb128 0xa
 3907 03f0 690A0000 		.4byte	.LASF78
 3908 03f4 0D       		.byte	0xd
 3909 03f5 6D01     		.2byte	0x16d
 3910 03f7 2A110000 		.4byte	0x112a
 3911 03fb 04       		.byte	0x4
 3912 03fc 0A       		.uleb128 0xa
 3913 03fd 62170000 		.4byte	.LASF79
 3914 0401 0D       		.byte	0xd
 3915 0402 6E01     		.2byte	0x16e
 3916 0404 A7010000 		.4byte	0x1a7
 3917 0408 08       		.byte	0x8
 3918 0409 0A       		.uleb128 0xa
 3919 040a EE240000 		.4byte	.LASF80
 3920 040e 0D       		.byte	0xd
 3921 040f 6F01     		.2byte	0x16f
 3922 0411 AC030000 		.4byte	0x3ac
 3923 0415 0C       		.byte	0xc
 3924 0416 0A       		.uleb128 0xa
 3925 0417 970B0000 		.4byte	.LASF81
 3926 041b 0D       		.byte	0xd
 3927 041c 7101     		.2byte	0x171
 3928 041e C8030000 		.4byte	0x3c8
 3929 0422 10       		.byte	0x10
 3930 0423 00       		.byte	0
 3931 0424 04       		.uleb128 0x4
 3932 0425 76260000 		.4byte	.LASF82
 3933 0429 0C       		.byte	0xc
 3934 042a 66       		.byte	0x66
 3935 042b 2F040000 		.4byte	0x42f
 3936 042f 0C       		.uleb128 0xc
 3937 0430 DC030000 		.4byte	.LASF83
 3938 0434 10       		.byte	0x10
 3939 0435 0D       		.byte	0xd
 3940 0436 7B01     		.2byte	0x17b
 3941 0438 71040000 		.4byte	0x471
ARM GAS  C:\Users\adrie\AppData\Local\Temp\cc7EdWgE.s 			page 71


 3942 043c 0A       		.uleb128 0xa
 3943 043d E10D0000 		.4byte	.LASF77
 3944 0441 0D       		.byte	0xd
 3945 0442 7C01     		.2byte	0x17c
 3946 0444 2A110000 		.4byte	0x112a
 3947 0448 00       		.byte	0
 3948 0449 0A       		.uleb128 0xa
 3949 044a 690A0000 		.4byte	.LASF78
 3950 044e 0D       		.byte	0xd
 3951 044f 7E01     		.2byte	0x17e
 3952 0451 2A110000 		.4byte	0x112a
 3953 0455 04       		.byte	0x4
 3954 0456 0A       		.uleb128 0xa
 3955 0457 62170000 		.4byte	.LASF79
 3956 045b 0D       		.byte	0xd
 3957 045c 8001     		.2byte	0x180
 3958 045e A7010000 		.4byte	0x1a7
 3959 0462 08       		.byte	0x8
 3960 0463 0A       		.uleb128 0xa
 3961 0464 7E010000 		.4byte	.LASF84
 3962 0468 0D       		.byte	0xd
 3963 0469 8201     		.2byte	0x182
 3964 046b B2010000 		.4byte	0x1b2
 3965 046f 0C       		.byte	0xc
 3966 0470 00       		.byte	0
 3967 0471 04       		.uleb128 0x4
 3968 0472 6A0B0000 		.4byte	.LASF85
 3969 0476 0C       		.byte	0xc
 3970 0477 6B       		.byte	0x6b
 3971 0478 7C040000 		.4byte	0x47c
 3972 047c 10       		.uleb128 0x10
 3973 047d 43220000 		.4byte	.LASF86
 3974 0481 1404     		.2byte	0x414
 3975 0483 0D       		.byte	0xd
 3976 0484 A201     		.2byte	0x1a2
 3977 0486 BF040000 		.4byte	0x4bf
 3978 048a 0A       		.uleb128 0xa
 3979 048b 69160000 		.4byte	.LASF87
 3980 048f 0D       		.byte	0xd
 3981 0490 AA01     		.2byte	0x1aa
 3982 0492 13110000 		.4byte	0x1113
 3983 0496 00       		.byte	0
 3984 0497 0A       		.uleb128 0xa
 3985 0498 2D160000 		.4byte	.LASF88
 3986 049c 0D       		.byte	0xd
 3987 049d AF01     		.2byte	0x1af
 3988 049f 91010000 		.4byte	0x191
 3989 04a3 04       		.byte	0x4
 3990 04a4 0A       		.uleb128 0xa
 3991 04a5 9B020000 		.4byte	.LASF89
 3992 04a9 0D       		.byte	0xd
 3993 04aa B301     		.2byte	0x1b3
 3994 04ac 91010000 		.4byte	0x191
 3995 04b0 08       		.byte	0x8
 3996 04b1 0A       		.uleb128 0xa
 3997 04b2 A0190000 		.4byte	.LASF90
 3998 04b6 0D       		.byte	0xd
ARM GAS  C:\Users\adrie\AppData\Local\Temp\cc7EdWgE.s 			page 72


 3999 04b7 B901     		.2byte	0x1b9
 4000 04b9 7F0F0000 		.4byte	0xf7f
 4001 04bd 0C       		.byte	0xc
 4002 04be 00       		.byte	0
 4003 04bf 04       		.uleb128 0x4
 4004 04c0 EA000000 		.4byte	.LASF91
 4005 04c4 0C       		.byte	0xc
 4006 04c5 70       		.byte	0x70
 4007 04c6 CA040000 		.4byte	0x4ca
 4008 04ca 10       		.uleb128 0x10
 4009 04cb 89190000 		.4byte	.LASF92
 4010 04cf 7006     		.2byte	0x670
 4011 04d1 0D       		.byte	0xd
 4012 04d2 C201     		.2byte	0x1c2
 4013 04d4 37050000 		.4byte	0x537
 4014 04d8 0A       		.uleb128 0xa
 4015 04d9 06060000 		.4byte	.LASF93
 4016 04dd 0D       		.byte	0xd
 4017 04de C601     		.2byte	0x1c6
 4018 04e0 45030000 		.4byte	0x345
 4019 04e4 00       		.byte	0
 4020 04e5 0A       		.uleb128 0xa
 4021 04e6 B7050000 		.4byte	.LASF94
 4022 04ea 0D       		.byte	0xd
 4023 04eb CA01     		.2byte	0x1ca
 4024 04ed 24040000 		.4byte	0x424
 4025 04f1 1C       		.byte	0x1c
 4026 04f2 09       		.uleb128 0x9
 4027 04f3 64626700 		.ascii	"dbg\000"
 4028 04f7 0D       		.byte	0xd
 4029 04f8 CE01     		.2byte	0x1ce
 4030 04fa 71040000 		.4byte	0x471
 4031 04fe 2C       		.byte	0x2c
 4032 04ff 11       		.uleb128 0x11
 4033 0500 011B0000 		.4byte	.LASF95
 4034 0504 0D       		.byte	0xd
 4035 0505 D201     		.2byte	0x1d2
 4036 0507 B7010000 		.4byte	0x1b7
 4037 050b 4004     		.2byte	0x440
 4038 050d 12       		.uleb128 0x12
 4039 050e 746D00   		.ascii	"tm\000"
 4040 0511 0D       		.byte	0xd
 4041 0512 D701     		.2byte	0x1d7
 4042 0514 9F0F0000 		.4byte	0xf9f
 4043 0518 A804     		.2byte	0x4a8
 4044 051a 11       		.uleb128 0x11
 4045 051b A90E0000 		.4byte	.LASF96
 4046 051f 0D       		.byte	0xd
 4047 0520 DD01     		.2byte	0x1dd
 4048 0522 31100000 		.4byte	0x1031
 4049 0526 B004     		.2byte	0x4b0
 4050 0528 11       		.uleb128 0x11
 4051 0529 CB240000 		.4byte	.LASF97
 4052 052d 0D       		.byte	0xd
 4053 052e E301     		.2byte	0x1e3
 4054 0530 30110000 		.4byte	0x1130
 4055 0534 E804     		.2byte	0x4e8
ARM GAS  C:\Users\adrie\AppData\Local\Temp\cc7EdWgE.s 			page 73


 4056 0536 00       		.byte	0
 4057 0537 13       		.uleb128 0x13
 4058 0538 03010000 		.4byte	0x103
 4059 053c 47050000 		.4byte	0x547
 4060 0540 14       		.uleb128 0x14
 4061 0541 45000000 		.4byte	0x45
 4062 0545 01       		.byte	0x1
 4063 0546 00       		.byte	0
 4064 0547 13       		.uleb128 0x13
 4065 0548 03010000 		.4byte	0x103
 4066 054c 57050000 		.4byte	0x557
 4067 0550 14       		.uleb128 0x14
 4068 0551 45000000 		.4byte	0x45
 4069 0555 07       		.byte	0x7
 4070 0556 00       		.byte	0
 4071 0557 15       		.uleb128 0x15
 4072 0558 39240000 		.4byte	.LASF98
 4073 055c 0E       		.byte	0xe
 4074 055d A706     		.2byte	0x6a7
 4075 055f FE000000 		.4byte	0xfe
 4076 0563 16       		.uleb128 0x16
 4077 0564 E4180000 		.4byte	.LASF99
 4078 0568 0F       		.byte	0xf
 4079 0569 4C       		.byte	0x4c
 4080 056a 03010000 		.4byte	0x103
 4081 056e 17       		.uleb128 0x17
 4082 056f 50       		.byte	0x50
 4083 0570 10       		.byte	0x10
 4084 0571 C4       		.byte	0xc4
 4085 0572 65060000 		.4byte	0x665
 4086 0576 18       		.uleb128 0x18
 4087 0577 535200   		.ascii	"SR\000"
 4088 057a 10       		.byte	0x10
 4089 057b C6       		.byte	0xc6
 4090 057c 0E010000 		.4byte	0x10e
 4091 0580 00       		.byte	0
 4092 0581 18       		.uleb128 0x18
 4093 0582 43523100 		.ascii	"CR1\000"
 4094 0586 10       		.byte	0x10
 4095 0587 C7       		.byte	0xc7
 4096 0588 0E010000 		.4byte	0x10e
 4097 058c 04       		.byte	0x4
 4098 058d 18       		.uleb128 0x18
 4099 058e 43523200 		.ascii	"CR2\000"
 4100 0592 10       		.byte	0x10
 4101 0593 C8       		.byte	0xc8
 4102 0594 0E010000 		.4byte	0x10e
 4103 0598 08       		.byte	0x8
 4104 0599 08       		.uleb128 0x8
 4105 059a E0020000 		.4byte	.LASF100
 4106 059e 10       		.byte	0x10
 4107 059f C9       		.byte	0xc9
 4108 05a0 0E010000 		.4byte	0x10e
 4109 05a4 0C       		.byte	0xc
 4110 05a5 08       		.uleb128 0x8
 4111 05a6 E6020000 		.4byte	.LASF101
 4112 05aa 10       		.byte	0x10
ARM GAS  C:\Users\adrie\AppData\Local\Temp\cc7EdWgE.s 			page 74


 4113 05ab CA       		.byte	0xca
 4114 05ac 0E010000 		.4byte	0x10e
 4115 05b0 10       		.byte	0x10
 4116 05b1 08       		.uleb128 0x8
 4117 05b2 9E0B0000 		.4byte	.LASF102
 4118 05b6 10       		.byte	0x10
 4119 05b7 CB       		.byte	0xcb
 4120 05b8 0E010000 		.4byte	0x10e
 4121 05bc 14       		.byte	0x14
 4122 05bd 08       		.uleb128 0x8
 4123 05be A40B0000 		.4byte	.LASF103
 4124 05c2 10       		.byte	0x10
 4125 05c3 CC       		.byte	0xcc
 4126 05c4 0E010000 		.4byte	0x10e
 4127 05c8 18       		.byte	0x18
 4128 05c9 08       		.uleb128 0x8
 4129 05ca AA0B0000 		.4byte	.LASF104
 4130 05ce 10       		.byte	0x10
 4131 05cf CD       		.byte	0xcd
 4132 05d0 0E010000 		.4byte	0x10e
 4133 05d4 1C       		.byte	0x1c
 4134 05d5 08       		.uleb128 0x8
 4135 05d6 B00B0000 		.4byte	.LASF105
 4136 05da 10       		.byte	0x10
 4137 05db CE       		.byte	0xce
 4138 05dc 0E010000 		.4byte	0x10e
 4139 05e0 20       		.byte	0x20
 4140 05e1 18       		.uleb128 0x18
 4141 05e2 48545200 		.ascii	"HTR\000"
 4142 05e6 10       		.byte	0x10
 4143 05e7 CF       		.byte	0xcf
 4144 05e8 0E010000 		.4byte	0x10e
 4145 05ec 24       		.byte	0x24
 4146 05ed 18       		.uleb128 0x18
 4147 05ee 4C545200 		.ascii	"LTR\000"
 4148 05f2 10       		.byte	0x10
 4149 05f3 D0       		.byte	0xd0
 4150 05f4 0E010000 		.4byte	0x10e
 4151 05f8 28       		.byte	0x28
 4152 05f9 08       		.uleb128 0x8
 4153 05fa 67150000 		.4byte	.LASF106
 4154 05fe 10       		.byte	0x10
 4155 05ff D1       		.byte	0xd1
 4156 0600 0E010000 		.4byte	0x10e
 4157 0604 2C       		.byte	0x2c
 4158 0605 08       		.uleb128 0x8
 4159 0606 6C150000 		.4byte	.LASF107
 4160 060a 10       		.byte	0x10
 4161 060b D2       		.byte	0xd2
 4162 060c 0E010000 		.4byte	0x10e
 4163 0610 30       		.byte	0x30
 4164 0611 08       		.uleb128 0x8
 4165 0612 71150000 		.4byte	.LASF108
 4166 0616 10       		.byte	0x10
 4167 0617 D3       		.byte	0xd3
 4168 0618 0E010000 		.4byte	0x10e
 4169 061c 34       		.byte	0x34
ARM GAS  C:\Users\adrie\AppData\Local\Temp\cc7EdWgE.s 			page 75


 4170 061d 08       		.uleb128 0x8
 4171 061e 900D0000 		.4byte	.LASF109
 4172 0622 10       		.byte	0x10
 4173 0623 D4       		.byte	0xd4
 4174 0624 0E010000 		.4byte	0x10e
 4175 0628 38       		.byte	0x38
 4176 0629 08       		.uleb128 0x8
 4177 062a 1D260000 		.4byte	.LASF110
 4178 062e 10       		.byte	0x10
 4179 062f D5       		.byte	0xd5
 4180 0630 0E010000 		.4byte	0x10e
 4181 0634 3C       		.byte	0x3c
 4182 0635 08       		.uleb128 0x8
 4183 0636 22260000 		.4byte	.LASF111
 4184 063a 10       		.byte	0x10
 4185 063b D6       		.byte	0xd6
 4186 063c 0E010000 		.4byte	0x10e
 4187 0640 40       		.byte	0x40
 4188 0641 08       		.uleb128 0x8
 4189 0642 27260000 		.4byte	.LASF112
 4190 0646 10       		.byte	0x10
 4191 0647 D7       		.byte	0xd7
 4192 0648 0E010000 		.4byte	0x10e
 4193 064c 44       		.byte	0x44
 4194 064d 08       		.uleb128 0x8
 4195 064e 2C260000 		.4byte	.LASF113
 4196 0652 10       		.byte	0x10
 4197 0653 D8       		.byte	0xd8
 4198 0654 0E010000 		.4byte	0x10e
 4199 0658 48       		.byte	0x48
 4200 0659 18       		.uleb128 0x18
 4201 065a 445200   		.ascii	"DR\000"
 4202 065d 10       		.byte	0x10
 4203 065e D9       		.byte	0xd9
 4204 065f 0E010000 		.4byte	0x10e
 4205 0663 4C       		.byte	0x4c
 4206 0664 00       		.byte	0
 4207 0665 04       		.uleb128 0x4
 4208 0666 A9170000 		.4byte	.LASF114
 4209 066a 10       		.byte	0x10
 4210 066b DA       		.byte	0xda
 4211 066c 6E050000 		.4byte	0x56e
 4212 0670 17       		.uleb128 0x17
 4213 0671 10       		.byte	0x10
 4214 0672 10       		.byte	0x10
 4215 0673 E9       		.byte	0xe9
 4216 0674 A9060000 		.4byte	0x6a9
 4217 0678 18       		.uleb128 0x18
 4218 0679 54495200 		.ascii	"TIR\000"
 4219 067d 10       		.byte	0x10
 4220 067e EB       		.byte	0xeb
 4221 067f 0E010000 		.4byte	0x10e
 4222 0683 00       		.byte	0
 4223 0684 08       		.uleb128 0x8
 4224 0685 DA120000 		.4byte	.LASF115
 4225 0689 10       		.byte	0x10
 4226 068a EC       		.byte	0xec
ARM GAS  C:\Users\adrie\AppData\Local\Temp\cc7EdWgE.s 			page 76


 4227 068b 0E010000 		.4byte	0x10e
 4228 068f 04       		.byte	0x4
 4229 0690 08       		.uleb128 0x8
 4230 0691 F31A0000 		.4byte	.LASF116
 4231 0695 10       		.byte	0x10
 4232 0696 ED       		.byte	0xed
 4233 0697 0E010000 		.4byte	0x10e
 4234 069b 08       		.byte	0x8
 4235 069c 08       		.uleb128 0x8
 4236 069d 02180000 		.4byte	.LASF117
 4237 06a1 10       		.byte	0x10
 4238 06a2 EE       		.byte	0xee
 4239 06a3 0E010000 		.4byte	0x10e
 4240 06a7 0C       		.byte	0xc
 4241 06a8 00       		.byte	0
 4242 06a9 04       		.uleb128 0x4
 4243 06aa F0050000 		.4byte	.LASF118
 4244 06ae 10       		.byte	0x10
 4245 06af EF       		.byte	0xef
 4246 06b0 70060000 		.4byte	0x670
 4247 06b4 17       		.uleb128 0x17
 4248 06b5 10       		.byte	0x10
 4249 06b6 10       		.byte	0x10
 4250 06b7 F5       		.byte	0xf5
 4251 06b8 ED060000 		.4byte	0x6ed
 4252 06bc 18       		.uleb128 0x18
 4253 06bd 52495200 		.ascii	"RIR\000"
 4254 06c1 10       		.byte	0x10
 4255 06c2 F7       		.byte	0xf7
 4256 06c3 0E010000 		.4byte	0x10e
 4257 06c7 00       		.byte	0
 4258 06c8 08       		.uleb128 0x8
 4259 06c9 E2210000 		.4byte	.LASF119
 4260 06cd 10       		.byte	0x10
 4261 06ce F8       		.byte	0xf8
 4262 06cf 0E010000 		.4byte	0x10e
 4263 06d3 04       		.byte	0x4
 4264 06d4 08       		.uleb128 0x8
 4265 06d5 421C0000 		.4byte	.LASF120
 4266 06d9 10       		.byte	0x10
 4267 06da F9       		.byte	0xf9
 4268 06db 0E010000 		.4byte	0x10e
 4269 06df 08       		.byte	0x8
 4270 06e0 08       		.uleb128 0x8
 4271 06e1 6A190000 		.4byte	.LASF121
 4272 06e5 10       		.byte	0x10
 4273 06e6 FA       		.byte	0xfa
 4274 06e7 0E010000 		.4byte	0x10e
 4275 06eb 0C       		.byte	0xc
 4276 06ec 00       		.byte	0
 4277 06ed 04       		.uleb128 0x4
 4278 06ee E8200000 		.4byte	.LASF122
 4279 06f2 10       		.byte	0x10
 4280 06f3 FB       		.byte	0xfb
 4281 06f4 B4060000 		.4byte	0x6b4
 4282 06f8 19       		.uleb128 0x19
 4283 06f9 08       		.byte	0x8
ARM GAS  C:\Users\adrie\AppData\Local\Temp\cc7EdWgE.s 			page 77


 4284 06fa 10       		.byte	0x10
 4285 06fb 0101     		.2byte	0x101
 4286 06fd 1C070000 		.4byte	0x71c
 4287 0701 09       		.uleb128 0x9
 4288 0702 46523100 		.ascii	"FR1\000"
 4289 0706 10       		.byte	0x10
 4290 0707 0301     		.2byte	0x103
 4291 0709 0E010000 		.4byte	0x10e
 4292 070d 00       		.byte	0
 4293 070e 09       		.uleb128 0x9
 4294 070f 46523200 		.ascii	"FR2\000"
 4295 0713 10       		.byte	0x10
 4296 0714 0401     		.2byte	0x104
 4297 0716 0E010000 		.4byte	0x10e
 4298 071a 04       		.byte	0x4
 4299 071b 00       		.byte	0
 4300 071c 1A       		.uleb128 0x1a
 4301 071d DF120000 		.4byte	.LASF123
 4302 0721 10       		.byte	0x10
 4303 0722 0501     		.2byte	0x105
 4304 0724 F8060000 		.4byte	0x6f8
 4305 0728 1B       		.uleb128 0x1b
 4306 0729 2003     		.2byte	0x320
 4307 072b 10       		.byte	0x10
 4308 072c 0B01     		.2byte	0x10b
 4309 072e 5E080000 		.4byte	0x85e
 4310 0732 09       		.uleb128 0x9
 4311 0733 4D435200 		.ascii	"MCR\000"
 4312 0737 10       		.byte	0x10
 4313 0738 0D01     		.2byte	0x10d
 4314 073a 0E010000 		.4byte	0x10e
 4315 073e 00       		.byte	0
 4316 073f 09       		.uleb128 0x9
 4317 0740 4D535200 		.ascii	"MSR\000"
 4318 0744 10       		.byte	0x10
 4319 0745 0E01     		.2byte	0x10e
 4320 0747 0E010000 		.4byte	0x10e
 4321 074b 04       		.byte	0x4
 4322 074c 09       		.uleb128 0x9
 4323 074d 54535200 		.ascii	"TSR\000"
 4324 0751 10       		.byte	0x10
 4325 0752 0F01     		.2byte	0x10f
 4326 0754 0E010000 		.4byte	0x10e
 4327 0758 08       		.byte	0x8
 4328 0759 0A       		.uleb128 0xa
 4329 075a D10F0000 		.4byte	.LASF124
 4330 075e 10       		.byte	0x10
 4331 075f 1001     		.2byte	0x110
 4332 0761 0E010000 		.4byte	0x10e
 4333 0765 0C       		.byte	0xc
 4334 0766 0A       		.uleb128 0xa
 4335 0767 A0100000 		.4byte	.LASF125
 4336 076b 10       		.byte	0x10
 4337 076c 1101     		.2byte	0x111
 4338 076e 0E010000 		.4byte	0x10e
 4339 0772 10       		.byte	0x10
 4340 0773 09       		.uleb128 0x9
ARM GAS  C:\Users\adrie\AppData\Local\Temp\cc7EdWgE.s 			page 78


 4341 0774 49455200 		.ascii	"IER\000"
 4342 0778 10       		.byte	0x10
 4343 0779 1201     		.2byte	0x112
 4344 077b 0E010000 		.4byte	0x10e
 4345 077f 14       		.byte	0x14
 4346 0780 09       		.uleb128 0x9
 4347 0781 45535200 		.ascii	"ESR\000"
 4348 0785 10       		.byte	0x10
 4349 0786 1301     		.2byte	0x113
 4350 0788 0E010000 		.4byte	0x10e
 4351 078c 18       		.byte	0x18
 4352 078d 09       		.uleb128 0x9
 4353 078e 42545200 		.ascii	"BTR\000"
 4354 0792 10       		.byte	0x10
 4355 0793 1401     		.2byte	0x114
 4356 0795 0E010000 		.4byte	0x10e
 4357 0799 1C       		.byte	0x1c
 4358 079a 0A       		.uleb128 0xa
 4359 079b 39230000 		.4byte	.LASF126
 4360 079f 10       		.byte	0x10
 4361 07a0 1501     		.2byte	0x115
 4362 07a2 5E080000 		.4byte	0x85e
 4363 07a6 20       		.byte	0x20
 4364 07a7 11       		.uleb128 0x11
 4365 07a8 23140000 		.4byte	.LASF127
 4366 07ac 10       		.byte	0x10
 4367 07ad 1601     		.2byte	0x116
 4368 07af 6E080000 		.4byte	0x86e
 4369 07b3 8001     		.2byte	0x180
 4370 07b5 11       		.uleb128 0x11
 4371 07b6 03280000 		.4byte	.LASF128
 4372 07ba 10       		.byte	0x10
 4373 07bb 1701     		.2byte	0x117
 4374 07bd 7E080000 		.4byte	0x87e
 4375 07c1 B001     		.2byte	0x1b0
 4376 07c3 11       		.uleb128 0x11
 4377 07c4 43230000 		.4byte	.LASF129
 4378 07c8 10       		.byte	0x10
 4379 07c9 1801     		.2byte	0x118
 4380 07cb 8E080000 		.4byte	0x88e
 4381 07cf D001     		.2byte	0x1d0
 4382 07d1 12       		.uleb128 0x12
 4383 07d2 464D5200 		.ascii	"FMR\000"
 4384 07d6 10       		.byte	0x10
 4385 07d7 1901     		.2byte	0x119
 4386 07d9 0E010000 		.4byte	0x10e
 4387 07dd 0002     		.2byte	0x200
 4388 07df 11       		.uleb128 0x11
 4389 07e0 4F0C0000 		.4byte	.LASF130
 4390 07e4 10       		.byte	0x10
 4391 07e5 1A01     		.2byte	0x11a
 4392 07e7 0E010000 		.4byte	0x10e
 4393 07eb 0402     		.2byte	0x204
 4394 07ed 11       		.uleb128 0x11
 4395 07ee 4D230000 		.4byte	.LASF131
 4396 07f2 10       		.byte	0x10
 4397 07f3 1B01     		.2byte	0x11b
ARM GAS  C:\Users\adrie\AppData\Local\Temp\cc7EdWgE.s 			page 79


 4398 07f5 03010000 		.4byte	0x103
 4399 07f9 0802     		.2byte	0x208
 4400 07fb 11       		.uleb128 0x11
 4401 07fc 79250000 		.4byte	.LASF132
 4402 0800 10       		.byte	0x10
 4403 0801 1C01     		.2byte	0x11c
 4404 0803 0E010000 		.4byte	0x10e
 4405 0807 0C02     		.2byte	0x20c
 4406 0809 11       		.uleb128 0x11
 4407 080a 57230000 		.4byte	.LASF133
 4408 080e 10       		.byte	0x10
 4409 080f 1D01     		.2byte	0x11d
 4410 0811 03010000 		.4byte	0x103
 4411 0815 1002     		.2byte	0x210
 4412 0817 11       		.uleb128 0x11
 4413 0818 A51C0000 		.4byte	.LASF134
 4414 081c 10       		.byte	0x10
 4415 081d 1E01     		.2byte	0x11e
 4416 081f 0E010000 		.4byte	0x10e
 4417 0823 1402     		.2byte	0x214
 4418 0825 11       		.uleb128 0x11
 4419 0826 61230000 		.4byte	.LASF135
 4420 082a 10       		.byte	0x10
 4421 082b 1F01     		.2byte	0x11f
 4422 082d 03010000 		.4byte	0x103
 4423 0831 1802     		.2byte	0x218
 4424 0833 11       		.uleb128 0x11
 4425 0834 9F040000 		.4byte	.LASF136
 4426 0838 10       		.byte	0x10
 4427 0839 2001     		.2byte	0x120
 4428 083b 0E010000 		.4byte	0x10e
 4429 083f 1C02     		.2byte	0x21c
 4430 0841 11       		.uleb128 0x11
 4431 0842 6B230000 		.4byte	.LASF137
 4432 0846 10       		.byte	0x10
 4433 0847 2101     		.2byte	0x121
 4434 0849 47050000 		.4byte	0x547
 4435 084d 2002     		.2byte	0x220
 4436 084f 11       		.uleb128 0x11
 4437 0850 9C060000 		.4byte	.LASF138
 4438 0854 10       		.byte	0x10
 4439 0855 2201     		.2byte	0x122
 4440 0857 9E080000 		.4byte	0x89e
 4441 085b 4002     		.2byte	0x240
 4442 085d 00       		.byte	0
 4443 085e 13       		.uleb128 0x13
 4444 085f 03010000 		.4byte	0x103
 4445 0863 6E080000 		.4byte	0x86e
 4446 0867 14       		.uleb128 0x14
 4447 0868 45000000 		.4byte	0x45
 4448 086c 57       		.byte	0x57
 4449 086d 00       		.byte	0
 4450 086e 13       		.uleb128 0x13
 4451 086f A9060000 		.4byte	0x6a9
 4452 0873 7E080000 		.4byte	0x87e
 4453 0877 14       		.uleb128 0x14
 4454 0878 45000000 		.4byte	0x45
ARM GAS  C:\Users\adrie\AppData\Local\Temp\cc7EdWgE.s 			page 80


 4455 087c 02       		.byte	0x2
 4456 087d 00       		.byte	0
 4457 087e 13       		.uleb128 0x13
 4458 087f ED060000 		.4byte	0x6ed
 4459 0883 8E080000 		.4byte	0x88e
 4460 0887 14       		.uleb128 0x14
 4461 0888 45000000 		.4byte	0x45
 4462 088c 01       		.byte	0x1
 4463 088d 00       		.byte	0
 4464 088e 13       		.uleb128 0x13
 4465 088f 03010000 		.4byte	0x103
 4466 0893 9E080000 		.4byte	0x89e
 4467 0897 14       		.uleb128 0x14
 4468 0898 45000000 		.4byte	0x45
 4469 089c 0B       		.byte	0xb
 4470 089d 00       		.byte	0
 4471 089e 13       		.uleb128 0x13
 4472 089f 1C070000 		.4byte	0x71c
 4473 08a3 AE080000 		.4byte	0x8ae
 4474 08a7 14       		.uleb128 0x14
 4475 08a8 45000000 		.4byte	0x45
 4476 08ac 1B       		.byte	0x1b
 4477 08ad 00       		.byte	0
 4478 08ae 1A       		.uleb128 0x1a
 4479 08af 710E0000 		.4byte	.LASF139
 4480 08b3 10       		.byte	0x10
 4481 08b4 2301     		.2byte	0x123
 4482 08b6 28070000 		.4byte	0x728
 4483 08ba 19       		.uleb128 0x19
 4484 08bb 38       		.byte	0x38
 4485 08bc 10       		.byte	0x10
 4486 08bd 3601     		.2byte	0x136
 4487 08bf 78090000 		.4byte	0x978
 4488 08c3 09       		.uleb128 0x9
 4489 08c4 435200   		.ascii	"CR\000"
 4490 08c7 10       		.byte	0x10
 4491 08c8 3801     		.2byte	0x138
 4492 08ca 0E010000 		.4byte	0x10e
 4493 08ce 00       		.byte	0
 4494 08cf 0A       		.uleb128 0xa
 4495 08d0 2F190000 		.4byte	.LASF140
 4496 08d4 10       		.byte	0x10
 4497 08d5 3901     		.2byte	0x139
 4498 08d7 0E010000 		.4byte	0x10e
 4499 08db 04       		.byte	0x4
 4500 08dc 0A       		.uleb128 0xa
 4501 08dd 87230000 		.4byte	.LASF141
 4502 08e1 10       		.byte	0x10
 4503 08e2 3A01     		.2byte	0x13a
 4504 08e4 0E010000 		.4byte	0x10e
 4505 08e8 08       		.byte	0x8
 4506 08e9 0A       		.uleb128 0xa
 4507 08ea 511F0000 		.4byte	.LASF142
 4508 08ee 10       		.byte	0x10
 4509 08ef 3B01     		.2byte	0x13b
 4510 08f1 0E010000 		.4byte	0x10e
 4511 08f5 0C       		.byte	0xc
ARM GAS  C:\Users\adrie\AppData\Local\Temp\cc7EdWgE.s 			page 81


 4512 08f6 0A       		.uleb128 0xa
 4513 08f7 790B0000 		.4byte	.LASF143
 4514 08fb 10       		.byte	0x10
 4515 08fc 3C01     		.2byte	0x13c
 4516 08fe 0E010000 		.4byte	0x10e
 4517 0902 10       		.byte	0x10
 4518 0903 0A       		.uleb128 0xa
 4519 0904 8F230000 		.4byte	.LASF144
 4520 0908 10       		.byte	0x10
 4521 0909 3D01     		.2byte	0x13d
 4522 090b 0E010000 		.4byte	0x10e
 4523 090f 14       		.byte	0x14
 4524 0910 0A       		.uleb128 0xa
 4525 0911 591F0000 		.4byte	.LASF145
 4526 0915 10       		.byte	0x10
 4527 0916 3E01     		.2byte	0x13e
 4528 0918 0E010000 		.4byte	0x10e
 4529 091c 18       		.byte	0x18
 4530 091d 0A       		.uleb128 0xa
 4531 091e 800B0000 		.4byte	.LASF146
 4532 0922 10       		.byte	0x10
 4533 0923 3F01     		.2byte	0x13f
 4534 0925 0E010000 		.4byte	0x10e
 4535 0929 1C       		.byte	0x1c
 4536 092a 0A       		.uleb128 0xa
 4537 092b EF230000 		.4byte	.LASF147
 4538 092f 10       		.byte	0x10
 4539 0930 4001     		.2byte	0x140
 4540 0932 0E010000 		.4byte	0x10e
 4541 0936 20       		.byte	0x20
 4542 0937 0A       		.uleb128 0xa
 4543 0938 921F0000 		.4byte	.LASF148
 4544 093c 10       		.byte	0x10
 4545 093d 4101     		.2byte	0x141
 4546 093f 0E010000 		.4byte	0x10e
 4547 0943 24       		.byte	0x24
 4548 0944 0A       		.uleb128 0xa
 4549 0945 2A280000 		.4byte	.LASF149
 4550 0949 10       		.byte	0x10
 4551 094a 4201     		.2byte	0x142
 4552 094c 0E010000 		.4byte	0x10e
 4553 0950 28       		.byte	0x28
 4554 0951 0A       		.uleb128 0xa
 4555 0952 89010000 		.4byte	.LASF150
 4556 0956 10       		.byte	0x10
 4557 0957 4301     		.2byte	0x143
 4558 0959 0E010000 		.4byte	0x10e
 4559 095d 2C       		.byte	0x2c
 4560 095e 0A       		.uleb128 0xa
 4561 095f 8E010000 		.4byte	.LASF151
 4562 0963 10       		.byte	0x10
 4563 0964 4401     		.2byte	0x144
 4564 0966 0E010000 		.4byte	0x10e
 4565 096a 30       		.byte	0x30
 4566 096b 09       		.uleb128 0x9
 4567 096c 535200   		.ascii	"SR\000"
 4568 096f 10       		.byte	0x10
ARM GAS  C:\Users\adrie\AppData\Local\Temp\cc7EdWgE.s 			page 82


 4569 0970 4501     		.2byte	0x145
 4570 0972 0E010000 		.4byte	0x10e
 4571 0976 34       		.byte	0x34
 4572 0977 00       		.byte	0
 4573 0978 1A       		.uleb128 0x1a
 4574 0979 00210000 		.4byte	.LASF152
 4575 097d 10       		.byte	0x10
 4576 097e 4601     		.2byte	0x146
 4577 0980 BA080000 		.4byte	0x8ba
 4578 0984 19       		.uleb128 0x19
 4579 0985 2C       		.byte	0x2c
 4580 0986 10       		.byte	0x10
 4581 0987 5801     		.2byte	0x158
 4582 0989 1A0A0000 		.4byte	0xa1a
 4583 098d 09       		.uleb128 0x9
 4584 098e 435200   		.ascii	"CR\000"
 4585 0991 10       		.byte	0x10
 4586 0992 5A01     		.2byte	0x15a
 4587 0994 0E010000 		.4byte	0x10e
 4588 0998 00       		.byte	0
 4589 0999 09       		.uleb128 0x9
 4590 099a 535200   		.ascii	"SR\000"
 4591 099d 10       		.byte	0x10
 4592 099e 5B01     		.2byte	0x15b
 4593 09a0 0E010000 		.4byte	0x10e
 4594 09a4 04       		.byte	0x4
 4595 09a5 0A       		.uleb128 0xa
 4596 09a6 D90A0000 		.4byte	.LASF153
 4597 09aa 10       		.byte	0x10
 4598 09ab 5C01     		.2byte	0x15c
 4599 09ad 0E010000 		.4byte	0x10e
 4600 09b1 08       		.byte	0x8
 4601 09b2 09       		.uleb128 0x9
 4602 09b3 49455200 		.ascii	"IER\000"
 4603 09b7 10       		.byte	0x10
 4604 09b8 5D01     		.2byte	0x15d
 4605 09ba 0E010000 		.4byte	0x10e
 4606 09be 0C       		.byte	0xc
 4607 09bf 0A       		.uleb128 0xa
 4608 09c0 34240000 		.4byte	.LASF154
 4609 09c4 10       		.byte	0x10
 4610 09c5 5E01     		.2byte	0x15e
 4611 09c7 0E010000 		.4byte	0x10e
 4612 09cb 10       		.byte	0x10
 4613 09cc 09       		.uleb128 0x9
 4614 09cd 49435200 		.ascii	"ICR\000"
 4615 09d1 10       		.byte	0x10
 4616 09d2 5F01     		.2byte	0x15f
 4617 09d4 0E010000 		.4byte	0x10e
 4618 09d8 14       		.byte	0x14
 4619 09d9 0A       		.uleb128 0xa
 4620 09da B01D0000 		.4byte	.LASF155
 4621 09de 10       		.byte	0x10
 4622 09df 6001     		.2byte	0x160
 4623 09e1 0E010000 		.4byte	0x10e
 4624 09e5 18       		.byte	0x18
 4625 09e6 0A       		.uleb128 0xa
ARM GAS  C:\Users\adrie\AppData\Local\Temp\cc7EdWgE.s 			page 83


 4626 09e7 A82A0000 		.4byte	.LASF156
 4627 09eb 10       		.byte	0x10
 4628 09ec 6101     		.2byte	0x161
 4629 09ee 0E010000 		.4byte	0x10e
 4630 09f2 1C       		.byte	0x1c
 4631 09f3 0A       		.uleb128 0xa
 4632 09f4 DF140000 		.4byte	.LASF157
 4633 09f8 10       		.byte	0x10
 4634 09f9 6201     		.2byte	0x162
 4635 09fb 0E010000 		.4byte	0x10e
 4636 09ff 20       		.byte	0x20
 4637 0a00 0A       		.uleb128 0xa
 4638 0a01 401E0000 		.4byte	.LASF158
 4639 0a05 10       		.byte	0x10
 4640 0a06 6301     		.2byte	0x163
 4641 0a08 0E010000 		.4byte	0x10e
 4642 0a0c 24       		.byte	0x24
 4643 0a0d 09       		.uleb128 0x9
 4644 0a0e 445200   		.ascii	"DR\000"
 4645 0a11 10       		.byte	0x10
 4646 0a12 6401     		.2byte	0x164
 4647 0a14 0E010000 		.4byte	0x10e
 4648 0a18 28       		.byte	0x28
 4649 0a19 00       		.byte	0
 4650 0a1a 1A       		.uleb128 0x1a
 4651 0a1b A4040000 		.4byte	.LASF159
 4652 0a1f 10       		.byte	0x10
 4653 0a20 6501     		.2byte	0x165
 4654 0a22 84090000 		.4byte	0x984
 4655 0a26 19       		.uleb128 0x19
 4656 0a27 18       		.byte	0x18
 4657 0a28 10       		.byte	0x10
 4658 0a29 6B01     		.2byte	0x16b
 4659 0a2b 7D0A0000 		.4byte	0xa7d
 4660 0a2f 09       		.uleb128 0x9
 4661 0a30 435200   		.ascii	"CR\000"
 4662 0a33 10       		.byte	0x10
 4663 0a34 6D01     		.2byte	0x16d
 4664 0a36 0E010000 		.4byte	0x10e
 4665 0a3a 00       		.byte	0
 4666 0a3b 0A       		.uleb128 0xa
 4667 0a3c A7240000 		.4byte	.LASF160
 4668 0a40 10       		.byte	0x10
 4669 0a41 6E01     		.2byte	0x16e
 4670 0a43 0E010000 		.4byte	0x10e
 4671 0a47 04       		.byte	0x4
 4672 0a48 09       		.uleb128 0x9
 4673 0a49 50415200 		.ascii	"PAR\000"
 4674 0a4d 10       		.byte	0x10
 4675 0a4e 6F01     		.2byte	0x16f
 4676 0a50 0E010000 		.4byte	0x10e
 4677 0a54 08       		.byte	0x8
 4678 0a55 0A       		.uleb128 0xa
 4679 0a56 71040000 		.4byte	.LASF161
 4680 0a5a 10       		.byte	0x10
 4681 0a5b 7001     		.2byte	0x170
 4682 0a5d 0E010000 		.4byte	0x10e
ARM GAS  C:\Users\adrie\AppData\Local\Temp\cc7EdWgE.s 			page 84


 4683 0a61 0C       		.byte	0xc
 4684 0a62 0A       		.uleb128 0xa
 4685 0a63 2F090000 		.4byte	.LASF162
 4686 0a67 10       		.byte	0x10
 4687 0a68 7101     		.2byte	0x171
 4688 0a6a 0E010000 		.4byte	0x10e
 4689 0a6e 10       		.byte	0x10
 4690 0a6f 09       		.uleb128 0x9
 4691 0a70 46435200 		.ascii	"FCR\000"
 4692 0a74 10       		.byte	0x10
 4693 0a75 7201     		.2byte	0x172
 4694 0a77 0E010000 		.4byte	0x10e
 4695 0a7b 14       		.byte	0x14
 4696 0a7c 00       		.byte	0
 4697 0a7d 1A       		.uleb128 0x1a
 4698 0a7e 39090000 		.4byte	.LASF163
 4699 0a82 10       		.byte	0x10
 4700 0a83 7301     		.2byte	0x173
 4701 0a85 260A0000 		.4byte	0xa26
 4702 0a89 13       		.uleb128 0x13
 4703 0a8a 0E010000 		.4byte	0x10e
 4704 0a8e 990A0000 		.4byte	0xa99
 4705 0a92 14       		.uleb128 0x14
 4706 0a93 45000000 		.4byte	0x45
 4707 0a97 01       		.byte	0x1
 4708 0a98 00       		.byte	0
 4709 0a99 06       		.uleb128 0x6
 4710 0a9a 890A0000 		.4byte	0xa89
 4711 0a9e 13       		.uleb128 0x13
 4712 0a9f 0E010000 		.4byte	0x10e
 4713 0aa3 AE0A0000 		.4byte	0xaae
 4714 0aa7 14       		.uleb128 0x14
 4715 0aa8 45000000 		.4byte	0x45
 4716 0aac 03       		.byte	0x3
 4717 0aad 00       		.byte	0
 4718 0aae 06       		.uleb128 0x6
 4719 0aaf 9E0A0000 		.4byte	0xa9e
 4720 0ab3 19       		.uleb128 0x19
 4721 0ab4 28       		.byte	0x28
 4722 0ab5 10       		.byte	0x10
 4723 0ab6 3F02     		.2byte	0x23f
 4724 0ab8 3E0B0000 		.4byte	0xb3e
 4725 0abc 09       		.uleb128 0x9
 4726 0abd 43523100 		.ascii	"CR1\000"
 4727 0ac1 10       		.byte	0x10
 4728 0ac2 4102     		.2byte	0x241
 4729 0ac4 0E010000 		.4byte	0x10e
 4730 0ac8 00       		.byte	0
 4731 0ac9 09       		.uleb128 0x9
 4732 0aca 43523200 		.ascii	"CR2\000"
 4733 0ace 10       		.byte	0x10
 4734 0acf 4202     		.2byte	0x242
 4735 0ad1 0E010000 		.4byte	0x10e
 4736 0ad5 04       		.byte	0x4
 4737 0ad6 0A       		.uleb128 0xa
 4738 0ad7 B92B0000 		.4byte	.LASF164
 4739 0adb 10       		.byte	0x10
ARM GAS  C:\Users\adrie\AppData\Local\Temp\cc7EdWgE.s 			page 85


 4740 0adc 4302     		.2byte	0x243
 4741 0ade 0E010000 		.4byte	0x10e
 4742 0ae2 08       		.byte	0x8
 4743 0ae3 0A       		.uleb128 0xa
 4744 0ae4 BE2B0000 		.4byte	.LASF165
 4745 0ae8 10       		.byte	0x10
 4746 0ae9 4402     		.2byte	0x244
 4747 0aeb 0E010000 		.4byte	0x10e
 4748 0aef 0C       		.byte	0xc
 4749 0af0 09       		.uleb128 0x9
 4750 0af1 445200   		.ascii	"DR\000"
 4751 0af4 10       		.byte	0x10
 4752 0af5 4502     		.2byte	0x245
 4753 0af7 0E010000 		.4byte	0x10e
 4754 0afb 10       		.byte	0x10
 4755 0afc 09       		.uleb128 0x9
 4756 0afd 53523100 		.ascii	"SR1\000"
 4757 0b01 10       		.byte	0x10
 4758 0b02 4602     		.2byte	0x246
 4759 0b04 0E010000 		.4byte	0x10e
 4760 0b08 14       		.byte	0x14
 4761 0b09 09       		.uleb128 0x9
 4762 0b0a 53523200 		.ascii	"SR2\000"
 4763 0b0e 10       		.byte	0x10
 4764 0b0f 4702     		.2byte	0x247
 4765 0b11 0E010000 		.4byte	0x10e
 4766 0b15 18       		.byte	0x18
 4767 0b16 09       		.uleb128 0x9
 4768 0b17 43435200 		.ascii	"CCR\000"
 4769 0b1b 10       		.byte	0x10
 4770 0b1c 4802     		.2byte	0x248
 4771 0b1e 0E010000 		.4byte	0x10e
 4772 0b22 1C       		.byte	0x1c
 4773 0b23 0A       		.uleb128 0xa
 4774 0b24 BE050000 		.4byte	.LASF166
 4775 0b28 10       		.byte	0x10
 4776 0b29 4902     		.2byte	0x249
 4777 0b2b 0E010000 		.4byte	0x10e
 4778 0b2f 20       		.byte	0x20
 4779 0b30 0A       		.uleb128 0xa
 4780 0b31 F0290000 		.4byte	.LASF167
 4781 0b35 10       		.byte	0x10
 4782 0b36 4A02     		.2byte	0x24a
 4783 0b38 0E010000 		.4byte	0x10e
 4784 0b3c 24       		.byte	0x24
 4785 0b3d 00       		.byte	0
 4786 0b3e 1A       		.uleb128 0x1a
 4787 0b3f 4B190000 		.4byte	.LASF168
 4788 0b43 10       		.byte	0x10
 4789 0b44 4B02     		.2byte	0x24b
 4790 0b46 B30A0000 		.4byte	0xab3
 4791 0b4a 19       		.uleb128 0x19
 4792 0b4b 84       		.byte	0x84
 4793 0b4c 10       		.byte	0x10
 4794 0b4d BF02     		.2byte	0x2bf
 4795 0b4f 580C0000 		.4byte	0xc58
 4796 0b53 0A       		.uleb128 0xa
ARM GAS  C:\Users\adrie\AppData\Local\Temp\cc7EdWgE.s 			page 86


 4797 0b54 93190000 		.4byte	.LASF169
 4798 0b58 10       		.byte	0x10
 4799 0b59 C102     		.2byte	0x2c1
 4800 0b5b 0E010000 		.4byte	0x10e
 4801 0b5f 00       		.byte	0
 4802 0b60 0A       		.uleb128 0xa
 4803 0b61 EE250000 		.4byte	.LASF170
 4804 0b65 10       		.byte	0x10
 4805 0b66 C202     		.2byte	0x2c2
 4806 0b68 0E010000 		.4byte	0x10e
 4807 0b6c 04       		.byte	0x4
 4808 0b6d 09       		.uleb128 0x9
 4809 0b6e 41524700 		.ascii	"ARG\000"
 4810 0b72 10       		.byte	0x10
 4811 0b73 C302     		.2byte	0x2c3
 4812 0b75 0E010000 		.4byte	0x10e
 4813 0b79 08       		.byte	0x8
 4814 0b7a 09       		.uleb128 0x9
 4815 0b7b 434D4400 		.ascii	"CMD\000"
 4816 0b7f 10       		.byte	0x10
 4817 0b80 C402     		.2byte	0x2c4
 4818 0b82 0E010000 		.4byte	0x10e
 4819 0b86 0C       		.byte	0xc
 4820 0b87 0A       		.uleb128 0xa
 4821 0b88 681D0000 		.4byte	.LASF171
 4822 0b8c 10       		.byte	0x10
 4823 0b8d C502     		.2byte	0x2c5
 4824 0b8f 13010000 		.4byte	0x113
 4825 0b93 10       		.byte	0x10
 4826 0b94 0A       		.uleb128 0xa
 4827 0b95 CB060000 		.4byte	.LASF172
 4828 0b99 10       		.byte	0x10
 4829 0b9a C602     		.2byte	0x2c6
 4830 0b9c 13010000 		.4byte	0x113
 4831 0ba0 14       		.byte	0x14
 4832 0ba1 0A       		.uleb128 0xa
 4833 0ba2 D1060000 		.4byte	.LASF173
 4834 0ba6 10       		.byte	0x10
 4835 0ba7 C702     		.2byte	0x2c7
 4836 0ba9 13010000 		.4byte	0x113
 4837 0bad 18       		.byte	0x18
 4838 0bae 0A       		.uleb128 0xa
 4839 0baf D7060000 		.4byte	.LASF174
 4840 0bb3 10       		.byte	0x10
 4841 0bb4 C802     		.2byte	0x2c8
 4842 0bb6 13010000 		.4byte	0x113
 4843 0bba 1C       		.byte	0x1c
 4844 0bbb 0A       		.uleb128 0xa
 4845 0bbc DD060000 		.4byte	.LASF175
 4846 0bc0 10       		.byte	0x10
 4847 0bc1 C902     		.2byte	0x2c9
 4848 0bc3 13010000 		.4byte	0x113
 4849 0bc7 20       		.byte	0x20
 4850 0bc8 0A       		.uleb128 0xa
 4851 0bc9 8B160000 		.4byte	.LASF176
 4852 0bcd 10       		.byte	0x10
 4853 0bce CA02     		.2byte	0x2ca
ARM GAS  C:\Users\adrie\AppData\Local\Temp\cc7EdWgE.s 			page 87


 4854 0bd0 0E010000 		.4byte	0x10e
 4855 0bd4 24       		.byte	0x24
 4856 0bd5 0A       		.uleb128 0xa
 4857 0bd6 3A180000 		.4byte	.LASF177
 4858 0bda 10       		.byte	0x10
 4859 0bdb CB02     		.2byte	0x2cb
 4860 0bdd 0E010000 		.4byte	0x10e
 4861 0be1 28       		.byte	0x28
 4862 0be2 0A       		.uleb128 0xa
 4863 0be3 DC290000 		.4byte	.LASF178
 4864 0be7 10       		.byte	0x10
 4865 0be8 CC02     		.2byte	0x2cc
 4866 0bea 0E010000 		.4byte	0x10e
 4867 0bee 2C       		.byte	0x2c
 4868 0bef 0A       		.uleb128 0xa
 4869 0bf0 B22B0000 		.4byte	.LASF179
 4870 0bf4 10       		.byte	0x10
 4871 0bf5 CD02     		.2byte	0x2cd
 4872 0bf7 13010000 		.4byte	0x113
 4873 0bfb 30       		.byte	0x30
 4874 0bfc 09       		.uleb128 0x9
 4875 0bfd 53544100 		.ascii	"STA\000"
 4876 0c01 10       		.byte	0x10
 4877 0c02 CE02     		.2byte	0x2ce
 4878 0c04 13010000 		.4byte	0x113
 4879 0c08 34       		.byte	0x34
 4880 0c09 09       		.uleb128 0x9
 4881 0c0a 49435200 		.ascii	"ICR\000"
 4882 0c0e 10       		.byte	0x10
 4883 0c0f CF02     		.2byte	0x2cf
 4884 0c11 0E010000 		.4byte	0x10e
 4885 0c15 38       		.byte	0x38
 4886 0c16 0A       		.uleb128 0xa
 4887 0c17 DA010000 		.4byte	.LASF180
 4888 0c1b 10       		.byte	0x10
 4889 0c1c D002     		.2byte	0x2d0
 4890 0c1e 0E010000 		.4byte	0x10e
 4891 0c22 3C       		.byte	0x3c
 4892 0c23 0A       		.uleb128 0xa
 4893 0c24 39230000 		.4byte	.LASF126
 4894 0c28 10       		.byte	0x10
 4895 0c29 D102     		.2byte	0x2d1
 4896 0c2b 37050000 		.4byte	0x537
 4897 0c2f 40       		.byte	0x40
 4898 0c30 0A       		.uleb128 0xa
 4899 0c31 42170000 		.4byte	.LASF181
 4900 0c35 10       		.byte	0x10
 4901 0c36 D202     		.2byte	0x2d2
 4902 0c38 13010000 		.4byte	0x113
 4903 0c3c 48       		.byte	0x48
 4904 0c3d 0A       		.uleb128 0xa
 4905 0c3e 43230000 		.4byte	.LASF129
 4906 0c42 10       		.byte	0x10
 4907 0c43 D302     		.2byte	0x2d3
 4908 0c45 580C0000 		.4byte	0xc58
 4909 0c49 4C       		.byte	0x4c
 4910 0c4a 0A       		.uleb128 0xa
ARM GAS  C:\Users\adrie\AppData\Local\Temp\cc7EdWgE.s 			page 88


 4911 0c4b B30A0000 		.4byte	.LASF182
 4912 0c4f 10       		.byte	0x10
 4913 0c50 D402     		.2byte	0x2d4
 4914 0c52 0E010000 		.4byte	0x10e
 4915 0c56 80       		.byte	0x80
 4916 0c57 00       		.byte	0
 4917 0c58 13       		.uleb128 0x13
 4918 0c59 03010000 		.4byte	0x103
 4919 0c5d 680C0000 		.4byte	0xc68
 4920 0c61 14       		.uleb128 0x14
 4921 0c62 45000000 		.4byte	0x45
 4922 0c66 0C       		.byte	0xc
 4923 0c67 00       		.byte	0
 4924 0c68 1A       		.uleb128 0x1a
 4925 0c69 6D240000 		.4byte	.LASF183
 4926 0c6d 10       		.byte	0x10
 4927 0c6e D502     		.2byte	0x2d5
 4928 0c70 4A0B0000 		.4byte	0xb4a
 4929 0c74 19       		.uleb128 0x19
 4930 0c75 24       		.byte	0x24
 4931 0c76 10       		.byte	0x10
 4932 0c77 DB02     		.2byte	0x2db
 4933 0c79 F10C0000 		.4byte	0xcf1
 4934 0c7d 09       		.uleb128 0x9
 4935 0c7e 43523100 		.ascii	"CR1\000"
 4936 0c82 10       		.byte	0x10
 4937 0c83 DD02     		.2byte	0x2dd
 4938 0c85 0E010000 		.4byte	0x10e
 4939 0c89 00       		.byte	0
 4940 0c8a 09       		.uleb128 0x9
 4941 0c8b 43523200 		.ascii	"CR2\000"
 4942 0c8f 10       		.byte	0x10
 4943 0c90 DE02     		.2byte	0x2de
 4944 0c92 0E010000 		.4byte	0x10e
 4945 0c96 04       		.byte	0x4
 4946 0c97 09       		.uleb128 0x9
 4947 0c98 535200   		.ascii	"SR\000"
 4948 0c9b 10       		.byte	0x10
 4949 0c9c DF02     		.2byte	0x2df
 4950 0c9e 0E010000 		.4byte	0x10e
 4951 0ca2 08       		.byte	0x8
 4952 0ca3 09       		.uleb128 0x9
 4953 0ca4 445200   		.ascii	"DR\000"
 4954 0ca7 10       		.byte	0x10
 4955 0ca8 E002     		.2byte	0x2e0
 4956 0caa 0E010000 		.4byte	0x10e
 4957 0cae 0C       		.byte	0xc
 4958 0caf 0A       		.uleb128 0xa
 4959 0cb0 9D080000 		.4byte	.LASF184
 4960 0cb4 10       		.byte	0x10
 4961 0cb5 E102     		.2byte	0x2e1
 4962 0cb7 0E010000 		.4byte	0x10e
 4963 0cbb 10       		.byte	0x10
 4964 0cbc 0A       		.uleb128 0xa
 4965 0cbd DC0C0000 		.4byte	.LASF185
 4966 0cc1 10       		.byte	0x10
 4967 0cc2 E202     		.2byte	0x2e2
ARM GAS  C:\Users\adrie\AppData\Local\Temp\cc7EdWgE.s 			page 89


 4968 0cc4 0E010000 		.4byte	0x10e
 4969 0cc8 14       		.byte	0x14
 4970 0cc9 0A       		.uleb128 0xa
 4971 0cca DA0B0000 		.4byte	.LASF186
 4972 0cce 10       		.byte	0x10
 4973 0ccf E302     		.2byte	0x2e3
 4974 0cd1 0E010000 		.4byte	0x10e
 4975 0cd5 18       		.byte	0x18
 4976 0cd6 0A       		.uleb128 0xa
 4977 0cd7 F6260000 		.4byte	.LASF187
 4978 0cdb 10       		.byte	0x10
 4979 0cdc E402     		.2byte	0x2e4
 4980 0cde 0E010000 		.4byte	0x10e
 4981 0ce2 1C       		.byte	0x1c
 4982 0ce3 0A       		.uleb128 0xa
 4983 0ce4 51080000 		.4byte	.LASF188
 4984 0ce8 10       		.byte	0x10
 4985 0ce9 E502     		.2byte	0x2e5
 4986 0ceb 0E010000 		.4byte	0x10e
 4987 0cef 20       		.byte	0x20
 4988 0cf0 00       		.byte	0
 4989 0cf1 1A       		.uleb128 0x1a
 4990 0cf2 E2240000 		.4byte	.LASF189
 4991 0cf6 10       		.byte	0x10
 4992 0cf7 E602     		.2byte	0x2e6
 4993 0cf9 740C0000 		.4byte	0xc74
 4994 0cfd 19       		.uleb128 0x19
 4995 0cfe 1C       		.byte	0x1c
 4996 0cff 10       		.byte	0x10
 4997 0d00 0903     		.2byte	0x309
 4998 0d02 600D0000 		.4byte	0xd60
 4999 0d06 09       		.uleb128 0x9
 5000 0d07 535200   		.ascii	"SR\000"
 5001 0d0a 10       		.byte	0x10
 5002 0d0b 0B03     		.2byte	0x30b
 5003 0d0d 0E010000 		.4byte	0x10e
 5004 0d11 00       		.byte	0
 5005 0d12 09       		.uleb128 0x9
 5006 0d13 445200   		.ascii	"DR\000"
 5007 0d16 10       		.byte	0x10
 5008 0d17 0C03     		.2byte	0x30c
 5009 0d19 0E010000 		.4byte	0x10e
 5010 0d1d 04       		.byte	0x4
 5011 0d1e 09       		.uleb128 0x9
 5012 0d1f 42525200 		.ascii	"BRR\000"
 5013 0d23 10       		.byte	0x10
 5014 0d24 0D03     		.2byte	0x30d
 5015 0d26 0E010000 		.4byte	0x10e
 5016 0d2a 08       		.byte	0x8
 5017 0d2b 09       		.uleb128 0x9
 5018 0d2c 43523100 		.ascii	"CR1\000"
 5019 0d30 10       		.byte	0x10
 5020 0d31 0E03     		.2byte	0x30e
 5021 0d33 0E010000 		.4byte	0x10e
 5022 0d37 0C       		.byte	0xc
 5023 0d38 09       		.uleb128 0x9
 5024 0d39 43523200 		.ascii	"CR2\000"
ARM GAS  C:\Users\adrie\AppData\Local\Temp\cc7EdWgE.s 			page 90


 5025 0d3d 10       		.byte	0x10
 5026 0d3e 0F03     		.2byte	0x30f
 5027 0d40 0E010000 		.4byte	0x10e
 5028 0d44 10       		.byte	0x10
 5029 0d45 09       		.uleb128 0x9
 5030 0d46 43523300 		.ascii	"CR3\000"
 5031 0d4a 10       		.byte	0x10
 5032 0d4b 1003     		.2byte	0x310
 5033 0d4d 0E010000 		.4byte	0x10e
 5034 0d51 14       		.byte	0x14
 5035 0d52 0A       		.uleb128 0xa
 5036 0d53 B3290000 		.4byte	.LASF190
 5037 0d57 10       		.byte	0x10
 5038 0d58 1103     		.2byte	0x311
 5039 0d5a 0E010000 		.4byte	0x10e
 5040 0d5e 18       		.byte	0x18
 5041 0d5f 00       		.byte	0
 5042 0d60 1A       		.uleb128 0x1a
 5043 0d61 ED2A0000 		.4byte	.LASF191
 5044 0d65 10       		.byte	0x10
 5045 0d66 1203     		.2byte	0x312
 5046 0d68 FD0C0000 		.4byte	0xcfd
 5047 0d6c 13       		.uleb128 0x13
 5048 0d6d 0E010000 		.4byte	0x10e
 5049 0d71 7C0D0000 		.4byte	0xd7c
 5050 0d75 14       		.uleb128 0x14
 5051 0d76 45000000 		.4byte	0x45
 5052 0d7a 0E       		.byte	0xe
 5053 0d7b 00       		.byte	0
 5054 0d7c 06       		.uleb128 0x6
 5055 0d7d 6C0D0000 		.4byte	0xd6c
 5056 0d81 04       		.uleb128 0x4
 5057 0d82 7D1C0000 		.4byte	.LASF192
 5058 0d86 11       		.byte	0x11
 5059 0d87 65       		.byte	0x65
 5060 0d88 C8030000 		.4byte	0x3c8
 5061 0d8c 04       		.uleb128 0x4
 5062 0d8d 3F0A0000 		.4byte	.LASF193
 5063 0d91 11       		.byte	0x11
 5064 0d92 6D       		.byte	0x6d
 5065 0d93 18010000 		.4byte	0x118
 5066 0d97 07       		.uleb128 0x7
 5067 0d98 D81B0000 		.4byte	.LASF194
 5068 0d9c 04       		.byte	0x4
 5069 0d9d 11       		.byte	0x11
 5070 0d9e 89       		.byte	0x89
 5071 0d9f B00D0000 		.4byte	0xdb0
 5072 0da3 18       		.uleb128 0x18
 5073 0da4 72313300 		.ascii	"r13\000"
 5074 0da8 11       		.byte	0x11
 5075 0da9 8A       		.byte	0x8a
 5076 0daa F10E0000 		.4byte	0xef1
 5077 0dae 00       		.byte	0
 5078 0daf 00       		.byte	0
 5079 0db0 07       		.uleb128 0x7
 5080 0db1 09000000 		.4byte	.LASF195
 5081 0db5 64       		.byte	0x64
ARM GAS  C:\Users\adrie\AppData\Local\Temp\cc7EdWgE.s 			page 91


 5082 0db6 12       		.byte	0x12
 5083 0db7 F4       		.byte	0xf4
 5084 0db8 F10E0000 		.4byte	0xef1
 5085 0dbc 18       		.uleb128 0x18
 5086 0dbd 73313600 		.ascii	"s16\000"
 5087 0dc1 12       		.byte	0x12
 5088 0dc2 F6       		.byte	0xf6
 5089 0dc3 810D0000 		.4byte	0xd81
 5090 0dc7 00       		.byte	0
 5091 0dc8 18       		.uleb128 0x18
 5092 0dc9 73313700 		.ascii	"s17\000"
 5093 0dcd 12       		.byte	0x12
 5094 0dce F7       		.byte	0xf7
 5095 0dcf 810D0000 		.4byte	0xd81
 5096 0dd3 04       		.byte	0x4
 5097 0dd4 18       		.uleb128 0x18
 5098 0dd5 73313800 		.ascii	"s18\000"
 5099 0dd9 12       		.byte	0x12
 5100 0dda F8       		.byte	0xf8
 5101 0ddb 810D0000 		.4byte	0xd81
 5102 0ddf 08       		.byte	0x8
 5103 0de0 18       		.uleb128 0x18
 5104 0de1 73313900 		.ascii	"s19\000"
 5105 0de5 12       		.byte	0x12
 5106 0de6 F9       		.byte	0xf9
 5107 0de7 810D0000 		.4byte	0xd81
 5108 0deb 0C       		.byte	0xc
 5109 0dec 18       		.uleb128 0x18
 5110 0ded 73323000 		.ascii	"s20\000"
 5111 0df1 12       		.byte	0x12
 5112 0df2 FA       		.byte	0xfa
 5113 0df3 810D0000 		.4byte	0xd81
 5114 0df7 10       		.byte	0x10
 5115 0df8 18       		.uleb128 0x18
 5116 0df9 73323100 		.ascii	"s21\000"
 5117 0dfd 12       		.byte	0x12
 5118 0dfe FB       		.byte	0xfb
 5119 0dff 810D0000 		.4byte	0xd81
 5120 0e03 14       		.byte	0x14
 5121 0e04 18       		.uleb128 0x18
 5122 0e05 73323200 		.ascii	"s22\000"
 5123 0e09 12       		.byte	0x12
 5124 0e0a FC       		.byte	0xfc
 5125 0e0b 810D0000 		.4byte	0xd81
 5126 0e0f 18       		.byte	0x18
 5127 0e10 18       		.uleb128 0x18
 5128 0e11 73323300 		.ascii	"s23\000"
 5129 0e15 12       		.byte	0x12
 5130 0e16 FD       		.byte	0xfd
 5131 0e17 810D0000 		.4byte	0xd81
 5132 0e1b 1C       		.byte	0x1c
 5133 0e1c 18       		.uleb128 0x18
 5134 0e1d 73323400 		.ascii	"s24\000"
 5135 0e21 12       		.byte	0x12
 5136 0e22 FE       		.byte	0xfe
 5137 0e23 810D0000 		.4byte	0xd81
 5138 0e27 20       		.byte	0x20
ARM GAS  C:\Users\adrie\AppData\Local\Temp\cc7EdWgE.s 			page 92


 5139 0e28 18       		.uleb128 0x18
 5140 0e29 73323500 		.ascii	"s25\000"
 5141 0e2d 12       		.byte	0x12
 5142 0e2e FF       		.byte	0xff
 5143 0e2f 810D0000 		.4byte	0xd81
 5144 0e33 24       		.byte	0x24
 5145 0e34 09       		.uleb128 0x9
 5146 0e35 73323600 		.ascii	"s26\000"
 5147 0e39 12       		.byte	0x12
 5148 0e3a 0001     		.2byte	0x100
 5149 0e3c 810D0000 		.4byte	0xd81
 5150 0e40 28       		.byte	0x28
 5151 0e41 09       		.uleb128 0x9
 5152 0e42 73323700 		.ascii	"s27\000"
 5153 0e46 12       		.byte	0x12
 5154 0e47 0101     		.2byte	0x101
 5155 0e49 810D0000 		.4byte	0xd81
 5156 0e4d 2C       		.byte	0x2c
 5157 0e4e 09       		.uleb128 0x9
 5158 0e4f 73323800 		.ascii	"s28\000"
 5159 0e53 12       		.byte	0x12
 5160 0e54 0201     		.2byte	0x102
 5161 0e56 810D0000 		.4byte	0xd81
 5162 0e5a 30       		.byte	0x30
 5163 0e5b 09       		.uleb128 0x9
 5164 0e5c 73323900 		.ascii	"s29\000"
 5165 0e60 12       		.byte	0x12
 5166 0e61 0301     		.2byte	0x103
 5167 0e63 810D0000 		.4byte	0xd81
 5168 0e67 34       		.byte	0x34
 5169 0e68 09       		.uleb128 0x9
 5170 0e69 73333000 		.ascii	"s30\000"
 5171 0e6d 12       		.byte	0x12
 5172 0e6e 0401     		.2byte	0x104
 5173 0e70 810D0000 		.4byte	0xd81
 5174 0e74 38       		.byte	0x38
 5175 0e75 09       		.uleb128 0x9
 5176 0e76 73333100 		.ascii	"s31\000"
 5177 0e7a 12       		.byte	0x12
 5178 0e7b 0501     		.2byte	0x105
 5179 0e7d 810D0000 		.4byte	0xd81
 5180 0e81 3C       		.byte	0x3c
 5181 0e82 09       		.uleb128 0x9
 5182 0e83 723400   		.ascii	"r4\000"
 5183 0e86 12       		.byte	0x12
 5184 0e87 0701     		.2byte	0x107
 5185 0e89 810D0000 		.4byte	0xd81
 5186 0e8d 40       		.byte	0x40
 5187 0e8e 09       		.uleb128 0x9
 5188 0e8f 723500   		.ascii	"r5\000"
 5189 0e92 12       		.byte	0x12
 5190 0e93 0801     		.2byte	0x108
 5191 0e95 810D0000 		.4byte	0xd81
 5192 0e99 44       		.byte	0x44
 5193 0e9a 09       		.uleb128 0x9
 5194 0e9b 723600   		.ascii	"r6\000"
 5195 0e9e 12       		.byte	0x12
ARM GAS  C:\Users\adrie\AppData\Local\Temp\cc7EdWgE.s 			page 93


 5196 0e9f 0901     		.2byte	0x109
 5197 0ea1 810D0000 		.4byte	0xd81
 5198 0ea5 48       		.byte	0x48
 5199 0ea6 09       		.uleb128 0x9
 5200 0ea7 723700   		.ascii	"r7\000"
 5201 0eaa 12       		.byte	0x12
 5202 0eab 0A01     		.2byte	0x10a
 5203 0ead 810D0000 		.4byte	0xd81
 5204 0eb1 4C       		.byte	0x4c
 5205 0eb2 09       		.uleb128 0x9
 5206 0eb3 723800   		.ascii	"r8\000"
 5207 0eb6 12       		.byte	0x12
 5208 0eb7 0B01     		.2byte	0x10b
 5209 0eb9 810D0000 		.4byte	0xd81
 5210 0ebd 50       		.byte	0x50
 5211 0ebe 09       		.uleb128 0x9
 5212 0ebf 723900   		.ascii	"r9\000"
 5213 0ec2 12       		.byte	0x12
 5214 0ec3 0C01     		.2byte	0x10c
 5215 0ec5 810D0000 		.4byte	0xd81
 5216 0ec9 54       		.byte	0x54
 5217 0eca 09       		.uleb128 0x9
 5218 0ecb 72313000 		.ascii	"r10\000"
 5219 0ecf 12       		.byte	0x12
 5220 0ed0 0D01     		.2byte	0x10d
 5221 0ed2 810D0000 		.4byte	0xd81
 5222 0ed6 58       		.byte	0x58
 5223 0ed7 09       		.uleb128 0x9
 5224 0ed8 72313100 		.ascii	"r11\000"
 5225 0edc 12       		.byte	0x12
 5226 0edd 0E01     		.2byte	0x10e
 5227 0edf 810D0000 		.4byte	0xd81
 5228 0ee3 5C       		.byte	0x5c
 5229 0ee4 09       		.uleb128 0x9
 5230 0ee5 6C7200   		.ascii	"lr\000"
 5231 0ee8 12       		.byte	0x12
 5232 0ee9 0F01     		.2byte	0x10f
 5233 0eeb 810D0000 		.4byte	0xd81
 5234 0eef 60       		.byte	0x60
 5235 0ef0 00       		.byte	0
 5236 0ef1 0B       		.uleb128 0xb
 5237 0ef2 04       		.byte	0x4
 5238 0ef3 B00D0000 		.4byte	0xdb0
 5239 0ef7 17       		.uleb128 0x17
 5240 0ef8 10       		.byte	0x10
 5241 0ef9 13       		.byte	0x13
 5242 0efa 51       		.byte	0x51
 5243 0efb 300F0000 		.4byte	0xf30
 5244 0eff 08       		.uleb128 0x8
 5245 0f00 AD230000 		.4byte	.LASF196
 5246 0f04 13       		.byte	0x13
 5247 0f05 55       		.byte	0x55
 5248 0f06 A7010000 		.4byte	0x1a7
 5249 0f0a 00       		.byte	0
 5250 0f0b 08       		.uleb128 0x8
 5251 0f0c 0F1D0000 		.4byte	.LASF197
 5252 0f10 13       		.byte	0x13
ARM GAS  C:\Users\adrie\AppData\Local\Temp\cc7EdWgE.s 			page 94


 5253 0f11 59       		.byte	0x59
 5254 0f12 EB020000 		.4byte	0x2eb
 5255 0f16 04       		.byte	0x4
 5256 0f17 08       		.uleb128 0x8
 5257 0f18 860D0000 		.4byte	.LASF198
 5258 0f1c 13       		.byte	0x13
 5259 0f1d 5D       		.byte	0x5d
 5260 0f1e C8030000 		.4byte	0x3c8
 5261 0f22 08       		.byte	0x8
 5262 0f23 08       		.uleb128 0x8
 5263 0f24 500B0000 		.4byte	.LASF199
 5264 0f28 13       		.byte	0x13
 5265 0f29 61       		.byte	0x61
 5266 0f2a CD000000 		.4byte	0xcd
 5267 0f2e 0C       		.byte	0xc
 5268 0f2f 00       		.byte	0
 5269 0f30 04       		.uleb128 0x4
 5270 0f31 840E0000 		.4byte	.LASF200
 5271 0f35 13       		.byte	0x13
 5272 0f36 62       		.byte	0x62
 5273 0f37 F70E0000 		.4byte	0xef7
 5274 0f3b 1C       		.uleb128 0x1c
 5275 0f3c 0804     		.2byte	0x408
 5276 0f3e 13       		.byte	0x13
 5277 0f3f 67       		.byte	0x67
 5278 0f40 690F0000 		.4byte	0xf69
 5279 0f44 08       		.uleb128 0x8
 5280 0f45 660F0000 		.4byte	.LASF201
 5281 0f49 13       		.byte	0x13
 5282 0f4a 6B       		.byte	0x6b
 5283 0f4b 45000000 		.4byte	0x45
 5284 0f4f 00       		.byte	0
 5285 0f50 08       		.uleb128 0x8
 5286 0f51 71170000 		.4byte	.LASF202
 5287 0f55 13       		.byte	0x13
 5288 0f56 6F       		.byte	0x6f
 5289 0f57 690F0000 		.4byte	0xf69
 5290 0f5b 04       		.byte	0x4
 5291 0f5c 08       		.uleb128 0x8
 5292 0f5d C70A0000 		.4byte	.LASF203
 5293 0f61 13       		.byte	0x13
 5294 0f62 73       		.byte	0x73
 5295 0f63 6F0F0000 		.4byte	0xf6f
 5296 0f67 08       		.byte	0x8
 5297 0f68 00       		.byte	0
 5298 0f69 0B       		.uleb128 0xb
 5299 0f6a 04       		.byte	0x4
 5300 0f6b 300F0000 		.4byte	0xf30
 5301 0f6f 13       		.uleb128 0x13
 5302 0f70 300F0000 		.4byte	0xf30
 5303 0f74 7F0F0000 		.4byte	0xf7f
 5304 0f78 14       		.uleb128 0x14
 5305 0f79 45000000 		.4byte	0x45
 5306 0f7d 3F       		.byte	0x3f
 5307 0f7e 00       		.byte	0
 5308 0f7f 04       		.uleb128 0x4
 5309 0f80 15000000 		.4byte	.LASF204
ARM GAS  C:\Users\adrie\AppData\Local\Temp\cc7EdWgE.s 			page 95


 5310 0f84 13       		.byte	0x13
 5311 0f85 74       		.byte	0x74
 5312 0f86 3B0F0000 		.4byte	0xf3b
 5313 0f8a 17       		.uleb128 0x17
 5314 0f8b 04       		.byte	0x4
 5315 0f8c 14       		.byte	0x14
 5316 0f8d 38       		.byte	0x38
 5317 0f8e 9F0F0000 		.4byte	0xf9f
 5318 0f92 08       		.uleb128 0x8
 5319 0f93 7A240000 		.4byte	.LASF205
 5320 0f97 14       		.byte	0x14
 5321 0f98 3C       		.byte	0x3c
 5322 0f99 23010000 		.4byte	0x123
 5323 0f9d 00       		.byte	0
 5324 0f9e 00       		.byte	0
 5325 0f9f 04       		.uleb128 0x4
 5326 0fa0 99290000 		.4byte	.LASF206
 5327 0fa4 14       		.byte	0x14
 5328 0fa5 3D       		.byte	0x3d
 5329 0fa6 8A0F0000 		.4byte	0xf8a
 5330 0faa 17       		.uleb128 0x17
 5331 0fab 18       		.byte	0x18
 5332 0fac 14       		.byte	0x14
 5333 0fad 48       		.byte	0x48
 5334 0fae ED0F0000 		.4byte	0xfed
 5335 0fb2 08       		.uleb128 0x8
 5336 0fb3 62080000 		.4byte	.LASF207
 5337 0fb7 14       		.byte	0x14
 5338 0fb8 49       		.byte	0x49
 5339 0fb9 23010000 		.4byte	0x123
 5340 0fbd 00       		.byte	0
 5341 0fbe 08       		.uleb128 0x8
 5342 0fbf 78010000 		.4byte	.LASF208
 5343 0fc3 14       		.byte	0x14
 5344 0fc4 4A       		.byte	0x4a
 5345 0fc5 23010000 		.4byte	0x123
 5346 0fc9 04       		.byte	0x4
 5347 0fca 08       		.uleb128 0x8
 5348 0fcb 061C0000 		.4byte	.LASF209
 5349 0fcf 14       		.byte	0x14
 5350 0fd0 4B       		.byte	0x4b
 5351 0fd1 23010000 		.4byte	0x123
 5352 0fd5 08       		.byte	0x8
 5353 0fd6 18       		.uleb128 0x18
 5354 0fd7 6E00     		.ascii	"n\000"
 5355 0fd9 14       		.byte	0x14
 5356 0fda 4C       		.byte	0x4c
 5357 0fdb 9C010000 		.4byte	0x19c
 5358 0fdf 0C       		.byte	0xc
 5359 0fe0 08       		.uleb128 0x8
 5360 0fe1 9C1B0000 		.4byte	.LASF210
 5361 0fe5 14       		.byte	0x14
 5362 0fe6 4D       		.byte	0x4d
 5363 0fe7 2E010000 		.4byte	0x12e
 5364 0feb 10       		.byte	0x10
 5365 0fec 00       		.byte	0
 5366 0fed 04       		.uleb128 0x4
ARM GAS  C:\Users\adrie\AppData\Local\Temp\cc7EdWgE.s 			page 96


 5367 0fee 82270000 		.4byte	.LASF211
 5368 0ff2 14       		.byte	0x14
 5369 0ff3 4E       		.byte	0x4e
 5370 0ff4 AA0F0000 		.4byte	0xfaa
 5371 0ff8 17       		.uleb128 0x17
 5372 0ff9 38       		.byte	0x38
 5373 0ffa 15       		.byte	0x15
 5374 0ffb 38       		.byte	0x38
 5375 0ffc 31100000 		.4byte	0x1031
 5376 1000 08       		.uleb128 0x8
 5377 1001 58070000 		.4byte	.LASF212
 5378 1005 15       		.byte	0x15
 5379 1006 39       		.byte	0x39
 5380 1007 9C010000 		.4byte	0x19c
 5381 100b 00       		.byte	0
 5382 100c 08       		.uleb128 0x8
 5383 100d 240C0000 		.4byte	.LASF213
 5384 1011 15       		.byte	0x15
 5385 1012 3A       		.byte	0x3a
 5386 1013 9C010000 		.4byte	0x19c
 5387 1017 04       		.byte	0x4
 5388 1018 08       		.uleb128 0x8
 5389 1019 D9260000 		.4byte	.LASF214
 5390 101d 15       		.byte	0x15
 5391 101e 3B       		.byte	0x3b
 5392 101f ED0F0000 		.4byte	0xfed
 5393 1023 08       		.byte	0x8
 5394 1024 08       		.uleb128 0x8
 5395 1025 B6000000 		.4byte	.LASF215
 5396 1029 15       		.byte	0x15
 5397 102a 3D       		.byte	0x3d
 5398 102b ED0F0000 		.4byte	0xfed
 5399 102f 20       		.byte	0x20
 5400 1030 00       		.byte	0
 5401 1031 04       		.uleb128 0x4
 5402 1032 D7050000 		.4byte	.LASF216
 5403 1036 15       		.byte	0x15
 5404 1037 3F       		.byte	0x3f
 5405 1038 F80F0000 		.4byte	0xff8
 5406 103c 1D       		.uleb128 0x1d
 5407 103d 04       		.byte	0x4
 5408 103e 0D       		.byte	0xd
 5409 103f FA       		.byte	0xfa
 5410 1040 99100000 		.4byte	0x1099
 5411 1044 1E       		.uleb128 0x1e
 5412 1045 C1120000 		.4byte	.LASF217
 5413 1049 0D       		.byte	0xd
 5414 104a 0101     		.2byte	0x101
 5415 104c 70010000 		.4byte	0x170
 5416 1050 1E       		.uleb128 0x1e
 5417 1051 26090000 		.4byte	.LASF218
 5418 1055 0D       		.byte	0xd
 5419 1056 0801     		.2byte	0x108
 5420 1058 70010000 		.4byte	0x170
 5421 105c 1E       		.uleb128 0x1e
 5422 105d 0C210000 		.4byte	.LASF219
 5423 1061 0D       		.byte	0xd
ARM GAS  C:\Users\adrie\AppData\Local\Temp\cc7EdWgE.s 			page 97


 5424 1062 0F01     		.2byte	0x10f
 5425 1064 C8030000 		.4byte	0x3c8
 5426 1068 1E       		.uleb128 0x1e
 5427 1069 CA1B0000 		.4byte	.LASF220
 5428 106d 0D       		.byte	0xd
 5429 106e 1601     		.2byte	0x116
 5430 1070 99100000 		.4byte	0x1099
 5431 1074 1E       		.uleb128 0x1e
 5432 1075 00010000 		.4byte	.LASF221
 5433 1079 0D       		.byte	0xd
 5434 107a 1E01     		.2byte	0x11e
 5435 107c C4100000 		.4byte	0x10c4
 5436 1080 1E       		.uleb128 0x1e
 5437 1081 63210000 		.4byte	.LASF222
 5438 1085 0D       		.byte	0xd
 5439 1086 2701     		.2byte	0x127
 5440 1088 07110000 		.4byte	0x1107
 5441 108c 1E       		.uleb128 0x1e
 5442 108d 22250000 		.4byte	.LASF223
 5443 1091 0D       		.byte	0xd
 5444 1092 2F01     		.2byte	0x12f
 5445 1094 7B010000 		.4byte	0x17b
 5446 1098 00       		.byte	0
 5447 1099 0B       		.uleb128 0xb
 5448 109a 04       		.byte	0x4
 5449 109b E0020000 		.4byte	0x2e0
 5450 109f 07       		.uleb128 0x7
 5451 10a0 F1190000 		.4byte	.LASF224
 5452 10a4 0C       		.byte	0xc
 5453 10a5 16       		.byte	0x16
 5454 10a6 34       		.byte	0x34
 5455 10a7 C4100000 		.4byte	0x10c4
 5456 10ab 08       		.uleb128 0x8
 5457 10ac D1260000 		.4byte	.LASF225
 5458 10b0 16       		.byte	0x16
 5459 10b1 35       		.byte	0x35
 5460 10b2 15030000 		.4byte	0x315
 5461 10b6 00       		.byte	0
 5462 10b7 08       		.uleb128 0x8
 5463 10b8 DE0A0000 		.4byte	.LASF226
 5464 10bc 16       		.byte	0x16
 5465 10bd 37       		.byte	0x37
 5466 10be 91010000 		.4byte	0x191
 5467 10c2 08       		.byte	0x8
 5468 10c3 00       		.byte	0
 5469 10c4 0B       		.uleb128 0xb
 5470 10c5 04       		.byte	0x4
 5471 10c6 9F100000 		.4byte	0x109f
 5472 10ca 07       		.uleb128 0x7
 5473 10cb F10C0000 		.4byte	.LASF227
 5474 10cf 14       		.byte	0x14
 5475 10d0 17       		.byte	0x17
 5476 10d1 39       		.byte	0x39
 5477 10d2 07110000 		.4byte	0x1107
 5478 10d6 08       		.uleb128 0x8
 5479 10d7 301B0000 		.4byte	.LASF228
 5480 10db 17       		.byte	0x17
ARM GAS  C:\Users\adrie\AppData\Local\Temp\cc7EdWgE.s 			page 98


 5481 10dc 3A       		.byte	0x3a
 5482 10dd 15030000 		.4byte	0x315
 5483 10e1 00       		.byte	0
 5484 10e2 08       		.uleb128 0x8
 5485 10e3 B3180000 		.4byte	.LASF229
 5486 10e7 17       		.byte	0x17
 5487 10e8 3C       		.byte	0x3c
 5488 10e9 EB020000 		.4byte	0x2eb
 5489 10ed 08       		.byte	0x8
 5490 10ee 08       		.uleb128 0x8
 5491 10ef B5010000 		.4byte	.LASF230
 5492 10f3 17       		.byte	0x17
 5493 10f4 3E       		.byte	0x3e
 5494 10f5 8D120000 		.4byte	0x128d
 5495 10f9 0C       		.byte	0xc
 5496 10fa 08       		.uleb128 0x8
 5497 10fb AC090000 		.4byte	.LASF231
 5498 10ff 17       		.byte	0x17
 5499 1100 41       		.byte	0x41
 5500 1101 91010000 		.4byte	0x191
 5501 1105 10       		.byte	0x10
 5502 1106 00       		.byte	0
 5503 1107 0B       		.uleb128 0xb
 5504 1108 04       		.byte	0x4
 5505 1109 CA100000 		.4byte	0x10ca
 5506 110d 0B       		.uleb128 0xb
 5507 110e 04       		.byte	0x4
 5508 110f 1F110000 		.4byte	0x111f
 5509 1113 06       		.uleb128 0x6
 5510 1114 0D110000 		.4byte	0x110d
 5511 1118 02       		.uleb128 0x2
 5512 1119 01       		.byte	0x1
 5513 111a 08       		.byte	0x8
 5514 111b 8F1D0000 		.4byte	.LASF232
 5515 111f 05       		.uleb128 0x5
 5516 1120 18110000 		.4byte	0x1118
 5517 1124 0B       		.uleb128 0xb
 5518 1125 04       		.byte	0x4
 5519 1126 8C0D0000 		.4byte	0xd8c
 5520 112a 0B       		.uleb128 0xb
 5521 112b 04       		.byte	0x4
 5522 112c CA030000 		.4byte	0x3ca
 5523 1130 13       		.uleb128 0x13
 5524 1131 8C0D0000 		.4byte	0xd8c
 5525 1135 40110000 		.4byte	0x1140
 5526 1139 14       		.uleb128 0x14
 5527 113a 45000000 		.4byte	0x45
 5528 113e 30       		.byte	0x30
 5529 113f 00       		.byte	0
 5530 1140 1F       		.uleb128 0x1f
 5531 1141 636800   		.ascii	"ch\000"
 5532 1144 0D       		.byte	0xd
 5533 1145 0902     		.2byte	0x209
 5534 1147 BF040000 		.4byte	0x4bf
 5535 114b 17       		.uleb128 0x17
 5536 114c 16       		.byte	0x16
 5537 114d 03       		.byte	0x3
ARM GAS  C:\Users\adrie\AppData\Local\Temp\cc7EdWgE.s 			page 99


 5538 114e 34       		.byte	0x34
 5539 114f 2C120000 		.4byte	0x122c
 5540 1153 08       		.uleb128 0x8
 5541 1154 0A270000 		.4byte	.LASF233
 5542 1158 03       		.byte	0x3
 5543 1159 35       		.byte	0x35
 5544 115a 2C120000 		.4byte	0x122c
 5545 115e 00       		.byte	0
 5546 115f 08       		.uleb128 0x8
 5547 1160 C2290000 		.4byte	.LASF234
 5548 1164 03       		.byte	0x3
 5549 1165 36       		.byte	0x36
 5550 1166 CD000000 		.4byte	0xcd
 5551 116a 04       		.byte	0x4
 5552 116b 08       		.uleb128 0x8
 5553 116c 36030000 		.4byte	.LASF235
 5554 1170 03       		.byte	0x3
 5555 1171 37       		.byte	0x37
 5556 1172 CD000000 		.4byte	0xcd
 5557 1176 05       		.byte	0x5
 5558 1177 08       		.uleb128 0x8
 5559 1178 18190000 		.4byte	.LASF236
 5560 117c 03       		.byte	0x3
 5561 117d 38       		.byte	0x38
 5562 117e E8000000 		.4byte	0xe8
 5563 1182 06       		.byte	0x6
 5564 1183 08       		.uleb128 0x8
 5565 1184 27000000 		.4byte	.LASF237
 5566 1188 03       		.byte	0x3
 5567 1189 39       		.byte	0x39
 5568 118a CD000000 		.4byte	0xcd
 5569 118e 08       		.byte	0x8
 5570 118f 08       		.uleb128 0x8
 5571 1190 19170000 		.4byte	.LASF238
 5572 1194 03       		.byte	0x3
 5573 1195 3A       		.byte	0x3a
 5574 1196 CD000000 		.4byte	0xcd
 5575 119a 09       		.byte	0x9
 5576 119b 08       		.uleb128 0x8
 5577 119c E2290000 		.4byte	.LASF239
 5578 11a0 03       		.byte	0x3
 5579 11a1 3B       		.byte	0x3b
 5580 11a2 CD000000 		.4byte	0xcd
 5581 11a6 0A       		.byte	0xa
 5582 11a7 08       		.uleb128 0x8
 5583 11a8 59270000 		.4byte	.LASF240
 5584 11ac 03       		.byte	0x3
 5585 11ad 3C       		.byte	0x3c
 5586 11ae CD000000 		.4byte	0xcd
 5587 11b2 0B       		.byte	0xb
 5588 11b3 08       		.uleb128 0x8
 5589 11b4 1B060000 		.4byte	.LASF241
 5590 11b8 03       		.byte	0x3
 5591 11b9 3D       		.byte	0x3d
 5592 11ba CD000000 		.4byte	0xcd
 5593 11be 0C       		.byte	0xc
 5594 11bf 08       		.uleb128 0x8
ARM GAS  C:\Users\adrie\AppData\Local\Temp\cc7EdWgE.s 			page 100


 5595 11c0 4E0D0000 		.4byte	.LASF242
 5596 11c4 03       		.byte	0x3
 5597 11c5 3E       		.byte	0x3e
 5598 11c6 CD000000 		.4byte	0xcd
 5599 11ca 0D       		.byte	0xd
 5600 11cb 08       		.uleb128 0x8
 5601 11cc 6C060000 		.4byte	.LASF243
 5602 11d0 03       		.byte	0x3
 5603 11d1 3F       		.byte	0x3f
 5604 11d2 CD000000 		.4byte	0xcd
 5605 11d6 0E       		.byte	0xe
 5606 11d7 08       		.uleb128 0x8
 5607 11d8 FD0E0000 		.4byte	.LASF244
 5608 11dc 03       		.byte	0x3
 5609 11dd 40       		.byte	0x40
 5610 11de CD000000 		.4byte	0xcd
 5611 11e2 0F       		.byte	0xf
 5612 11e3 08       		.uleb128 0x8
 5613 11e4 61040000 		.4byte	.LASF245
 5614 11e8 03       		.byte	0x3
 5615 11e9 41       		.byte	0x41
 5616 11ea CD000000 		.4byte	0xcd
 5617 11ee 10       		.byte	0x10
 5618 11ef 08       		.uleb128 0x8
 5619 11f0 BC090000 		.4byte	.LASF246
 5620 11f4 03       		.byte	0x3
 5621 11f5 43       		.byte	0x43
 5622 11f6 CD000000 		.4byte	0xcd
 5623 11fa 11       		.byte	0x11
 5624 11fb 08       		.uleb128 0x8
 5625 11fc EC020000 		.4byte	.LASF247
 5626 1200 03       		.byte	0x3
 5627 1201 44       		.byte	0x44
 5628 1202 CD000000 		.4byte	0xcd
 5629 1206 12       		.byte	0x12
 5630 1207 08       		.uleb128 0x8
 5631 1208 8F180000 		.4byte	.LASF248
 5632 120c 03       		.byte	0x3
 5633 120d 45       		.byte	0x45
 5634 120e CD000000 		.4byte	0xcd
 5635 1212 13       		.byte	0x13
 5636 1213 08       		.uleb128 0x8
 5637 1214 2A200000 		.4byte	.LASF249
 5638 1218 03       		.byte	0x3
 5639 1219 46       		.byte	0x46
 5640 121a CD000000 		.4byte	0xcd
 5641 121e 14       		.byte	0x14
 5642 121f 08       		.uleb128 0x8
 5643 1220 DE000000 		.4byte	.LASF250
 5644 1224 03       		.byte	0x3
 5645 1225 48       		.byte	0x48
 5646 1226 CD000000 		.4byte	0xcd
 5647 122a 15       		.byte	0x15
 5648 122b 00       		.byte	0
 5649 122c 13       		.uleb128 0x13
 5650 122d 18110000 		.4byte	0x1118
 5651 1231 3C120000 		.4byte	0x123c
ARM GAS  C:\Users\adrie\AppData\Local\Temp\cc7EdWgE.s 			page 101


 5652 1235 14       		.uleb128 0x14
 5653 1236 45000000 		.4byte	0x45
 5654 123a 03       		.byte	0x3
 5655 123b 00       		.byte	0
 5656 123c 04       		.uleb128 0x4
 5657 123d AC160000 		.4byte	.LASF251
 5658 1241 03       		.byte	0x3
 5659 1242 49       		.byte	0x49
 5660 1243 4B110000 		.4byte	0x114b
 5661 1247 05       		.uleb128 0x5
 5662 1248 3C120000 		.4byte	0x123c
 5663 124c 16       		.uleb128 0x16
 5664 124d 3C0C0000 		.4byte	.LASF252
 5665 1251 03       		.byte	0x3
 5666 1252 6E       		.byte	0x6e
 5667 1253 47120000 		.4byte	0x1247
 5668 1257 04       		.uleb128 0x4
 5669 1258 F7270000 		.4byte	.LASF253
 5670 125c 16       		.byte	0x16
 5671 125d 38       		.byte	0x38
 5672 125e 9F100000 		.4byte	0x109f
 5673 1262 17       		.uleb128 0x17
 5674 1263 0C       		.byte	0xc
 5675 1264 07       		.byte	0x7
 5676 1265 4B       		.byte	0x4b
 5677 1266 77120000 		.4byte	0x1277
 5678 126a 08       		.uleb128 0x8
 5679 126b A12A0000 		.4byte	.LASF254
 5680 126f 07       		.byte	0x7
 5681 1270 4C       		.byte	0x4c
 5682 1271 57120000 		.4byte	0x1257
 5683 1275 00       		.byte	0
 5684 1276 00       		.byte	0
 5685 1277 04       		.uleb128 0x4
 5686 1278 4E260000 		.4byte	.LASF255
 5687 127c 07       		.byte	0x7
 5688 127d 4D       		.byte	0x4d
 5689 127e 62120000 		.4byte	0x1262
 5690 1282 04       		.uleb128 0x4
 5691 1283 EF220000 		.4byte	.LASF256
 5692 1287 17       		.byte	0x17
 5693 1288 34       		.byte	0x34
 5694 1289 CA100000 		.4byte	0x10ca
 5695 128d 0B       		.uleb128 0xb
 5696 128e 04       		.byte	0x4
 5697 128f 82120000 		.4byte	0x1282
 5698 1293 04       		.uleb128 0x4
 5699 1294 990C0000 		.4byte	.LASF257
 5700 1298 18       		.byte	0x18
 5701 1299 34       		.byte	0x34
 5702 129a 9E120000 		.4byte	0x129e
 5703 129e 07       		.uleb128 0x7
 5704 129f AD2A0000 		.4byte	.LASF258
 5705 12a3 14       		.byte	0x14
 5706 12a4 18       		.byte	0x18
 5707 12a5 39       		.byte	0x39
 5708 12a6 E7120000 		.4byte	0x12e7
ARM GAS  C:\Users\adrie\AppData\Local\Temp\cc7EdWgE.s 			page 102


 5709 12aa 08       		.uleb128 0x8
 5710 12ab 6A020000 		.4byte	.LASF259
 5711 12af 18       		.byte	0x18
 5712 12b0 3A       		.byte	0x3a
 5713 12b1 E7120000 		.4byte	0x12e7
 5714 12b5 00       		.byte	0
 5715 12b6 08       		.uleb128 0x8
 5716 12b7 F7230000 		.4byte	.LASF260
 5717 12bb 18       		.byte	0x18
 5718 12bc 3D       		.byte	0x3d
 5719 12bd EB020000 		.4byte	0x2eb
 5720 12c1 04       		.byte	0x4
 5721 12c2 08       		.uleb128 0x8
 5722 12c3 BB030000 		.4byte	.LASF261
 5723 12c7 18       		.byte	0x18
 5724 12c8 3F       		.byte	0x3f
 5725 12c9 7B010000 		.4byte	0x17b
 5726 12cd 08       		.byte	0x8
 5727 12ce 08       		.uleb128 0x8
 5728 12cf 29250000 		.4byte	.LASF262
 5729 12d3 18       		.byte	0x18
 5730 12d4 41       		.byte	0x41
 5731 12d5 86010000 		.4byte	0x186
 5732 12d9 0C       		.byte	0xc
 5733 12da 08       		.uleb128 0x8
 5734 12db 520F0000 		.4byte	.LASF263
 5735 12df 18       		.byte	0x18
 5736 12e0 43       		.byte	0x43
 5737 12e1 86010000 		.4byte	0x186
 5738 12e5 10       		.byte	0x10
 5739 12e6 00       		.byte	0
 5740 12e7 0B       		.uleb128 0xb
 5741 12e8 04       		.byte	0x4
 5742 12e9 93120000 		.4byte	0x1293
 5743 12ed 07       		.uleb128 0x7
 5744 12ee 5C250000 		.4byte	.LASF264
 5745 12f2 04       		.byte	0x4
 5746 12f3 18       		.byte	0x18
 5747 12f4 4A       		.byte	0x4a
 5748 12f5 06130000 		.4byte	0x1306
 5749 12f9 08       		.uleb128 0x8
 5750 12fa AC240000 		.4byte	.LASF265
 5751 12fe 18       		.byte	0x18
 5752 12ff 4B       		.byte	0x4b
 5753 1300 E7120000 		.4byte	0x12e7
 5754 1304 00       		.byte	0
 5755 1305 00       		.byte	0
 5756 1306 04       		.uleb128 0x4
 5757 1307 4A170000 		.4byte	.LASF266
 5758 130b 18       		.byte	0x18
 5759 130c 4E       		.byte	0x4e
 5760 130d ED120000 		.4byte	0x12ed
 5761 1311 04       		.uleb128 0x4
 5762 1312 920F0000 		.4byte	.LASF267
 5763 1316 19       		.byte	0x19
 5764 1317 3F       		.byte	0x3f
 5765 1318 1C130000 		.4byte	0x131c
ARM GAS  C:\Users\adrie\AppData\Local\Temp\cc7EdWgE.s 			page 103


 5766 131c 07       		.uleb128 0x7
 5767 131d 3D130000 		.4byte	.LASF268
 5768 1321 24       		.byte	0x24
 5769 1322 19       		.byte	0x19
 5770 1323 4D       		.byte	0x4d
 5771 1324 89130000 		.4byte	0x1389
 5772 1328 08       		.uleb128 0x8
 5773 1329 E6050000 		.4byte	.LASF269
 5774 132d 19       		.byte	0x19
 5775 132e 4E       		.byte	0x4e
 5776 132f 15030000 		.4byte	0x315
 5777 1333 00       		.byte	0
 5778 1334 08       		.uleb128 0x8
 5779 1335 94220000 		.4byte	.LASF270
 5780 1339 19       		.byte	0x19
 5781 133a 4F       		.byte	0x4f
 5782 133b 3A000000 		.4byte	0x3a
 5783 133f 08       		.byte	0x8
 5784 1340 08       		.uleb128 0x8
 5785 1341 48140000 		.4byte	.LASF271
 5786 1345 19       		.byte	0x19
 5787 1346 50       		.byte	0x50
 5788 1347 AB130000 		.4byte	0x13ab
 5789 134b 0C       		.byte	0xc
 5790 134c 08       		.uleb128 0x8
 5791 134d 07050000 		.4byte	.LASF272
 5792 1351 19       		.byte	0x19
 5793 1352 51       		.byte	0x51
 5794 1353 AB130000 		.4byte	0x13ab
 5795 1357 10       		.byte	0x10
 5796 1358 08       		.uleb128 0x8
 5797 1359 271D0000 		.4byte	.LASF273
 5798 135d 19       		.byte	0x19
 5799 135e 53       		.byte	0x53
 5800 135f AB130000 		.4byte	0x13ab
 5801 1363 14       		.byte	0x14
 5802 1364 08       		.uleb128 0x8
 5803 1365 D01B0000 		.4byte	.LASF274
 5804 1369 19       		.byte	0x19
 5805 136a 54       		.byte	0x54
 5806 136b AB130000 		.4byte	0x13ab
 5807 136f 18       		.byte	0x18
 5808 1370 08       		.uleb128 0x8
 5809 1371 5A210000 		.4byte	.LASF275
 5810 1375 19       		.byte	0x19
 5811 1376 55       		.byte	0x55
 5812 1377 89130000 		.4byte	0x1389
 5813 137b 1C       		.byte	0x1c
 5814 137c 08       		.uleb128 0x8
 5815 137d 521E0000 		.4byte	.LASF276
 5816 1381 19       		.byte	0x19
 5817 1382 56       		.byte	0x56
 5818 1383 C8030000 		.4byte	0x3c8
 5819 1387 20       		.byte	0x20
 5820 1388 00       		.byte	0
 5821 1389 04       		.uleb128 0x4
 5822 138a BE040000 		.4byte	.LASF277
ARM GAS  C:\Users\adrie\AppData\Local\Temp\cc7EdWgE.s 			page 104


 5823 138e 19       		.byte	0x19
 5824 138f 42       		.byte	0x42
 5825 1390 94130000 		.4byte	0x1394
 5826 1394 0B       		.uleb128 0xb
 5827 1395 04       		.byte	0x4
 5828 1396 9A130000 		.4byte	0x139a
 5829 139a 0D       		.uleb128 0xd
 5830 139b A5130000 		.4byte	0x13a5
 5831 139f 0E       		.uleb128 0xe
 5832 13a0 A5130000 		.4byte	0x13a5
 5833 13a4 00       		.byte	0
 5834 13a5 0B       		.uleb128 0xb
 5835 13a6 04       		.byte	0x4
 5836 13a7 11130000 		.4byte	0x1311
 5837 13ab 0B       		.uleb128 0xb
 5838 13ac 04       		.byte	0x4
 5839 13ad CD000000 		.4byte	0xcd
 5840 13b1 04       		.uleb128 0x4
 5841 13b2 26060000 		.4byte	.LASF278
 5842 13b6 19       		.byte	0x19
 5843 13b7 64       		.byte	0x64
 5844 13b8 11130000 		.4byte	0x1311
 5845 13bc 04       		.uleb128 0x4
 5846 13bd FB2A0000 		.4byte	.LASF279
 5847 13c1 19       		.byte	0x19
 5848 13c2 71       		.byte	0x71
 5849 13c3 11130000 		.4byte	0x1311
 5850 13c7 07       		.uleb128 0x7
 5851 13c8 EB280000 		.4byte	.LASF280
 5852 13cc 10       		.byte	0x10
 5853 13cd 1A       		.byte	0x1a
 5854 13ce 40       		.byte	0x40
 5855 13cf 04140000 		.4byte	0x1404
 5856 13d3 08       		.uleb128 0x8
 5857 13d4 E01B0000 		.4byte	.LASF281
 5858 13d8 1A       		.byte	0x1a
 5859 13d9 41       		.byte	0x41
 5860 13da 28140000 		.4byte	0x1428
 5861 13de 00       		.byte	0
 5862 13df 08       		.uleb128 0x8
 5863 13e0 38050000 		.4byte	.LASF282
 5864 13e4 1A       		.byte	0x1a
 5865 13e5 41       		.byte	0x41
 5866 13e6 47140000 		.4byte	0x1447
 5867 13ea 04       		.byte	0x4
 5868 13eb 18       		.uleb128 0x18
 5869 13ec 70757400 		.ascii	"put\000"
 5870 13f0 1A       		.byte	0x1a
 5871 13f1 41       		.byte	0x41
 5872 13f2 61140000 		.4byte	0x1461
 5873 13f6 08       		.byte	0x8
 5874 13f7 18       		.uleb128 0x18
 5875 13f8 67657400 		.ascii	"get\000"
 5876 13fc 1A       		.byte	0x1a
 5877 13fd 41       		.byte	0x41
 5878 13fe 76140000 		.4byte	0x1476
 5879 1402 0C       		.byte	0xc
ARM GAS  C:\Users\adrie\AppData\Local\Temp\cc7EdWgE.s 			page 105


 5880 1403 00       		.byte	0
 5881 1404 05       		.uleb128 0x5
 5882 1405 C7130000 		.4byte	0x13c7
 5883 1409 20       		.uleb128 0x20
 5884 140a 3A000000 		.4byte	0x3a
 5885 140e 22140000 		.4byte	0x1422
 5886 1412 0E       		.uleb128 0xe
 5887 1413 C8030000 		.4byte	0x3c8
 5888 1417 0E       		.uleb128 0xe
 5889 1418 22140000 		.4byte	0x1422
 5890 141c 0E       		.uleb128 0xe
 5891 141d 3A000000 		.4byte	0x3a
 5892 1421 00       		.byte	0
 5893 1422 0B       		.uleb128 0xb
 5894 1423 04       		.byte	0x4
 5895 1424 D8000000 		.4byte	0xd8
 5896 1428 0B       		.uleb128 0xb
 5897 1429 04       		.byte	0x4
 5898 142a 09140000 		.4byte	0x1409
 5899 142e 20       		.uleb128 0x20
 5900 142f 3A000000 		.4byte	0x3a
 5901 1433 47140000 		.4byte	0x1447
 5902 1437 0E       		.uleb128 0xe
 5903 1438 C8030000 		.4byte	0x3c8
 5904 143c 0E       		.uleb128 0xe
 5905 143d AB130000 		.4byte	0x13ab
 5906 1441 0E       		.uleb128 0xe
 5907 1442 3A000000 		.4byte	0x3a
 5908 1446 00       		.byte	0
 5909 1447 0B       		.uleb128 0xb
 5910 1448 04       		.byte	0x4
 5911 1449 2E140000 		.4byte	0x142e
 5912 144d 20       		.uleb128 0x20
 5913 144e 70010000 		.4byte	0x170
 5914 1452 61140000 		.4byte	0x1461
 5915 1456 0E       		.uleb128 0xe
 5916 1457 C8030000 		.4byte	0x3c8
 5917 145b 0E       		.uleb128 0xe
 5918 145c CD000000 		.4byte	0xcd
 5919 1460 00       		.byte	0
 5920 1461 0B       		.uleb128 0xb
 5921 1462 04       		.byte	0x4
 5922 1463 4D140000 		.4byte	0x144d
 5923 1467 20       		.uleb128 0x20
 5924 1468 70010000 		.4byte	0x170
 5925 146c 76140000 		.4byte	0x1476
 5926 1470 0E       		.uleb128 0xe
 5927 1471 C8030000 		.4byte	0x3c8
 5928 1475 00       		.byte	0
 5929 1476 0B       		.uleb128 0xb
 5930 1477 04       		.byte	0x4
 5931 1478 67140000 		.4byte	0x1467
 5932 147c 17       		.uleb128 0x17
 5933 147d 04       		.byte	0x4
 5934 147e 1A       		.byte	0x1a
 5935 147f 49       		.byte	0x49
 5936 1480 91140000 		.4byte	0x1491
ARM GAS  C:\Users\adrie\AppData\Local\Temp\cc7EdWgE.s 			page 106


 5937 1484 18       		.uleb128 0x18
 5938 1485 766D7400 		.ascii	"vmt\000"
 5939 1489 1A       		.byte	0x1a
 5940 148a 4B       		.byte	0x4b
 5941 148b 91140000 		.4byte	0x1491
 5942 148f 00       		.byte	0
 5943 1490 00       		.byte	0
 5944 1491 0B       		.uleb128 0xb
 5945 1492 04       		.byte	0x4
 5946 1493 04140000 		.4byte	0x1404
 5947 1497 04       		.uleb128 0x4
 5948 1498 0E030000 		.4byte	.LASF283
 5949 149c 1A       		.byte	0x1a
 5950 149d 4D       		.byte	0x4d
 5951 149e 7C140000 		.4byte	0x147c
 5952 14a2 17       		.uleb128 0x17
 5953 14a3 0C       		.byte	0xc
 5954 14a4 1B       		.byte	0x1b
 5955 14a5 DA       		.byte	0xda
 5956 14a6 E7140000 		.4byte	0x14e7
 5957 14aa 08       		.uleb128 0x8
 5958 14ab 772A0000 		.4byte	.LASF284
 5959 14af 1B       		.byte	0x1b
 5960 14b0 DB       		.byte	0xdb
 5961 14b1 E7140000 		.4byte	0x14e7
 5962 14b5 00       		.byte	0
 5963 14b6 08       		.uleb128 0x8
 5964 14b7 9C120000 		.4byte	.LASF285
 5965 14bb 1B       		.byte	0x1b
 5966 14bc DC       		.byte	0xdc
 5967 14bd ED140000 		.4byte	0x14ed
 5968 14c1 04       		.byte	0x4
 5969 14c2 08       		.uleb128 0x8
 5970 14c3 E9040000 		.4byte	.LASF286
 5971 14c7 1B       		.byte	0x1b
 5972 14c8 DD       		.byte	0xdd
 5973 14c9 CD000000 		.4byte	0xcd
 5974 14cd 08       		.byte	0x8
 5975 14ce 08       		.uleb128 0x8
 5976 14cf E5220000 		.4byte	.LASF287
 5977 14d3 1B       		.byte	0x1b
 5978 14d4 DF       		.byte	0xdf
 5979 14d5 CD000000 		.4byte	0xcd
 5980 14d9 09       		.byte	0x9
 5981 14da 08       		.uleb128 0x8
 5982 14db F3030000 		.4byte	.LASF288
 5983 14df 1B       		.byte	0x1b
 5984 14e0 E0       		.byte	0xe0
 5985 14e1 CD000000 		.4byte	0xcd
 5986 14e5 0A       		.byte	0xa
 5987 14e6 00       		.byte	0
 5988 14e7 0B       		.uleb128 0xb
 5989 14e8 04       		.byte	0x4
 5990 14e9 7D0A0000 		.4byte	0xa7d
 5991 14ed 0B       		.uleb128 0xb
 5992 14ee 04       		.byte	0x4
 5993 14ef 0E010000 		.4byte	0x10e
ARM GAS  C:\Users\adrie\AppData\Local\Temp\cc7EdWgE.s 			page 107


 5994 14f3 04       		.uleb128 0x4
 5995 14f4 7B150000 		.4byte	.LASF289
 5996 14f8 1B       		.byte	0x1b
 5997 14f9 E1       		.byte	0xe1
 5998 14fa A2140000 		.4byte	0x14a2
 5999 14fe 05       		.uleb128 0x5
 6000 14ff F3140000 		.4byte	0x14f3
 6001 1503 13       		.uleb128 0x13
 6002 1504 FE140000 		.4byte	0x14fe
 6003 1508 13150000 		.4byte	0x1513
 6004 150c 14       		.uleb128 0x14
 6005 150d 45000000 		.4byte	0x45
 6006 1511 0F       		.byte	0xf
 6007 1512 00       		.byte	0
 6008 1513 05       		.uleb128 0x5
 6009 1514 03150000 		.4byte	0x1503
 6010 1518 15       		.uleb128 0x15
 6011 1519 3E1F0000 		.4byte	.LASF290
 6012 151d 1B       		.byte	0x1b
 6013 151e BB01     		.2byte	0x1bb
 6014 1520 13150000 		.4byte	0x1513
 6015 1524 20       		.uleb128 0x20
 6016 1525 70010000 		.4byte	0x170
 6017 1529 3D150000 		.4byte	0x153d
 6018 152d 0E       		.uleb128 0xe
 6019 152e C8030000 		.4byte	0x3c8
 6020 1532 0E       		.uleb128 0xe
 6021 1533 CD000000 		.4byte	0xcd
 6022 1537 0E       		.uleb128 0xe
 6023 1538 A7010000 		.4byte	0x1a7
 6024 153c 00       		.byte	0
 6025 153d 0B       		.uleb128 0xb
 6026 153e 04       		.byte	0x4
 6027 153f 24150000 		.4byte	0x1524
 6028 1543 20       		.uleb128 0x20
 6029 1544 70010000 		.4byte	0x170
 6030 1548 57150000 		.4byte	0x1557
 6031 154c 0E       		.uleb128 0xe
 6032 154d C8030000 		.4byte	0x3c8
 6033 1551 0E       		.uleb128 0xe
 6034 1552 A7010000 		.4byte	0x1a7
 6035 1556 00       		.byte	0
 6036 1557 0B       		.uleb128 0xb
 6037 1558 04       		.byte	0x4
 6038 1559 43150000 		.4byte	0x1543
 6039 155d 20       		.uleb128 0x20
 6040 155e 3A000000 		.4byte	0x3a
 6041 1562 7B150000 		.4byte	0x157b
 6042 1566 0E       		.uleb128 0xe
 6043 1567 C8030000 		.4byte	0x3c8
 6044 156b 0E       		.uleb128 0xe
 6045 156c 22140000 		.4byte	0x1422
 6046 1570 0E       		.uleb128 0xe
 6047 1571 3A000000 		.4byte	0x3a
 6048 1575 0E       		.uleb128 0xe
 6049 1576 A7010000 		.4byte	0x1a7
 6050 157a 00       		.byte	0
ARM GAS  C:\Users\adrie\AppData\Local\Temp\cc7EdWgE.s 			page 108


 6051 157b 0B       		.uleb128 0xb
 6052 157c 04       		.byte	0x4
 6053 157d 5D150000 		.4byte	0x155d
 6054 1581 20       		.uleb128 0x20
 6055 1582 3A000000 		.4byte	0x3a
 6056 1586 9F150000 		.4byte	0x159f
 6057 158a 0E       		.uleb128 0xe
 6058 158b C8030000 		.4byte	0x3c8
 6059 158f 0E       		.uleb128 0xe
 6060 1590 AB130000 		.4byte	0x13ab
 6061 1594 0E       		.uleb128 0xe
 6062 1595 3A000000 		.4byte	0x3a
 6063 1599 0E       		.uleb128 0xe
 6064 159a A7010000 		.4byte	0x1a7
 6065 159e 00       		.byte	0
 6066 159f 0B       		.uleb128 0xb
 6067 15a0 04       		.byte	0x4
 6068 15a1 81150000 		.4byte	0x1581
 6069 15a5 21       		.uleb128 0x21
 6070 15a6 07       		.byte	0x7
 6071 15a7 01       		.byte	0x1
 6072 15a8 6C000000 		.4byte	0x6c
 6073 15ac 1C       		.byte	0x1c
 6074 15ad 28       		.byte	0x28
 6075 15ae E9150000 		.4byte	0x15e9
 6076 15b2 22       		.uleb128 0x22
 6077 15b3 53010000 		.4byte	.LASF291
 6078 15b7 00       		.byte	0
 6079 15b8 22       		.uleb128 0x22
 6080 15b9 4B100000 		.4byte	.LASF292
 6081 15bd 01       		.byte	0x1
 6082 15be 22       		.uleb128 0x22
 6083 15bf 840C0000 		.4byte	.LASF293
 6084 15c3 02       		.byte	0x2
 6085 15c4 22       		.uleb128 0x22
 6086 15c5 A3200000 		.4byte	.LASF294
 6087 15c9 03       		.byte	0x3
 6088 15ca 22       		.uleb128 0x22
 6089 15cb CA280000 		.4byte	.LASF295
 6090 15cf 04       		.byte	0x4
 6091 15d0 22       		.uleb128 0x22
 6092 15d1 B9080000 		.4byte	.LASF296
 6093 15d5 05       		.byte	0x5
 6094 15d6 22       		.uleb128 0x22
 6095 15d7 BC220000 		.4byte	.LASF297
 6096 15db 06       		.byte	0x6
 6097 15dc 22       		.uleb128 0x22
 6098 15dd 361C0000 		.4byte	.LASF298
 6099 15e1 07       		.byte	0x7
 6100 15e2 22       		.uleb128 0x22
 6101 15e3 85280000 		.4byte	.LASF299
 6102 15e7 08       		.byte	0x8
 6103 15e8 00       		.byte	0
 6104 15e9 04       		.uleb128 0x4
 6105 15ea 9E1A0000 		.4byte	.LASF300
 6106 15ee 1C       		.byte	0x1c
 6107 15ef 32       		.byte	0x32
ARM GAS  C:\Users\adrie\AppData\Local\Temp\cc7EdWgE.s 			page 109


 6108 15f0 A5150000 		.4byte	0x15a5
 6109 15f4 17       		.uleb128 0x17
 6110 15f5 08       		.byte	0x8
 6111 15f6 1C       		.byte	0x1c
 6112 15f7 37       		.byte	0x37
 6113 15f8 15160000 		.4byte	0x1615
 6114 15fc 08       		.uleb128 0x8
 6115 15fd 20080000 		.4byte	.LASF301
 6116 1601 1C       		.byte	0x1c
 6117 1602 38       		.byte	0x38
 6118 1603 03010000 		.4byte	0x103
 6119 1607 00       		.byte	0
 6120 1608 08       		.uleb128 0x8
 6121 1609 E7210000 		.4byte	.LASF302
 6122 160d 1C       		.byte	0x1c
 6123 160e 39       		.byte	0x39
 6124 160f 03010000 		.4byte	0x103
 6125 1613 04       		.byte	0x4
 6126 1614 00       		.byte	0
 6127 1615 04       		.uleb128 0x4
 6128 1616 46240000 		.4byte	.LASF303
 6129 161a 1C       		.byte	0x1c
 6130 161b 3A       		.byte	0x3a
 6131 161c F4150000 		.4byte	0x15f4
 6132 1620 20       		.uleb128 0x20
 6133 1621 2F160000 		.4byte	0x162f
 6134 1625 2F160000 		.4byte	0x162f
 6135 1629 0E       		.uleb128 0xe
 6136 162a C8030000 		.4byte	0x3c8
 6137 162e 00       		.byte	0
 6138 162f 02       		.uleb128 0x2
 6139 1630 01       		.byte	0x1
 6140 1631 02       		.byte	0x2
 6141 1632 07010000 		.4byte	.LASF304
 6142 1636 0B       		.uleb128 0xb
 6143 1637 04       		.byte	0x4
 6144 1638 20160000 		.4byte	0x1620
 6145 163c 20       		.uleb128 0x20
 6146 163d 2F160000 		.4byte	0x162f
 6147 1641 5A160000 		.4byte	0x165a
 6148 1645 0E       		.uleb128 0xe
 6149 1646 C8030000 		.4byte	0x3c8
 6150 164a 0E       		.uleb128 0xe
 6151 164b 03010000 		.4byte	0x103
 6152 164f 0E       		.uleb128 0xe
 6153 1650 AB130000 		.4byte	0x13ab
 6154 1654 0E       		.uleb128 0xe
 6155 1655 03010000 		.4byte	0x103
 6156 1659 00       		.byte	0
 6157 165a 0B       		.uleb128 0xb
 6158 165b 04       		.byte	0x4
 6159 165c 3C160000 		.4byte	0x163c
 6160 1660 20       		.uleb128 0x20
 6161 1661 2F160000 		.4byte	0x162f
 6162 1665 7E160000 		.4byte	0x167e
 6163 1669 0E       		.uleb128 0xe
 6164 166a C8030000 		.4byte	0x3c8
ARM GAS  C:\Users\adrie\AppData\Local\Temp\cc7EdWgE.s 			page 110


 6165 166e 0E       		.uleb128 0xe
 6166 166f 03010000 		.4byte	0x103
 6167 1673 0E       		.uleb128 0xe
 6168 1674 22140000 		.4byte	0x1422
 6169 1678 0E       		.uleb128 0xe
 6170 1679 03010000 		.4byte	0x103
 6171 167d 00       		.byte	0
 6172 167e 0B       		.uleb128 0xb
 6173 167f 04       		.byte	0x4
 6174 1680 60160000 		.4byte	0x1660
 6175 1684 20       		.uleb128 0x20
 6176 1685 2F160000 		.4byte	0x162f
 6177 1689 98160000 		.4byte	0x1698
 6178 168d 0E       		.uleb128 0xe
 6179 168e C8030000 		.4byte	0x3c8
 6180 1692 0E       		.uleb128 0xe
 6181 1693 98160000 		.4byte	0x1698
 6182 1697 00       		.byte	0
 6183 1698 0B       		.uleb128 0xb
 6184 1699 04       		.byte	0x4
 6185 169a 15160000 		.4byte	0x1615
 6186 169e 0B       		.uleb128 0xb
 6187 169f 04       		.byte	0x4
 6188 16a0 84160000 		.4byte	0x1684
 6189 16a4 13       		.uleb128 0x13
 6190 16a5 03010000 		.4byte	0x103
 6191 16a9 B4160000 		.4byte	0x16b4
 6192 16ad 14       		.uleb128 0x14
 6193 16ae 45000000 		.4byte	0x45
 6194 16b2 03       		.byte	0x3
 6195 16b3 00       		.byte	0
 6196 16b4 17       		.uleb128 0x17
 6197 16b5 04       		.byte	0x4
 6198 16b6 1D       		.byte	0x1d
 6199 16b7 B3       		.byte	0xb3
 6200 16b8 D5160000 		.4byte	0x16d5
 6201 16bc 18       		.uleb128 0x18
 6202 16bd 73657400 		.ascii	"set\000"
 6203 16c1 1D       		.byte	0x1d
 6204 16c2 B4       		.byte	0xb4
 6205 16c3 E8000000 		.4byte	0xe8
 6206 16c7 00       		.byte	0
 6207 16c8 08       		.uleb128 0x8
 6208 16c9 500E0000 		.4byte	.LASF305
 6209 16cd 1D       		.byte	0x1d
 6210 16ce B5       		.byte	0xb5
 6211 16cf E8000000 		.4byte	0xe8
 6212 16d3 02       		.byte	0x2
 6213 16d4 00       		.byte	0
 6214 16d5 1D       		.uleb128 0x1d
 6215 16d6 04       		.byte	0x4
 6216 16d7 1D       		.byte	0x1d
 6217 16d8 B1       		.byte	0xb1
 6218 16d9 F0160000 		.4byte	0x16f0
 6219 16dd 23       		.uleb128 0x23
 6220 16de 5700     		.ascii	"W\000"
 6221 16e0 1D       		.byte	0x1d
ARM GAS  C:\Users\adrie\AppData\Local\Temp\cc7EdWgE.s 			page 111


 6222 16e1 B2       		.byte	0xb2
 6223 16e2 03010000 		.4byte	0x103
 6224 16e6 23       		.uleb128 0x23
 6225 16e7 4800     		.ascii	"H\000"
 6226 16e9 1D       		.byte	0x1d
 6227 16ea B6       		.byte	0xb6
 6228 16eb B4160000 		.4byte	0x16b4
 6229 16ef 00       		.byte	0
 6230 16f0 06       		.uleb128 0x6
 6231 16f1 D5160000 		.4byte	0x16d5
 6232 16f5 17       		.uleb128 0x17
 6233 16f6 2C       		.byte	0x2c
 6234 16f7 1D       		.byte	0x1d
 6235 16f8 A9       		.byte	0xa9
 6236 16f9 82170000 		.4byte	0x1782
 6237 16fd 08       		.uleb128 0x8
 6238 16fe 07230000 		.4byte	.LASF306
 6239 1702 1D       		.byte	0x1d
 6240 1703 AB       		.byte	0xab
 6241 1704 0E010000 		.4byte	0x10e
 6242 1708 00       		.byte	0
 6243 1709 08       		.uleb128 0x8
 6244 170a 64030000 		.4byte	.LASF307
 6245 170e 1D       		.byte	0x1d
 6246 170f AC       		.byte	0xac
 6247 1710 0E010000 		.4byte	0x10e
 6248 1714 04       		.byte	0x4
 6249 1715 08       		.uleb128 0x8
 6250 1716 0D100000 		.4byte	.LASF308
 6251 171a 1D       		.byte	0x1d
 6252 171b AD       		.byte	0xad
 6253 171c 0E010000 		.4byte	0x10e
 6254 1720 08       		.byte	0x8
 6255 1721 08       		.uleb128 0x8
 6256 1722 28220000 		.4byte	.LASF309
 6257 1726 1D       		.byte	0x1d
 6258 1727 AE       		.byte	0xae
 6259 1728 0E010000 		.4byte	0x10e
 6260 172c 0C       		.byte	0xc
 6261 172d 18       		.uleb128 0x18
 6262 172e 49445200 		.ascii	"IDR\000"
 6263 1732 1D       		.byte	0x1d
 6264 1733 AF       		.byte	0xaf
 6265 1734 0E010000 		.4byte	0x10e
 6266 1738 10       		.byte	0x10
 6267 1739 18       		.uleb128 0x18
 6268 173a 4F445200 		.ascii	"ODR\000"
 6269 173e 1D       		.byte	0x1d
 6270 173f B0       		.byte	0xb0
 6271 1740 0E010000 		.4byte	0x10e
 6272 1744 14       		.byte	0x14
 6273 1745 08       		.uleb128 0x8
 6274 1746 76150000 		.4byte	.LASF310
 6275 174a 1D       		.byte	0x1d
 6276 174b B7       		.byte	0xb7
 6277 174c F0160000 		.4byte	0x16f0
 6278 1750 18       		.byte	0x18
ARM GAS  C:\Users\adrie\AppData\Local\Temp\cc7EdWgE.s 			page 112


 6279 1751 08       		.uleb128 0x8
 6280 1752 0B1C0000 		.4byte	.LASF311
 6281 1756 1D       		.byte	0x1d
 6282 1757 B8       		.byte	0xb8
 6283 1758 0E010000 		.4byte	0x10e
 6284 175c 1C       		.byte	0x1c
 6285 175d 08       		.uleb128 0x8
 6286 175e 19200000 		.4byte	.LASF312
 6287 1762 1D       		.byte	0x1d
 6288 1763 B9       		.byte	0xb9
 6289 1764 0E010000 		.4byte	0x10e
 6290 1768 20       		.byte	0x20
 6291 1769 08       		.uleb128 0x8
 6292 176a 0D200000 		.4byte	.LASF313
 6293 176e 1D       		.byte	0x1d
 6294 176f BA       		.byte	0xba
 6295 1770 0E010000 		.4byte	0x10e
 6296 1774 24       		.byte	0x24
 6297 1775 18       		.uleb128 0x18
 6298 1776 42525200 		.ascii	"BRR\000"
 6299 177a 1D       		.byte	0x1d
 6300 177b BB       		.byte	0xbb
 6301 177c 0E010000 		.4byte	0x10e
 6302 1780 28       		.byte	0x28
 6303 1781 00       		.byte	0
 6304 1782 04       		.uleb128 0x4
 6305 1783 B4120000 		.4byte	.LASF314
 6306 1787 1D       		.byte	0x1d
 6307 1788 BC       		.byte	0xbc
 6308 1789 F5160000 		.4byte	0x16f5
 6309 178d 17       		.uleb128 0x17
 6310 178e 1C       		.byte	0x1c
 6311 178f 1D       		.byte	0x1d
 6312 1790 C1       		.byte	0xc1
 6313 1791 EA170000 		.4byte	0x17ea
 6314 1795 08       		.uleb128 0x8
 6315 1796 B9260000 		.4byte	.LASF315
 6316 179a 1D       		.byte	0x1d
 6317 179b C3       		.byte	0xc3
 6318 179c 03010000 		.4byte	0x103
 6319 17a0 00       		.byte	0
 6320 17a1 08       		.uleb128 0x8
 6321 17a2 5D030000 		.4byte	.LASF316
 6322 17a6 1D       		.byte	0x1d
 6323 17a7 C5       		.byte	0xc5
 6324 17a8 03010000 		.4byte	0x103
 6325 17ac 04       		.byte	0x4
 6326 17ad 08       		.uleb128 0x8
 6327 17ae 5A020000 		.4byte	.LASF317
 6328 17b2 1D       		.byte	0x1d
 6329 17b3 C7       		.byte	0xc7
 6330 17b4 03010000 		.4byte	0x103
 6331 17b8 08       		.byte	0x8
 6332 17b9 08       		.uleb128 0x8
 6333 17ba BA250000 		.4byte	.LASF318
 6334 17be 1D       		.byte	0x1d
 6335 17bf C9       		.byte	0xc9
ARM GAS  C:\Users\adrie\AppData\Local\Temp\cc7EdWgE.s 			page 113


 6336 17c0 03010000 		.4byte	0x103
 6337 17c4 0C       		.byte	0xc
 6338 17c5 18       		.uleb128 0x18
 6339 17c6 6F647200 		.ascii	"odr\000"
 6340 17ca 1D       		.byte	0x1d
 6341 17cb CB       		.byte	0xcb
 6342 17cc 03010000 		.4byte	0x103
 6343 17d0 10       		.byte	0x10
 6344 17d1 08       		.uleb128 0x8
 6345 17d2 C8220000 		.4byte	.LASF319
 6346 17d6 1D       		.byte	0x1d
 6347 17d7 CD       		.byte	0xcd
 6348 17d8 03010000 		.4byte	0x103
 6349 17dc 14       		.byte	0x14
 6350 17dd 08       		.uleb128 0x8
 6351 17de 9D000000 		.4byte	.LASF320
 6352 17e2 1D       		.byte	0x1d
 6353 17e3 CF       		.byte	0xcf
 6354 17e4 03010000 		.4byte	0x103
 6355 17e8 18       		.byte	0x18
 6356 17e9 00       		.byte	0
 6357 17ea 04       		.uleb128 0x4
 6358 17eb F91E0000 		.4byte	.LASF321
 6359 17ef 1D       		.byte	0x1d
 6360 17f0 D0       		.byte	0xd0
 6361 17f1 8D170000 		.4byte	0x178d
 6362 17f5 17       		.uleb128 0x17
 6363 17f6 FC       		.byte	0xfc
 6364 17f7 1D       		.byte	0x1d
 6365 17f8 D9       		.byte	0xd9
 6366 17f9 6A180000 		.4byte	0x186a
 6367 17fd 08       		.uleb128 0x8
 6368 17fe 5B130000 		.4byte	.LASF322
 6369 1802 1D       		.byte	0x1d
 6370 1803 DC       		.byte	0xdc
 6371 1804 EA170000 		.4byte	0x17ea
 6372 1808 00       		.byte	0
 6373 1809 08       		.uleb128 0x8
 6374 180a 2F030000 		.4byte	.LASF323
 6375 180e 1D       		.byte	0x1d
 6376 180f E0       		.byte	0xe0
 6377 1810 EA170000 		.4byte	0x17ea
 6378 1814 1C       		.byte	0x1c
 6379 1815 08       		.uleb128 0x8
 6380 1816 BC010000 		.4byte	.LASF324
 6381 181a 1D       		.byte	0x1d
 6382 181b E4       		.byte	0xe4
 6383 181c EA170000 		.4byte	0x17ea
 6384 1820 38       		.byte	0x38
 6385 1821 08       		.uleb128 0x8
 6386 1822 6E0F0000 		.4byte	.LASF325
 6387 1826 1D       		.byte	0x1d
 6388 1827 E8       		.byte	0xe8
 6389 1828 EA170000 		.4byte	0x17ea
 6390 182c 54       		.byte	0x54
 6391 182d 08       		.uleb128 0x8
 6392 182e BF1D0000 		.4byte	.LASF326
ARM GAS  C:\Users\adrie\AppData\Local\Temp\cc7EdWgE.s 			page 114


 6393 1832 1D       		.byte	0x1d
 6394 1833 EC       		.byte	0xec
 6395 1834 EA170000 		.4byte	0x17ea
 6396 1838 70       		.byte	0x70
 6397 1839 08       		.uleb128 0x8
 6398 183a 782B0000 		.4byte	.LASF327
 6399 183e 1D       		.byte	0x1d
 6400 183f F0       		.byte	0xf0
 6401 1840 EA170000 		.4byte	0x17ea
 6402 1844 8C       		.byte	0x8c
 6403 1845 08       		.uleb128 0x8
 6404 1846 1D0D0000 		.4byte	.LASF328
 6405 184a 1D       		.byte	0x1d
 6406 184b F4       		.byte	0xf4
 6407 184c EA170000 		.4byte	0x17ea
 6408 1850 A8       		.byte	0xa8
 6409 1851 08       		.uleb128 0x8
 6410 1852 581B0000 		.4byte	.LASF329
 6411 1856 1D       		.byte	0x1d
 6412 1857 F8       		.byte	0xf8
 6413 1858 EA170000 		.4byte	0x17ea
 6414 185c C4       		.byte	0xc4
 6415 185d 08       		.uleb128 0x8
 6416 185e 91280000 		.4byte	.LASF330
 6417 1862 1D       		.byte	0x1d
 6418 1863 FC       		.byte	0xfc
 6419 1864 EA170000 		.4byte	0x17ea
 6420 1868 E0       		.byte	0xe0
 6421 1869 00       		.byte	0
 6422 186a 04       		.uleb128 0x4
 6423 186b 5D0C0000 		.4byte	.LASF331
 6424 186f 1D       		.byte	0x1d
 6425 1870 FE       		.byte	0xfe
 6426 1871 F5170000 		.4byte	0x17f5
 6427 1875 05       		.uleb128 0x5
 6428 1876 6A180000 		.4byte	0x186a
 6429 187a 1A       		.uleb128 0x1a
 6430 187b 5F1B0000 		.4byte	.LASF332
 6431 187f 1D       		.byte	0x1d
 6432 1880 1B01     		.2byte	0x11b
 6433 1882 86180000 		.4byte	0x1886
 6434 1886 0B       		.uleb128 0xb
 6435 1887 04       		.byte	0x4
 6436 1888 82170000 		.4byte	0x1782
 6437 188c 15       		.uleb128 0x15
 6438 188d BE230000 		.4byte	.LASF333
 6439 1891 1D       		.byte	0x1d
 6440 1892 DA01     		.2byte	0x1da
 6441 1894 75180000 		.4byte	0x1875
 6442 1898 21       		.uleb128 0x21
 6443 1899 07       		.byte	0x7
 6444 189a 01       		.byte	0x1
 6445 189b 6C000000 		.4byte	0x6c
 6446 189f 1E       		.byte	0x1e
 6447 18a0 46       		.byte	0x46
 6448 18a1 CA180000 		.4byte	0x18ca
 6449 18a5 22       		.uleb128 0x22
ARM GAS  C:\Users\adrie\AppData\Local\Temp\cc7EdWgE.s 			page 115


 6450 18a6 78090000 		.4byte	.LASF334
 6451 18aa 00       		.byte	0
 6452 18ab 22       		.uleb128 0x22
 6453 18ac 07180000 		.4byte	.LASF335
 6454 18b0 01       		.byte	0x1
 6455 18b1 22       		.uleb128 0x22
 6456 18b2 3F260000 		.4byte	.LASF336
 6457 18b6 02       		.byte	0x2
 6458 18b7 22       		.uleb128 0x22
 6459 18b8 56150000 		.4byte	.LASF337
 6460 18bc 03       		.byte	0x3
 6461 18bd 22       		.uleb128 0x22
 6462 18be 16070000 		.4byte	.LASF338
 6463 18c2 04       		.byte	0x4
 6464 18c3 22       		.uleb128 0x22
 6465 18c4 FE140000 		.4byte	.LASF339
 6466 18c8 05       		.byte	0x5
 6467 18c9 00       		.byte	0
 6468 18ca 04       		.uleb128 0x4
 6469 18cb C8040000 		.4byte	.LASF340
 6470 18cf 1E       		.byte	0x1e
 6471 18d0 4D       		.byte	0x4d
 6472 18d1 98180000 		.4byte	0x1898
 6473 18d5 1A       		.uleb128 0x1a
 6474 18d6 2E140000 		.4byte	.LASF341
 6475 18da 1F       		.byte	0x1f
 6476 18db 2701     		.2byte	0x127
 6477 18dd E8000000 		.4byte	0xe8
 6478 18e1 1A       		.uleb128 0x1a
 6479 18e2 CC200000 		.4byte	.LASF342
 6480 18e6 1F       		.byte	0x1f
 6481 18e7 2C01     		.2byte	0x12c
 6482 18e9 E8000000 		.4byte	0xe8
 6483 18ed 24       		.uleb128 0x24
 6484 18ee 07       		.byte	0x7
 6485 18ef 01       		.byte	0x1
 6486 18f0 6C000000 		.4byte	0x6c
 6487 18f4 1F       		.byte	0x1f
 6488 18f5 3301     		.2byte	0x133
 6489 18f7 08190000 		.4byte	0x1908
 6490 18fb 22       		.uleb128 0x22
 6491 18fc D60F0000 		.4byte	.LASF343
 6492 1900 00       		.byte	0
 6493 1901 22       		.uleb128 0x22
 6494 1902 72020000 		.4byte	.LASF344
 6495 1906 01       		.byte	0x1
 6496 1907 00       		.byte	0
 6497 1908 1A       		.uleb128 0x1a
 6498 1909 B0270000 		.4byte	.LASF345
 6499 190d 1F       		.byte	0x1f
 6500 190e 3601     		.2byte	0x136
 6501 1910 ED180000 		.4byte	0x18ed
 6502 1914 1A       		.uleb128 0x1a
 6503 1915 A5100000 		.4byte	.LASF346
 6504 1919 1F       		.byte	0x1f
 6505 191a 3B01     		.2byte	0x13b
 6506 191c 20190000 		.4byte	0x1920
ARM GAS  C:\Users\adrie\AppData\Local\Temp\cc7EdWgE.s 			page 116


 6507 1920 0C       		.uleb128 0xc
 6508 1921 A5100000 		.4byte	.LASF346
 6509 1925 38       		.byte	0x38
 6510 1926 1F       		.byte	0x1f
 6511 1927 9F01     		.2byte	0x19f
 6512 1929 B0190000 		.4byte	0x19b0
 6513 192d 0A       		.uleb128 0xa
 6514 192e 12190000 		.4byte	.LASF347
 6515 1932 1F       		.byte	0x1f
 6516 1933 A301     		.2byte	0x1a3
 6517 1935 CA180000 		.4byte	0x18ca
 6518 1939 00       		.byte	0
 6519 193a 0A       		.uleb128 0xa
 6520 193b 65200000 		.4byte	.LASF348
 6521 193f 1F       		.byte	0x1f
 6522 1940 A701     		.2byte	0x1a7
 6523 1942 D71A0000 		.4byte	0x1ad7
 6524 1946 04       		.byte	0x4
 6525 1947 0A       		.uleb128 0xa
 6526 1948 DF010000 		.4byte	.LASF349
 6527 194c 1F       		.byte	0x1f
 6528 194d AB01     		.2byte	0x1ab
 6529 194f DD190000 		.4byte	0x19dd
 6530 1953 08       		.byte	0x8
 6531 1954 0A       		.uleb128 0xa
 6532 1955 9F1C0000 		.4byte	.LASF350
 6533 1959 1F       		.byte	0x1f
 6534 195a AF01     		.2byte	0x1af
 6535 195c 3A000000 		.4byte	0x3a
 6536 1960 0C       		.byte	0xc
 6537 1961 0A       		.uleb128 0xa
 6538 1962 EA230000 		.4byte	.LASF351
 6539 1966 1F       		.byte	0x1f
 6540 1967 B301     		.2byte	0x1b3
 6541 1969 DD1A0000 		.4byte	0x1add
 6542 196d 10       		.byte	0x10
 6543 196e 0A       		.uleb128 0xa
 6544 196f F7070000 		.4byte	.LASF352
 6545 1973 1F       		.byte	0x1f
 6546 1974 B801     		.2byte	0x1b8
 6547 1976 E0020000 		.4byte	0x2e0
 6548 197a 14       		.byte	0x14
 6549 197b 0A       		.uleb128 0xa
 6550 197c 170E0000 		.4byte	.LASF353
 6551 1980 1F       		.byte	0x1f
 6552 1981 BE01     		.2byte	0x1be
 6553 1983 82120000 		.4byte	0x1282
 6554 1987 18       		.byte	0x18
 6555 1988 09       		.uleb128 0x9
 6556 1989 61646300 		.ascii	"adc\000"
 6557 198d 1F       		.byte	0x1f
 6558 198e C701     		.2byte	0x1c7
 6559 1990 E31A0000 		.4byte	0x1ae3
 6560 1994 2C       		.byte	0x2c
 6561 1995 0A       		.uleb128 0xa
 6562 1996 F40B0000 		.4byte	.LASF354
 6563 199a 1F       		.byte	0x1f
ARM GAS  C:\Users\adrie\AppData\Local\Temp\cc7EdWgE.s 			page 117


 6564 199b CB01     		.2byte	0x1cb
 6565 199d E91A0000 		.4byte	0x1ae9
 6566 19a1 30       		.byte	0x30
 6567 19a2 0A       		.uleb128 0xa
 6568 19a3 941B0000 		.4byte	.LASF355
 6569 19a7 1F       		.byte	0x1f
 6570 19a8 CF01     		.2byte	0x1cf
 6571 19aa 03010000 		.4byte	0x103
 6572 19ae 34       		.byte	0x34
 6573 19af 00       		.byte	0
 6574 19b0 1A       		.uleb128 0x1a
 6575 19b1 9A1F0000 		.4byte	.LASF356
 6576 19b5 1F       		.byte	0x1f
 6577 19b6 4501     		.2byte	0x145
 6578 19b8 BC190000 		.4byte	0x19bc
 6579 19bc 0B       		.uleb128 0xb
 6580 19bd 04       		.byte	0x4
 6581 19be C2190000 		.4byte	0x19c2
 6582 19c2 0D       		.uleb128 0xd
 6583 19c3 D7190000 		.4byte	0x19d7
 6584 19c7 0E       		.uleb128 0xe
 6585 19c8 D7190000 		.4byte	0x19d7
 6586 19cc 0E       		.uleb128 0xe
 6587 19cd DD190000 		.4byte	0x19dd
 6588 19d1 0E       		.uleb128 0xe
 6589 19d2 3A000000 		.4byte	0x3a
 6590 19d6 00       		.byte	0
 6591 19d7 0B       		.uleb128 0xb
 6592 19d8 04       		.byte	0x4
 6593 19d9 14190000 		.4byte	0x1914
 6594 19dd 0B       		.uleb128 0xb
 6595 19de 04       		.byte	0x4
 6596 19df D5180000 		.4byte	0x18d5
 6597 19e3 1A       		.uleb128 0x1a
 6598 19e4 F4180000 		.4byte	.LASF357
 6599 19e8 1F       		.byte	0x1f
 6600 19e9 4E01     		.2byte	0x14e
 6601 19eb EF190000 		.4byte	0x19ef
 6602 19ef 0B       		.uleb128 0xb
 6603 19f0 04       		.byte	0x4
 6604 19f1 F5190000 		.4byte	0x19f5
 6605 19f5 0D       		.uleb128 0xd
 6606 19f6 051A0000 		.4byte	0x1a05
 6607 19fa 0E       		.uleb128 0xe
 6608 19fb D7190000 		.4byte	0x19d7
 6609 19ff 0E       		.uleb128 0xe
 6610 1a00 08190000 		.4byte	0x1908
 6611 1a04 00       		.byte	0
 6612 1a05 19       		.uleb128 0x19
 6613 1a06 28       		.byte	0x28
 6614 1a07 1F       		.byte	0x1f
 6615 1a08 5801     		.2byte	0x158
 6616 1a0a 9E1A0000 		.4byte	0x1a9e
 6617 1a0e 0A       		.uleb128 0xa
 6618 1a0f A5260000 		.4byte	.LASF358
 6619 1a13 1F       		.byte	0x1f
 6620 1a14 5C01     		.2byte	0x15c
ARM GAS  C:\Users\adrie\AppData\Local\Temp\cc7EdWgE.s 			page 118


 6621 1a16 2F160000 		.4byte	0x162f
 6622 1a1a 00       		.byte	0
 6623 1a1b 0A       		.uleb128 0xa
 6624 1a1c 06130000 		.4byte	.LASF359
 6625 1a20 1F       		.byte	0x1f
 6626 1a21 6001     		.2byte	0x160
 6627 1a23 E1180000 		.4byte	0x18e1
 6628 1a27 02       		.byte	0x2
 6629 1a28 0A       		.uleb128 0xa
 6630 1a29 7B0A0000 		.4byte	.LASF360
 6631 1a2d 1F       		.byte	0x1f
 6632 1a2e 6401     		.2byte	0x164
 6633 1a30 B0190000 		.4byte	0x19b0
 6634 1a34 04       		.byte	0x4
 6635 1a35 0A       		.uleb128 0xa
 6636 1a36 BC280000 		.4byte	.LASF361
 6637 1a3a 1F       		.byte	0x1f
 6638 1a3b 6801     		.2byte	0x168
 6639 1a3d E3190000 		.4byte	0x19e3
 6640 1a41 08       		.byte	0x8
 6641 1a42 09       		.uleb128 0x9
 6642 1a43 63723100 		.ascii	"cr1\000"
 6643 1a47 1F       		.byte	0x1f
 6644 1a48 6F01     		.2byte	0x16f
 6645 1a4a 03010000 		.4byte	0x103
 6646 1a4e 0C       		.byte	0xc
 6647 1a4f 09       		.uleb128 0x9
 6648 1a50 63723200 		.ascii	"cr2\000"
 6649 1a54 1F       		.byte	0x1f
 6650 1a55 7601     		.2byte	0x176
 6651 1a57 03010000 		.4byte	0x103
 6652 1a5b 10       		.byte	0x10
 6653 1a5c 0A       		.uleb128 0xa
 6654 1a5d 621A0000 		.4byte	.LASF362
 6655 1a61 1F       		.byte	0x1f
 6656 1a62 7C01     		.2byte	0x17c
 6657 1a64 03010000 		.4byte	0x103
 6658 1a68 14       		.byte	0x14
 6659 1a69 0A       		.uleb128 0xa
 6660 1a6a 681A0000 		.4byte	.LASF363
 6661 1a6e 1F       		.byte	0x1f
 6662 1a6f 8201     		.2byte	0x182
 6663 1a71 03010000 		.4byte	0x103
 6664 1a75 18       		.byte	0x18
 6665 1a76 0A       		.uleb128 0xa
 6666 1a77 44010000 		.4byte	.LASF364
 6667 1a7b 1F       		.byte	0x1f
 6668 1a7c 8701     		.2byte	0x187
 6669 1a7e 03010000 		.4byte	0x103
 6670 1a82 1C       		.byte	0x1c
 6671 1a83 0A       		.uleb128 0xa
 6672 1a84 342A0000 		.4byte	.LASF365
 6673 1a88 1F       		.byte	0x1f
 6674 1a89 8C01     		.2byte	0x18c
 6675 1a8b 03010000 		.4byte	0x103
 6676 1a8f 20       		.byte	0x20
 6677 1a90 0A       		.uleb128 0xa
ARM GAS  C:\Users\adrie\AppData\Local\Temp\cc7EdWgE.s 			page 119


 6678 1a91 392A0000 		.4byte	.LASF366
 6679 1a95 1F       		.byte	0x1f
 6680 1a96 9101     		.2byte	0x191
 6681 1a98 03010000 		.4byte	0x103
 6682 1a9c 24       		.byte	0x24
 6683 1a9d 00       		.byte	0
 6684 1a9e 1A       		.uleb128 0x1a
 6685 1a9f 34060000 		.4byte	.LASF367
 6686 1aa3 1F       		.byte	0x1f
 6687 1aa4 9201     		.2byte	0x192
 6688 1aa6 051A0000 		.4byte	0x1a05
 6689 1aaa 05       		.uleb128 0x5
 6690 1aab 9E1A0000 		.4byte	0x1a9e
 6691 1aaf 19       		.uleb128 0x19
 6692 1ab0 04       		.byte	0x4
 6693 1ab1 1F       		.byte	0x1f
 6694 1ab2 9801     		.2byte	0x198
 6695 1ab4 C61A0000 		.4byte	0x1ac6
 6696 1ab8 0A       		.uleb128 0xa
 6697 1ab9 7E2A0000 		.4byte	.LASF368
 6698 1abd 1F       		.byte	0x1f
 6699 1abe 9901     		.2byte	0x199
 6700 1ac0 03010000 		.4byte	0x103
 6701 1ac4 00       		.byte	0
 6702 1ac5 00       		.byte	0
 6703 1ac6 1A       		.uleb128 0x1a
 6704 1ac7 BD100000 		.4byte	.LASF369
 6705 1acb 1F       		.byte	0x1f
 6706 1acc 9A01     		.2byte	0x19a
 6707 1ace AF1A0000 		.4byte	0x1aaf
 6708 1ad2 05       		.uleb128 0x5
 6709 1ad3 C61A0000 		.4byte	0x1ac6
 6710 1ad7 0B       		.uleb128 0xb
 6711 1ad8 04       		.byte	0x4
 6712 1ad9 D21A0000 		.4byte	0x1ad2
 6713 1add 0B       		.uleb128 0xb
 6714 1ade 04       		.byte	0x4
 6715 1adf AA1A0000 		.4byte	0x1aaa
 6716 1ae3 0B       		.uleb128 0xb
 6717 1ae4 04       		.byte	0x4
 6718 1ae5 65060000 		.4byte	0x665
 6719 1ae9 0B       		.uleb128 0xb
 6720 1aea 04       		.byte	0x4
 6721 1aeb FE140000 		.4byte	0x14fe
 6722 1aef 15       		.uleb128 0x15
 6723 1af0 7D1B0000 		.4byte	.LASF370
 6724 1af4 1F       		.byte	0x1f
 6725 1af5 1402     		.2byte	0x214
 6726 1af7 14190000 		.4byte	0x1914
 6727 1afb 15       		.uleb128 0x15
 6728 1afc 831B0000 		.4byte	.LASF371
 6729 1b00 1F       		.byte	0x1f
 6730 1b01 1802     		.2byte	0x218
 6731 1b03 14190000 		.4byte	0x1914
 6732 1b07 15       		.uleb128 0x15
 6733 1b08 891B0000 		.4byte	.LASF372
 6734 1b0c 1F       		.byte	0x1f
ARM GAS  C:\Users\adrie\AppData\Local\Temp\cc7EdWgE.s 			page 120


 6735 1b0d 1C02     		.2byte	0x21c
 6736 1b0f 14190000 		.4byte	0x1914
 6737 1b13 21       		.uleb128 0x21
 6738 1b14 07       		.byte	0x7
 6739 1b15 01       		.byte	0x1
 6740 1b16 6C000000 		.4byte	0x6c
 6741 1b1a 20       		.byte	0x20
 6742 1b1b 5F       		.byte	0x5f
 6743 1b1c 3F1B0000 		.4byte	0x1b3f
 6744 1b20 22       		.uleb128 0x22
 6745 1b21 590B0000 		.4byte	.LASF373
 6746 1b25 00       		.byte	0
 6747 1b26 22       		.uleb128 0x22
 6748 1b27 D5000000 		.4byte	.LASF374
 6749 1b2b 01       		.byte	0x1
 6750 1b2c 22       		.uleb128 0x22
 6751 1b2d 5C000000 		.4byte	.LASF375
 6752 1b31 02       		.byte	0x2
 6753 1b32 22       		.uleb128 0x22
 6754 1b33 62060000 		.4byte	.LASF376
 6755 1b37 03       		.byte	0x3
 6756 1b38 22       		.uleb128 0x22
 6757 1b39 460B0000 		.4byte	.LASF377
 6758 1b3d 04       		.byte	0x4
 6759 1b3e 00       		.byte	0
 6760 1b3f 04       		.uleb128 0x4
 6761 1b40 91060000 		.4byte	.LASF378
 6762 1b44 20       		.byte	0x20
 6763 1b45 65       		.byte	0x65
 6764 1b46 131B0000 		.4byte	0x1b13
 6765 1b4a 13       		.uleb128 0x13
 6766 1b4b CD000000 		.4byte	0xcd
 6767 1b4f 5A1B0000 		.4byte	0x1b5a
 6768 1b53 14       		.uleb128 0x14
 6769 1b54 45000000 		.4byte	0x45
 6770 1b58 07       		.byte	0x7
 6771 1b59 00       		.byte	0
 6772 1b5a 17       		.uleb128 0x17
 6773 1b5b 08       		.byte	0x8
 6774 1b5c 21       		.byte	0x21
 6775 1b5d F4       		.byte	0xf4
 6776 1b5e 7C1B0000 		.4byte	0x1b7c
 6777 1b62 18       		.uleb128 0x18
 6778 1b63 6D637200 		.ascii	"mcr\000"
 6779 1b67 21       		.byte	0x21
 6780 1b68 FA       		.byte	0xfa
 6781 1b69 03010000 		.4byte	0x103
 6782 1b6d 00       		.byte	0
 6783 1b6e 09       		.uleb128 0x9
 6784 1b6f 62747200 		.ascii	"btr\000"
 6785 1b73 21       		.byte	0x21
 6786 1b74 0001     		.2byte	0x100
 6787 1b76 03010000 		.4byte	0x103
 6788 1b7a 04       		.byte	0x4
 6789 1b7b 00       		.byte	0
 6790 1b7c 1A       		.uleb128 0x1a
 6791 1b7d B51D0000 		.4byte	.LASF379
ARM GAS  C:\Users\adrie\AppData\Local\Temp\cc7EdWgE.s 			page 121


 6792 1b81 21       		.byte	0x21
 6793 1b82 0101     		.2byte	0x101
 6794 1b84 5A1B0000 		.4byte	0x1b5a
 6795 1b88 05       		.uleb128 0x5
 6796 1b89 7C1B0000 		.4byte	0x1b7c
 6797 1b8d 19       		.uleb128 0x19
 6798 1b8e 30       		.byte	0x30
 6799 1b8f 21       		.byte	0x21
 6800 1b90 0601     		.2byte	0x106
 6801 1b92 191C0000 		.4byte	0x1c19
 6802 1b96 0A       		.uleb128 0xa
 6803 1b97 12190000 		.4byte	.LASF347
 6804 1b9b 21       		.byte	0x21
 6805 1b9c 0A01     		.2byte	0x10a
 6806 1b9e 3F1B0000 		.4byte	0x1b3f
 6807 1ba2 00       		.byte	0
 6808 1ba3 0A       		.uleb128 0xa
 6809 1ba4 65200000 		.4byte	.LASF348
 6810 1ba8 21       		.byte	0x21
 6811 1ba9 0E01     		.2byte	0x10e
 6812 1bab 191C0000 		.4byte	0x1c19
 6813 1baf 04       		.byte	0x4
 6814 1bb0 0A       		.uleb128 0xa
 6815 1bb1 D10A0000 		.4byte	.LASF380
 6816 1bb5 21       		.byte	0x21
 6817 1bb6 1201     		.2byte	0x112
 6818 1bb8 15030000 		.4byte	0x315
 6819 1bbc 08       		.byte	0x8
 6820 1bbd 0A       		.uleb128 0xa
 6821 1bbe A5230000 		.4byte	.LASF381
 6822 1bc2 21       		.byte	0x21
 6823 1bc3 1601     		.2byte	0x116
 6824 1bc5 15030000 		.4byte	0x315
 6825 1bc9 10       		.byte	0x10
 6826 1bca 0A       		.uleb128 0xa
 6827 1bcb 701D0000 		.4byte	.LASF382
 6828 1bcf 21       		.byte	0x21
 6829 1bd0 2301     		.2byte	0x123
 6830 1bd2 06130000 		.4byte	0x1306
 6831 1bd6 18       		.byte	0x18
 6832 1bd7 0A       		.uleb128 0xa
 6833 1bd8 FA0C0000 		.4byte	.LASF383
 6834 1bdc 21       		.byte	0x21
 6835 1bdd 2A01     		.2byte	0x12a
 6836 1bdf 06130000 		.4byte	0x1306
 6837 1be3 1C       		.byte	0x1c
 6838 1be4 0A       		.uleb128 0xa
 6839 1be5 FA120000 		.4byte	.LASF384
 6840 1be9 21       		.byte	0x21
 6841 1bea 3001     		.2byte	0x130
 6842 1bec 06130000 		.4byte	0x1306
 6843 1bf0 20       		.byte	0x20
 6844 1bf1 0A       		.uleb128 0xa
 6845 1bf2 D0030000 		.4byte	.LASF385
 6846 1bf6 21       		.byte	0x21
 6847 1bf7 3501     		.2byte	0x135
 6848 1bf9 06130000 		.4byte	0x1306
ARM GAS  C:\Users\adrie\AppData\Local\Temp\cc7EdWgE.s 			page 122


 6849 1bfd 24       		.byte	0x24
 6850 1bfe 0A       		.uleb128 0xa
 6851 1bff 5C0A0000 		.4byte	.LASF386
 6852 1c03 21       		.byte	0x21
 6853 1c04 3901     		.2byte	0x139
 6854 1c06 06130000 		.4byte	0x1306
 6855 1c0a 28       		.byte	0x28
 6856 1c0b 09       		.uleb128 0x9
 6857 1c0c 63616E00 		.ascii	"can\000"
 6858 1c10 21       		.byte	0x21
 6859 1c11 3F01     		.2byte	0x13f
 6860 1c13 1F1C0000 		.4byte	0x1c1f
 6861 1c17 2C       		.byte	0x2c
 6862 1c18 00       		.byte	0
 6863 1c19 0B       		.uleb128 0xb
 6864 1c1a 04       		.byte	0x4
 6865 1c1b 881B0000 		.4byte	0x1b88
 6866 1c1f 0B       		.uleb128 0xb
 6867 1c20 04       		.byte	0x4
 6868 1c21 AE080000 		.4byte	0x8ae
 6869 1c25 1A       		.uleb128 0x1a
 6870 1c26 57040000 		.4byte	.LASF387
 6871 1c2a 21       		.byte	0x21
 6872 1c2b 4001     		.2byte	0x140
 6873 1c2d 8D1B0000 		.4byte	0x1b8d
 6874 1c31 15       		.uleb128 0x15
 6875 1c32 73250000 		.4byte	.LASF388
 6876 1c36 21       		.byte	0x21
 6877 1c37 4B01     		.2byte	0x14b
 6878 1c39 251C0000 		.4byte	0x1c25
 6879 1c3d 21       		.uleb128 0x21
 6880 1c3e 07       		.byte	0x7
 6881 1c3f 01       		.byte	0x1
 6882 1c40 6C000000 		.4byte	0x6c
 6883 1c44 22       		.byte	0x22
 6884 1c45 46       		.byte	0x46
 6885 1c46 6F1C0000 		.4byte	0x1c6f
 6886 1c4a 22       		.uleb128 0x22
 6887 1c4b C1200000 		.4byte	.LASF389
 6888 1c4f 00       		.byte	0
 6889 1c50 22       		.uleb128 0x22
 6890 1c51 E4260000 		.4byte	.LASF390
 6891 1c55 01       		.byte	0x1
 6892 1c56 22       		.uleb128 0x22
 6893 1c57 15100000 		.4byte	.LASF391
 6894 1c5b 02       		.byte	0x2
 6895 1c5c 22       		.uleb128 0x22
 6896 1c5d 07190000 		.4byte	.LASF392
 6897 1c61 03       		.byte	0x3
 6898 1c62 22       		.uleb128 0x22
 6899 1c63 41200000 		.4byte	.LASF393
 6900 1c67 04       		.byte	0x4
 6901 1c68 22       		.uleb128 0x22
 6902 1c69 56120000 		.4byte	.LASF394
 6903 1c6d 05       		.byte	0x5
 6904 1c6e 00       		.byte	0
 6905 1c6f 04       		.uleb128 0x4
ARM GAS  C:\Users\adrie\AppData\Local\Temp\cc7EdWgE.s 			page 123


 6906 1c70 F71C0000 		.4byte	.LASF395
 6907 1c74 22       		.byte	0x22
 6908 1c75 4D       		.byte	0x4d
 6909 1c76 3D1C0000 		.4byte	0x1c3d
 6910 1c7a 17       		.uleb128 0x17
 6911 1c7b 1C       		.byte	0x1c
 6912 1c7c 23       		.byte	0x23
 6913 1c7d F9       		.byte	0xf9
 6914 1c7e DD1C0000 		.4byte	0x1cdd
 6915 1c82 18       		.uleb128 0x18
 6916 1c83 64616300 		.ascii	"dac\000"
 6917 1c87 23       		.byte	0x23
 6918 1c88 FD       		.byte	0xfd
 6919 1c89 DD1C0000 		.4byte	0x1cdd
 6920 1c8d 00       		.byte	0
 6921 1c8e 0A       		.uleb128 0xa
 6922 1c8f 231C0000 		.4byte	.LASF396
 6923 1c93 23       		.byte	0x23
 6924 1c94 0101     		.2byte	0x101
 6925 1c96 03010000 		.4byte	0x103
 6926 1c9a 04       		.byte	0x4
 6927 1c9b 0A       		.uleb128 0xa
 6928 1c9c FE070000 		.4byte	.LASF397
 6929 1ca0 23       		.byte	0x23
 6930 1ca1 0501     		.2byte	0x105
 6931 1ca3 03010000 		.4byte	0x103
 6932 1ca7 08       		.byte	0x8
 6933 1ca8 0A       		.uleb128 0xa
 6934 1ca9 FD010000 		.4byte	.LASF398
 6935 1cad 23       		.byte	0x23
 6936 1cae 0901     		.2byte	0x109
 6937 1cb0 03010000 		.4byte	0x103
 6938 1cb4 0C       		.byte	0xc
 6939 1cb5 09       		.uleb128 0x9
 6940 1cb6 646D6100 		.ascii	"dma\000"
 6941 1cba 23       		.byte	0x23
 6942 1cbb 0D01     		.2byte	0x10d
 6943 1cbd E91A0000 		.4byte	0x1ae9
 6944 1cc1 10       		.byte	0x10
 6945 1cc2 0A       		.uleb128 0xa
 6946 1cc3 941B0000 		.4byte	.LASF355
 6947 1cc7 23       		.byte	0x23
 6948 1cc8 1101     		.2byte	0x111
 6949 1cca 03010000 		.4byte	0x103
 6950 1cce 14       		.byte	0x14
 6951 1ccf 0A       		.uleb128 0xa
 6952 1cd0 381B0000 		.4byte	.LASF399
 6953 1cd4 23       		.byte	0x23
 6954 1cd5 1501     		.2byte	0x115
 6955 1cd7 03010000 		.4byte	0x103
 6956 1cdb 18       		.byte	0x18
 6957 1cdc 00       		.byte	0
 6958 1cdd 0B       		.uleb128 0xb
 6959 1cde 04       		.byte	0x4
 6960 1cdf 78090000 		.4byte	0x978
 6961 1ce3 1A       		.uleb128 0x1a
 6962 1ce4 77030000 		.4byte	.LASF400
ARM GAS  C:\Users\adrie\AppData\Local\Temp\cc7EdWgE.s 			page 124


 6963 1ce8 23       		.byte	0x23
 6964 1ce9 1601     		.2byte	0x116
 6965 1ceb 7A1C0000 		.4byte	0x1c7a
 6966 1cef 05       		.uleb128 0x5
 6967 1cf0 E31C0000 		.4byte	0x1ce3
 6968 1cf4 1A       		.uleb128 0x1a
 6969 1cf5 2C0E0000 		.4byte	.LASF401
 6970 1cf9 23       		.byte	0x23
 6971 1cfa 1B01     		.2byte	0x11b
 6972 1cfc 001D0000 		.4byte	0x1d00
 6973 1d00 0C       		.uleb128 0xc
 6974 1d01 2C0E0000 		.4byte	.LASF401
 6975 1d05 30       		.byte	0x30
 6976 1d06 23       		.byte	0x23
 6977 1d07 7B01     		.2byte	0x17b
 6978 1d09 761D0000 		.4byte	0x1d76
 6979 1d0d 0A       		.uleb128 0xa
 6980 1d0e 12190000 		.4byte	.LASF347
 6981 1d12 23       		.byte	0x23
 6982 1d13 7F01     		.2byte	0x17f
 6983 1d15 6F1C0000 		.4byte	0x1c6f
 6984 1d19 00       		.byte	0
 6985 1d1a 0A       		.uleb128 0xa
 6986 1d1b EA230000 		.4byte	.LASF351
 6987 1d1f 23       		.byte	0x23
 6988 1d20 8301     		.2byte	0x183
 6989 1d22 B41E0000 		.4byte	0x1eb4
 6990 1d26 04       		.byte	0x4
 6991 1d27 0A       		.uleb128 0xa
 6992 1d28 DF010000 		.4byte	.LASF349
 6993 1d2c 23       		.byte	0x23
 6994 1d2d 8701     		.2byte	0x187
 6995 1d2f DB1D0000 		.4byte	0x1ddb
 6996 1d33 08       		.byte	0x8
 6997 1d34 0A       		.uleb128 0xa
 6998 1d35 9F1C0000 		.4byte	.LASF350
 6999 1d39 23       		.byte	0x23
 7000 1d3a 8B01     		.2byte	0x18b
 7001 1d3c E8000000 		.4byte	0xe8
 7002 1d40 0C       		.byte	0xc
 7003 1d41 0A       		.uleb128 0xa
 7004 1d42 65200000 		.4byte	.LASF348
 7005 1d46 23       		.byte	0x23
 7006 1d47 8F01     		.2byte	0x18f
 7007 1d49 BA1E0000 		.4byte	0x1eba
 7008 1d4d 10       		.byte	0x10
 7009 1d4e 0A       		.uleb128 0xa
 7010 1d4f F7070000 		.4byte	.LASF352
 7011 1d53 23       		.byte	0x23
 7012 1d54 9401     		.2byte	0x194
 7013 1d56 E0020000 		.4byte	0x2e0
 7014 1d5a 14       		.byte	0x14
 7015 1d5b 0A       		.uleb128 0xa
 7016 1d5c 170E0000 		.4byte	.LASF353
 7017 1d60 23       		.byte	0x23
 7018 1d61 9A01     		.2byte	0x19a
 7019 1d63 82120000 		.4byte	0x1282
ARM GAS  C:\Users\adrie\AppData\Local\Temp\cc7EdWgE.s 			page 125


 7020 1d67 18       		.byte	0x18
 7021 1d68 0A       		.uleb128 0xa
 7022 1d69 B3130000 		.4byte	.LASF402
 7023 1d6d 23       		.byte	0x23
 7024 1d6e A301     		.2byte	0x1a3
 7025 1d70 C01E0000 		.4byte	0x1ec0
 7026 1d74 2C       		.byte	0x2c
 7027 1d75 00       		.byte	0
 7028 1d76 1A       		.uleb128 0x1a
 7029 1d77 2F1D0000 		.4byte	.LASF403
 7030 1d7b 23       		.byte	0x23
 7031 1d7c 2001     		.2byte	0x120
 7032 1d7e E8000000 		.4byte	0xe8
 7033 1d82 05       		.uleb128 0x5
 7034 1d83 761D0000 		.4byte	0x1d76
 7035 1d87 24       		.uleb128 0x24
 7036 1d88 07       		.byte	0x7
 7037 1d89 01       		.byte	0x1
 7038 1d8a 6C000000 		.4byte	0x6c
 7039 1d8e 23       		.byte	0x23
 7040 1d8f 2701     		.2byte	0x127
 7041 1d91 A21D0000 		.4byte	0x1da2
 7042 1d95 22       		.uleb128 0x22
 7043 1d96 FD1D0000 		.4byte	.LASF404
 7044 1d9a 00       		.byte	0
 7045 1d9b 22       		.uleb128 0x22
 7046 1d9c 4A0A0000 		.4byte	.LASF405
 7047 1da0 01       		.byte	0x1
 7048 1da1 00       		.byte	0
 7049 1da2 1A       		.uleb128 0x1a
 7050 1da3 18140000 		.4byte	.LASF406
 7051 1da7 23       		.byte	0x23
 7052 1da8 2A01     		.2byte	0x12a
 7053 1daa 871D0000 		.4byte	0x1d87
 7054 1dae 1A       		.uleb128 0x1a
 7055 1daf 74080000 		.4byte	.LASF407
 7056 1db3 23       		.byte	0x23
 7057 1db4 3401     		.2byte	0x134
 7058 1db6 BA1D0000 		.4byte	0x1dba
 7059 1dba 0B       		.uleb128 0xb
 7060 1dbb 04       		.byte	0x4
 7061 1dbc C01D0000 		.4byte	0x1dc0
 7062 1dc0 0D       		.uleb128 0xd
 7063 1dc1 D51D0000 		.4byte	0x1dd5
 7064 1dc5 0E       		.uleb128 0xe
 7065 1dc6 D51D0000 		.4byte	0x1dd5
 7066 1dca 0E       		.uleb128 0xe
 7067 1dcb DB1D0000 		.4byte	0x1ddb
 7068 1dcf 0E       		.uleb128 0xe
 7069 1dd0 3A000000 		.4byte	0x3a
 7070 1dd4 00       		.byte	0
 7071 1dd5 0B       		.uleb128 0xb
 7072 1dd6 04       		.byte	0x4
 7073 1dd7 F41C0000 		.4byte	0x1cf4
 7074 1ddb 0B       		.uleb128 0xb
 7075 1ddc 04       		.byte	0x4
 7076 1ddd 821D0000 		.4byte	0x1d82
ARM GAS  C:\Users\adrie\AppData\Local\Temp\cc7EdWgE.s 			page 126


 7077 1de1 1A       		.uleb128 0x1a
 7078 1de2 C0250000 		.4byte	.LASF408
 7079 1de6 23       		.byte	0x23
 7080 1de7 3F01     		.2byte	0x13f
 7081 1de9 ED1D0000 		.4byte	0x1ded
 7082 1ded 0B       		.uleb128 0xb
 7083 1dee 04       		.byte	0x4
 7084 1def F31D0000 		.4byte	0x1df3
 7085 1df3 0D       		.uleb128 0xd
 7086 1df4 031E0000 		.4byte	0x1e03
 7087 1df8 0E       		.uleb128 0xe
 7088 1df9 D51D0000 		.4byte	0x1dd5
 7089 1dfd 0E       		.uleb128 0xe
 7090 1dfe A21D0000 		.4byte	0x1da2
 7091 1e02 00       		.byte	0
 7092 1e03 24       		.uleb128 0x24
 7093 1e04 07       		.byte	0x7
 7094 1e05 01       		.byte	0x1
 7095 1e06 6C000000 		.4byte	0x6c
 7096 1e0a 23       		.byte	0x23
 7097 1e0b 4401     		.2byte	0x144
 7098 1e0d 241E0000 		.4byte	0x1e24
 7099 1e11 22       		.uleb128 0x22
 7100 1e12 1B210000 		.4byte	.LASF409
 7101 1e16 00       		.byte	0
 7102 1e17 22       		.uleb128 0x22
 7103 1e18 D5150000 		.4byte	.LASF410
 7104 1e1c 01       		.byte	0x1
 7105 1e1d 22       		.uleb128 0x22
 7106 1e1e C4190000 		.4byte	.LASF411
 7107 1e22 02       		.byte	0x2
 7108 1e23 00       		.byte	0
 7109 1e24 1A       		.uleb128 0x1a
 7110 1e25 E10B0000 		.4byte	.LASF412
 7111 1e29 23       		.byte	0x23
 7112 1e2a 4D01     		.2byte	0x14d
 7113 1e2c 031E0000 		.4byte	0x1e03
 7114 1e30 19       		.uleb128 0x19
 7115 1e31 10       		.byte	0x10
 7116 1e32 23       		.byte	0x23
 7117 1e33 5201     		.2byte	0x152
 7118 1e35 6E1E0000 		.4byte	0x1e6e
 7119 1e39 0A       		.uleb128 0xa
 7120 1e3a 06130000 		.4byte	.LASF359
 7121 1e3e 23       		.byte	0x23
 7122 1e3f 5601     		.2byte	0x156
 7123 1e41 03010000 		.4byte	0x103
 7124 1e45 00       		.byte	0
 7125 1e46 0A       		.uleb128 0xa
 7126 1e47 7B0A0000 		.4byte	.LASF360
 7127 1e4b 23       		.byte	0x23
 7128 1e4c 5A01     		.2byte	0x15a
 7129 1e4e AE1D0000 		.4byte	0x1dae
 7130 1e52 04       		.byte	0x4
 7131 1e53 0A       		.uleb128 0xa
 7132 1e54 BC280000 		.4byte	.LASF361
 7133 1e58 23       		.byte	0x23
ARM GAS  C:\Users\adrie\AppData\Local\Temp\cc7EdWgE.s 			page 127


 7134 1e59 5E01     		.2byte	0x15e
 7135 1e5b E11D0000 		.4byte	0x1de1
 7136 1e5f 08       		.byte	0x8
 7137 1e60 0A       		.uleb128 0xa
 7138 1e61 78170000 		.4byte	.LASF413
 7139 1e65 23       		.byte	0x23
 7140 1e66 6601     		.2byte	0x166
 7141 1e68 03010000 		.4byte	0x103
 7142 1e6c 0C       		.byte	0xc
 7143 1e6d 00       		.byte	0
 7144 1e6e 1A       		.uleb128 0x1a
 7145 1e6f CC140000 		.4byte	.LASF414
 7146 1e73 23       		.byte	0x23
 7147 1e74 6701     		.2byte	0x167
 7148 1e76 301E0000 		.4byte	0x1e30
 7149 1e7a 05       		.uleb128 0x5
 7150 1e7b 6E1E0000 		.4byte	0x1e6e
 7151 1e7f 19       		.uleb128 0x19
 7152 1e80 04       		.byte	0x4
 7153 1e81 23       		.byte	0x23
 7154 1e82 6C01     		.2byte	0x16c
 7155 1e84 A31E0000 		.4byte	0x1ea3
 7156 1e88 0A       		.uleb128 0xa
 7157 1e89 4A0C0000 		.4byte	.LASF415
 7158 1e8d 23       		.byte	0x23
 7159 1e8e 7101     		.2byte	0x171
 7160 1e90 761D0000 		.4byte	0x1d76
 7161 1e94 00       		.byte	0
 7162 1e95 0A       		.uleb128 0xa
 7163 1e96 0D010000 		.4byte	.LASF416
 7164 1e9a 23       		.byte	0x23
 7165 1e9b 7501     		.2byte	0x175
 7166 1e9d 241E0000 		.4byte	0x1e24
 7167 1ea1 02       		.byte	0x2
 7168 1ea2 00       		.byte	0
 7169 1ea3 1A       		.uleb128 0x1a
 7170 1ea4 360E0000 		.4byte	.LASF417
 7171 1ea8 23       		.byte	0x23
 7172 1ea9 7601     		.2byte	0x176
 7173 1eab 7F1E0000 		.4byte	0x1e7f
 7174 1eaf 05       		.uleb128 0x5
 7175 1eb0 A31E0000 		.4byte	0x1ea3
 7176 1eb4 0B       		.uleb128 0xb
 7177 1eb5 04       		.byte	0x4
 7178 1eb6 7A1E0000 		.4byte	0x1e7a
 7179 1eba 0B       		.uleb128 0xb
 7180 1ebb 04       		.byte	0x4
 7181 1ebc AF1E0000 		.4byte	0x1eaf
 7182 1ec0 0B       		.uleb128 0xb
 7183 1ec1 04       		.byte	0x4
 7184 1ec2 EF1C0000 		.4byte	0x1cef
 7185 1ec6 15       		.uleb128 0x15
 7186 1ec7 51040000 		.4byte	.LASF418
 7187 1ecb 23       		.byte	0x23
 7188 1ecc B301     		.2byte	0x1b3
 7189 1ece F41C0000 		.4byte	0x1cf4
 7190 1ed2 21       		.uleb128 0x21
ARM GAS  C:\Users\adrie\AppData\Local\Temp\cc7EdWgE.s 			page 128


 7191 1ed3 07       		.byte	0x7
 7192 1ed4 01       		.byte	0x1
 7193 1ed5 6C000000 		.4byte	0x6c
 7194 1ed9 24       		.byte	0x24
 7195 1eda 3F       		.byte	0x3f
 7196 1edb F21E0000 		.4byte	0x1ef2
 7197 1edf 22       		.uleb128 0x22
 7198 1ee0 3B0B0000 		.4byte	.LASF419
 7199 1ee4 00       		.byte	0
 7200 1ee5 22       		.uleb128 0x22
 7201 1ee6 7F2B0000 		.4byte	.LASF420
 7202 1eea 01       		.byte	0x1
 7203 1eeb 22       		.uleb128 0x22
 7204 1eec 43020000 		.4byte	.LASF421
 7205 1ef0 02       		.byte	0x2
 7206 1ef1 00       		.byte	0
 7207 1ef2 04       		.uleb128 0x4
 7208 1ef3 D11F0000 		.4byte	.LASF422
 7209 1ef7 24       		.byte	0x24
 7210 1ef8 43       		.byte	0x43
 7211 1ef9 D21E0000 		.4byte	0x1ed2
 7212 1efd 04       		.uleb128 0x4
 7213 1efe B2090000 		.4byte	.LASF423
 7214 1f02 24       		.byte	0x24
 7215 1f03 48       		.byte	0x48
 7216 1f04 081F0000 		.4byte	0x1f08
 7217 1f08 07       		.uleb128 0x7
 7218 1f09 B2090000 		.4byte	.LASF423
 7219 1f0d 08       		.byte	0x8
 7220 1f0e 25       		.byte	0x25
 7221 1f0f 71       		.byte	0x71
 7222 1f10 2D1F0000 		.4byte	0x1f2d
 7223 1f14 08       		.uleb128 0x8
 7224 1f15 12190000 		.4byte	.LASF347
 7225 1f19 25       		.byte	0x25
 7226 1f1a 75       		.byte	0x75
 7227 1f1b F21E0000 		.4byte	0x1ef2
 7228 1f1f 00       		.byte	0
 7229 1f20 08       		.uleb128 0x8
 7230 1f21 65200000 		.4byte	.LASF348
 7231 1f25 25       		.byte	0x25
 7232 1f26 79       		.byte	0x79
 7233 1f27 BF1F0000 		.4byte	0x1fbf
 7234 1f2b 04       		.byte	0x4
 7235 1f2c 00       		.byte	0
 7236 1f2d 04       		.uleb128 0x4
 7237 1f2e 22290000 		.4byte	.LASF424
 7238 1f32 25       		.byte	0x25
 7239 1f33 47       		.byte	0x47
 7240 1f34 03010000 		.4byte	0x103
 7241 1f38 04       		.uleb128 0x4
 7242 1f39 97230000 		.4byte	.LASF425
 7243 1f3d 25       		.byte	0x25
 7244 1f3e 4F       		.byte	0x4f
 7245 1f3f 431F0000 		.4byte	0x1f43
 7246 1f43 0B       		.uleb128 0xb
 7247 1f44 04       		.byte	0x4
ARM GAS  C:\Users\adrie\AppData\Local\Temp\cc7EdWgE.s 			page 129


 7248 1f45 491F0000 		.4byte	0x1f49
 7249 1f49 0D       		.uleb128 0xd
 7250 1f4a 591F0000 		.4byte	0x1f59
 7251 1f4e 0E       		.uleb128 0xe
 7252 1f4f 591F0000 		.4byte	0x1f59
 7253 1f53 0E       		.uleb128 0xe
 7254 1f54 2D1F0000 		.4byte	0x1f2d
 7255 1f58 00       		.byte	0
 7256 1f59 0B       		.uleb128 0xb
 7257 1f5a 04       		.byte	0x4
 7258 1f5b FD1E0000 		.4byte	0x1efd
 7259 1f5f 17       		.uleb128 0x17
 7260 1f60 08       		.byte	0x8
 7261 1f61 25       		.byte	0x25
 7262 1f62 54       		.byte	0x54
 7263 1f63 7F1F0000 		.4byte	0x1f7f
 7264 1f67 08       		.uleb128 0x8
 7265 1f68 97090000 		.4byte	.LASF426
 7266 1f6c 25       		.byte	0x25
 7267 1f6d 58       		.byte	0x58
 7268 1f6e 03010000 		.4byte	0x103
 7269 1f72 00       		.byte	0
 7270 1f73 18       		.uleb128 0x18
 7271 1f74 636200   		.ascii	"cb\000"
 7272 1f77 25       		.byte	0x25
 7273 1f78 5F       		.byte	0x5f
 7274 1f79 381F0000 		.4byte	0x1f38
 7275 1f7d 04       		.byte	0x4
 7276 1f7e 00       		.byte	0
 7277 1f7f 04       		.uleb128 0x4
 7278 1f80 FC0F0000 		.4byte	.LASF427
 7279 1f84 25       		.byte	0x25
 7280 1f85 60       		.byte	0x60
 7281 1f86 5F1F0000 		.4byte	0x1f5f
 7282 1f8a 17       		.uleb128 0x17
 7283 1f8b B8       		.byte	0xb8
 7284 1f8c 25       		.byte	0x25
 7285 1f8d 66       		.byte	0x66
 7286 1f8e 9F1F0000 		.4byte	0x1f9f
 7287 1f92 08       		.uleb128 0x8
 7288 1f93 E5250000 		.4byte	.LASF428
 7289 1f97 25       		.byte	0x25
 7290 1f98 6A       		.byte	0x6a
 7291 1f99 9F1F0000 		.4byte	0x1f9f
 7292 1f9d 00       		.byte	0
 7293 1f9e 00       		.byte	0
 7294 1f9f 13       		.uleb128 0x13
 7295 1fa0 7F1F0000 		.4byte	0x1f7f
 7296 1fa4 AF1F0000 		.4byte	0x1faf
 7297 1fa8 14       		.uleb128 0x14
 7298 1fa9 45000000 		.4byte	0x45
 7299 1fad 16       		.byte	0x16
 7300 1fae 00       		.byte	0
 7301 1faf 04       		.uleb128 0x4
 7302 1fb0 74220000 		.4byte	.LASF429
 7303 1fb4 25       		.byte	0x25
 7304 1fb5 6C       		.byte	0x6c
ARM GAS  C:\Users\adrie\AppData\Local\Temp\cc7EdWgE.s 			page 130


 7305 1fb6 8A1F0000 		.4byte	0x1f8a
 7306 1fba 05       		.uleb128 0x5
 7307 1fbb AF1F0000 		.4byte	0x1faf
 7308 1fbf 0B       		.uleb128 0xb
 7309 1fc0 04       		.byte	0x4
 7310 1fc1 BA1F0000 		.4byte	0x1fba
 7311 1fc5 16       		.uleb128 0x16
 7312 1fc6 82060000 		.4byte	.LASF430
 7313 1fca 25       		.byte	0x25
 7314 1fcb 86       		.byte	0x86
 7315 1fcc FD1E0000 		.4byte	0x1efd
 7316 1fd0 21       		.uleb128 0x21
 7317 1fd1 07       		.byte	0x7
 7318 1fd2 01       		.byte	0x1
 7319 1fd3 6C000000 		.4byte	0x6c
 7320 1fd7 26       		.byte	0x26
 7321 1fd8 31       		.byte	0x31
 7322 1fd9 FC1F0000 		.4byte	0x1ffc
 7323 1fdd 22       		.uleb128 0x22
 7324 1fde D8190000 		.4byte	.LASF431
 7325 1fe2 00       		.byte	0
 7326 1fe3 22       		.uleb128 0x22
 7327 1fe4 A0170000 		.4byte	.LASF432
 7328 1fe8 01       		.byte	0x1
 7329 1fe9 22       		.uleb128 0x22
 7330 1fea ED1C0000 		.4byte	.LASF433
 7331 1fee 02       		.byte	0x2
 7332 1fef 22       		.uleb128 0x22
 7333 1ff0 D8080000 		.4byte	.LASF434
 7334 1ff4 03       		.byte	0x3
 7335 1ff5 22       		.uleb128 0x22
 7336 1ff6 FB040000 		.4byte	.LASF435
 7337 1ffa 04       		.byte	0x4
 7338 1ffb 00       		.byte	0
 7339 1ffc 04       		.uleb128 0x4
 7340 1ffd 56160000 		.4byte	.LASF436
 7341 2001 26       		.byte	0x26
 7342 2002 37       		.byte	0x37
 7343 2003 D01F0000 		.4byte	0x1fd0
 7344 2007 04       		.uleb128 0x4
 7345 2008 431B0000 		.4byte	.LASF437
 7346 200c 26       		.byte	0x26
 7347 200d 3C       		.byte	0x3c
 7348 200e 12200000 		.4byte	0x2012
 7349 2012 0C       		.uleb128 0xc
 7350 2013 431B0000 		.4byte	.LASF437
 7351 2017 10       		.byte	0x10
 7352 2018 27       		.byte	0x27
 7353 2019 9701     		.2byte	0x197
 7354 201b 54200000 		.4byte	0x2054
 7355 201f 0A       		.uleb128 0xa
 7356 2020 12190000 		.4byte	.LASF347
 7357 2024 27       		.byte	0x27
 7358 2025 9B01     		.2byte	0x19b
 7359 2027 FC1F0000 		.4byte	0x1ffc
 7360 202b 00       		.byte	0
 7361 202c 0A       		.uleb128 0xa
ARM GAS  C:\Users\adrie\AppData\Local\Temp\cc7EdWgE.s 			page 131


 7362 202d 65200000 		.4byte	.LASF348
 7363 2031 27       		.byte	0x27
 7364 2032 9F01     		.2byte	0x19f
 7365 2034 E9210000 		.4byte	0x21e9
 7366 2038 04       		.byte	0x4
 7367 2039 0A       		.uleb128 0xa
 7368 203a 4A0E0000 		.4byte	.LASF438
 7369 203e 27       		.byte	0x27
 7370 203f A701     		.2byte	0x1a7
 7371 2041 03010000 		.4byte	0x103
 7372 2045 08       		.byte	0x8
 7373 2046 09       		.uleb128 0x9
 7374 2047 74696D00 		.ascii	"tim\000"
 7375 204b 27       		.byte	0x27
 7376 204c AB01     		.2byte	0x1ab
 7377 204e EF210000 		.4byte	0x21ef
 7378 2052 0C       		.byte	0xc
 7379 2053 00       		.byte	0
 7380 2054 04       		.uleb128 0x4
 7381 2055 3A140000 		.4byte	.LASF439
 7382 2059 26       		.byte	0x26
 7383 205a 43       		.byte	0x43
 7384 205b 5F200000 		.4byte	0x205f
 7385 205f 0B       		.uleb128 0xb
 7386 2060 04       		.byte	0x4
 7387 2061 65200000 		.4byte	0x2065
 7388 2065 0D       		.uleb128 0xd
 7389 2066 70200000 		.4byte	0x2070
 7390 206a 0E       		.uleb128 0xe
 7391 206b 70200000 		.4byte	0x2070
 7392 206f 00       		.byte	0
 7393 2070 0B       		.uleb128 0xb
 7394 2071 04       		.byte	0x4
 7395 2072 07200000 		.4byte	0x2007
 7396 2076 19       		.uleb128 0x19
 7397 2077 60       		.byte	0x60
 7398 2078 28       		.byte	0x28
 7399 2079 9E01     		.2byte	0x19e
 7400 207b 82210000 		.4byte	0x2182
 7401 207f 09       		.uleb128 0x9
 7402 2080 43523100 		.ascii	"CR1\000"
 7403 2084 28       		.byte	0x28
 7404 2085 9F01     		.2byte	0x19f
 7405 2087 0E010000 		.4byte	0x10e
 7406 208b 00       		.byte	0
 7407 208c 09       		.uleb128 0x9
 7408 208d 43523200 		.ascii	"CR2\000"
 7409 2091 28       		.byte	0x28
 7410 2092 A001     		.2byte	0x1a0
 7411 2094 0E010000 		.4byte	0x10e
 7412 2098 04       		.byte	0x4
 7413 2099 0A       		.uleb128 0xa
 7414 209a F6240000 		.4byte	.LASF440
 7415 209e 28       		.byte	0x28
 7416 209f A101     		.2byte	0x1a1
 7417 20a1 0E010000 		.4byte	0x10e
 7418 20a5 08       		.byte	0x8
ARM GAS  C:\Users\adrie\AppData\Local\Temp\cc7EdWgE.s 			page 132


 7419 20a6 0A       		.uleb128 0xa
 7420 20a7 870B0000 		.4byte	.LASF441
 7421 20ab 28       		.byte	0x28
 7422 20ac A201     		.2byte	0x1a2
 7423 20ae 0E010000 		.4byte	0x10e
 7424 20b2 0C       		.byte	0xc
 7425 20b3 09       		.uleb128 0x9
 7426 20b4 535200   		.ascii	"SR\000"
 7427 20b7 28       		.byte	0x28
 7428 20b8 A301     		.2byte	0x1a3
 7429 20ba 0E010000 		.4byte	0x10e
 7430 20be 10       		.byte	0x10
 7431 20bf 09       		.uleb128 0x9
 7432 20c0 45475200 		.ascii	"EGR\000"
 7433 20c4 28       		.byte	0x28
 7434 20c5 A401     		.2byte	0x1a4
 7435 20c7 0E010000 		.4byte	0x10e
 7436 20cb 14       		.byte	0x14
 7437 20cc 0A       		.uleb128 0xa
 7438 20cd 152A0000 		.4byte	.LASF442
 7439 20d1 28       		.byte	0x28
 7440 20d2 A501     		.2byte	0x1a5
 7441 20d4 0E010000 		.4byte	0x10e
 7442 20d8 18       		.byte	0x18
 7443 20d9 0A       		.uleb128 0xa
 7444 20da 1B2A0000 		.4byte	.LASF443
 7445 20de 28       		.byte	0x28
 7446 20df A601     		.2byte	0x1a6
 7447 20e1 0E010000 		.4byte	0x10e
 7448 20e5 1C       		.byte	0x1c
 7449 20e6 0A       		.uleb128 0xa
 7450 20e7 4C080000 		.4byte	.LASF444
 7451 20eb 28       		.byte	0x28
 7452 20ec A701     		.2byte	0x1a7
 7453 20ee 0E010000 		.4byte	0x10e
 7454 20f2 20       		.byte	0x20
 7455 20f3 09       		.uleb128 0x9
 7456 20f4 434E5400 		.ascii	"CNT\000"
 7457 20f8 28       		.byte	0x28
 7458 20f9 A801     		.2byte	0x1a8
 7459 20fb 0E010000 		.4byte	0x10e
 7460 20ff 24       		.byte	0x24
 7461 2100 09       		.uleb128 0x9
 7462 2101 50534300 		.ascii	"PSC\000"
 7463 2105 28       		.byte	0x28
 7464 2106 A901     		.2byte	0x1a9
 7465 2108 0E010000 		.4byte	0x10e
 7466 210c 28       		.byte	0x28
 7467 210d 09       		.uleb128 0x9
 7468 210e 41525200 		.ascii	"ARR\000"
 7469 2112 28       		.byte	0x28
 7470 2113 AA01     		.2byte	0x1aa
 7471 2115 0E010000 		.4byte	0x10e
 7472 2119 2C       		.byte	0x2c
 7473 211a 09       		.uleb128 0x9
 7474 211b 52435200 		.ascii	"RCR\000"
 7475 211f 28       		.byte	0x28
ARM GAS  C:\Users\adrie\AppData\Local\Temp\cc7EdWgE.s 			page 133


 7476 2120 AB01     		.2byte	0x1ab
 7477 2122 0E010000 		.4byte	0x10e
 7478 2126 30       		.byte	0x30
 7479 2127 09       		.uleb128 0x9
 7480 2128 43435200 		.ascii	"CCR\000"
 7481 212c 28       		.byte	0x28
 7482 212d AC01     		.2byte	0x1ac
 7483 212f AE0A0000 		.4byte	0xaae
 7484 2133 34       		.byte	0x34
 7485 2134 0A       		.uleb128 0xa
 7486 2135 F8010000 		.4byte	.LASF445
 7487 2139 28       		.byte	0x28
 7488 213a AD01     		.2byte	0x1ad
 7489 213c 0E010000 		.4byte	0x10e
 7490 2140 44       		.byte	0x44
 7491 2141 09       		.uleb128 0x9
 7492 2142 44435200 		.ascii	"DCR\000"
 7493 2146 28       		.byte	0x28
 7494 2147 AE01     		.2byte	0x1ae
 7495 2149 0E010000 		.4byte	0x10e
 7496 214d 48       		.byte	0x48
 7497 214e 0A       		.uleb128 0xa
 7498 214f 7B190000 		.4byte	.LASF446
 7499 2153 28       		.byte	0x28
 7500 2154 AF01     		.2byte	0x1af
 7501 2156 0E010000 		.4byte	0x10e
 7502 215a 4C       		.byte	0x4c
 7503 215b 09       		.uleb128 0x9
 7504 215c 4F5200   		.ascii	"OR\000"
 7505 215f 28       		.byte	0x28
 7506 2160 B001     		.2byte	0x1b0
 7507 2162 0E010000 		.4byte	0x10e
 7508 2166 50       		.byte	0x50
 7509 2167 0A       		.uleb128 0xa
 7510 2168 212A0000 		.4byte	.LASF447
 7511 216c 28       		.byte	0x28
 7512 216d B101     		.2byte	0x1b1
 7513 216f 0E010000 		.4byte	0x10e
 7514 2173 54       		.byte	0x54
 7515 2174 0A       		.uleb128 0xa
 7516 2175 560E0000 		.4byte	.LASF448
 7517 2179 28       		.byte	0x28
 7518 217a B201     		.2byte	0x1b2
 7519 217c 990A0000 		.4byte	0xa99
 7520 2180 58       		.byte	0x58
 7521 2181 00       		.byte	0
 7522 2182 1A       		.uleb128 0x1a
 7523 2183 21240000 		.4byte	.LASF449
 7524 2187 28       		.byte	0x28
 7525 2188 B301     		.2byte	0x1b3
 7526 218a 76200000 		.4byte	0x2076
 7527 218e 1A       		.uleb128 0x1a
 7528 218f FE090000 		.4byte	.LASF450
 7529 2193 27       		.byte	0x27
 7530 2194 6D01     		.2byte	0x16d
 7531 2196 03010000 		.4byte	0x103
 7532 219a 19       		.uleb128 0x19
ARM GAS  C:\Users\adrie\AppData\Local\Temp\cc7EdWgE.s 			page 134


 7533 219b 10       		.byte	0x10
 7534 219c 27       		.byte	0x27
 7535 219d 7801     		.2byte	0x178
 7536 219f D8210000 		.4byte	0x21d8
 7537 21a3 0A       		.uleb128 0xa
 7538 21a4 71290000 		.4byte	.LASF451
 7539 21a8 27       		.byte	0x27
 7540 21a9 7E01     		.2byte	0x17e
 7541 21ab 8E210000 		.4byte	0x218e
 7542 21af 00       		.byte	0
 7543 21b0 0A       		.uleb128 0xa
 7544 21b1 80190000 		.4byte	.LASF452
 7545 21b5 27       		.byte	0x27
 7546 21b6 8501     		.2byte	0x185
 7547 21b8 54200000 		.4byte	0x2054
 7548 21bc 04       		.byte	0x4
 7549 21bd 09       		.uleb128 0x9
 7550 21be 63723200 		.ascii	"cr2\000"
 7551 21c2 27       		.byte	0x27
 7552 21c3 8B01     		.2byte	0x18b
 7553 21c5 03010000 		.4byte	0x103
 7554 21c9 08       		.byte	0x8
 7555 21ca 0A       		.uleb128 0xa
 7556 21cb AD0D0000 		.4byte	.LASF453
 7557 21cf 27       		.byte	0x27
 7558 21d0 9101     		.2byte	0x191
 7559 21d2 03010000 		.4byte	0x103
 7560 21d6 0C       		.byte	0xc
 7561 21d7 00       		.byte	0
 7562 21d8 1A       		.uleb128 0x1a
 7563 21d9 30070000 		.4byte	.LASF454
 7564 21dd 27       		.byte	0x27
 7565 21de 9201     		.2byte	0x192
 7566 21e0 9A210000 		.4byte	0x219a
 7567 21e4 05       		.uleb128 0x5
 7568 21e5 D8210000 		.4byte	0x21d8
 7569 21e9 0B       		.uleb128 0xb
 7570 21ea 04       		.byte	0x4
 7571 21eb E4210000 		.4byte	0x21e4
 7572 21ef 0B       		.uleb128 0xb
 7573 21f0 04       		.byte	0x4
 7574 21f1 82210000 		.4byte	0x2182
 7575 21f5 15       		.uleb128 0x15
 7576 21f6 A2280000 		.4byte	.LASF455
 7577 21fa 27       		.byte	0x27
 7578 21fb F201     		.2byte	0x1f2
 7579 21fd 07200000 		.4byte	0x2007
 7580 2201 15       		.uleb128 0x15
 7581 2202 6C200000 		.4byte	.LASF456
 7582 2206 27       		.byte	0x27
 7583 2207 0202     		.2byte	0x202
 7584 2209 07200000 		.4byte	0x2007
 7585 220d 15       		.uleb128 0x15
 7586 220e 73200000 		.4byte	.LASF457
 7587 2212 27       		.byte	0x27
 7588 2213 0602     		.2byte	0x206
 7589 2215 07200000 		.4byte	0x2007
ARM GAS  C:\Users\adrie\AppData\Local\Temp\cc7EdWgE.s 			page 135


 7590 2219 21       		.uleb128 0x21
 7591 221a 07       		.byte	0x7
 7592 221b 01       		.byte	0x1
 7593 221c 6C000000 		.4byte	0x6c
 7594 2220 29       		.byte	0x29
 7595 2221 4C       		.byte	0x4c
 7596 2222 4B220000 		.4byte	0x224b
 7597 2226 22       		.uleb128 0x22
 7598 2227 FB060000 		.4byte	.LASF458
 7599 222b 00       		.byte	0
 7600 222c 22       		.uleb128 0x22
 7601 222d B30F0000 		.4byte	.LASF459
 7602 2231 01       		.byte	0x1
 7603 2232 22       		.uleb128 0x22
 7604 2233 7F070000 		.4byte	.LASF460
 7605 2237 02       		.byte	0x2
 7606 2238 22       		.uleb128 0x22
 7607 2239 2A050000 		.4byte	.LASF461
 7608 223d 03       		.byte	0x3
 7609 223e 22       		.uleb128 0x22
 7610 223f A4030000 		.4byte	.LASF462
 7611 2243 04       		.byte	0x4
 7612 2244 22       		.uleb128 0x22
 7613 2245 14160000 		.4byte	.LASF463
 7614 2249 05       		.byte	0x5
 7615 224a 00       		.byte	0
 7616 224b 04       		.uleb128 0x4
 7617 224c E1130000 		.4byte	.LASF464
 7618 2250 29       		.byte	0x29
 7619 2251 53       		.byte	0x53
 7620 2252 19220000 		.4byte	0x2219
 7621 2256 1A       		.uleb128 0x1a
 7622 2257 AD050000 		.4byte	.LASF465
 7623 225b 2A       		.byte	0x2a
 7624 225c 6A01     		.2byte	0x16a
 7625 225e E8000000 		.4byte	0xe8
 7626 2262 1A       		.uleb128 0x1a
 7627 2263 7E040000 		.4byte	.LASF466
 7628 2267 2A       		.byte	0x2a
 7629 2268 6F01     		.2byte	0x16f
 7630 226a 03010000 		.4byte	0x103
 7631 226e 24       		.uleb128 0x24
 7632 226f 07       		.byte	0x7
 7633 2270 01       		.byte	0x1
 7634 2271 6C000000 		.4byte	0x6c
 7635 2275 2A       		.byte	0x2a
 7636 2276 7401     		.2byte	0x174
 7637 2278 8F220000 		.4byte	0x228f
 7638 227c 22       		.uleb128 0x22
 7639 227d 3D050000 		.4byte	.LASF467
 7640 2281 01       		.byte	0x1
 7641 2282 22       		.uleb128 0x22
 7642 2283 A2000000 		.4byte	.LASF468
 7643 2287 02       		.byte	0x2
 7644 2288 22       		.uleb128 0x22
 7645 2289 FB0A0000 		.4byte	.LASF469
 7646 228d 03       		.byte	0x3
ARM GAS  C:\Users\adrie\AppData\Local\Temp\cc7EdWgE.s 			page 136


 7647 228e 00       		.byte	0
 7648 228f 1A       		.uleb128 0x1a
 7649 2290 842A0000 		.4byte	.LASF470
 7650 2294 2A       		.byte	0x2a
 7651 2295 7801     		.2byte	0x178
 7652 2297 6E220000 		.4byte	0x226e
 7653 229b 24       		.uleb128 0x24
 7654 229c 07       		.byte	0x7
 7655 229d 01       		.byte	0x1
 7656 229e 6C000000 		.4byte	0x6c
 7657 22a2 2A       		.byte	0x2a
 7658 22a3 7D01     		.2byte	0x17d
 7659 22a5 BC220000 		.4byte	0x22bc
 7660 22a9 22       		.uleb128 0x22
 7661 22aa 53060000 		.4byte	.LASF471
 7662 22ae 01       		.byte	0x1
 7663 22af 22       		.uleb128 0x22
 7664 22b0 CA290000 		.4byte	.LASF472
 7665 22b4 02       		.byte	0x2
 7666 22b5 22       		.uleb128 0x22
 7667 22b6 000C0000 		.4byte	.LASF473
 7668 22ba 03       		.byte	0x3
 7669 22bb 00       		.byte	0
 7670 22bc 1A       		.uleb128 0x1a
 7671 22bd CD070000 		.4byte	.LASF474
 7672 22c1 2A       		.byte	0x2a
 7673 22c2 8101     		.2byte	0x181
 7674 22c4 9B220000 		.4byte	0x229b
 7675 22c8 19       		.uleb128 0x19
 7676 22c9 0C       		.byte	0xc
 7677 22ca 2A       		.byte	0x2a
 7678 22cb 8601     		.2byte	0x186
 7679 22cd F9220000 		.4byte	0x22f9
 7680 22d1 0A       		.uleb128 0xa
 7681 22d2 C8170000 		.4byte	.LASF475
 7682 22d6 2A       		.byte	0x2a
 7683 22d7 8801     		.2byte	0x188
 7684 22d9 8F220000 		.4byte	0x228f
 7685 22dd 00       		.byte	0
 7686 22de 0A       		.uleb128 0xa
 7687 22df 33040000 		.4byte	.LASF476
 7688 22e3 2A       		.byte	0x2a
 7689 22e4 8901     		.2byte	0x189
 7690 22e6 03010000 		.4byte	0x103
 7691 22ea 04       		.byte	0x4
 7692 22eb 0A       		.uleb128 0xa
 7693 22ec 332B0000 		.4byte	.LASF477
 7694 22f0 2A       		.byte	0x2a
 7695 22f1 8C01     		.2byte	0x18c
 7696 22f3 BC220000 		.4byte	0x22bc
 7697 22f7 08       		.byte	0x8
 7698 22f8 00       		.byte	0
 7699 22f9 1A       		.uleb128 0x1a
 7700 22fa 11020000 		.4byte	.LASF478
 7701 22fe 2A       		.byte	0x2a
 7702 22ff 8E01     		.2byte	0x18e
 7703 2301 C8220000 		.4byte	0x22c8
ARM GAS  C:\Users\adrie\AppData\Local\Temp\cc7EdWgE.s 			page 137


 7704 2305 05       		.uleb128 0x5
 7705 2306 F9220000 		.4byte	0x22f9
 7706 230a 1A       		.uleb128 0x1a
 7707 230b 20050000 		.4byte	.LASF479
 7708 230f 2A       		.byte	0x2a
 7709 2310 9301     		.2byte	0x193
 7710 2312 16230000 		.4byte	0x2316
 7711 2316 0C       		.uleb128 0xc
 7712 2317 20050000 		.4byte	.LASF479
 7713 231b 3C       		.byte	0x3c
 7714 231c 2A       		.byte	0x2a
 7715 231d 9801     		.2byte	0x198
 7716 231f B3230000 		.4byte	0x23b3
 7717 2323 0A       		.uleb128 0xa
 7718 2324 12190000 		.4byte	.LASF347
 7719 2328 2A       		.byte	0x2a
 7720 2329 9C01     		.2byte	0x19c
 7721 232b 4B220000 		.4byte	0x224b
 7722 232f 00       		.byte	0
 7723 2330 0A       		.uleb128 0xa
 7724 2331 65200000 		.4byte	.LASF348
 7725 2335 2A       		.byte	0x2a
 7726 2336 A001     		.2byte	0x1a0
 7727 2338 B3230000 		.4byte	0x23b3
 7728 233c 04       		.byte	0x4
 7729 233d 0A       		.uleb128 0xa
 7730 233e 68010000 		.4byte	.LASF480
 7731 2342 2A       		.byte	0x2a
 7732 2343 A401     		.2byte	0x1a4
 7733 2345 62220000 		.4byte	0x2262
 7734 2349 08       		.byte	0x8
 7735 234a 0A       		.uleb128 0xa
 7736 234b 170E0000 		.4byte	.LASF353
 7737 234f 2A       		.byte	0x2a
 7738 2350 A901     		.2byte	0x1a9
 7739 2352 82120000 		.4byte	0x1282
 7740 2356 0C       		.byte	0xc
 7741 2357 0A       		.uleb128 0xa
 7742 2358 F7070000 		.4byte	.LASF352
 7743 235c 2A       		.byte	0x2a
 7744 235d B201     		.2byte	0x1b2
 7745 235f E0020000 		.4byte	0x2e0
 7746 2363 20       		.byte	0x20
 7747 2364 0A       		.uleb128 0xa
 7748 2365 CC0F0000 		.4byte	.LASF481
 7749 2369 2A       		.byte	0x2a
 7750 236a B601     		.2byte	0x1b6
 7751 236c 56220000 		.4byte	0x2256
 7752 2370 24       		.byte	0x24
 7753 2371 0A       		.uleb128 0xa
 7754 2372 83090000 		.4byte	.LASF482
 7755 2376 2A       		.byte	0x2a
 7756 2377 BA01     		.2byte	0x1ba
 7757 2379 03010000 		.4byte	0x103
 7758 237d 28       		.byte	0x28
 7759 237e 0A       		.uleb128 0xa
 7760 237f DD090000 		.4byte	.LASF483
ARM GAS  C:\Users\adrie\AppData\Local\Temp\cc7EdWgE.s 			page 138


 7761 2383 2A       		.byte	0x2a
 7762 2384 BE01     		.2byte	0x1be
 7763 2386 03010000 		.4byte	0x103
 7764 238a 2C       		.byte	0x2c
 7765 238b 0A       		.uleb128 0xa
 7766 238c 16010000 		.4byte	.LASF484
 7767 2390 2A       		.byte	0x2a
 7768 2391 C201     		.2byte	0x1c2
 7769 2393 E91A0000 		.4byte	0x1ae9
 7770 2397 30       		.byte	0x30
 7771 2398 0A       		.uleb128 0xa
 7772 2399 24020000 		.4byte	.LASF485
 7773 239d 2A       		.byte	0x2a
 7774 239e C601     		.2byte	0x1c6
 7775 23a0 E91A0000 		.4byte	0x1ae9
 7776 23a4 34       		.byte	0x34
 7777 23a5 09       		.uleb128 0x9
 7778 23a6 69326300 		.ascii	"i2c\000"
 7779 23aa 2A       		.byte	0x2a
 7780 23ab CA01     		.2byte	0x1ca
 7781 23ad B9230000 		.4byte	0x23b9
 7782 23b1 38       		.byte	0x38
 7783 23b2 00       		.byte	0
 7784 23b3 0B       		.uleb128 0xb
 7785 23b4 04       		.byte	0x4
 7786 23b5 05230000 		.4byte	0x2305
 7787 23b9 0B       		.uleb128 0xb
 7788 23ba 04       		.byte	0x4
 7789 23bb 3E0B0000 		.4byte	0xb3e
 7790 23bf 15       		.uleb128 0x15
 7791 23c0 58140000 		.4byte	.LASF486
 7792 23c4 2A       		.byte	0x2a
 7793 23c5 E001     		.2byte	0x1e0
 7794 23c7 0A230000 		.4byte	0x230a
 7795 23cb 21       		.uleb128 0x21
 7796 23cc 07       		.byte	0x7
 7797 23cd 01       		.byte	0x1
 7798 23ce 6C000000 		.4byte	0x6c
 7799 23d2 2B       		.byte	0x2b
 7800 23d3 39       		.byte	0x39
 7801 23d4 F7230000 		.4byte	0x23f7
 7802 23d8 22       		.uleb128 0x22
 7803 23d9 A1120000 		.4byte	.LASF487
 7804 23dd 00       		.byte	0
 7805 23de 22       		.uleb128 0x22
 7806 23df E90D0000 		.4byte	.LASF488
 7807 23e3 01       		.byte	0x1
 7808 23e4 22       		.uleb128 0x22
 7809 23e5 1C010000 		.4byte	.LASF489
 7810 23e9 02       		.byte	0x2
 7811 23ea 22       		.uleb128 0x22
 7812 23eb E21C0000 		.4byte	.LASF490
 7813 23ef 03       		.byte	0x3
 7814 23f0 22       		.uleb128 0x22
 7815 23f1 23230000 		.4byte	.LASF491
 7816 23f5 04       		.byte	0x4
 7817 23f6 00       		.byte	0
ARM GAS  C:\Users\adrie\AppData\Local\Temp\cc7EdWgE.s 			page 139


 7818 23f7 04       		.uleb128 0x4
 7819 23f8 AE260000 		.4byte	.LASF492
 7820 23fc 2B       		.byte	0x2b
 7821 23fd 3F       		.byte	0x3f
 7822 23fe CB230000 		.4byte	0x23cb
 7823 2402 04       		.uleb128 0x4
 7824 2403 292B0000 		.4byte	.LASF493
 7825 2407 2C       		.byte	0x2c
 7826 2408 E2       		.byte	0xe2
 7827 2409 0D240000 		.4byte	0x240d
 7828 240d 0C       		.uleb128 0xc
 7829 240e 292B0000 		.4byte	.LASF493
 7830 2412 20       		.byte	0x20
 7831 2413 2C       		.byte	0x2c
 7832 2414 1B01     		.2byte	0x11b
 7833 2416 83240000 		.4byte	0x2483
 7834 241a 0A       		.uleb128 0xa
 7835 241b 12190000 		.4byte	.LASF347
 7836 241f 2C       		.byte	0x2c
 7837 2420 1F01     		.2byte	0x11f
 7838 2422 F7230000 		.4byte	0x23f7
 7839 2426 00       		.byte	0
 7840 2427 0A       		.uleb128 0xa
 7841 2428 65200000 		.4byte	.LASF348
 7842 242c 2C       		.byte	0x2c
 7843 242d 2301     		.2byte	0x123
 7844 242f 1B250000 		.4byte	0x251b
 7845 2433 04       		.byte	0x4
 7846 2434 09       		.uleb128 0x9
 7847 2435 73706900 		.ascii	"spi\000"
 7848 2439 2C       		.byte	0x2c
 7849 243a 2801     		.2byte	0x128
 7850 243c 21250000 		.4byte	0x2521
 7851 2440 08       		.byte	0x8
 7852 2441 09       		.uleb128 0x9
 7853 2442 63666700 		.ascii	"cfg\000"
 7854 2446 2C       		.byte	0x2c
 7855 2447 2C01     		.2byte	0x12c
 7856 2449 E8000000 		.4byte	0xe8
 7857 244d 0C       		.byte	0xc
 7858 244e 0A       		.uleb128 0xa
 7859 244f 16010000 		.4byte	.LASF484
 7860 2453 2C       		.byte	0x2c
 7861 2454 3001     		.2byte	0x130
 7862 2456 E91A0000 		.4byte	0x1ae9
 7863 245a 10       		.byte	0x10
 7864 245b 0A       		.uleb128 0xa
 7865 245c 24020000 		.4byte	.LASF485
 7866 2460 2C       		.byte	0x2c
 7867 2461 3401     		.2byte	0x134
 7868 2463 E91A0000 		.4byte	0x1ae9
 7869 2467 14       		.byte	0x14
 7870 2468 0A       		.uleb128 0xa
 7871 2469 83090000 		.4byte	.LASF482
 7872 246d 2C       		.byte	0x2c
 7873 246e 3801     		.2byte	0x138
 7874 2470 03010000 		.4byte	0x103
ARM GAS  C:\Users\adrie\AppData\Local\Temp\cc7EdWgE.s 			page 140


 7875 2474 18       		.byte	0x18
 7876 2475 0A       		.uleb128 0xa
 7877 2476 DD090000 		.4byte	.LASF483
 7878 247a 2C       		.byte	0x2c
 7879 247b 3C01     		.2byte	0x13c
 7880 247d 03010000 		.4byte	0x103
 7881 2481 1C       		.byte	0x1c
 7882 2482 00       		.byte	0
 7883 2483 04       		.uleb128 0x4
 7884 2484 C9090000 		.4byte	.LASF494
 7885 2488 2C       		.byte	0x2c
 7886 2489 EB       		.byte	0xeb
 7887 248a 8E240000 		.4byte	0x248e
 7888 248e 0B       		.uleb128 0xb
 7889 248f 04       		.byte	0x4
 7890 2490 94240000 		.4byte	0x2494
 7891 2494 0D       		.uleb128 0xd
 7892 2495 A9240000 		.4byte	0x24a9
 7893 2499 0E       		.uleb128 0xe
 7894 249a A9240000 		.4byte	0x24a9
 7895 249e 0E       		.uleb128 0xe
 7896 249f 3A000000 		.4byte	0x3a
 7897 24a3 0E       		.uleb128 0xe
 7898 24a4 3A000000 		.4byte	0x3a
 7899 24a8 00       		.byte	0
 7900 24a9 0B       		.uleb128 0xb
 7901 24aa 04       		.byte	0x4
 7902 24ab 02240000 		.4byte	0x2402
 7903 24af 17       		.uleb128 0x17
 7904 24b0 14       		.byte	0x14
 7905 24b1 2C       		.byte	0x2c
 7906 24b2 F1       		.byte	0xf1
 7907 24b3 03250000 		.4byte	0x2503
 7908 24b7 08       		.uleb128 0x8
 7909 24b8 93010000 		.4byte	.LASF495
 7910 24bc 2C       		.byte	0x2c
 7911 24bd F6       		.byte	0xf6
 7912 24be 03250000 		.4byte	0x2503
 7913 24c2 00       		.byte	0
 7914 24c3 08       		.uleb128 0x8
 7915 24c4 5E010000 		.4byte	.LASF496
 7916 24c8 2C       		.byte	0x2c
 7917 24c9 FB       		.byte	0xfb
 7918 24ca C8030000 		.4byte	0x3c8
 7919 24ce 04       		.byte	0x4
 7920 24cf 08       		.uleb128 0x8
 7921 24d0 1D0E0000 		.4byte	.LASF497
 7922 24d4 2C       		.byte	0x2c
 7923 24d5 FF       		.byte	0xff
 7924 24d6 3A000000 		.4byte	0x3a
 7925 24da 08       		.byte	0x8
 7926 24db 0A       		.uleb128 0xa
 7927 24dc 7B0A0000 		.4byte	.LASF360
 7928 24e0 2C       		.byte	0x2c
 7929 24e1 0301     		.2byte	0x103
 7930 24e3 83240000 		.4byte	0x2483
 7931 24e7 0C       		.byte	0xc
ARM GAS  C:\Users\adrie\AppData\Local\Temp\cc7EdWgE.s 			page 141


 7932 24e8 0A       		.uleb128 0xa
 7933 24e9 571D0000 		.4byte	.LASF498
 7934 24ed 2C       		.byte	0x2c
 7935 24ee 0F01     		.2byte	0x10f
 7936 24f0 DD000000 		.4byte	0xdd
 7937 24f4 10       		.byte	0x10
 7938 24f5 0A       		.uleb128 0xa
 7939 24f6 66070000 		.4byte	.LASF499
 7940 24fa 2C       		.byte	0x2c
 7941 24fb 1501     		.2byte	0x115
 7942 24fd DD000000 		.4byte	0xdd
 7943 2501 12       		.byte	0x12
 7944 2502 00       		.byte	0
 7945 2503 0B       		.uleb128 0xb
 7946 2504 04       		.byte	0x4
 7947 2505 09250000 		.4byte	0x2509
 7948 2509 25       		.uleb128 0x25
 7949 250a 1A       		.uleb128 0x1a
 7950 250b 3E2B0000 		.4byte	.LASF500
 7951 250f 2C       		.byte	0x2c
 7952 2510 1601     		.2byte	0x116
 7953 2512 AF240000 		.4byte	0x24af
 7954 2516 05       		.uleb128 0x5
 7955 2517 0A250000 		.4byte	0x250a
 7956 251b 0B       		.uleb128 0xb
 7957 251c 04       		.byte	0x4
 7958 251d 16250000 		.4byte	0x2516
 7959 2521 0B       		.uleb128 0xb
 7960 2522 04       		.byte	0x4
 7961 2523 F10C0000 		.4byte	0xcf1
 7962 2527 15       		.uleb128 0x15
 7963 2528 902B0000 		.4byte	.LASF501
 7964 252c 2C       		.byte	0x2c
 7965 252d 4801     		.2byte	0x148
 7966 252f 02240000 		.4byte	0x2402
 7967 2533 21       		.uleb128 0x21
 7968 2534 07       		.byte	0x7
 7969 2535 01       		.byte	0x1
 7970 2536 6C000000 		.4byte	0x6c
 7971 253a 2D       		.byte	0x2d
 7972 253b 4A       		.byte	0x4a
 7973 253c 53250000 		.4byte	0x2553
 7974 2540 22       		.uleb128 0x22
 7975 2541 57080000 		.4byte	.LASF502
 7976 2545 00       		.byte	0
 7977 2546 22       		.uleb128 0x22
 7978 2547 F20D0000 		.4byte	.LASF503
 7979 254b 01       		.byte	0x1
 7980 254c 22       		.uleb128 0x22
 7981 254d D0120000 		.4byte	.LASF504
 7982 2551 02       		.byte	0x2
 7983 2552 00       		.byte	0
 7984 2553 04       		.uleb128 0x4
 7985 2554 C5030000 		.4byte	.LASF505
 7986 2558 2D       		.byte	0x2d
 7987 2559 4E       		.byte	0x4e
 7988 255a 33250000 		.4byte	0x2533
ARM GAS  C:\Users\adrie\AppData\Local\Temp\cc7EdWgE.s 			page 142


 7989 255e 04       		.uleb128 0x4
 7990 255f 130D0000 		.4byte	.LASF506
 7991 2563 2D       		.byte	0x2d
 7992 2564 53       		.byte	0x53
 7993 2565 69250000 		.4byte	0x2569
 7994 2569 0C       		.uleb128 0xc
 7995 256a 130D0000 		.4byte	.LASF506
 7996 256e 1C       		.byte	0x1c
 7997 256f 2E       		.byte	0x2e
 7998 2570 7901     		.2byte	0x179
 7999 2572 D2250000 		.4byte	0x25d2
 8000 2576 0A       		.uleb128 0xa
 8001 2577 12190000 		.4byte	.LASF347
 8002 257b 2E       		.byte	0x2e
 8003 257c 7D01     		.2byte	0x17d
 8004 257e 53250000 		.4byte	0x2553
 8005 2582 00       		.byte	0
 8006 2583 0A       		.uleb128 0xa
 8007 2584 65200000 		.4byte	.LASF348
 8008 2588 2E       		.byte	0x2e
 8009 2589 8101     		.2byte	0x181
 8010 258b CD260000 		.4byte	0x26cd
 8011 258f 04       		.byte	0x4
 8012 2590 0A       		.uleb128 0xa
 8013 2591 FA150000 		.4byte	.LASF507
 8014 2595 2E       		.byte	0x2e
 8015 2596 8501     		.2byte	0x185
 8016 2598 18260000 		.4byte	0x2618
 8017 259c 08       		.byte	0x8
 8018 259d 0A       		.uleb128 0xa
 8019 259e F51D0000 		.4byte	.LASF508
 8020 25a2 2E       		.byte	0x2e
 8021 25a3 8901     		.2byte	0x189
 8022 25a5 0C260000 		.4byte	0x260c
 8023 25a9 0C       		.byte	0xc
 8024 25aa 0A       		.uleb128 0xa
 8025 25ab E5250000 		.4byte	.LASF428
 8026 25af 2E       		.byte	0x2e
 8027 25b0 8D01     		.2byte	0x18d
 8028 25b2 00260000 		.4byte	0x2600
 8029 25b6 10       		.byte	0x10
 8030 25b7 0A       		.uleb128 0xa
 8031 25b8 4A0E0000 		.4byte	.LASF438
 8032 25bc 2E       		.byte	0x2e
 8033 25bd 9501     		.2byte	0x195
 8034 25bf 03010000 		.4byte	0x103
 8035 25c3 14       		.byte	0x14
 8036 25c4 09       		.uleb128 0x9
 8037 25c5 74696D00 		.ascii	"tim\000"
 8038 25c9 2E       		.byte	0x2e
 8039 25ca 9901     		.2byte	0x199
 8040 25cc EF210000 		.4byte	0x21ef
 8041 25d0 18       		.byte	0x18
 8042 25d1 00       		.byte	0
 8043 25d2 04       		.uleb128 0x4
 8044 25d3 9D130000 		.4byte	.LASF509
 8045 25d7 2D       		.byte	0x2d
ARM GAS  C:\Users\adrie\AppData\Local\Temp\cc7EdWgE.s 			page 143


 8046 25d8 5A       		.byte	0x5a
 8047 25d9 DD250000 		.4byte	0x25dd
 8048 25dd 0B       		.uleb128 0xb
 8049 25de 04       		.byte	0x4
 8050 25df E3250000 		.4byte	0x25e3
 8051 25e3 0D       		.uleb128 0xd
 8052 25e4 EE250000 		.4byte	0x25ee
 8053 25e8 0E       		.uleb128 0xe
 8054 25e9 EE250000 		.4byte	0x25ee
 8055 25ed 00       		.byte	0
 8056 25ee 0B       		.uleb128 0xb
 8057 25ef 04       		.byte	0x4
 8058 25f0 5E250000 		.4byte	0x255e
 8059 25f4 1A       		.uleb128 0x1a
 8060 25f5 29180000 		.4byte	.LASF510
 8061 25f9 2E       		.byte	0x2e
 8062 25fa 2501     		.2byte	0x125
 8063 25fc 03010000 		.4byte	0x103
 8064 2600 1A       		.uleb128 0x1a
 8065 2601 DA1A0000 		.4byte	.LASF511
 8066 2605 2E       		.byte	0x2e
 8067 2606 2A01     		.2byte	0x12a
 8068 2608 CD000000 		.4byte	0xcd
 8069 260c 1A       		.uleb128 0x1a
 8070 260d 23030000 		.4byte	.LASF512
 8071 2611 2E       		.byte	0x2e
 8072 2612 2F01     		.2byte	0x12f
 8073 2614 03010000 		.4byte	0x103
 8074 2618 1A       		.uleb128 0x1a
 8075 2619 1A0F0000 		.4byte	.LASF513
 8076 261d 2E       		.byte	0x2e
 8077 261e 3401     		.2byte	0x134
 8078 2620 03010000 		.4byte	0x103
 8079 2624 19       		.uleb128 0x19
 8080 2625 08       		.byte	0x8
 8081 2626 2E       		.byte	0x2e
 8082 2627 3901     		.2byte	0x139
 8083 2629 48260000 		.4byte	0x2648
 8084 262d 0A       		.uleb128 0xa
 8085 262e 97090000 		.4byte	.LASF426
 8086 2632 2E       		.byte	0x2e
 8087 2633 3D01     		.2byte	0x13d
 8088 2635 F4250000 		.4byte	0x25f4
 8089 2639 00       		.byte	0
 8090 263a 0A       		.uleb128 0xa
 8091 263b 80190000 		.4byte	.LASF452
 8092 263f 2E       		.byte	0x2e
 8093 2640 4301     		.2byte	0x143
 8094 2642 D2250000 		.4byte	0x25d2
 8095 2646 04       		.byte	0x4
 8096 2647 00       		.byte	0
 8097 2648 1A       		.uleb128 0x1a
 8098 2649 090F0000 		.4byte	.LASF514
 8099 264d 2E       		.byte	0x2e
 8100 264e 4501     		.2byte	0x145
 8101 2650 24260000 		.4byte	0x2624
 8102 2654 19       		.uleb128 0x19
ARM GAS  C:\Users\adrie\AppData\Local\Temp\cc7EdWgE.s 			page 144


 8103 2655 34       		.byte	0x34
 8104 2656 2E       		.byte	0x2e
 8105 2657 4A01     		.2byte	0x14a
 8106 2659 AC260000 		.4byte	0x26ac
 8107 265d 0A       		.uleb128 0xa
 8108 265e 71290000 		.4byte	.LASF451
 8109 2662 2E       		.byte	0x2e
 8110 2663 5001     		.2byte	0x150
 8111 2665 03010000 		.4byte	0x103
 8112 2669 00       		.byte	0
 8113 266a 0A       		.uleb128 0xa
 8114 266b FA150000 		.4byte	.LASF507
 8115 266f 2E       		.byte	0x2e
 8116 2670 5601     		.2byte	0x156
 8117 2672 18260000 		.4byte	0x2618
 8118 2676 04       		.byte	0x4
 8119 2677 0A       		.uleb128 0xa
 8120 2678 80190000 		.4byte	.LASF452
 8121 267c 2E       		.byte	0x2e
 8122 267d 5C01     		.2byte	0x15c
 8123 267f D2250000 		.4byte	0x25d2
 8124 2683 08       		.byte	0x8
 8125 2684 0A       		.uleb128 0xa
 8126 2685 E5250000 		.4byte	.LASF428
 8127 2689 2E       		.byte	0x2e
 8128 268a 6001     		.2byte	0x160
 8129 268c AC260000 		.4byte	0x26ac
 8130 2690 0C       		.byte	0xc
 8131 2691 09       		.uleb128 0x9
 8132 2692 63723200 		.ascii	"cr2\000"
 8133 2696 2E       		.byte	0x2e
 8134 2697 6601     		.2byte	0x166
 8135 2699 03010000 		.4byte	0x103
 8136 269d 2C       		.byte	0x2c
 8137 269e 0A       		.uleb128 0xa
 8138 269f AD0D0000 		.4byte	.LASF453
 8139 26a3 2E       		.byte	0x2e
 8140 26a4 7301     		.2byte	0x173
 8141 26a6 03010000 		.4byte	0x103
 8142 26aa 30       		.byte	0x30
 8143 26ab 00       		.byte	0
 8144 26ac 13       		.uleb128 0x13
 8145 26ad 48260000 		.4byte	0x2648
 8146 26b1 BC260000 		.4byte	0x26bc
 8147 26b5 14       		.uleb128 0x14
 8148 26b6 45000000 		.4byte	0x45
 8149 26ba 03       		.byte	0x3
 8150 26bb 00       		.byte	0
 8151 26bc 1A       		.uleb128 0x1a
 8152 26bd 2B0D0000 		.4byte	.LASF515
 8153 26c1 2E       		.byte	0x2e
 8154 26c2 7401     		.2byte	0x174
 8155 26c4 54260000 		.4byte	0x2654
 8156 26c8 05       		.uleb128 0x5
 8157 26c9 BC260000 		.4byte	0x26bc
 8158 26cd 0B       		.uleb128 0xb
 8159 26ce 04       		.byte	0x4
ARM GAS  C:\Users\adrie\AppData\Local\Temp\cc7EdWgE.s 			page 145


 8160 26cf C8260000 		.4byte	0x26c8
 8161 26d3 15       		.uleb128 0x15
 8162 26d4 89140000 		.4byte	.LASF516
 8163 26d8 2E       		.byte	0x2e
 8164 26d9 BC01     		.2byte	0x1bc
 8165 26db 5E250000 		.4byte	0x255e
 8166 26df 15       		.uleb128 0x15
 8167 26e0 8F140000 		.4byte	.LASF517
 8168 26e4 2E       		.byte	0x2e
 8169 26e5 C001     		.2byte	0x1c0
 8170 26e7 5E250000 		.4byte	0x255e
 8171 26eb 15       		.uleb128 0x15
 8172 26ec 95140000 		.4byte	.LASF518
 8173 26f0 2E       		.byte	0x2e
 8174 26f1 C401     		.2byte	0x1c4
 8175 26f3 5E250000 		.4byte	0x255e
 8176 26f7 15       		.uleb128 0x15
 8177 26f8 9B140000 		.4byte	.LASF519
 8178 26fc 2E       		.byte	0x2e
 8179 26fd C801     		.2byte	0x1c8
 8180 26ff 5E250000 		.4byte	0x255e
 8181 2703 21       		.uleb128 0x21
 8182 2704 07       		.byte	0x7
 8183 2705 01       		.byte	0x1
 8184 2706 6C000000 		.4byte	0x6c
 8185 270a 2F       		.byte	0x2f
 8186 270b 55       		.byte	0x55
 8187 270c 23270000 		.4byte	0x2723
 8188 2710 22       		.uleb128 0x22
 8189 2711 3A070000 		.4byte	.LASF520
 8190 2715 00       		.byte	0
 8191 2716 22       		.uleb128 0x22
 8192 2717 930E0000 		.4byte	.LASF521
 8193 271b 01       		.byte	0x1
 8194 271c 22       		.uleb128 0x22
 8195 271d EA100000 		.4byte	.LASF522
 8196 2721 02       		.byte	0x2
 8197 2722 00       		.byte	0
 8198 2723 04       		.uleb128 0x4
 8199 2724 101C0000 		.4byte	.LASF523
 8200 2728 2F       		.byte	0x2f
 8201 2729 59       		.byte	0x59
 8202 272a 03270000 		.4byte	0x2703
 8203 272e 04       		.uleb128 0x4
 8204 272f 10260000 		.4byte	.LASF524
 8205 2733 2F       		.byte	0x2f
 8206 2734 5E       		.byte	0x5e
 8207 2735 39270000 		.4byte	0x2739
 8208 2739 07       		.uleb128 0x7
 8209 273a 10260000 		.4byte	.LASF524
 8210 273e 78       		.byte	0x78
 8211 273f 2F       		.byte	0x2f
 8212 2740 78       		.byte	0x78
 8213 2741 A4270000 		.4byte	0x27a4
 8214 2745 18       		.uleb128 0x18
 8215 2746 766D7400 		.ascii	"vmt\000"
 8216 274a 2F       		.byte	0x2f
ARM GAS  C:\Users\adrie\AppData\Local\Temp\cc7EdWgE.s 			page 146


 8217 274b 7A       		.byte	0x7a
 8218 274c 22280000 		.4byte	0x2822
 8219 2750 00       		.byte	0
 8220 2751 08       		.uleb128 0x8
 8221 2752 47000000 		.4byte	.LASF525
 8222 2756 2F       		.byte	0x2f
 8223 2757 7B       		.byte	0x7b
 8224 2758 06130000 		.4byte	0x1306
 8225 275c 04       		.byte	0x4
 8226 275d 08       		.uleb128 0x8
 8227 275e 12190000 		.4byte	.LASF347
 8228 2762 2F       		.byte	0x2f
 8229 2763 7B       		.byte	0x7b
 8230 2764 23270000 		.4byte	0x2723
 8231 2768 08       		.byte	0x8
 8232 2769 08       		.uleb128 0x8
 8233 276a F11B0000 		.4byte	.LASF526
 8234 276e 2F       		.byte	0x2f
 8235 276f 7B       		.byte	0x7b
 8236 2770 B1130000 		.4byte	0x13b1
 8237 2774 0C       		.byte	0xc
 8238 2775 08       		.uleb128 0x8
 8239 2776 AF140000 		.4byte	.LASF527
 8240 277a 2F       		.byte	0x2f
 8241 277b 7B       		.byte	0x7b
 8242 277c BC130000 		.4byte	0x13bc
 8243 2780 30       		.byte	0x30
 8244 2781 18       		.uleb128 0x18
 8245 2782 696200   		.ascii	"ib\000"
 8246 2785 2F       		.byte	0x2f
 8247 2786 7B       		.byte	0x7b
 8248 2787 28280000 		.4byte	0x2828
 8249 278b 54       		.byte	0x54
 8250 278c 18       		.uleb128 0x18
 8251 278d 6F6200   		.ascii	"ob\000"
 8252 2790 2F       		.byte	0x2f
 8253 2791 7B       		.byte	0x7b
 8254 2792 28280000 		.4byte	0x2828
 8255 2796 64       		.byte	0x64
 8256 2797 08       		.uleb128 0x8
 8257 2798 1D1E0000 		.4byte	.LASF528
 8258 279c 2F       		.byte	0x2f
 8259 279d 7B       		.byte	0x7b
 8260 279e 38280000 		.4byte	0x2838
 8261 27a2 74       		.byte	0x74
 8262 27a3 00       		.byte	0
 8263 27a4 1F       		.uleb128 0x1f
 8264 27a5 53443300 		.ascii	"SD3\000"
 8265 27a9 30       		.byte	0x30
 8266 27aa 1501     		.2byte	0x115
 8267 27ac 2E270000 		.4byte	0x272e
 8268 27b0 07       		.uleb128 0x7
 8269 27b1 54100000 		.4byte	.LASF529
 8270 27b5 20       		.byte	0x20
 8271 27b6 2F       		.byte	0x2f
 8272 27b7 6D       		.byte	0x6d
 8273 27b8 1D280000 		.4byte	0x281d
ARM GAS  C:\Users\adrie\AppData\Local\Temp\cc7EdWgE.s 			page 147


 8274 27bc 08       		.uleb128 0x8
 8275 27bd E01B0000 		.4byte	.LASF281
 8276 27c1 2F       		.byte	0x2f
 8277 27c2 6E       		.byte	0x6e
 8278 27c3 28140000 		.4byte	0x1428
 8279 27c7 00       		.byte	0
 8280 27c8 08       		.uleb128 0x8
 8281 27c9 38050000 		.4byte	.LASF282
 8282 27cd 2F       		.byte	0x2f
 8283 27ce 6E       		.byte	0x6e
 8284 27cf 47140000 		.4byte	0x1447
 8285 27d3 04       		.byte	0x4
 8286 27d4 18       		.uleb128 0x18
 8287 27d5 70757400 		.ascii	"put\000"
 8288 27d9 2F       		.byte	0x2f
 8289 27da 6E       		.byte	0x6e
 8290 27db 61140000 		.4byte	0x1461
 8291 27df 08       		.byte	0x8
 8292 27e0 18       		.uleb128 0x18
 8293 27e1 67657400 		.ascii	"get\000"
 8294 27e5 2F       		.byte	0x2f
 8295 27e6 6E       		.byte	0x6e
 8296 27e7 76140000 		.4byte	0x1476
 8297 27eb 0C       		.byte	0xc
 8298 27ec 08       		.uleb128 0x8
 8299 27ed FD160000 		.4byte	.LASF530
 8300 27f1 2F       		.byte	0x2f
 8301 27f2 6E       		.byte	0x6e
 8302 27f3 3D150000 		.4byte	0x153d
 8303 27f7 10       		.byte	0x10
 8304 27f8 08       		.uleb128 0x8
 8305 27f9 B31B0000 		.4byte	.LASF531
 8306 27fd 2F       		.byte	0x2f
 8307 27fe 6E       		.byte	0x6e
 8308 27ff 57150000 		.4byte	0x1557
 8309 2803 14       		.byte	0x14
 8310 2804 08       		.uleb128 0x8
 8311 2805 18270000 		.4byte	.LASF532
 8312 2809 2F       		.byte	0x2f
 8313 280a 6E       		.byte	0x6e
 8314 280b 7B150000 		.4byte	0x157b
 8315 280f 18       		.byte	0x18
 8316 2810 08       		.uleb128 0x8
 8317 2811 3F160000 		.4byte	.LASF533
 8318 2815 2F       		.byte	0x2f
 8319 2816 6E       		.byte	0x6e
 8320 2817 9F150000 		.4byte	0x159f
 8321 281b 1C       		.byte	0x1c
 8322 281c 00       		.byte	0
 8323 281d 05       		.uleb128 0x5
 8324 281e B0270000 		.4byte	0x27b0
 8325 2822 0B       		.uleb128 0xb
 8326 2823 04       		.byte	0x4
 8327 2824 1D280000 		.4byte	0x281d
 8328 2828 13       		.uleb128 0x13
 8329 2829 CD000000 		.4byte	0xcd
 8330 282d 38280000 		.4byte	0x2838
ARM GAS  C:\Users\adrie\AppData\Local\Temp\cc7EdWgE.s 			page 148


 8331 2831 14       		.uleb128 0x14
 8332 2832 45000000 		.4byte	0x45
 8333 2836 0F       		.byte	0xf
 8334 2837 00       		.byte	0
 8335 2838 0B       		.uleb128 0xb
 8336 2839 04       		.byte	0x4
 8337 283a 600D0000 		.4byte	0xd60
 8338 283e 21       		.uleb128 0x21
 8339 283f 07       		.byte	0x7
 8340 2840 01       		.byte	0x1
 8341 2841 6C000000 		.4byte	0x6c
 8342 2845 31       		.byte	0x31
 8343 2846 6C       		.byte	0x6c
 8344 2847 5E280000 		.4byte	0x285e
 8345 284b 22       		.uleb128 0x22
 8346 284c 83030000 		.4byte	.LASF534
 8347 2850 00       		.byte	0
 8348 2851 22       		.uleb128 0x22
 8349 2852 3F180000 		.4byte	.LASF535
 8350 2856 01       		.byte	0x1
 8351 2857 22       		.uleb128 0x22
 8352 2858 AE150000 		.4byte	.LASF536
 8353 285c 02       		.byte	0x2
 8354 285d 00       		.byte	0
 8355 285e 04       		.uleb128 0x4
 8356 285f 801F0000 		.4byte	.LASF537
 8357 2863 31       		.byte	0x31
 8358 2864 70       		.byte	0x70
 8359 2865 3E280000 		.4byte	0x283e
 8360 2869 04       		.uleb128 0x4
 8361 286a 481E0000 		.4byte	.LASF538
 8362 286e 32       		.byte	0x32
 8363 286f BF       		.byte	0xbf
 8364 2870 03010000 		.4byte	0x103
 8365 2874 04       		.uleb128 0x4
 8366 2875 4D1B0000 		.4byte	.LASF539
 8367 2879 32       		.byte	0x32
 8368 287a C4       		.byte	0xc4
 8369 287b 03010000 		.4byte	0x103
 8370 287f 04       		.uleb128 0x4
 8371 2880 F4250000 		.4byte	.LASF540
 8372 2884 32       		.byte	0x32
 8373 2885 C9       		.byte	0xc9
 8374 2886 8A280000 		.4byte	0x288a
 8375 288a 07       		.uleb128 0x7
 8376 288b F4250000 		.4byte	.LASF540
 8377 288f 4C       		.byte	0x4c
 8378 2890 32       		.byte	0x32
 8379 2891 F2       		.byte	0xf2
 8380 2892 39290000 		.4byte	0x2939
 8381 2896 18       		.uleb128 0x18
 8382 2897 766D7400 		.ascii	"vmt\000"
 8383 289b 32       		.byte	0x32
 8384 289c F6       		.byte	0xf6
 8385 289d DC290000 		.4byte	0x29dc
 8386 28a1 00       		.byte	0
 8387 28a2 08       		.uleb128 0x8
ARM GAS  C:\Users\adrie\AppData\Local\Temp\cc7EdWgE.s 			page 149


 8388 28a3 12190000 		.4byte	.LASF347
 8389 28a7 32       		.byte	0x32
 8390 28a8 F7       		.byte	0xf7
 8391 28a9 E9150000 		.4byte	0x15e9
 8392 28ad 04       		.byte	0x4
 8393 28ae 18       		.uleb128 0x18
 8394 28af 63696400 		.ascii	"cid\000"
 8395 28b3 32       		.byte	0x32
 8396 28b4 F7       		.byte	0xf7
 8397 28b5 A4160000 		.4byte	0x16a4
 8398 28b9 08       		.byte	0x8
 8399 28ba 18       		.uleb128 0x18
 8400 28bb 63736400 		.ascii	"csd\000"
 8401 28bf 32       		.byte	0x32
 8402 28c0 F7       		.byte	0xf7
 8403 28c1 A4160000 		.4byte	0x16a4
 8404 28c5 18       		.byte	0x18
 8405 28c6 08       		.uleb128 0x8
 8406 28c7 41210000 		.4byte	.LASF541
 8407 28cb 32       		.byte	0x32
 8408 28cc F7       		.byte	0xf7
 8409 28cd 03010000 		.4byte	0x103
 8410 28d1 28       		.byte	0x28
 8411 28d2 08       		.uleb128 0x8
 8412 28d3 65200000 		.4byte	.LASF348
 8413 28d7 32       		.byte	0x32
 8414 28d8 FB       		.byte	0xfb
 8415 28d9 E2290000 		.4byte	0x29e2
 8416 28dd 2C       		.byte	0x2c
 8417 28de 08       		.uleb128 0x8
 8418 28df E8170000 		.4byte	.LASF542
 8419 28e3 32       		.byte	0x32
 8420 28e4 FF       		.byte	0xff
 8421 28e5 69280000 		.4byte	0x2869
 8422 28e9 30       		.byte	0x30
 8423 28ea 0A       		.uleb128 0xa
 8424 28eb 68010000 		.4byte	.LASF480
 8425 28ef 32       		.byte	0x32
 8426 28f0 0301     		.2byte	0x103
 8427 28f2 74280000 		.4byte	0x2874
 8428 28f6 34       		.byte	0x34
 8429 28f7 09       		.uleb128 0x9
 8430 28f8 72636100 		.ascii	"rca\000"
 8431 28fc 32       		.byte	0x32
 8432 28fd 0701     		.2byte	0x107
 8433 28ff 03010000 		.4byte	0x103
 8434 2903 38       		.byte	0x38
 8435 2904 0A       		.uleb128 0xa
 8436 2905 F7070000 		.4byte	.LASF352
 8437 2909 32       		.byte	0x32
 8438 290a 0C01     		.2byte	0x10c
 8439 290c E0020000 		.4byte	0x2e0
 8440 2910 3C       		.byte	0x3c
 8441 2911 0A       		.uleb128 0xa
 8442 2912 941B0000 		.4byte	.LASF355
 8443 2916 32       		.byte	0x32
 8444 2917 1001     		.2byte	0x110
ARM GAS  C:\Users\adrie\AppData\Local\Temp\cc7EdWgE.s 			page 150


 8445 2919 03010000 		.4byte	0x103
 8446 291d 40       		.byte	0x40
 8447 291e 09       		.uleb128 0x9
 8448 291f 646D6100 		.ascii	"dma\000"
 8449 2923 32       		.byte	0x32
 8450 2924 1401     		.2byte	0x114
 8451 2926 E91A0000 		.4byte	0x1ae9
 8452 292a 44       		.byte	0x44
 8453 292b 0A       		.uleb128 0xa
 8454 292c 2A190000 		.4byte	.LASF543
 8455 2930 32       		.byte	0x32
 8456 2931 1901     		.2byte	0x119
 8457 2933 E8290000 		.4byte	0x29e8
 8458 2937 48       		.byte	0x48
 8459 2938 00       		.byte	0
 8460 2939 17       		.uleb128 0x17
 8461 293a 08       		.byte	0x8
 8462 293b 32       		.byte	0x32
 8463 293c CF       		.byte	0xcf
 8464 293d 5A290000 		.4byte	0x295a
 8465 2941 08       		.uleb128 0x8
 8466 2942 750F0000 		.4byte	.LASF544
 8467 2946 32       		.byte	0x32
 8468 2947 D8       		.byte	0xd8
 8469 2948 AB130000 		.4byte	0x13ab
 8470 294c 00       		.byte	0
 8471 294d 08       		.uleb128 0x8
 8472 294e 10280000 		.4byte	.LASF545
 8473 2952 32       		.byte	0x32
 8474 2953 DC       		.byte	0xdc
 8475 2954 5E280000 		.4byte	0x285e
 8476 2958 04       		.byte	0x4
 8477 2959 00       		.byte	0
 8478 295a 04       		.uleb128 0x4
 8479 295b A9180000 		.4byte	.LASF546
 8480 295f 32       		.byte	0x32
 8481 2960 DE       		.byte	0xde
 8482 2961 39290000 		.4byte	0x2939
 8483 2965 05       		.uleb128 0x5
 8484 2966 5A290000 		.4byte	0x295a
 8485 296a 07       		.uleb128 0x7
 8486 296b 36280000 		.4byte	.LASF547
 8487 296f 20       		.byte	0x20
 8488 2970 32       		.byte	0x32
 8489 2971 EB       		.byte	0xeb
 8490 2972 D7290000 		.4byte	0x29d7
 8491 2976 08       		.uleb128 0x8
 8492 2977 962B0000 		.4byte	.LASF548
 8493 297b 32       		.byte	0x32
 8494 297c EC       		.byte	0xec
 8495 297d 36160000 		.4byte	0x1636
 8496 2981 00       		.byte	0
 8497 2982 08       		.uleb128 0x8
 8498 2983 B20D0000 		.4byte	.LASF549
 8499 2987 32       		.byte	0x32
 8500 2988 EC       		.byte	0xec
 8501 2989 36160000 		.4byte	0x1636
ARM GAS  C:\Users\adrie\AppData\Local\Temp\cc7EdWgE.s 			page 151


 8502 298d 04       		.byte	0x4
 8503 298e 08       		.uleb128 0x8
 8504 298f 98100000 		.4byte	.LASF550
 8505 2993 32       		.byte	0x32
 8506 2994 EC       		.byte	0xec
 8507 2995 36160000 		.4byte	0x1636
 8508 2999 08       		.byte	0x8
 8509 299a 08       		.uleb128 0x8
 8510 299b EB160000 		.4byte	.LASF551
 8511 299f 32       		.byte	0x32
 8512 29a0 EC       		.byte	0xec
 8513 29a1 36160000 		.4byte	0x1636
 8514 29a5 0C       		.byte	0xc
 8515 29a6 08       		.uleb128 0x8
 8516 29a7 38050000 		.4byte	.LASF282
 8517 29ab 32       		.byte	0x32
 8518 29ac EC       		.byte	0xec
 8519 29ad 5A160000 		.4byte	0x165a
 8520 29b1 10       		.byte	0x10
 8521 29b2 08       		.uleb128 0x8
 8522 29b3 E01B0000 		.4byte	.LASF281
 8523 29b7 32       		.byte	0x32
 8524 29b8 EC       		.byte	0xec
 8525 29b9 7E160000 		.4byte	0x167e
 8526 29bd 14       		.byte	0x14
 8527 29be 08       		.uleb128 0x8
 8528 29bf 181E0000 		.4byte	.LASF552
 8529 29c3 32       		.byte	0x32
 8530 29c4 EC       		.byte	0xec
 8531 29c5 36160000 		.4byte	0x1636
 8532 29c9 18       		.byte	0x18
 8533 29ca 08       		.uleb128 0x8
 8534 29cb A7270000 		.4byte	.LASF553
 8535 29cf 32       		.byte	0x32
 8536 29d0 EC       		.byte	0xec
 8537 29d1 9E160000 		.4byte	0x169e
 8538 29d5 1C       		.byte	0x1c
 8539 29d6 00       		.byte	0
 8540 29d7 05       		.uleb128 0x5
 8541 29d8 6A290000 		.4byte	0x296a
 8542 29dc 0B       		.uleb128 0xb
 8543 29dd 04       		.byte	0x4
 8544 29de D7290000 		.4byte	0x29d7
 8545 29e2 0B       		.uleb128 0xb
 8546 29e3 04       		.byte	0x4
 8547 29e4 65290000 		.4byte	0x2965
 8548 29e8 0B       		.uleb128 0xb
 8549 29e9 04       		.byte	0x4
 8550 29ea 680C0000 		.4byte	0xc68
 8551 29ee 15       		.uleb128 0x15
 8552 29ef 640B0000 		.4byte	.LASF554
 8553 29f3 32       		.byte	0x32
 8554 29f4 2501     		.2byte	0x125
 8555 29f6 7F280000 		.4byte	0x287f
 8556 29fa 21       		.uleb128 0x21
 8557 29fb 07       		.byte	0x7
 8558 29fc 01       		.byte	0x1
ARM GAS  C:\Users\adrie\AppData\Local\Temp\cc7EdWgE.s 			page 152


 8559 29fd 6C000000 		.4byte	0x6c
 8560 2a01 33       		.byte	0x33
 8561 2a02 46       		.byte	0x46
 8562 2a03 262A0000 		.4byte	0x2a26
 8563 2a07 22       		.uleb128 0x22
 8564 2a08 0D080000 		.4byte	.LASF555
 8565 2a0c 00       		.byte	0
 8566 2a0d 22       		.uleb128 0x22
 8567 2a0e 05030000 		.4byte	.LASF556
 8568 2a12 01       		.byte	0x1
 8569 2a13 22       		.uleb128 0x22
 8570 2a14 ED270000 		.4byte	.LASF557
 8571 2a18 02       		.byte	0x2
 8572 2a19 22       		.uleb128 0x22
 8573 2a1a E90F0000 		.4byte	.LASF558
 8574 2a1e 03       		.byte	0x3
 8575 2a1f 22       		.uleb128 0x22
 8576 2a20 73160000 		.4byte	.LASF559
 8577 2a24 04       		.byte	0x4
 8578 2a25 00       		.byte	0
 8579 2a26 04       		.uleb128 0x4
 8580 2a27 A80F0000 		.4byte	.LASF560
 8581 2a2b 33       		.byte	0x33
 8582 2a2c 4C       		.byte	0x4c
 8583 2a2d FA290000 		.4byte	0x29fa
 8584 2a31 1A       		.uleb128 0x1a
 8585 2a32 87250000 		.4byte	.LASF561
 8586 2a36 34       		.byte	0x34
 8587 2a37 9601     		.2byte	0x196
 8588 2a39 3D2A0000 		.4byte	0x2a3d
 8589 2a3d 0C       		.uleb128 0xc
 8590 2a3e 87250000 		.4byte	.LASF561
 8591 2a42 34       		.byte	0x34
 8592 2a43 34       		.byte	0x34
 8593 2a44 BA01     		.2byte	0x1ba
 8594 2a46 C02A0000 		.4byte	0x2ac0
 8595 2a4a 0A       		.uleb128 0xa
 8596 2a4b 12190000 		.4byte	.LASF347
 8597 2a4f 34       		.byte	0x34
 8598 2a50 BE01     		.2byte	0x1be
 8599 2a52 262A0000 		.4byte	0x2a26
 8600 2a56 00       		.byte	0
 8601 2a57 0A       		.uleb128 0xa
 8602 2a58 65200000 		.4byte	.LASF348
 8603 2a5c 34       		.byte	0x34
 8604 2a5d C201     		.2byte	0x1c2
 8605 2a5f 322B0000 		.4byte	0x2b32
 8606 2a63 04       		.byte	0x4
 8607 2a64 0A       		.uleb128 0xa
 8608 2a65 F7070000 		.4byte	.LASF352
 8609 2a69 34       		.byte	0x34
 8610 2a6a C701     		.2byte	0x1c7
 8611 2a6c E0020000 		.4byte	0x2e0
 8612 2a70 08       		.byte	0x8
 8613 2a71 0A       		.uleb128 0xa
 8614 2a72 170E0000 		.4byte	.LASF353
 8615 2a76 34       		.byte	0x34
ARM GAS  C:\Users\adrie\AppData\Local\Temp\cc7EdWgE.s 			page 153


 8616 2a77 CD01     		.2byte	0x1cd
 8617 2a79 82120000 		.4byte	0x1282
 8618 2a7d 0C       		.byte	0xc
 8619 2a7e 09       		.uleb128 0x9
 8620 2a7f 73706900 		.ascii	"spi\000"
 8621 2a83 34       		.byte	0x34
 8622 2a84 D601     		.2byte	0x1d6
 8623 2a86 21250000 		.4byte	0x2521
 8624 2a8a 20       		.byte	0x20
 8625 2a8b 0A       		.uleb128 0xa
 8626 2a8c 16010000 		.4byte	.LASF484
 8627 2a90 34       		.byte	0x34
 8628 2a91 DA01     		.2byte	0x1da
 8629 2a93 E91A0000 		.4byte	0x1ae9
 8630 2a97 24       		.byte	0x24
 8631 2a98 0A       		.uleb128 0xa
 8632 2a99 24020000 		.4byte	.LASF485
 8633 2a9d 34       		.byte	0x34
 8634 2a9e DE01     		.2byte	0x1de
 8635 2aa0 E91A0000 		.4byte	0x1ae9
 8636 2aa4 28       		.byte	0x28
 8637 2aa5 0A       		.uleb128 0xa
 8638 2aa6 83090000 		.4byte	.LASF482
 8639 2aaa 34       		.byte	0x34
 8640 2aab E201     		.2byte	0x1e2
 8641 2aad 03010000 		.4byte	0x103
 8642 2ab1 2C       		.byte	0x2c
 8643 2ab2 0A       		.uleb128 0xa
 8644 2ab3 DD090000 		.4byte	.LASF483
 8645 2ab7 34       		.byte	0x34
 8646 2ab8 E601     		.2byte	0x1e6
 8647 2aba 03010000 		.4byte	0x103
 8648 2abe 30       		.byte	0x30
 8649 2abf 00       		.byte	0
 8650 2ac0 1A       		.uleb128 0x1a
 8651 2ac1 5B180000 		.4byte	.LASF562
 8652 2ac5 34       		.byte	0x34
 8653 2ac6 9E01     		.2byte	0x19e
 8654 2ac8 CC2A0000 		.4byte	0x2acc
 8655 2acc 0B       		.uleb128 0xb
 8656 2acd 04       		.byte	0x4
 8657 2ace D22A0000 		.4byte	0x2ad2
 8658 2ad2 0D       		.uleb128 0xd
 8659 2ad3 DD2A0000 		.4byte	0x2add
 8660 2ad7 0E       		.uleb128 0xe
 8661 2ad8 DD2A0000 		.4byte	0x2add
 8662 2adc 00       		.byte	0
 8663 2add 0B       		.uleb128 0xb
 8664 2ade 04       		.byte	0x4
 8665 2adf 312A0000 		.4byte	0x2a31
 8666 2ae3 19       		.uleb128 0x19
 8667 2ae4 0C       		.byte	0xc
 8668 2ae5 34       		.byte	0x34
 8669 2ae6 A301     		.2byte	0x1a3
 8670 2ae8 212B0000 		.4byte	0x2b21
 8671 2aec 0A       		.uleb128 0xa
 8672 2aed 7B0A0000 		.4byte	.LASF360
ARM GAS  C:\Users\adrie\AppData\Local\Temp\cc7EdWgE.s 			page 154


 8673 2af1 34       		.byte	0x34
 8674 2af2 A701     		.2byte	0x1a7
 8675 2af4 C02A0000 		.4byte	0x2ac0
 8676 2af8 00       		.byte	0
 8677 2af9 0A       		.uleb128 0xa
 8678 2afa DC280000 		.4byte	.LASF563
 8679 2afe 34       		.byte	0x34
 8680 2aff AC01     		.2byte	0x1ac
 8681 2b01 7A180000 		.4byte	0x187a
 8682 2b05 04       		.byte	0x4
 8683 2b06 0A       		.uleb128 0xa
 8684 2b07 D7090000 		.4byte	.LASF564
 8685 2b0b 34       		.byte	0x34
 8686 2b0c B001     		.2byte	0x1b0
 8687 2b0e E8000000 		.4byte	0xe8
 8688 2b12 08       		.byte	0x8
 8689 2b13 09       		.uleb128 0x9
 8690 2b14 63723100 		.ascii	"cr1\000"
 8691 2b18 34       		.byte	0x34
 8692 2b19 B401     		.2byte	0x1b4
 8693 2b1b E8000000 		.4byte	0xe8
 8694 2b1f 0A       		.byte	0xa
 8695 2b20 00       		.byte	0
 8696 2b21 1A       		.uleb128 0x1a
 8697 2b22 97250000 		.4byte	.LASF565
 8698 2b26 34       		.byte	0x34
 8699 2b27 B501     		.2byte	0x1b5
 8700 2b29 E32A0000 		.4byte	0x2ae3
 8701 2b2d 05       		.uleb128 0x5
 8702 2b2e 212B0000 		.4byte	0x2b21
 8703 2b32 0B       		.uleb128 0xb
 8704 2b33 04       		.byte	0x4
 8705 2b34 2D2B0000 		.4byte	0x2b2d
 8706 2b38 15       		.uleb128 0x15
 8707 2b39 AD1B0000 		.4byte	.LASF566
 8708 2b3d 34       		.byte	0x34
 8709 2b3e F201     		.2byte	0x1f2
 8710 2b40 312A0000 		.4byte	0x2a31
 8711 2b44 04       		.uleb128 0x4
 8712 2b45 65140000 		.4byte	.LASF567
 8713 2b49 35       		.byte	0x35
 8714 2b4a FA       		.byte	0xfa
 8715 2b4b 4F2B0000 		.4byte	0x2b4f
 8716 2b4f 10       		.uleb128 0x10
 8717 2b50 65140000 		.4byte	.LASF567
 8718 2b54 6002     		.2byte	0x260
 8719 2b56 36       		.byte	0x36
 8720 2b57 7701     		.2byte	0x177
 8721 2b59 7B2C0000 		.4byte	0x2c7b
 8722 2b5d 0A       		.uleb128 0xa
 8723 2b5e 12190000 		.4byte	.LASF347
 8724 2b62 36       		.byte	0x36
 8725 2b63 7B01     		.2byte	0x17b
 8726 2b65 B32C0000 		.4byte	0x2cb3
 8727 2b69 00       		.byte	0
 8728 2b6a 0A       		.uleb128 0xa
 8729 2b6b 65200000 		.4byte	.LASF348
ARM GAS  C:\Users\adrie\AppData\Local\Temp\cc7EdWgE.s 			page 155


 8730 2b6f 36       		.byte	0x36
 8731 2b70 7F01     		.2byte	0x17f
 8732 2b72 D6350000 		.4byte	0x35d6
 8733 2b76 04       		.byte	0x4
 8734 2b77 0A       		.uleb128 0xa
 8735 2b78 D8250000 		.4byte	.LASF568
 8736 2b7c 36       		.byte	0x36
 8737 2b7d 8301     		.2byte	0x183
 8738 2b7f E8000000 		.4byte	0xe8
 8739 2b83 08       		.byte	0x8
 8740 2b84 0A       		.uleb128 0xa
 8741 2b85 39290000 		.4byte	.LASF569
 8742 2b89 36       		.byte	0x36
 8743 2b8a 8701     		.2byte	0x187
 8744 2b8c E8000000 		.4byte	0xe8
 8745 2b90 0A       		.byte	0xa
 8746 2b91 09       		.uleb128 0x9
 8747 2b92 65706300 		.ascii	"epc\000"
 8748 2b96 36       		.byte	0x36
 8749 2b97 8B01     		.2byte	0x18b
 8750 2b99 DC350000 		.4byte	0x35dc
 8751 2b9d 0C       		.byte	0xc
 8752 2b9e 0A       		.uleb128 0xa
 8753 2b9f 42080000 		.4byte	.LASF570
 8754 2ba3 36       		.byte	0x36
 8755 2ba4 9201     		.2byte	0x192
 8756 2ba6 F2350000 		.4byte	0x35f2
 8757 2baa 1C       		.byte	0x1c
 8758 2bab 0A       		.uleb128 0xa
 8759 2bac 7B0D0000 		.4byte	.LASF571
 8760 2bb0 36       		.byte	0x36
 8761 2bb1 9901     		.2byte	0x199
 8762 2bb3 F2350000 		.4byte	0x35f2
 8763 2bb7 28       		.byte	0x28
 8764 2bb8 0A       		.uleb128 0xa
 8765 2bb9 7F120000 		.4byte	.LASF572
 8766 2bbd 36       		.byte	0x36
 8767 2bbe 9D01     		.2byte	0x19d
 8768 2bc0 F82C0000 		.4byte	0x2cf8
 8769 2bc4 34       		.byte	0x34
 8770 2bc5 0A       		.uleb128 0xa
 8771 2bc6 F01F0000 		.4byte	.LASF573
 8772 2bca 36       		.byte	0x36
 8773 2bcb A101     		.2byte	0x1a1
 8774 2bcd AB130000 		.4byte	0x13ab
 8775 2bd1 38       		.byte	0x38
 8776 2bd2 0A       		.uleb128 0xa
 8777 2bd3 221B0000 		.4byte	.LASF574
 8778 2bd7 36       		.byte	0x36
 8779 2bd8 A501     		.2byte	0x1a5
 8780 2bda 3A000000 		.4byte	0x3a
 8781 2bde 3C       		.byte	0x3c
 8782 2bdf 0A       		.uleb128 0xa
 8783 2be0 D3220000 		.4byte	.LASF575
 8784 2be4 36       		.byte	0x36
 8785 2be5 A901     		.2byte	0x1a9
 8786 2be7 782D0000 		.4byte	0x2d78
ARM GAS  C:\Users\adrie\AppData\Local\Temp\cc7EdWgE.s 			page 156


 8787 2beb 40       		.byte	0x40
 8788 2bec 0A       		.uleb128 0xa
 8789 2bed 07080000 		.4byte	.LASF576
 8790 2bf1 36       		.byte	0x36
 8791 2bf2 AD01     		.2byte	0x1ad
 8792 2bf4 4A1B0000 		.4byte	0x1b4a
 8793 2bf8 44       		.byte	0x44
 8794 2bf9 0A       		.uleb128 0xa
 8795 2bfa 33180000 		.4byte	.LASF577
 8796 2bfe 36       		.byte	0x36
 8797 2bff B101     		.2byte	0x1b1
 8798 2c01 E8000000 		.4byte	0xe8
 8799 2c05 4C       		.byte	0x4c
 8800 2c06 0A       		.uleb128 0xa
 8801 2c07 7C180000 		.4byte	.LASF578
 8802 2c0b 36       		.byte	0x36
 8803 2c0c B501     		.2byte	0x1b5
 8804 2c0e CD000000 		.4byte	0xcd
 8805 2c12 4E       		.byte	0x4e
 8806 2c13 0A       		.uleb128 0xa
 8807 2c14 B81E0000 		.4byte	.LASF579
 8808 2c18 36       		.byte	0x36
 8809 2c19 B901     		.2byte	0x1b9
 8810 2c1b CD000000 		.4byte	0xcd
 8811 2c1f 4F       		.byte	0x4f
 8812 2c20 09       		.uleb128 0x9
 8813 2c21 6F746700 		.ascii	"otg\000"
 8814 2c25 36       		.byte	0x36
 8815 2c26 C101     		.2byte	0x1c1
 8816 2c28 02360000 		.4byte	0x3602
 8817 2c2c 50       		.byte	0x50
 8818 2c2d 0A       		.uleb128 0xa
 8819 2c2e 5C0F0000 		.4byte	.LASF580
 8820 2c32 36       		.byte	0x36
 8821 2c33 C501     		.2byte	0x1c5
 8822 2c35 08360000 		.4byte	0x3608
 8823 2c39 54       		.byte	0x54
 8824 2c3a 0A       		.uleb128 0xa
 8825 2c3b DB1C0000 		.4byte	.LASF581
 8826 2c3f 36       		.byte	0x36
 8827 2c40 C901     		.2byte	0x1c9
 8828 2c42 03010000 		.4byte	0x103
 8829 2c46 58       		.byte	0x58
 8830 2c47 0A       		.uleb128 0xa
 8831 2c48 400E0000 		.4byte	.LASF582
 8832 2c4c 36       		.byte	0x36
 8833 2c4d CD01     		.2byte	0x1cd
 8834 2c4f 03010000 		.4byte	0x103
 8835 2c53 5C       		.byte	0x5c
 8836 2c54 0A       		.uleb128 0xa
 8837 2c55 34090000 		.4byte	.LASF583
 8838 2c59 36       		.byte	0x36
 8839 2c5a D101     		.2byte	0x1d1
 8840 2c5c E0020000 		.4byte	0x2e0
 8841 2c60 60       		.byte	0x60
 8842 2c61 09       		.uleb128 0x9
 8843 2c62 747200   		.ascii	"tr\000"
ARM GAS  C:\Users\adrie\AppData\Local\Temp\cc7EdWgE.s 			page 157


 8844 2c65 36       		.byte	0x36
 8845 2c66 D601     		.2byte	0x1d6
 8846 2c68 E0020000 		.4byte	0x2e0
 8847 2c6c 64       		.byte	0x64
 8848 2c6d 0A       		.uleb128 0xa
 8849 2c6e 3A170000 		.4byte	.LASF584
 8850 2c72 36       		.byte	0x36
 8851 2c73 DA01     		.2byte	0x1da
 8852 2c75 0E360000 		.4byte	0x360e
 8853 2c79 68       		.byte	0x68
 8854 2c7a 00       		.byte	0
 8855 2c7b 04       		.uleb128 0x4
 8856 2c7c 280B0000 		.4byte	.LASF585
 8857 2c80 35       		.byte	0x35
 8858 2c81 FF       		.byte	0xff
 8859 2c82 CD000000 		.4byte	0xcd
 8860 2c86 24       		.uleb128 0x24
 8861 2c87 07       		.byte	0x7
 8862 2c88 01       		.byte	0x1
 8863 2c89 6C000000 		.4byte	0x6c
 8864 2c8d 35       		.byte	0x35
 8865 2c8e 0401     		.2byte	0x104
 8866 2c90 B32C0000 		.4byte	0x2cb3
 8867 2c94 22       		.uleb128 0x22
 8868 2c95 6C2A0000 		.4byte	.LASF586
 8869 2c99 00       		.byte	0
 8870 2c9a 22       		.uleb128 0x22
 8871 2c9b 00000000 		.4byte	.LASF587
 8872 2c9f 01       		.byte	0x1
 8873 2ca0 22       		.uleb128 0x22
 8874 2ca1 35160000 		.4byte	.LASF588
 8875 2ca5 02       		.byte	0x2
 8876 2ca6 22       		.uleb128 0x22
 8877 2ca7 AB1C0000 		.4byte	.LASF589
 8878 2cab 03       		.byte	0x3
 8879 2cac 22       		.uleb128 0x22
 8880 2cad 4C090000 		.4byte	.LASF590
 8881 2cb1 04       		.byte	0x4
 8882 2cb2 00       		.byte	0
 8883 2cb3 1A       		.uleb128 0x1a
 8884 2cb4 CB2B0000 		.4byte	.LASF591
 8885 2cb8 35       		.byte	0x35
 8886 2cb9 0A01     		.2byte	0x10a
 8887 2cbb 862C0000 		.4byte	0x2c86
 8888 2cbf 24       		.uleb128 0x24
 8889 2cc0 07       		.byte	0x7
 8890 2cc1 01       		.byte	0x1
 8891 2cc2 6C000000 		.4byte	0x6c
 8892 2cc6 35       		.byte	0x35
 8893 2cc7 1801     		.2byte	0x118
 8894 2cc9 F82C0000 		.4byte	0x2cf8
 8895 2ccd 22       		.uleb128 0x22
 8896 2cce 9E220000 		.4byte	.LASF592
 8897 2cd2 00       		.byte	0
 8898 2cd3 22       		.uleb128 0x22
 8899 2cd4 74120000 		.4byte	.LASF593
 8900 2cd8 01       		.byte	0x1
ARM GAS  C:\Users\adrie\AppData\Local\Temp\cc7EdWgE.s 			page 158


 8901 2cd9 22       		.uleb128 0x22
 8902 2cda DC1F0000 		.4byte	.LASF594
 8903 2cde 02       		.byte	0x2
 8904 2cdf 22       		.uleb128 0x22
 8905 2ce0 37190000 		.4byte	.LASF595
 8906 2ce4 03       		.byte	0x3
 8907 2ce5 22       		.uleb128 0x22
 8908 2ce6 10180000 		.4byte	.LASF596
 8909 2cea 04       		.byte	0x4
 8910 2ceb 22       		.uleb128 0x22
 8911 2cec BA130000 		.4byte	.LASF597
 8912 2cf0 05       		.byte	0x5
 8913 2cf1 22       		.uleb128 0x22
 8914 2cf2 64100000 		.4byte	.LASF598
 8915 2cf6 06       		.byte	0x6
 8916 2cf7 00       		.byte	0
 8917 2cf8 1A       		.uleb128 0x1a
 8918 2cf9 0A140000 		.4byte	.LASF599
 8919 2cfd 35       		.byte	0x35
 8920 2cfe 2001     		.2byte	0x120
 8921 2d00 BF2C0000 		.4byte	0x2cbf
 8922 2d04 24       		.uleb128 0x24
 8923 2d05 07       		.byte	0x7
 8924 2d06 01       		.byte	0x1
 8925 2d07 6C000000 		.4byte	0x6c
 8926 2d0b 35       		.byte	0x35
 8927 2d0c 2501     		.2byte	0x125
 8928 2d0e 372D0000 		.4byte	0x2d37
 8929 2d12 22       		.uleb128 0x22
 8930 2d13 EF210000 		.4byte	.LASF600
 8931 2d17 00       		.byte	0
 8932 2d18 22       		.uleb128 0x22
 8933 2d19 451D0000 		.4byte	.LASF601
 8934 2d1d 01       		.byte	0x1
 8935 2d1e 22       		.uleb128 0x22
 8936 2d1f D6160000 		.4byte	.LASF602
 8937 2d23 02       		.byte	0x2
 8938 2d24 22       		.uleb128 0x22
 8939 2d25 86170000 		.4byte	.LASF603
 8940 2d29 03       		.byte	0x3
 8941 2d2a 22       		.uleb128 0x22
 8942 2d2b 59280000 		.4byte	.LASF604
 8943 2d2f 04       		.byte	0x4
 8944 2d30 22       		.uleb128 0x22
 8945 2d31 9A160000 		.4byte	.LASF605
 8946 2d35 05       		.byte	0x5
 8947 2d36 00       		.byte	0
 8948 2d37 1A       		.uleb128 0x1a
 8949 2d38 7D1D0000 		.4byte	.LASF606
 8950 2d3c 35       		.byte	0x35
 8951 2d3d 2C01     		.2byte	0x12c
 8952 2d3f 042D0000 		.4byte	0x2d04
 8953 2d43 19       		.uleb128 0x19
 8954 2d44 08       		.byte	0x8
 8955 2d45 35       		.byte	0x35
 8956 2d46 3101     		.2byte	0x131
 8957 2d48 672D0000 		.4byte	0x2d67
ARM GAS  C:\Users\adrie\AppData\Local\Temp\cc7EdWgE.s 			page 159


 8958 2d4c 0A       		.uleb128 0xa
 8959 2d4d 482B0000 		.4byte	.LASF607
 8960 2d51 35       		.byte	0x35
 8961 2d52 3501     		.2byte	0x135
 8962 2d54 3A000000 		.4byte	0x3a
 8963 2d58 00       		.byte	0
 8964 2d59 0A       		.uleb128 0xa
 8965 2d5a 16050000 		.4byte	.LASF608
 8966 2d5e 35       		.byte	0x35
 8967 2d5f 3901     		.2byte	0x139
 8968 2d61 22140000 		.4byte	0x1422
 8969 2d65 04       		.byte	0x4
 8970 2d66 00       		.byte	0
 8971 2d67 1A       		.uleb128 0x1a
 8972 2d68 4D180000 		.4byte	.LASF609
 8973 2d6c 35       		.byte	0x35
 8974 2d6d 3A01     		.2byte	0x13a
 8975 2d6f 432D0000 		.4byte	0x2d43
 8976 2d73 05       		.uleb128 0x5
 8977 2d74 672D0000 		.4byte	0x2d67
 8978 2d78 1A       		.uleb128 0x1a
 8979 2d79 CC2A0000 		.4byte	.LASF610
 8980 2d7d 35       		.byte	0x35
 8981 2d7e 4201     		.2byte	0x142
 8982 2d80 842D0000 		.4byte	0x2d84
 8983 2d84 0B       		.uleb128 0xb
 8984 2d85 04       		.byte	0x4
 8985 2d86 8A2D0000 		.4byte	0x2d8a
 8986 2d8a 0D       		.uleb128 0xd
 8987 2d8b 952D0000 		.4byte	0x2d95
 8988 2d8f 0E       		.uleb128 0xe
 8989 2d90 952D0000 		.4byte	0x2d95
 8990 2d94 00       		.byte	0
 8991 2d95 0B       		.uleb128 0xb
 8992 2d96 04       		.byte	0x4
 8993 2d97 442B0000 		.4byte	0x2b44
 8994 2d9b 1A       		.uleb128 0x1a
 8995 2d9c 9D050000 		.4byte	.LASF611
 8996 2da0 35       		.byte	0x35
 8997 2da1 4B01     		.2byte	0x14b
 8998 2da3 A72D0000 		.4byte	0x2da7
 8999 2da7 0B       		.uleb128 0xb
 9000 2da8 04       		.byte	0x4
 9001 2da9 AD2D0000 		.4byte	0x2dad
 9002 2dad 0D       		.uleb128 0xd
 9003 2dae BD2D0000 		.4byte	0x2dbd
 9004 2db2 0E       		.uleb128 0xe
 9005 2db3 952D0000 		.4byte	0x2d95
 9006 2db7 0E       		.uleb128 0xe
 9007 2db8 7B2C0000 		.4byte	0x2c7b
 9008 2dbc 00       		.byte	0
 9009 2dbd 1A       		.uleb128 0x1a
 9010 2dbe 770C0000 		.4byte	.LASF612
 9011 2dc2 35       		.byte	0x35
 9012 2dc3 5401     		.2byte	0x154
 9013 2dc5 C92D0000 		.4byte	0x2dc9
 9014 2dc9 0B       		.uleb128 0xb
ARM GAS  C:\Users\adrie\AppData\Local\Temp\cc7EdWgE.s 			page 160


 9015 2dca 04       		.byte	0x4
 9016 2dcb CF2D0000 		.4byte	0x2dcf
 9017 2dcf 0D       		.uleb128 0xd
 9018 2dd0 DF2D0000 		.4byte	0x2ddf
 9019 2dd4 0E       		.uleb128 0xe
 9020 2dd5 952D0000 		.4byte	0x2d95
 9021 2dd9 0E       		.uleb128 0xe
 9022 2dda 372D0000 		.4byte	0x2d37
 9023 2dde 00       		.byte	0
 9024 2ddf 1A       		.uleb128 0x1a
 9025 2de0 06070000 		.4byte	.LASF613
 9026 2de4 35       		.byte	0x35
 9027 2de5 6001     		.2byte	0x160
 9028 2de7 EB2D0000 		.4byte	0x2deb
 9029 2deb 0B       		.uleb128 0xb
 9030 2dec 04       		.byte	0x4
 9031 2ded F12D0000 		.4byte	0x2df1
 9032 2df1 20       		.uleb128 0x20
 9033 2df2 2F160000 		.4byte	0x162f
 9034 2df6 002E0000 		.4byte	0x2e00
 9035 2dfa 0E       		.uleb128 0xe
 9036 2dfb 952D0000 		.4byte	0x2d95
 9037 2dff 00       		.byte	0
 9038 2e00 1A       		.uleb128 0x1a
 9039 2e01 F3100000 		.4byte	.LASF614
 9040 2e05 35       		.byte	0x35
 9041 2e06 6501     		.2byte	0x165
 9042 2e08 0C2E0000 		.4byte	0x2e0c
 9043 2e0c 0B       		.uleb128 0xb
 9044 2e0d 04       		.byte	0x4
 9045 2e0e 122E0000 		.4byte	0x2e12
 9046 2e12 20       		.uleb128 0x20
 9047 2e13 302E0000 		.4byte	0x2e30
 9048 2e17 302E0000 		.4byte	0x2e30
 9049 2e1b 0E       		.uleb128 0xe
 9050 2e1c 952D0000 		.4byte	0x2d95
 9051 2e20 0E       		.uleb128 0xe
 9052 2e21 CD000000 		.4byte	0xcd
 9053 2e25 0E       		.uleb128 0xe
 9054 2e26 CD000000 		.4byte	0xcd
 9055 2e2a 0E       		.uleb128 0xe
 9056 2e2b E8000000 		.4byte	0xe8
 9057 2e2f 00       		.byte	0
 9058 2e30 0B       		.uleb128 0xb
 9059 2e31 04       		.byte	0x4
 9060 2e32 732D0000 		.4byte	0x2d73
 9061 2e36 17       		.uleb128 0x17
 9062 2e37 20       		.byte	0x20
 9063 2e38 37       		.byte	0x37
 9064 2e39 35       		.byte	0x35
 9065 2e3a 9F2E0000 		.4byte	0x2e9f
 9066 2e3e 08       		.uleb128 0x8
 9067 2e3f 91030000 		.4byte	.LASF615
 9068 2e43 37       		.byte	0x37
 9069 2e44 36       		.byte	0x36
 9070 2e45 0E010000 		.4byte	0x10e
 9071 2e49 00       		.byte	0
ARM GAS  C:\Users\adrie\AppData\Local\Temp\cc7EdWgE.s 			page 161


 9072 2e4a 08       		.uleb128 0x8
 9073 2e4b 9B0E0000 		.4byte	.LASF616
 9074 2e4f 37       		.byte	0x37
 9075 2e50 38       		.byte	0x38
 9076 2e51 0E010000 		.4byte	0x10e
 9077 2e55 04       		.byte	0x4
 9078 2e56 08       		.uleb128 0x8
 9079 2e57 DA020000 		.4byte	.LASF617
 9080 2e5b 37       		.byte	0x37
 9081 2e5c 39       		.byte	0x39
 9082 2e5d 0E010000 		.4byte	0x10e
 9083 2e61 08       		.byte	0x8
 9084 2e62 08       		.uleb128 0x8
 9085 2e63 56200000 		.4byte	.LASF618
 9086 2e67 37       		.byte	0x37
 9087 2e68 3A       		.byte	0x3a
 9088 2e69 0E010000 		.4byte	0x10e
 9089 2e6d 0C       		.byte	0xc
 9090 2e6e 08       		.uleb128 0x8
 9091 2e6f CF160000 		.4byte	.LASF619
 9092 2e73 37       		.byte	0x37
 9093 2e74 3C       		.byte	0x3c
 9094 2e75 0E010000 		.4byte	0x10e
 9095 2e79 10       		.byte	0x10
 9096 2e7a 08       		.uleb128 0x8
 9097 2e7b DE0E0000 		.4byte	.LASF620
 9098 2e7f 37       		.byte	0x37
 9099 2e80 3E       		.byte	0x3e
 9100 2e81 0E010000 		.4byte	0x10e
 9101 2e85 14       		.byte	0x14
 9102 2e86 08       		.uleb128 0x8
 9103 2e87 E60E0000 		.4byte	.LASF621
 9104 2e8b 37       		.byte	0x37
 9105 2e8c 3F       		.byte	0x3f
 9106 2e8d 0E010000 		.4byte	0x10e
 9107 2e91 18       		.byte	0x18
 9108 2e92 08       		.uleb128 0x8
 9109 2e93 76040000 		.4byte	.LASF622
 9110 2e97 37       		.byte	0x37
 9111 2e98 40       		.byte	0x40
 9112 2e99 0E010000 		.4byte	0x10e
 9113 2e9d 1C       		.byte	0x1c
 9114 2e9e 00       		.byte	0
 9115 2e9f 04       		.uleb128 0x4
 9116 2ea0 F81F0000 		.4byte	.LASF623
 9117 2ea4 37       		.byte	0x37
 9118 2ea5 41       		.byte	0x41
 9119 2ea6 362E0000 		.4byte	0x2e36
 9120 2eaa 17       		.uleb128 0x17
 9121 2eab 20       		.byte	0x20
 9122 2eac 37       		.byte	0x37
 9123 2ead 46       		.byte	0x46
 9124 2eae 132F0000 		.4byte	0x2f13
 9125 2eb2 08       		.uleb128 0x8
 9126 2eb3 4A0F0000 		.4byte	.LASF624
 9127 2eb7 37       		.byte	0x37
 9128 2eb8 47       		.byte	0x47
ARM GAS  C:\Users\adrie\AppData\Local\Temp\cc7EdWgE.s 			page 162


 9129 2eb9 0E010000 		.4byte	0x10e
 9130 2ebd 00       		.byte	0
 9131 2ebe 08       		.uleb128 0x8
 9132 2ebf 5E140000 		.4byte	.LASF625
 9133 2ec3 37       		.byte	0x37
 9134 2ec4 49       		.byte	0x49
 9135 2ec5 0E010000 		.4byte	0x10e
 9136 2ec9 04       		.byte	0x4
 9137 2eca 08       		.uleb128 0x8
 9138 2ecb DA240000 		.4byte	.LASF626
 9139 2ecf 37       		.byte	0x37
 9140 2ed0 4A       		.byte	0x4a
 9141 2ed1 0E010000 		.4byte	0x10e
 9142 2ed5 08       		.byte	0x8
 9143 2ed6 08       		.uleb128 0x8
 9144 2ed7 82140000 		.4byte	.LASF627
 9145 2edb 37       		.byte	0x37
 9146 2edc 4C       		.byte	0x4c
 9147 2edd 0E010000 		.4byte	0x10e
 9148 2ee1 0C       		.byte	0xc
 9149 2ee2 08       		.uleb128 0x8
 9150 2ee3 3C1A0000 		.4byte	.LASF628
 9151 2ee7 37       		.byte	0x37
 9152 2ee8 4D       		.byte	0x4d
 9153 2ee9 0E010000 		.4byte	0x10e
 9154 2eed 10       		.byte	0x10
 9155 2eee 08       		.uleb128 0x8
 9156 2eef DE0E0000 		.4byte	.LASF620
 9157 2ef3 37       		.byte	0x37
 9158 2ef4 4F       		.byte	0x4f
 9159 2ef5 0E010000 		.4byte	0x10e
 9160 2ef9 14       		.byte	0x14
 9161 2efa 08       		.uleb128 0x8
 9162 2efb 18080000 		.4byte	.LASF629
 9163 2eff 37       		.byte	0x37
 9164 2f00 50       		.byte	0x50
 9165 2f01 0E010000 		.4byte	0x10e
 9166 2f05 18       		.byte	0x18
 9167 2f06 08       		.uleb128 0x8
 9168 2f07 C3240000 		.4byte	.LASF630
 9169 2f0b 37       		.byte	0x37
 9170 2f0c 52       		.byte	0x52
 9171 2f0d 0E010000 		.4byte	0x10e
 9172 2f11 1C       		.byte	0x1c
 9173 2f12 00       		.byte	0
 9174 2f13 04       		.uleb128 0x4
 9175 2f14 60090000 		.4byte	.LASF631
 9176 2f18 37       		.byte	0x37
 9177 2f19 53       		.byte	0x53
 9178 2f1a AA2E0000 		.4byte	0x2eaa
 9179 2f1e 17       		.uleb128 0x17
 9180 2f1f 20       		.byte	0x20
 9181 2f20 37       		.byte	0x37
 9182 2f21 58       		.byte	0x58
 9183 2f22 872F0000 		.4byte	0x2f87
 9184 2f26 08       		.uleb128 0x8
 9185 2f27 4E200000 		.4byte	.LASF632
ARM GAS  C:\Users\adrie\AppData\Local\Temp\cc7EdWgE.s 			page 163


 9186 2f2b 37       		.byte	0x37
 9187 2f2c 59       		.byte	0x59
 9188 2f2d 0E010000 		.4byte	0x10e
 9189 2f31 00       		.byte	0
 9190 2f32 08       		.uleb128 0x8
 9191 2f33 5E140000 		.4byte	.LASF625
 9192 2f37 37       		.byte	0x37
 9193 2f38 5B       		.byte	0x5b
 9194 2f39 0E010000 		.4byte	0x10e
 9195 2f3d 04       		.byte	0x4
 9196 2f3e 08       		.uleb128 0x8
 9197 2f3f FE1B0000 		.4byte	.LASF633
 9198 2f43 37       		.byte	0x37
 9199 2f44 5C       		.byte	0x5c
 9200 2f45 0E010000 		.4byte	0x10e
 9201 2f49 08       		.byte	0x8
 9202 2f4a 08       		.uleb128 0x8
 9203 2f4b 82140000 		.4byte	.LASF627
 9204 2f4f 37       		.byte	0x37
 9205 2f50 5E       		.byte	0x5e
 9206 2f51 0E010000 		.4byte	0x10e
 9207 2f55 0C       		.byte	0xc
 9208 2f56 08       		.uleb128 0x8
 9209 2f57 31260000 		.4byte	.LASF634
 9210 2f5b 37       		.byte	0x37
 9211 2f5c 5F       		.byte	0x5f
 9212 2f5d 0E010000 		.4byte	0x10e
 9213 2f61 10       		.byte	0x10
 9214 2f62 08       		.uleb128 0x8
 9215 2f63 DE0E0000 		.4byte	.LASF620
 9216 2f67 37       		.byte	0x37
 9217 2f68 61       		.byte	0x61
 9218 2f69 0E010000 		.4byte	0x10e
 9219 2f6d 14       		.byte	0x14
 9220 2f6e 08       		.uleb128 0x8
 9221 2f6f E60E0000 		.4byte	.LASF621
 9222 2f73 37       		.byte	0x37
 9223 2f74 62       		.byte	0x62
 9224 2f75 0E010000 		.4byte	0x10e
 9225 2f79 18       		.byte	0x18
 9226 2f7a 08       		.uleb128 0x8
 9227 2f7b C3240000 		.4byte	.LASF630
 9228 2f7f 37       		.byte	0x37
 9229 2f80 63       		.byte	0x63
 9230 2f81 0E010000 		.4byte	0x10e
 9231 2f85 1C       		.byte	0x1c
 9232 2f86 00       		.byte	0
 9233 2f87 04       		.uleb128 0x4
 9234 2f88 03090000 		.4byte	.LASF635
 9235 2f8c 37       		.byte	0x37
 9236 2f8d 64       		.byte	0x64
 9237 2f8e 1E2F0000 		.4byte	0x2f1e
 9238 2f92 26       		.uleb128 0x26
 9239 2f93 00100100 		.4byte	0x11000
 9240 2f97 37       		.byte	0x37
 9241 2f98 69       		.byte	0x69
 9242 2f99 6F320000 		.4byte	0x326f
ARM GAS  C:\Users\adrie\AppData\Local\Temp\cc7EdWgE.s 			page 164


 9243 2f9d 08       		.uleb128 0x8
 9244 2f9e 7C050000 		.4byte	.LASF636
 9245 2fa2 37       		.byte	0x37
 9246 2fa3 6A       		.byte	0x6a
 9247 2fa4 0E010000 		.4byte	0x10e
 9248 2fa8 00       		.byte	0
 9249 2fa9 08       		.uleb128 0x8
 9250 2faa 630D0000 		.4byte	.LASF637
 9251 2fae 37       		.byte	0x37
 9252 2faf 6B       		.byte	0x6b
 9253 2fb0 0E010000 		.4byte	0x10e
 9254 2fb4 04       		.byte	0x4
 9255 2fb5 08       		.uleb128 0x8
 9256 2fb6 6C080000 		.4byte	.LASF638
 9257 2fba 37       		.byte	0x37
 9258 2fbb 6C       		.byte	0x6c
 9259 2fbc 0E010000 		.4byte	0x10e
 9260 2fc0 08       		.byte	0x8
 9261 2fc1 08       		.uleb128 0x8
 9262 2fc2 E52A0000 		.4byte	.LASF639
 9263 2fc6 37       		.byte	0x37
 9264 2fc7 6D       		.byte	0x6d
 9265 2fc8 0E010000 		.4byte	0x10e
 9266 2fcc 0C       		.byte	0xc
 9267 2fcd 08       		.uleb128 0x8
 9268 2fce 4E160000 		.4byte	.LASF640
 9269 2fd2 37       		.byte	0x37
 9270 2fd3 6E       		.byte	0x6e
 9271 2fd4 0E010000 		.4byte	0x10e
 9272 2fd8 10       		.byte	0x10
 9273 2fd9 08       		.uleb128 0x8
 9274 2fda E90C0000 		.4byte	.LASF641
 9275 2fde 37       		.byte	0x37
 9276 2fdf 6F       		.byte	0x6f
 9277 2fe0 0E010000 		.4byte	0x10e
 9278 2fe4 14       		.byte	0x14
 9279 2fe5 08       		.uleb128 0x8
 9280 2fe6 A71E0000 		.4byte	.LASF642
 9281 2fea 37       		.byte	0x37
 9282 2feb 70       		.byte	0x70
 9283 2fec 0E010000 		.4byte	0x10e
 9284 2ff0 18       		.byte	0x18
 9285 2ff1 08       		.uleb128 0x8
 9286 2ff2 1E090000 		.4byte	.LASF643
 9287 2ff6 37       		.byte	0x37
 9288 2ff7 71       		.byte	0x71
 9289 2ff8 0E010000 		.4byte	0x10e
 9290 2ffc 1C       		.byte	0x1c
 9291 2ffd 08       		.uleb128 0x8
 9292 2ffe 16090000 		.4byte	.LASF644
 9293 3002 37       		.byte	0x37
 9294 3003 73       		.byte	0x73
 9295 3004 0E010000 		.4byte	0x10e
 9296 3008 20       		.byte	0x20
 9297 3009 08       		.uleb128 0x8
 9298 300a 101E0000 		.4byte	.LASF645
 9299 300e 37       		.byte	0x37
ARM GAS  C:\Users\adrie\AppData\Local\Temp\cc7EdWgE.s 			page 165


 9300 300f 75       		.byte	0x75
 9301 3010 0E010000 		.4byte	0x10e
 9302 3014 24       		.byte	0x24
 9303 3015 08       		.uleb128 0x8
 9304 3016 C6000000 		.4byte	.LASF646
 9305 301a 37       		.byte	0x37
 9306 301b 76       		.byte	0x76
 9307 301c 0E010000 		.4byte	0x10e
 9308 3020 28       		.byte	0x28
 9309 3021 08       		.uleb128 0x8
 9310 3022 AF1E0000 		.4byte	.LASF647
 9311 3026 37       		.byte	0x37
 9312 3027 78       		.byte	0x78
 9313 3028 0E010000 		.4byte	0x10e
 9314 302c 2C       		.byte	0x2c
 9315 302d 08       		.uleb128 0x8
 9316 302e 1F100000 		.4byte	.LASF648
 9317 3032 37       		.byte	0x37
 9318 3033 7A       		.byte	0x7a
 9319 3034 0E010000 		.4byte	0x10e
 9320 3038 30       		.byte	0x30
 9321 3039 08       		.uleb128 0x8
 9322 303a 2E100000 		.4byte	.LASF649
 9323 303e 37       		.byte	0x37
 9324 303f 7B       		.byte	0x7b
 9325 3040 0E010000 		.4byte	0x10e
 9326 3044 34       		.byte	0x34
 9327 3045 08       		.uleb128 0x8
 9328 3046 F2010000 		.4byte	.LASF650
 9329 304a 37       		.byte	0x37
 9330 304b 7C       		.byte	0x7c
 9331 304c 0E010000 		.4byte	0x10e
 9332 3050 38       		.byte	0x38
 9333 3051 18       		.uleb128 0x18
 9334 3052 43494400 		.ascii	"CID\000"
 9335 3056 37       		.byte	0x37
 9336 3057 7D       		.byte	0x7d
 9337 3058 0E010000 		.4byte	0x10e
 9338 305c 3C       		.byte	0x3c
 9339 305d 08       		.uleb128 0x8
 9340 305e 13130000 		.4byte	.LASF651
 9341 3062 37       		.byte	0x37
 9342 3063 7E       		.byte	0x7e
 9343 3064 7F320000 		.4byte	0x327f
 9344 3068 40       		.byte	0x40
 9345 3069 27       		.uleb128 0x27
 9346 306a 3B270000 		.4byte	.LASF652
 9347 306e 37       		.byte	0x37
 9348 306f 7F       		.byte	0x7f
 9349 3070 0E010000 		.4byte	0x10e
 9350 3074 0001     		.2byte	0x100
 9351 3076 27       		.uleb128 0x27
 9352 3077 62020000 		.4byte	.LASF653
 9353 307b 37       		.byte	0x37
 9354 307c 81       		.byte	0x81
 9355 307d 7C0D0000 		.4byte	0xd7c
 9356 3081 0401     		.2byte	0x104
ARM GAS  C:\Users\adrie\AppData\Local\Temp\cc7EdWgE.s 			page 166


 9357 3083 27       		.uleb128 0x27
 9358 3084 59170000 		.4byte	.LASF654
 9359 3088 37       		.byte	0x37
 9360 3089 83       		.byte	0x83
 9361 308a 94320000 		.4byte	0x3294
 9362 308e 4001     		.2byte	0x140
 9363 3090 27       		.uleb128 0x27
 9364 3091 8F1B0000 		.4byte	.LASF655
 9365 3095 37       		.byte	0x37
 9366 3096 84       		.byte	0x84
 9367 3097 0E010000 		.4byte	0x10e
 9368 309b 0004     		.2byte	0x400
 9369 309d 27       		.uleb128 0x27
 9370 309e 492A0000 		.4byte	.LASF656
 9371 30a2 37       		.byte	0x37
 9372 30a3 85       		.byte	0x85
 9373 30a4 0E010000 		.4byte	0x10e
 9374 30a8 0404     		.2byte	0x404
 9375 30aa 27       		.uleb128 0x27
 9376 30ab B1040000 		.4byte	.LASF657
 9377 30af 37       		.byte	0x37
 9378 30b0 86       		.byte	0x86
 9379 30b1 0E010000 		.4byte	0x10e
 9380 30b5 0804     		.2byte	0x408
 9381 30b7 27       		.uleb128 0x27
 9382 30b8 9C260000 		.4byte	.LASF658
 9383 30bc 37       		.byte	0x37
 9384 30bd 88       		.byte	0x88
 9385 30be 0E010000 		.4byte	0x10e
 9386 30c2 0C04     		.2byte	0x40c
 9387 30c4 27       		.uleb128 0x27
 9388 30c5 55030000 		.4byte	.LASF659
 9389 30c9 37       		.byte	0x37
 9390 30ca 89       		.byte	0x89
 9391 30cb 0E010000 		.4byte	0x10e
 9392 30cf 1004     		.2byte	0x410
 9393 30d1 27       		.uleb128 0x27
 9394 30d2 89040000 		.4byte	.LASF660
 9395 30d6 37       		.byte	0x37
 9396 30d7 8B       		.byte	0x8b
 9397 30d8 0E010000 		.4byte	0x10e
 9398 30dc 1404     		.2byte	0x414
 9399 30de 27       		.uleb128 0x27
 9400 30df 720D0000 		.4byte	.LASF661
 9401 30e3 37       		.byte	0x37
 9402 30e4 8D       		.byte	0x8d
 9403 30e5 0E010000 		.4byte	0x10e
 9404 30e9 1804     		.2byte	0x418
 9405 30eb 27       		.uleb128 0x27
 9406 30ec B2210000 		.4byte	.LASF662
 9407 30f0 37       		.byte	0x37
 9408 30f1 8F       		.byte	0x8f
 9409 30f2 A9320000 		.4byte	0x32a9
 9410 30f6 1C04     		.2byte	0x41c
 9411 30f8 27       		.uleb128 0x27
 9412 30f9 D5020000 		.4byte	.LASF663
 9413 30fd 37       		.byte	0x37
ARM GAS  C:\Users\adrie\AppData\Local\Temp\cc7EdWgE.s 			page 167


 9414 30fe 90       		.byte	0x90
 9415 30ff 0E010000 		.4byte	0x10e
 9416 3103 4004     		.2byte	0x440
 9417 3105 27       		.uleb128 0x27
 9418 3106 B5230000 		.4byte	.LASF664
 9419 310a 37       		.byte	0x37
 9420 310b 92       		.byte	0x92
 9421 310c BE320000 		.4byte	0x32be
 9422 3110 4404     		.2byte	0x444
 9423 3112 28       		.uleb128 0x28
 9424 3113 686300   		.ascii	"hc\000"
 9425 3116 37       		.byte	0x37
 9426 3117 93       		.byte	0x93
 9427 3118 C3320000 		.4byte	0x32c3
 9428 311c 0005     		.2byte	0x500
 9429 311e 27       		.uleb128 0x27
 9430 311f ED260000 		.4byte	.LASF665
 9431 3123 37       		.byte	0x37
 9432 3124 94       		.byte	0x94
 9433 3125 E3320000 		.4byte	0x32e3
 9434 3129 0007     		.2byte	0x700
 9435 312b 27       		.uleb128 0x27
 9436 312c 911E0000 		.4byte	.LASF666
 9437 3130 37       		.byte	0x37
 9438 3131 95       		.byte	0x95
 9439 3132 0E010000 		.4byte	0x10e
 9440 3136 0008     		.2byte	0x800
 9441 3138 27       		.uleb128 0x27
 9442 3139 31280000 		.4byte	.LASF667
 9443 313d 37       		.byte	0x37
 9444 313e 96       		.byte	0x96
 9445 313f 0E010000 		.4byte	0x10e
 9446 3143 0408     		.2byte	0x804
 9447 3145 27       		.uleb128 0x27
 9448 3146 47060000 		.4byte	.LASF668
 9449 314a 37       		.byte	0x37
 9450 314b 97       		.byte	0x97
 9451 314c 0E010000 		.4byte	0x10e
 9452 3150 0808     		.2byte	0x808
 9453 3152 27       		.uleb128 0x27
 9454 3153 48050000 		.4byte	.LASF669
 9455 3157 37       		.byte	0x37
 9456 3158 98       		.byte	0x98
 9457 3159 0E010000 		.4byte	0x10e
 9458 315d 0C08     		.2byte	0x80c
 9459 315f 27       		.uleb128 0x27
 9460 3160 5B0D0000 		.4byte	.LASF670
 9461 3164 37       		.byte	0x37
 9462 3165 99       		.byte	0x99
 9463 3166 0E010000 		.4byte	0x10e
 9464 316a 1008     		.2byte	0x810
 9465 316c 27       		.uleb128 0x27
 9466 316d FB240000 		.4byte	.LASF671
 9467 3171 37       		.byte	0x37
 9468 3172 9B       		.byte	0x9b
 9469 3173 0E010000 		.4byte	0x10e
 9470 3177 1408     		.2byte	0x814
ARM GAS  C:\Users\adrie\AppData\Local\Temp\cc7EdWgE.s 			page 168


 9471 3179 27       		.uleb128 0x27
 9472 317a 91250000 		.4byte	.LASF672
 9473 317e 37       		.byte	0x37
 9474 317f 9D       		.byte	0x9d
 9475 3180 0E010000 		.4byte	0x10e
 9476 3184 1808     		.2byte	0x818
 9477 3186 27       		.uleb128 0x27
 9478 3187 58220000 		.4byte	.LASF673
 9479 318b 37       		.byte	0x37
 9480 318c 9F       		.byte	0x9f
 9481 318d 0E010000 		.4byte	0x10e
 9482 3191 1C08     		.2byte	0x81c
 9483 3193 27       		.uleb128 0x27
 9484 3194 B1060000 		.4byte	.LASF674
 9485 3198 37       		.byte	0x37
 9486 3199 A1       		.byte	0xa1
 9487 319a 0E010000 		.4byte	0x10e
 9488 319e 2008     		.2byte	0x820
 9489 31a0 27       		.uleb128 0x27
 9490 31a1 C4050000 		.4byte	.LASF675
 9491 31a5 37       		.byte	0x37
 9492 31a6 A2       		.byte	0xa2
 9493 31a7 0E010000 		.4byte	0x10e
 9494 31ab 2408     		.2byte	0x824
 9495 31ad 27       		.uleb128 0x27
 9496 31ae 9E1E0000 		.4byte	.LASF676
 9497 31b2 37       		.byte	0x37
 9498 31b3 A3       		.byte	0xa3
 9499 31b4 0E010000 		.4byte	0x10e
 9500 31b8 2808     		.2byte	0x828
 9501 31ba 27       		.uleb128 0x27
 9502 31bb 36100000 		.4byte	.LASF677
 9503 31bf 37       		.byte	0x37
 9504 31c0 A5       		.byte	0xa5
 9505 31c1 0E010000 		.4byte	0x10e
 9506 31c5 2C08     		.2byte	0x82c
 9507 31c7 27       		.uleb128 0x27
 9508 31c8 76070000 		.4byte	.LASF678
 9509 31cc 37       		.byte	0x37
 9510 31cd A7       		.byte	0xa7
 9511 31ce 0E010000 		.4byte	0x10e
 9512 31d2 3008     		.2byte	0x830
 9513 31d4 27       		.uleb128 0x27
 9514 31d5 230F0000 		.4byte	.LASF679
 9515 31d9 37       		.byte	0x37
 9516 31da A8       		.byte	0xa8
 9517 31db 0E010000 		.4byte	0x10e
 9518 31df 3408     		.2byte	0x834
 9519 31e1 27       		.uleb128 0x27
 9520 31e2 C4070000 		.4byte	.LASF680
 9521 31e6 37       		.byte	0x37
 9522 31e7 AA       		.byte	0xaa
 9523 31e8 0E010000 		.4byte	0x10e
 9524 31ec 3808     		.2byte	0x838
 9525 31ee 27       		.uleb128 0x27
 9526 31ef EE070000 		.4byte	.LASF681
 9527 31f3 37       		.byte	0x37
ARM GAS  C:\Users\adrie\AppData\Local\Temp\cc7EdWgE.s 			page 169


 9528 31f4 AB       		.byte	0xab
 9529 31f5 0E010000 		.4byte	0x10e
 9530 31f9 3C08     		.2byte	0x83c
 9531 31fb 27       		.uleb128 0x27
 9532 31fc 94080000 		.4byte	.LASF682
 9533 3200 37       		.byte	0x37
 9534 3201 AC       		.byte	0xac
 9535 3202 F8320000 		.4byte	0x32f8
 9536 3206 4008     		.2byte	0x840
 9537 3208 27       		.uleb128 0x27
 9538 3209 B60E0000 		.4byte	.LASF683
 9539 320d 37       		.byte	0x37
 9540 320e AD       		.byte	0xad
 9541 320f F8320000 		.4byte	0x32f8
 9542 3213 8008     		.2byte	0x880
 9543 3215 27       		.uleb128 0x27
 9544 3216 6F140000 		.4byte	.LASF684
 9545 321a 37       		.byte	0x37
 9546 321b AE       		.byte	0xae
 9547 321c F8320000 		.4byte	0x32f8
 9548 3220 C008     		.2byte	0x8c0
 9549 3222 28       		.uleb128 0x28
 9550 3223 696500   		.ascii	"ie\000"
 9551 3226 37       		.byte	0x37
 9552 3227 AF       		.byte	0xaf
 9553 3228 FD320000 		.4byte	0x32fd
 9554 322c 0009     		.2byte	0x900
 9555 322e 28       		.uleb128 0x28
 9556 322f 6F6500   		.ascii	"oe\000"
 9557 3232 37       		.byte	0x37
 9558 3233 B0       		.byte	0xb0
 9559 3234 0D330000 		.4byte	0x330d
 9560 3238 000B     		.2byte	0xb00
 9561 323a 27       		.uleb128 0x27
 9562 323b D30C0000 		.4byte	.LASF685
 9563 323f 37       		.byte	0x37
 9564 3240 B1       		.byte	0xb1
 9565 3241 E3320000 		.4byte	0x32e3
 9566 3245 000D     		.2byte	0xd00
 9567 3247 27       		.uleb128 0x27
 9568 3248 51280000 		.4byte	.LASF686
 9569 324c 37       		.byte	0x37
 9570 324d B2       		.byte	0xb2
 9571 324e 0E010000 		.4byte	0x10e
 9572 3252 000E     		.2byte	0xe00
 9573 3254 27       		.uleb128 0x27
 9574 3255 271B0000 		.4byte	.LASF687
 9575 3259 37       		.byte	0x37
 9576 325a B4       		.byte	0xb4
 9577 325b 2D330000 		.4byte	0x332d
 9578 325f 040E     		.2byte	0xe04
 9579 3261 27       		.uleb128 0x27
 9580 3262 B30A0000 		.4byte	.LASF182
 9581 3266 37       		.byte	0x37
 9582 3267 B5       		.byte	0xb5
 9583 3268 49330000 		.4byte	0x3349
 9584 326c 0010     		.2byte	0x1000
ARM GAS  C:\Users\adrie\AppData\Local\Temp\cc7EdWgE.s 			page 170


 9585 326e 00       		.byte	0
 9586 326f 13       		.uleb128 0x13
 9587 3270 0E010000 		.4byte	0x10e
 9588 3274 7F320000 		.4byte	0x327f
 9589 3278 14       		.uleb128 0x14
 9590 3279 45000000 		.4byte	0x45
 9591 327d 2F       		.byte	0x2f
 9592 327e 00       		.byte	0
 9593 327f 06       		.uleb128 0x6
 9594 3280 6F320000 		.4byte	0x326f
 9595 3284 13       		.uleb128 0x13
 9596 3285 0E010000 		.4byte	0x10e
 9597 3289 94320000 		.4byte	0x3294
 9598 328d 14       		.uleb128 0x14
 9599 328e 45000000 		.4byte	0x45
 9600 3292 AF       		.byte	0xaf
 9601 3293 00       		.byte	0
 9602 3294 06       		.uleb128 0x6
 9603 3295 84320000 		.4byte	0x3284
 9604 3299 13       		.uleb128 0x13
 9605 329a 0E010000 		.4byte	0x10e
 9606 329e A9320000 		.4byte	0x32a9
 9607 32a2 14       		.uleb128 0x14
 9608 32a3 45000000 		.4byte	0x45
 9609 32a7 08       		.byte	0x8
 9610 32a8 00       		.byte	0
 9611 32a9 06       		.uleb128 0x6
 9612 32aa 99320000 		.4byte	0x3299
 9613 32ae 13       		.uleb128 0x13
 9614 32af 0E010000 		.4byte	0x10e
 9615 32b3 BE320000 		.4byte	0x32be
 9616 32b7 14       		.uleb128 0x14
 9617 32b8 45000000 		.4byte	0x45
 9618 32bc 2E       		.byte	0x2e
 9619 32bd 00       		.byte	0
 9620 32be 06       		.uleb128 0x6
 9621 32bf AE320000 		.4byte	0x32ae
 9622 32c3 13       		.uleb128 0x13
 9623 32c4 9F2E0000 		.4byte	0x2e9f
 9624 32c8 D3320000 		.4byte	0x32d3
 9625 32cc 14       		.uleb128 0x14
 9626 32cd 45000000 		.4byte	0x45
 9627 32d1 0F       		.byte	0xf
 9628 32d2 00       		.byte	0
 9629 32d3 13       		.uleb128 0x13
 9630 32d4 0E010000 		.4byte	0x10e
 9631 32d8 E3320000 		.4byte	0x32e3
 9632 32dc 14       		.uleb128 0x14
 9633 32dd 45000000 		.4byte	0x45
 9634 32e1 3F       		.byte	0x3f
 9635 32e2 00       		.byte	0
 9636 32e3 06       		.uleb128 0x6
 9637 32e4 D3320000 		.4byte	0x32d3
 9638 32e8 13       		.uleb128 0x13
 9639 32e9 0E010000 		.4byte	0x10e
 9640 32ed F8320000 		.4byte	0x32f8
 9641 32f1 14       		.uleb128 0x14
ARM GAS  C:\Users\adrie\AppData\Local\Temp\cc7EdWgE.s 			page 171


 9642 32f2 45000000 		.4byte	0x45
 9643 32f6 0F       		.byte	0xf
 9644 32f7 00       		.byte	0
 9645 32f8 06       		.uleb128 0x6
 9646 32f9 E8320000 		.4byte	0x32e8
 9647 32fd 13       		.uleb128 0x13
 9648 32fe 132F0000 		.4byte	0x2f13
 9649 3302 0D330000 		.4byte	0x330d
 9650 3306 14       		.uleb128 0x14
 9651 3307 45000000 		.4byte	0x45
 9652 330b 0F       		.byte	0xf
 9653 330c 00       		.byte	0
 9654 330d 13       		.uleb128 0x13
 9655 330e 872F0000 		.4byte	0x2f87
 9656 3312 1D330000 		.4byte	0x331d
 9657 3316 14       		.uleb128 0x14
 9658 3317 45000000 		.4byte	0x45
 9659 331b 0F       		.byte	0xf
 9660 331c 00       		.byte	0
 9661 331d 13       		.uleb128 0x13
 9662 331e 0E010000 		.4byte	0x10e
 9663 3322 2D330000 		.4byte	0x332d
 9664 3326 14       		.uleb128 0x14
 9665 3327 45000000 		.4byte	0x45
 9666 332b 7E       		.byte	0x7e
 9667 332c 00       		.byte	0
 9668 332d 06       		.uleb128 0x6
 9669 332e 1D330000 		.4byte	0x331d
 9670 3332 13       		.uleb128 0x13
 9671 3333 0E010000 		.4byte	0x10e
 9672 3337 49330000 		.4byte	0x3349
 9673 333b 14       		.uleb128 0x14
 9674 333c 45000000 		.4byte	0x45
 9675 3340 0F       		.byte	0xf
 9676 3341 29       		.uleb128 0x29
 9677 3342 45000000 		.4byte	0x45
 9678 3346 FF03     		.2byte	0x3ff
 9679 3348 00       		.byte	0
 9680 3349 06       		.uleb128 0x6
 9681 334a 32330000 		.4byte	0x3332
 9682 334e 04       		.uleb128 0x4
 9683 334f 122B0000 		.4byte	.LASF688
 9684 3353 37       		.byte	0x37
 9685 3354 B6       		.byte	0xb6
 9686 3355 922F0000 		.4byte	0x2f92
 9687 3359 17       		.uleb128 0x17
 9688 335a 0C       		.byte	0xc
 9689 335b 36       		.byte	0x36
 9690 335c C6       		.byte	0xc6
 9691 335d 86330000 		.4byte	0x3386
 9692 3361 08       		.uleb128 0x8
 9693 3362 320A0000 		.4byte	.LASF689
 9694 3366 36       		.byte	0x36
 9695 3367 C7       		.byte	0xc7
 9696 3368 03010000 		.4byte	0x103
 9697 336c 00       		.byte	0
 9698 336d 08       		.uleb128 0x8
ARM GAS  C:\Users\adrie\AppData\Local\Temp\cc7EdWgE.s 			page 172


 9699 336e B30C0000 		.4byte	.LASF690
 9700 3372 36       		.byte	0x36
 9701 3373 C8       		.byte	0xc8
 9702 3374 03010000 		.4byte	0x103
 9703 3378 04       		.byte	0x4
 9704 3379 08       		.uleb128 0x8
 9705 337a AF100000 		.4byte	.LASF691
 9706 337e 36       		.byte	0x36
 9707 337f C9       		.byte	0xc9
 9708 3380 03010000 		.4byte	0x103
 9709 3384 08       		.byte	0x8
 9710 3385 00       		.byte	0
 9711 3386 04       		.uleb128 0x4
 9712 3387 C00C0000 		.4byte	.LASF692
 9713 338b 36       		.byte	0x36
 9714 338c CA       		.byte	0xca
 9715 338d 59330000 		.4byte	0x3359
 9716 3391 05       		.uleb128 0x5
 9717 3392 86330000 		.4byte	0x3386
 9718 3396 17       		.uleb128 0x17
 9719 3397 04       		.byte	0x4
 9720 3398 36       		.byte	0x36
 9721 3399 DD       		.byte	0xdd
 9722 339a AB330000 		.4byte	0x33ab
 9723 339e 08       		.uleb128 0x8
 9724 339f 4B280000 		.4byte	.LASF693
 9725 33a3 36       		.byte	0x36
 9726 33a4 E1       		.byte	0xe1
 9727 33a5 22140000 		.4byte	0x1422
 9728 33a9 00       		.byte	0
 9729 33aa 00       		.byte	0
 9730 33ab 17       		.uleb128 0x17
 9731 33ac 04       		.byte	0x4
 9732 33ad 36       		.byte	0x36
 9733 33ae E3       		.byte	0xe3
 9734 33af C0330000 		.4byte	0x33c0
 9735 33b3 08       		.uleb128 0x8
 9736 33b4 D10A0000 		.4byte	.LASF380
 9737 33b8 36       		.byte	0x36
 9738 33b9 E7       		.byte	0xe7
 9739 33ba C0330000 		.4byte	0x33c0
 9740 33be 00       		.byte	0
 9741 33bf 00       		.byte	0
 9742 33c0 0B       		.uleb128 0xb
 9743 33c1 04       		.byte	0x4
 9744 33c2 BC130000 		.4byte	0x13bc
 9745 33c6 1D       		.uleb128 0x1d
 9746 33c7 04       		.byte	0x4
 9747 33c8 36       		.byte	0x36
 9748 33c9 DC       		.byte	0xdc
 9749 33ca E5330000 		.4byte	0x33e5
 9750 33ce 2A       		.uleb128 0x2a
 9751 33cf 03240000 		.4byte	.LASF694
 9752 33d3 36       		.byte	0x36
 9753 33d4 E2       		.byte	0xe2
 9754 33d5 96330000 		.4byte	0x3396
 9755 33d9 2A       		.uleb128 0x2a
ARM GAS  C:\Users\adrie\AppData\Local\Temp\cc7EdWgE.s 			page 173


 9756 33da CD220000 		.4byte	.LASF695
 9757 33de 36       		.byte	0x36
 9758 33df E8       		.byte	0xe8
 9759 33e0 AB330000 		.4byte	0x33ab
 9760 33e4 00       		.byte	0
 9761 33e5 17       		.uleb128 0x17
 9762 33e6 14       		.byte	0x14
 9763 33e7 36       		.byte	0x36
 9764 33e8 CF       		.byte	0xcf
 9765 33e9 2A340000 		.4byte	0x342a
 9766 33ed 08       		.uleb128 0x8
 9767 33ee E7080000 		.4byte	.LASF696
 9768 33f2 36       		.byte	0x36
 9769 33f3 D3       		.byte	0xd3
 9770 33f4 2F160000 		.4byte	0x162f
 9771 33f8 00       		.byte	0
 9772 33f9 08       		.uleb128 0x8
 9773 33fa C9150000 		.4byte	.LASF697
 9774 33fe 36       		.byte	0x36
 9775 33ff D7       		.byte	0xd7
 9776 3400 3A000000 		.4byte	0x3a
 9777 3404 04       		.byte	0x4
 9778 3405 08       		.uleb128 0x8
 9779 3406 670C0000 		.4byte	.LASF698
 9780 340a 36       		.byte	0x36
 9781 340b DB       		.byte	0xdb
 9782 340c 3A000000 		.4byte	0x3a
 9783 3410 08       		.byte	0x8
 9784 3411 08       		.uleb128 0x8
 9785 3412 97090000 		.4byte	.LASF426
 9786 3416 36       		.byte	0x36
 9787 3417 E9       		.byte	0xe9
 9788 3418 C6330000 		.4byte	0x33c6
 9789 341c 0C       		.byte	0xc
 9790 341d 08       		.uleb128 0x8
 9791 341e C7100000 		.4byte	.LASF699
 9792 3422 36       		.byte	0x36
 9793 3423 ED       		.byte	0xed
 9794 3424 3A000000 		.4byte	0x3a
 9795 3428 10       		.byte	0x10
 9796 3429 00       		.byte	0
 9797 342a 04       		.uleb128 0x4
 9798 342b 1B130000 		.4byte	.LASF700
 9799 342f 36       		.byte	0x36
 9800 3430 EE       		.byte	0xee
 9801 3431 E5330000 		.4byte	0x33e5
 9802 3435 19       		.uleb128 0x19
 9803 3436 04       		.byte	0x4
 9804 3437 36       		.byte	0x36
 9805 3438 0101     		.2byte	0x101
 9806 343a 4C340000 		.4byte	0x344c
 9807 343e 0A       		.uleb128 0xa
 9808 343f E30C0000 		.4byte	.LASF701
 9809 3443 36       		.byte	0x36
 9810 3444 0501     		.2byte	0x105
 9811 3446 AB130000 		.4byte	0x13ab
 9812 344a 00       		.byte	0
ARM GAS  C:\Users\adrie\AppData\Local\Temp\cc7EdWgE.s 			page 174


 9813 344b 00       		.byte	0
 9814 344c 19       		.uleb128 0x19
 9815 344d 04       		.byte	0x4
 9816 344e 36       		.byte	0x36
 9817 344f 0701     		.2byte	0x107
 9818 3451 63340000 		.4byte	0x3463
 9819 3455 0A       		.uleb128 0xa
 9820 3456 A5230000 		.4byte	.LASF381
 9821 345a 36       		.byte	0x36
 9822 345b 0B01     		.2byte	0x10b
 9823 345d 63340000 		.4byte	0x3463
 9824 3461 00       		.byte	0
 9825 3462 00       		.byte	0
 9826 3463 0B       		.uleb128 0xb
 9827 3464 04       		.byte	0x4
 9828 3465 B1130000 		.4byte	0x13b1
 9829 3469 2B       		.uleb128 0x2b
 9830 346a 04       		.byte	0x4
 9831 346b 36       		.byte	0x36
 9832 346c 0001     		.2byte	0x100
 9833 346e 8B340000 		.4byte	0x348b
 9834 3472 1E       		.uleb128 0x1e
 9835 3473 03240000 		.4byte	.LASF694
 9836 3477 36       		.byte	0x36
 9837 3478 0601     		.2byte	0x106
 9838 347a 35340000 		.4byte	0x3435
 9839 347e 1E       		.uleb128 0x1e
 9840 347f CD220000 		.4byte	.LASF695
 9841 3483 36       		.byte	0x36
 9842 3484 0C01     		.2byte	0x10c
 9843 3486 4C340000 		.4byte	0x344c
 9844 348a 00       		.byte	0
 9845 348b 17       		.uleb128 0x17
 9846 348c 14       		.byte	0x14
 9847 348d 36       		.byte	0x36
 9848 348e F3       		.byte	0xf3
 9849 348f D2340000 		.4byte	0x34d2
 9850 3493 08       		.uleb128 0x8
 9851 3494 88060000 		.4byte	.LASF702
 9852 3498 36       		.byte	0x36
 9853 3499 F7       		.byte	0xf7
 9854 349a 2F160000 		.4byte	0x162f
 9855 349e 00       		.byte	0
 9856 349f 08       		.uleb128 0x8
 9857 34a0 C8160000 		.4byte	.LASF703
 9858 34a4 36       		.byte	0x36
 9859 34a5 FB       		.byte	0xfb
 9860 34a6 3A000000 		.4byte	0x3a
 9861 34aa 04       		.byte	0x4
 9862 34ab 08       		.uleb128 0x8
 9863 34ac 72090000 		.4byte	.LASF704
 9864 34b0 36       		.byte	0x36
 9865 34b1 FF       		.byte	0xff
 9866 34b2 3A000000 		.4byte	0x3a
 9867 34b6 08       		.byte	0x8
 9868 34b7 0A       		.uleb128 0xa
 9869 34b8 97090000 		.4byte	.LASF426
ARM GAS  C:\Users\adrie\AppData\Local\Temp\cc7EdWgE.s 			page 175


 9870 34bc 36       		.byte	0x36
 9871 34bd 0D01     		.2byte	0x10d
 9872 34bf 69340000 		.4byte	0x3469
 9873 34c3 0C       		.byte	0xc
 9874 34c4 0A       		.uleb128 0xa
 9875 34c5 C7100000 		.4byte	.LASF699
 9876 34c9 36       		.byte	0x36
 9877 34ca 1101     		.2byte	0x111
 9878 34cc 3A000000 		.4byte	0x3a
 9879 34d0 10       		.byte	0x10
 9880 34d1 00       		.byte	0
 9881 34d2 1A       		.uleb128 0x1a
 9882 34d3 9E210000 		.4byte	.LASF705
 9883 34d7 36       		.byte	0x36
 9884 34d8 1201     		.2byte	0x112
 9885 34da 8B340000 		.4byte	0x348b
 9886 34de 19       		.uleb128 0x19
 9887 34df 24       		.byte	0x24
 9888 34e0 36       		.byte	0x36
 9889 34e1 1801     		.2byte	0x118
 9890 34e3 6A350000 		.4byte	0x356a
 9891 34e7 0A       		.uleb128 0xa
 9892 34e8 D21A0000 		.4byte	.LASF706
 9893 34ec 36       		.byte	0x36
 9894 34ed 1C01     		.2byte	0x11c
 9895 34ef 03010000 		.4byte	0x103
 9896 34f3 00       		.byte	0
 9897 34f4 0A       		.uleb128 0xa
 9898 34f5 940A0000 		.4byte	.LASF707
 9899 34f9 36       		.byte	0x36
 9900 34fa 2701     		.2byte	0x127
 9901 34fc 9B2D0000 		.4byte	0x2d9b
 9902 3500 04       		.byte	0x4
 9903 3501 0A       		.uleb128 0xa
 9904 3502 F81B0000 		.4byte	.LASF708
 9905 3506 36       		.byte	0x36
 9906 3507 2D01     		.2byte	0x12d
 9907 3509 9B2D0000 		.4byte	0x2d9b
 9908 350d 08       		.byte	0x8
 9909 350e 0A       		.uleb128 0xa
 9910 350f 6B0D0000 		.4byte	.LASF709
 9911 3513 36       		.byte	0x36
 9912 3514 3301     		.2byte	0x133
 9913 3516 9B2D0000 		.4byte	0x2d9b
 9914 351a 0C       		.byte	0xc
 9915 351b 0A       		.uleb128 0xa
 9916 351c 632B0000 		.4byte	.LASF710
 9917 3520 36       		.byte	0x36
 9918 3521 3901     		.2byte	0x139
 9919 3523 E8000000 		.4byte	0xe8
 9920 3527 10       		.byte	0x10
 9921 3528 0A       		.uleb128 0xa
 9922 3529 CF0D0000 		.4byte	.LASF711
 9923 352d 36       		.byte	0x36
 9924 352e 3F01     		.2byte	0x13f
 9925 3530 E8000000 		.4byte	0xe8
 9926 3534 12       		.byte	0x12
ARM GAS  C:\Users\adrie\AppData\Local\Temp\cc7EdWgE.s 			page 176


 9927 3535 0A       		.uleb128 0xa
 9928 3536 AA290000 		.4byte	.LASF712
 9929 353a 36       		.byte	0x36
 9930 353b 4401     		.2byte	0x144
 9931 353d 6A350000 		.4byte	0x356a
 9932 3541 14       		.byte	0x14
 9933 3542 0A       		.uleb128 0xa
 9934 3543 880F0000 		.4byte	.LASF713
 9935 3547 36       		.byte	0x36
 9936 3548 4901     		.2byte	0x149
 9937 354a 70350000 		.4byte	0x3570
 9938 354e 18       		.byte	0x18
 9939 354f 0A       		.uleb128 0xa
 9940 3550 F0140000 		.4byte	.LASF714
 9941 3554 36       		.byte	0x36
 9942 3555 5001     		.2byte	0x150
 9943 3557 E8000000 		.4byte	0xe8
 9944 355b 1C       		.byte	0x1c
 9945 355c 0A       		.uleb128 0xa
 9946 355d 98280000 		.4byte	.LASF715
 9947 3561 36       		.byte	0x36
 9948 3562 5601     		.2byte	0x156
 9949 3564 AB130000 		.4byte	0x13ab
 9950 3568 20       		.byte	0x20
 9951 3569 00       		.byte	0
 9952 356a 0B       		.uleb128 0xb
 9953 356b 04       		.byte	0x4
 9954 356c 2A340000 		.4byte	0x342a
 9955 3570 0B       		.uleb128 0xb
 9956 3571 04       		.byte	0x4
 9957 3572 D2340000 		.4byte	0x34d2
 9958 3576 1A       		.uleb128 0x1a
 9959 3577 75230000 		.4byte	.LASF716
 9960 357b 36       		.byte	0x36
 9961 357c 5701     		.2byte	0x157
 9962 357e DE340000 		.4byte	0x34de
 9963 3582 05       		.uleb128 0x5
 9964 3583 76350000 		.4byte	0x3576
 9965 3587 19       		.uleb128 0x19
 9966 3588 10       		.byte	0x10
 9967 3589 36       		.byte	0x36
 9968 358a 5C01     		.2byte	0x15c
 9969 358c C5350000 		.4byte	0x35c5
 9970 3590 0A       		.uleb128 0xa
 9971 3591 51050000 		.4byte	.LASF717
 9972 3595 36       		.byte	0x36
 9973 3596 6101     		.2byte	0x161
 9974 3598 BD2D0000 		.4byte	0x2dbd
 9975 359c 00       		.byte	0
 9976 359d 0A       		.uleb128 0xa
 9977 359e C6270000 		.4byte	.LASF718
 9978 35a2 36       		.byte	0x36
 9979 35a3 6601     		.2byte	0x166
 9980 35a5 002E0000 		.4byte	0x2e00
 9981 35a9 04       		.byte	0x4
 9982 35aa 0A       		.uleb128 0xa
 9983 35ab 8E150000 		.4byte	.LASF719
ARM GAS  C:\Users\adrie\AppData\Local\Temp\cc7EdWgE.s 			page 177


 9984 35af 36       		.byte	0x36
 9985 35b0 6C01     		.2byte	0x16c
 9986 35b2 DF2D0000 		.4byte	0x2ddf
 9987 35b6 08       		.byte	0x8
 9988 35b7 0A       		.uleb128 0xa
 9989 35b8 2A020000 		.4byte	.LASF720
 9990 35bc 36       		.byte	0x36
 9991 35bd 7001     		.2byte	0x170
 9992 35bf 782D0000 		.4byte	0x2d78
 9993 35c3 0C       		.byte	0xc
 9994 35c4 00       		.byte	0
 9995 35c5 1A       		.uleb128 0x1a
 9996 35c6 78140000 		.4byte	.LASF721
 9997 35ca 36       		.byte	0x36
 9998 35cb 7201     		.2byte	0x172
 9999 35cd 87350000 		.4byte	0x3587
 10000 35d1 05       		.uleb128 0x5
 10001 35d2 C5350000 		.4byte	0x35c5
 10002 35d6 0B       		.uleb128 0xb
 10003 35d7 04       		.byte	0x4
 10004 35d8 D1350000 		.4byte	0x35d1
 10005 35dc 13       		.uleb128 0x13
 10006 35dd EC350000 		.4byte	0x35ec
 10007 35e1 EC350000 		.4byte	0x35ec
 10008 35e5 14       		.uleb128 0x14
 10009 35e6 45000000 		.4byte	0x45
 10010 35ea 03       		.byte	0x3
 10011 35eb 00       		.byte	0
 10012 35ec 0B       		.uleb128 0xb
 10013 35ed 04       		.byte	0x4
 10014 35ee 82350000 		.4byte	0x3582
 10015 35f2 13       		.uleb128 0x13
 10016 35f3 C8030000 		.4byte	0x3c8
 10017 35f7 02360000 		.4byte	0x3602
 10018 35fb 14       		.uleb128 0x14
 10019 35fc 45000000 		.4byte	0x45
 10020 3600 02       		.byte	0x2
 10021 3601 00       		.byte	0
 10022 3602 0B       		.uleb128 0xb
 10023 3603 04       		.byte	0x4
 10024 3604 4E330000 		.4byte	0x334e
 10025 3608 0B       		.uleb128 0xb
 10026 3609 04       		.byte	0x4
 10027 360a 91330000 		.4byte	0x3391
 10028 360e 13       		.uleb128 0x13
 10029 360f 8C0D0000 		.4byte	0xd8c
 10030 3613 1E360000 		.4byte	0x361e
 10031 3617 14       		.uleb128 0x14
 10032 3618 45000000 		.4byte	0x45
 10033 361c 3E       		.byte	0x3e
 10034 361d 00       		.byte	0
 10035 361e 15       		.uleb128 0x15
 10036 361f CF000000 		.4byte	.LASF722
 10037 3623 36       		.byte	0x36
 10038 3624 0602     		.2byte	0x206
 10039 3626 442B0000 		.4byte	0x2b44
 10040 362a 21       		.uleb128 0x21
ARM GAS  C:\Users\adrie\AppData\Local\Temp\cc7EdWgE.s 			page 178


 10041 362b 07       		.byte	0x7
 10042 362c 01       		.byte	0x1
 10043 362d 6C000000 		.4byte	0x6c
 10044 3631 38       		.byte	0x38
 10045 3632 97       		.byte	0x97
 10046 3633 4A360000 		.4byte	0x364a
 10047 3637 22       		.uleb128 0x22
 10048 3638 080D0000 		.4byte	.LASF723
 10049 363c 00       		.byte	0
 10050 363d 22       		.uleb128 0x22
 10051 363e 5F1D0000 		.4byte	.LASF724
 10052 3642 01       		.byte	0x1
 10053 3643 22       		.uleb128 0x22
 10054 3644 82080000 		.4byte	.LASF725
 10055 3648 02       		.byte	0x2
 10056 3649 00       		.byte	0
 10057 364a 04       		.uleb128 0x4
 10058 364b DC070000 		.4byte	.LASF726
 10059 364f 38       		.byte	0x38
 10060 3650 9B       		.byte	0x9b
 10061 3651 2A360000 		.4byte	0x362a
 10062 3655 04       		.uleb128 0x4
 10063 3656 83020000 		.4byte	.LASF727
 10064 365a 38       		.byte	0x38
 10065 365b A0       		.byte	0xa0
 10066 365c 60360000 		.4byte	0x3660
 10067 3660 2C       		.uleb128 0x2c
 10068 3661 83020000 		.4byte	.LASF727
 10069 3665 5802     		.2byte	0x258
 10070 3667 38       		.byte	0x38
 10071 3668 E5       		.byte	0xe5
 10072 3669 CE360000 		.4byte	0x36ce
 10073 366d 18       		.uleb128 0x18
 10074 366e 766D7400 		.ascii	"vmt\000"
 10075 3672 38       		.byte	0x38
 10076 3673 E7       		.byte	0xe7
 10077 3674 89370000 		.4byte	0x3789
 10078 3678 00       		.byte	0
 10079 3679 08       		.uleb128 0x8
 10080 367a 47000000 		.4byte	.LASF525
 10081 367e 38       		.byte	0x38
 10082 367f E8       		.byte	0xe8
 10083 3680 06130000 		.4byte	0x1306
 10084 3684 04       		.byte	0x4
 10085 3685 08       		.uleb128 0x8
 10086 3686 12190000 		.4byte	.LASF347
 10087 368a 38       		.byte	0x38
 10088 368b E8       		.byte	0xe8
 10089 368c 4A360000 		.4byte	0x364a
 10090 3690 08       		.byte	0x8
 10091 3691 08       		.uleb128 0x8
 10092 3692 F11B0000 		.4byte	.LASF526
 10093 3696 38       		.byte	0x38
 10094 3697 E8       		.byte	0xe8
 10095 3698 B1130000 		.4byte	0x13b1
 10096 369c 0C       		.byte	0xc
 10097 369d 08       		.uleb128 0x8
ARM GAS  C:\Users\adrie\AppData\Local\Temp\cc7EdWgE.s 			page 179


 10098 369e AF140000 		.4byte	.LASF527
 10099 36a2 38       		.byte	0x38
 10100 36a3 E8       		.byte	0xe8
 10101 36a4 BC130000 		.4byte	0x13bc
 10102 36a8 30       		.byte	0x30
 10103 36a9 18       		.uleb128 0x18
 10104 36aa 696200   		.ascii	"ib\000"
 10105 36ad 38       		.byte	0x38
 10106 36ae E8       		.byte	0xe8
 10107 36af 8F370000 		.4byte	0x378f
 10108 36b3 54       		.byte	0x54
 10109 36b4 28       		.uleb128 0x28
 10110 36b5 6F6200   		.ascii	"ob\000"
 10111 36b8 38       		.byte	0x38
 10112 36b9 E8       		.byte	0xe8
 10113 36ba 8F370000 		.4byte	0x378f
 10114 36be 5401     		.2byte	0x154
 10115 36c0 27       		.uleb128 0x27
 10116 36c1 65200000 		.4byte	.LASF348
 10117 36c5 38       		.byte	0x38
 10118 36c6 E8       		.byte	0xe8
 10119 36c7 9F370000 		.4byte	0x379f
 10120 36cb 5402     		.2byte	0x254
 10121 36cd 00       		.byte	0
 10122 36ce 17       		.uleb128 0x17
 10123 36cf 08       		.byte	0x8
 10124 36d0 38       		.byte	0x38
 10125 36d1 A7       		.byte	0xa7
 10126 36d2 07370000 		.4byte	0x3707
 10127 36d6 08       		.uleb128 0x8
 10128 36d7 FE260000 		.4byte	.LASF728
 10129 36db 38       		.byte	0x38
 10130 36dc AB       		.byte	0xab
 10131 36dd 952D0000 		.4byte	0x2d95
 10132 36e1 00       		.byte	0
 10133 36e2 08       		.uleb128 0x8
 10134 36e3 AC120000 		.4byte	.LASF729
 10135 36e7 38       		.byte	0x38
 10136 36e8 AF       		.byte	0xaf
 10137 36e9 7B2C0000 		.4byte	0x2c7b
 10138 36ed 04       		.byte	0x4
 10139 36ee 08       		.uleb128 0x8
 10140 36ef 94050000 		.4byte	.LASF730
 10141 36f3 38       		.byte	0x38
 10142 36f4 B3       		.byte	0xb3
 10143 36f5 7B2C0000 		.4byte	0x2c7b
 10144 36f9 05       		.byte	0x5
 10145 36fa 08       		.uleb128 0x8
 10146 36fb DA130000 		.4byte	.LASF731
 10147 36ff 38       		.byte	0x38
 10148 3700 B9       		.byte	0xb9
 10149 3701 7B2C0000 		.4byte	0x2c7b
 10150 3705 06       		.byte	0x6
 10151 3706 00       		.byte	0
 10152 3707 04       		.uleb128 0x4
 10153 3708 4A210000 		.4byte	.LASF732
 10154 370c 38       		.byte	0x38
ARM GAS  C:\Users\adrie\AppData\Local\Temp\cc7EdWgE.s 			page 180


 10155 370d BA       		.byte	0xba
 10156 370e CE360000 		.4byte	0x36ce
 10157 3712 05       		.uleb128 0x5
 10158 3713 07370000 		.4byte	0x3707
 10159 3717 07       		.uleb128 0x7
 10160 3718 0F1A0000 		.4byte	.LASF733
 10161 371c 20       		.byte	0x20
 10162 371d 38       		.byte	0x38
 10163 371e DA       		.byte	0xda
 10164 371f 84370000 		.4byte	0x3784
 10165 3723 08       		.uleb128 0x8
 10166 3724 E01B0000 		.4byte	.LASF281
 10167 3728 38       		.byte	0x38
 10168 3729 DB       		.byte	0xdb
 10169 372a 28140000 		.4byte	0x1428
 10170 372e 00       		.byte	0
 10171 372f 08       		.uleb128 0x8
 10172 3730 38050000 		.4byte	.LASF282
 10173 3734 38       		.byte	0x38
 10174 3735 DB       		.byte	0xdb
 10175 3736 47140000 		.4byte	0x1447
 10176 373a 04       		.byte	0x4
 10177 373b 18       		.uleb128 0x18
 10178 373c 70757400 		.ascii	"put\000"
 10179 3740 38       		.byte	0x38
 10180 3741 DB       		.byte	0xdb
 10181 3742 61140000 		.4byte	0x1461
 10182 3746 08       		.byte	0x8
 10183 3747 18       		.uleb128 0x18
 10184 3748 67657400 		.ascii	"get\000"
 10185 374c 38       		.byte	0x38
 10186 374d DB       		.byte	0xdb
 10187 374e 76140000 		.4byte	0x1476
 10188 3752 0C       		.byte	0xc
 10189 3753 08       		.uleb128 0x8
 10190 3754 FD160000 		.4byte	.LASF530
 10191 3758 38       		.byte	0x38
 10192 3759 DB       		.byte	0xdb
 10193 375a 3D150000 		.4byte	0x153d
 10194 375e 10       		.byte	0x10
 10195 375f 08       		.uleb128 0x8
 10196 3760 B31B0000 		.4byte	.LASF531
 10197 3764 38       		.byte	0x38
 10198 3765 DB       		.byte	0xdb
 10199 3766 57150000 		.4byte	0x1557
 10200 376a 14       		.byte	0x14
 10201 376b 08       		.uleb128 0x8
 10202 376c 18270000 		.4byte	.LASF532
 10203 3770 38       		.byte	0x38
 10204 3771 DB       		.byte	0xdb
 10205 3772 7B150000 		.4byte	0x157b
 10206 3776 18       		.byte	0x18
 10207 3777 08       		.uleb128 0x8
 10208 3778 3F160000 		.4byte	.LASF533
 10209 377c 38       		.byte	0x38
 10210 377d DB       		.byte	0xdb
 10211 377e 9F150000 		.4byte	0x159f
ARM GAS  C:\Users\adrie\AppData\Local\Temp\cc7EdWgE.s 			page 181


 10212 3782 1C       		.byte	0x1c
 10213 3783 00       		.byte	0
 10214 3784 05       		.uleb128 0x5
 10215 3785 17370000 		.4byte	0x3717
 10216 3789 0B       		.uleb128 0xb
 10217 378a 04       		.byte	0x4
 10218 378b 84370000 		.4byte	0x3784
 10219 378f 13       		.uleb128 0x13
 10220 3790 CD000000 		.4byte	0xcd
 10221 3794 9F370000 		.4byte	0x379f
 10222 3798 14       		.uleb128 0x14
 10223 3799 45000000 		.4byte	0x45
 10224 379d FF       		.byte	0xff
 10225 379e 00       		.byte	0
 10226 379f 0B       		.uleb128 0xb
 10227 37a0 04       		.byte	0x4
 10228 37a1 12370000 		.4byte	0x3712
 10229 37a5 21       		.uleb128 0x21
 10230 37a6 07       		.byte	0x7
 10231 37a7 01       		.byte	0x1
 10232 37a8 6C000000 		.4byte	0x6c
 10233 37ac 39       		.byte	0x39
 10234 37ad 83       		.byte	0x83
 10235 37ae BF370000 		.4byte	0x37bf
 10236 37b2 22       		.uleb128 0x22
 10237 37b3 A8280000 		.4byte	.LASF734
 10238 37b7 00       		.byte	0
 10239 37b8 22       		.uleb128 0x22
 10240 37b9 9E1D0000 		.4byte	.LASF735
 10241 37bd 01       		.byte	0x1
 10242 37be 00       		.byte	0
 10243 37bf 04       		.uleb128 0x4
 10244 37c0 16290000 		.4byte	.LASF736
 10245 37c4 39       		.byte	0x39
 10246 37c5 86       		.byte	0x86
 10247 37c6 A5370000 		.4byte	0x37a5
 10248 37ca 21       		.uleb128 0x21
 10249 37cb 07       		.byte	0x7
 10250 37cc 01       		.byte	0x1
 10251 37cd 6C000000 		.4byte	0x6c
 10252 37d1 39       		.byte	0x39
 10253 37d2 8B       		.byte	0x8b
 10254 37d3 08380000 		.4byte	0x3808
 10255 37d7 22       		.uleb128 0x22
 10256 37d8 44070000 		.4byte	.LASF737
 10257 37dc 00       		.byte	0
 10258 37dd 22       		.uleb128 0x22
 10259 37de 4B030000 		.4byte	.LASF738
 10260 37e2 01       		.byte	0x1
 10261 37e3 22       		.uleb128 0x22
 10262 37e4 0A240000 		.4byte	.LASF739
 10263 37e8 02       		.byte	0x2
 10264 37e9 22       		.uleb128 0x22
 10265 37ea 61220000 		.4byte	.LASF740
 10266 37ee 03       		.byte	0x3
 10267 37ef 22       		.uleb128 0x22
 10268 37f0 83000000 		.4byte	.LASF741
ARM GAS  C:\Users\adrie\AppData\Local\Temp\cc7EdWgE.s 			page 182


 10269 37f4 04       		.byte	0x4
 10270 37f5 22       		.uleb128 0x22
 10271 37f6 34080000 		.4byte	.LASF742
 10272 37fa 05       		.byte	0x5
 10273 37fb 22       		.uleb128 0x22
 10274 37fc 4B150000 		.4byte	.LASF743
 10275 3800 06       		.byte	0x6
 10276 3801 22       		.uleb128 0x22
 10277 3802 021D0000 		.4byte	.LASF744
 10278 3806 07       		.byte	0x7
 10279 3807 00       		.byte	0
 10280 3808 04       		.uleb128 0x4
 10281 3809 301A0000 		.4byte	.LASF745
 10282 380d 39       		.byte	0x39
 10283 380e 94       		.byte	0x94
 10284 380f CA370000 		.4byte	0x37ca
 10285 3813 04       		.uleb128 0x4
 10286 3814 3E2A0000 		.4byte	.LASF746
 10287 3818 39       		.byte	0x39
 10288 3819 99       		.byte	0x99
 10289 381a 1E380000 		.4byte	0x381e
 10290 381e 07       		.uleb128 0x7
 10291 381f 3E2A0000 		.4byte	.LASF746
 10292 3823 14       		.byte	0x14
 10293 3824 39       		.byte	0x39
 10294 3825 C3       		.byte	0xc3
 10295 3826 67380000 		.4byte	0x3867
 10296 382a 08       		.uleb128 0x8
 10297 382b 12190000 		.4byte	.LASF347
 10298 382f 39       		.byte	0x39
 10299 3830 C7       		.byte	0xc7
 10300 3831 08380000 		.4byte	0x3808
 10301 3835 00       		.byte	0
 10302 3836 08       		.uleb128 0x8
 10303 3837 65200000 		.4byte	.LASF348
 10304 383b 39       		.byte	0x39
 10305 383c CB       		.byte	0xcb
 10306 383d F2380000 		.4byte	0x38f2
 10307 3841 04       		.byte	0x4
 10308 3842 08       		.uleb128 0x8
 10309 3843 D3250000 		.4byte	.LASF747
 10310 3847 39       		.byte	0x39
 10311 3848 CF       		.byte	0xcf
 10312 3849 F8380000 		.4byte	0x38f8
 10313 384d 08       		.byte	0x8
 10314 384e 08       		.uleb128 0x8
 10315 384f F40B0000 		.4byte	.LASF354
 10316 3853 39       		.byte	0x39
 10317 3854 D3       		.byte	0xd3
 10318 3855 E91A0000 		.4byte	0x1ae9
 10319 3859 0C       		.byte	0xc
 10320 385a 08       		.uleb128 0x8
 10321 385b 941B0000 		.4byte	.LASF355
 10322 385f 39       		.byte	0x39
 10323 3860 D7       		.byte	0xd7
 10324 3861 03010000 		.4byte	0x103
 10325 3865 10       		.byte	0x10
ARM GAS  C:\Users\adrie\AppData\Local\Temp\cc7EdWgE.s 			page 183


 10326 3866 00       		.byte	0
 10327 3867 04       		.uleb128 0x4
 10328 3868 3B0F0000 		.4byte	.LASF748
 10329 386c 39       		.byte	0x39
 10330 386d A0       		.byte	0xa0
 10331 386e 72380000 		.4byte	0x3872
 10332 3872 0B       		.uleb128 0xb
 10333 3873 04       		.byte	0x4
 10334 3874 78380000 		.4byte	0x3878
 10335 3878 0D       		.uleb128 0xd
 10336 3879 83380000 		.4byte	0x3883
 10337 387d 0E       		.uleb128 0xe
 10338 387e 83380000 		.4byte	0x3883
 10339 3882 00       		.byte	0
 10340 3883 0B       		.uleb128 0xb
 10341 3884 04       		.byte	0x4
 10342 3885 13380000 		.4byte	0x3813
 10343 3889 04       		.uleb128 0x4
 10344 388a 7D1E0000 		.4byte	.LASF749
 10345 388e 39       		.byte	0x39
 10346 388f A8       		.byte	0xa8
 10347 3890 94380000 		.4byte	0x3894
 10348 3894 0B       		.uleb128 0xb
 10349 3895 04       		.byte	0x4
 10350 3896 9A380000 		.4byte	0x389a
 10351 389a 0D       		.uleb128 0xd
 10352 389b AA380000 		.4byte	0x38aa
 10353 389f 0E       		.uleb128 0xe
 10354 38a0 83380000 		.4byte	0x3883
 10355 38a4 0E       		.uleb128 0xe
 10356 38a5 BF370000 		.4byte	0x37bf
 10357 38a9 00       		.byte	0
 10358 38aa 17       		.uleb128 0x17
 10359 38ab 10       		.byte	0x10
 10360 38ac 39       		.byte	0x39
 10361 38ad AD       		.byte	0xad
 10362 38ae E2380000 		.4byte	0x38e2
 10363 38b2 08       		.uleb128 0x8
 10364 38b3 7E210000 		.4byte	.LASF750
 10365 38b7 39       		.byte	0x39
 10366 38b8 B1       		.byte	0xb1
 10367 38b9 67380000 		.4byte	0x3867
 10368 38bd 00       		.byte	0
 10369 38be 08       		.uleb128 0x8
 10370 38bf 44270000 		.4byte	.LASF751
 10371 38c3 39       		.byte	0x39
 10372 38c4 B5       		.byte	0xb5
 10373 38c5 67380000 		.4byte	0x3867
 10374 38c9 04       		.byte	0x4
 10375 38ca 08       		.uleb128 0x8
 10376 38cb BC280000 		.4byte	.LASF361
 10377 38cf 39       		.byte	0x39
 10378 38d0 B9       		.byte	0xb9
 10379 38d1 89380000 		.4byte	0x3889
 10380 38d5 08       		.byte	0x8
 10381 38d6 18       		.uleb128 0x18
 10382 38d7 637200   		.ascii	"cr\000"
ARM GAS  C:\Users\adrie\AppData\Local\Temp\cc7EdWgE.s 			page 184


 10383 38da 39       		.byte	0x39
 10384 38db BD       		.byte	0xbd
 10385 38dc 03010000 		.4byte	0x103
 10386 38e0 0C       		.byte	0xc
 10387 38e1 00       		.byte	0
 10388 38e2 04       		.uleb128 0x4
 10389 38e3 4E2A0000 		.4byte	.LASF752
 10390 38e7 39       		.byte	0x39
 10391 38e8 BE       		.byte	0xbe
 10392 38e9 AA380000 		.4byte	0x38aa
 10393 38ed 05       		.uleb128 0x5
 10394 38ee E2380000 		.4byte	0x38e2
 10395 38f2 0B       		.uleb128 0xb
 10396 38f3 04       		.byte	0x4
 10397 38f4 ED380000 		.4byte	0x38ed
 10398 38f8 0B       		.uleb128 0xb
 10399 38f9 04       		.byte	0x4
 10400 38fa 1A0A0000 		.4byte	0xa1a
 10401 38fe 16       		.uleb128 0x16
 10402 38ff E3040000 		.4byte	.LASF753
 10403 3903 39       		.byte	0x39
 10404 3904 E3       		.byte	0xe3
 10405 3905 13380000 		.4byte	0x3813
 10406 3909 04       		.uleb128 0x4
 10407 390a 8C080000 		.4byte	.LASF754
 10408 390e 3A       		.byte	0x3a
 10409 390f 22       		.byte	0x22
 10410 3910 14390000 		.4byte	0x3914
 10411 3914 0B       		.uleb128 0xb
 10412 3915 04       		.byte	0x4
 10413 3916 1A390000 		.4byte	0x391a
 10414 391a 2D       		.uleb128 0x2d
 10415 391b 4C060000 		.4byte	.LASF886
 10416 391f 04       		.uleb128 0x4
 10417 3920 7D0E0000 		.4byte	.LASF755
 10418 3924 3B       		.byte	0x3b
 10419 3925 2C       		.byte	0x2c
 10420 3926 A2000000 		.4byte	0xa2
 10421 392a 04       		.uleb128 0x4
 10422 392b 13210000 		.4byte	.LASF756
 10423 392f 3B       		.byte	0x3b
 10424 3930 72       		.byte	0x72
 10425 3931 A2000000 		.4byte	0xa2
 10426 3935 1A       		.uleb128 0x1a
 10427 3936 91100000 		.4byte	.LASF757
 10428 393a 08       		.byte	0x8
 10429 393b 6501     		.2byte	0x165
 10430 393d 45000000 		.4byte	0x45
 10431 3941 1D       		.uleb128 0x1d
 10432 3942 04       		.byte	0x4
 10433 3943 3B       		.byte	0x3b
 10434 3944 A6       		.byte	0xa6
 10435 3945 60390000 		.4byte	0x3960
 10436 3949 2A       		.uleb128 0x2a
 10437 394a E3190000 		.4byte	.LASF758
 10438 394e 3B       		.byte	0x3b
 10439 394f A8       		.byte	0xa8
ARM GAS  C:\Users\adrie\AppData\Local\Temp\cc7EdWgE.s 			page 185


 10440 3950 35390000 		.4byte	0x3935
 10441 3954 2A       		.uleb128 0x2a
 10442 3955 27100000 		.4byte	.LASF759
 10443 3959 3B       		.byte	0x3b
 10444 395a A9       		.byte	0xa9
 10445 395b 60390000 		.4byte	0x3960
 10446 395f 00       		.byte	0
 10447 3960 13       		.uleb128 0x13
 10448 3961 6C000000 		.4byte	0x6c
 10449 3965 70390000 		.4byte	0x3970
 10450 3969 14       		.uleb128 0x14
 10451 396a 45000000 		.4byte	0x45
 10452 396e 03       		.byte	0x3
 10453 396f 00       		.byte	0
 10454 3970 17       		.uleb128 0x17
 10455 3971 08       		.byte	0x8
 10456 3972 3B       		.byte	0x3b
 10457 3973 A3       		.byte	0xa3
 10458 3974 91390000 		.4byte	0x3991
 10459 3978 08       		.uleb128 0x8
 10460 3979 CE0E0000 		.4byte	.LASF760
 10461 397d 3B       		.byte	0x3b
 10462 397e A5       		.byte	0xa5
 10463 397f 2C000000 		.4byte	0x2c
 10464 3983 00       		.byte	0
 10465 3984 08       		.uleb128 0x8
 10466 3985 E9190000 		.4byte	.LASF761
 10467 3989 3B       		.byte	0x3b
 10468 398a AA       		.byte	0xaa
 10469 398b 41390000 		.4byte	0x3941
 10470 398f 04       		.byte	0x4
 10471 3990 00       		.byte	0
 10472 3991 04       		.uleb128 0x4
 10473 3992 C3210000 		.4byte	.LASF762
 10474 3996 3B       		.byte	0x3b
 10475 3997 AB       		.byte	0xab
 10476 3998 70390000 		.4byte	0x3970
 10477 399c 04       		.uleb128 0x4
 10478 399d 6D260000 		.4byte	.LASF763
 10479 39a1 3B       		.byte	0x3b
 10480 39a2 AF       		.byte	0xaf
 10481 39a3 09390000 		.4byte	0x3909
 10482 39a7 07       		.uleb128 0x7
 10483 39a8 6E2B0000 		.4byte	.LASF764
 10484 39ac 04       		.byte	0x4
 10485 39ad 3C       		.byte	0x3c
 10486 39ae 00       		.byte	0
 10487 39af BE390000 		.4byte	0x39be
 10488 39b3 2E       		.uleb128 0x2e
 10489 39b4 3A260000 		.4byte	.LASF765
 10490 39b8 C8030000 		.4byte	0x3c8
 10491 39bc 00       		.byte	0
 10492 39bd 00       		.byte	0
 10493 39be 0B       		.uleb128 0xb
 10494 39bf 04       		.byte	0x4
 10495 39c0 18110000 		.4byte	0x1118
 10496 39c4 16       		.uleb128 0x16
ARM GAS  C:\Users\adrie\AppData\Local\Temp\cc7EdWgE.s 			page 186


 10497 39c5 F40F0000 		.4byte	.LASF766
 10498 39c9 3D       		.byte	0x3d
 10499 39ca 10       		.byte	0x10
 10500 39cb CF390000 		.4byte	0x39cf
 10501 39cf 0B       		.uleb128 0xb
 10502 39d0 04       		.byte	0x4
 10503 39d1 BE390000 		.4byte	0x39be
 10504 39d5 16       		.uleb128 0x16
 10505 39d6 E7070000 		.4byte	.LASF767
 10506 39da 3D       		.byte	0x3d
 10507 39db E8       		.byte	0xe8
 10508 39dc BE390000 		.4byte	0x39be
 10509 39e0 16       		.uleb128 0x16
 10510 39e1 03270000 		.4byte	.LASF768
 10511 39e5 3D       		.byte	0x3d
 10512 39e6 E9       		.byte	0xe9
 10513 39e7 2C000000 		.4byte	0x2c
 10514 39eb 16       		.uleb128 0x16
 10515 39ec 6F190000 		.4byte	.LASF769
 10516 39f0 3D       		.byte	0x3d
 10517 39f1 E9       		.byte	0xe9
 10518 39f2 2C000000 		.4byte	0x2c
 10519 39f6 16       		.uleb128 0x16
 10520 39f7 F6160000 		.4byte	.LASF770
 10521 39fb 3D       		.byte	0x3d
 10522 39fc E9       		.byte	0xe9
 10523 39fd 2C000000 		.4byte	0x2c
 10524 3a01 16       		.uleb128 0x16
 10525 3a02 57090000 		.4byte	.LASF771
 10526 3a06 3D       		.byte	0x3d
 10527 3a07 EB       		.byte	0xeb
 10528 3a08 2C000000 		.4byte	0x2c
 10529 3a0c 07       		.uleb128 0x7
 10530 3a0d 94120000 		.4byte	.LASF772
 10531 3a11 5C       		.byte	0x5c
 10532 3a12 3E       		.byte	0x3e
 10533 3a13 0C       		.byte	0xc
 10534 3a14 793A0000 		.4byte	0x3a79
 10535 3a18 08       		.uleb128 0x8
 10536 3a19 12200000 		.4byte	.LASF773
 10537 3a1d 3E       		.byte	0x3e
 10538 3a1e 0D       		.byte	0xd
 10539 3a1f C8030000 		.4byte	0x3c8
 10540 3a23 00       		.byte	0
 10541 3a24 08       		.uleb128 0x8
 10542 3a25 561C0000 		.4byte	.LASF774
 10543 3a29 3E       		.byte	0x3e
 10544 3a2a 0E       		.byte	0xe
 10545 3a2b 3A000000 		.4byte	0x3a
 10546 3a2f 04       		.byte	0x4
 10547 3a30 08       		.uleb128 0x8
 10548 3a31 FB0B0000 		.4byte	.LASF775
 10549 3a35 3E       		.byte	0x3e
 10550 3a36 0F       		.byte	0xf
 10551 3a37 C8030000 		.4byte	0x3c8
 10552 3a3b 08       		.byte	0x8
 10553 3a3c 08       		.uleb128 0x8
ARM GAS  C:\Users\adrie\AppData\Local\Temp\cc7EdWgE.s 			page 187


 10554 3a3d 5E070000 		.4byte	.LASF776
 10555 3a41 3E       		.byte	0x3e
 10556 3a42 10       		.byte	0x10
 10557 3a43 C8030000 		.4byte	0x3c8
 10558 3a47 0C       		.byte	0xc
 10559 3a48 08       		.uleb128 0x8
 10560 3a49 49260000 		.4byte	.LASF777
 10561 3a4d 3E       		.byte	0x3e
 10562 3a4e 11       		.byte	0x11
 10563 3a4f 793A0000 		.4byte	0x3a79
 10564 3a53 10       		.byte	0x10
 10565 3a54 08       		.uleb128 0x8
 10566 3a55 49010000 		.4byte	.LASF778
 10567 3a59 3E       		.byte	0x3e
 10568 3a5a 12       		.byte	0x12
 10569 3a5b 2F160000 		.4byte	0x162f
 10570 3a5f 51       		.byte	0x51
 10571 3a60 08       		.uleb128 0x8
 10572 3a61 30230000 		.4byte	.LASF779
 10573 3a65 3E       		.byte	0x3e
 10574 3a66 13       		.byte	0x13
 10575 3a67 AE3A0000 		.4byte	0x3aae
 10576 3a6b 54       		.byte	0x54
 10577 3a6c 08       		.uleb128 0x8
 10578 3a6d 55020000 		.4byte	.LASF780
 10579 3a71 3E       		.byte	0x3e
 10580 3a72 14       		.byte	0x14
 10581 3a73 B43A0000 		.4byte	0x3ab4
 10582 3a77 58       		.byte	0x58
 10583 3a78 00       		.byte	0
 10584 3a79 13       		.uleb128 0x13
 10585 3a7a 18110000 		.4byte	0x1118
 10586 3a7e 893A0000 		.4byte	0x3a89
 10587 3a82 14       		.uleb128 0x14
 10588 3a83 45000000 		.4byte	0x45
 10589 3a87 40       		.byte	0x40
 10590 3a88 00       		.byte	0
 10591 3a89 07       		.uleb128 0x7
 10592 3a8a 32000000 		.4byte	.LASF781
 10593 3a8e 08       		.byte	0x8
 10594 3a8f 3E       		.byte	0x3e
 10595 3a90 25       		.byte	0x25
 10596 3a91 AE3A0000 		.4byte	0x3aae
 10597 3a95 08       		.uleb128 0x8
 10598 3a96 22220000 		.4byte	.LASF782
 10599 3a9a 3E       		.byte	0x3e
 10600 3a9b 26       		.byte	0x26
 10601 3a9c 543B0000 		.4byte	0x3b54
 10602 3aa0 00       		.byte	0
 10603 3aa1 08       		.uleb128 0x8
 10604 3aa2 55020000 		.4byte	.LASF780
 10605 3aa6 3E       		.byte	0x3e
 10606 3aa7 27       		.byte	0x27
 10607 3aa8 AE3A0000 		.4byte	0x3aae
 10608 3aac 04       		.byte	0x4
 10609 3aad 00       		.byte	0
 10610 3aae 0B       		.uleb128 0xb
ARM GAS  C:\Users\adrie\AppData\Local\Temp\cc7EdWgE.s 			page 188


 10611 3aaf 04       		.byte	0x4
 10612 3ab0 893A0000 		.4byte	0x3a89
 10613 3ab4 0B       		.uleb128 0xb
 10614 3ab5 04       		.byte	0x4
 10615 3ab6 0C3A0000 		.4byte	0x3a0c
 10616 3aba 04       		.uleb128 0x4
 10617 3abb 6A1B0000 		.4byte	.LASF783
 10618 3abf 3E       		.byte	0x3e
 10619 3ac0 15       		.byte	0x15
 10620 3ac1 0C3A0000 		.4byte	0x3a0c
 10621 3ac5 17       		.uleb128 0x17
 10622 3ac6 04       		.byte	0x4
 10623 3ac7 3E       		.byte	0x3e
 10624 3ac8 18       		.byte	0x18
 10625 3ac9 DA3A0000 		.4byte	0x3ada
 10626 3acd 08       		.uleb128 0x8
 10627 3ace 8C0B0000 		.4byte	.LASF784
 10628 3ad2 3E       		.byte	0x3e
 10629 3ad3 19       		.byte	0x19
 10630 3ad4 DA3A0000 		.4byte	0x3ada
 10631 3ad8 00       		.byte	0
 10632 3ad9 00       		.byte	0
 10633 3ada 0B       		.uleb128 0xb
 10634 3adb 04       		.byte	0x4
 10635 3adc BA3A0000 		.4byte	0x3aba
 10636 3ae0 17       		.uleb128 0x17
 10637 3ae1 0C       		.byte	0xc
 10638 3ae2 3E       		.byte	0x3e
 10639 3ae3 17       		.byte	0x17
 10640 3ae4 0D3B0000 		.4byte	0x3b0d
 10641 3ae8 08       		.uleb128 0x8
 10642 3ae9 94240000 		.4byte	.LASF785
 10643 3aed 3E       		.byte	0x3e
 10644 3aee 1A       		.byte	0x1a
 10645 3aef C53A0000 		.4byte	0x3ac5
 10646 3af3 00       		.byte	0
 10647 3af4 08       		.uleb128 0x8
 10648 3af5 FB0B0000 		.4byte	.LASF775
 10649 3af9 3E       		.byte	0x3e
 10650 3afa 1B       		.byte	0x1b
 10651 3afb C8030000 		.4byte	0x3c8
 10652 3aff 04       		.byte	0x4
 10653 3b00 08       		.uleb128 0x8
 10654 3b01 5E070000 		.4byte	.LASF776
 10655 3b05 3E       		.byte	0x3e
 10656 3b06 1C       		.byte	0x1c
 10657 3b07 C8030000 		.4byte	0x3c8
 10658 3b0b 08       		.byte	0x8
 10659 3b0c 00       		.byte	0
 10660 3b0d 04       		.uleb128 0x4
 10661 3b0e 67120000 		.4byte	.LASF786
 10662 3b12 3E       		.byte	0x3e
 10663 3b13 1D       		.byte	0x1d
 10664 3b14 E03A0000 		.4byte	0x3ae0
 10665 3b18 07       		.uleb128 0x7
 10666 3b19 DD1D0000 		.4byte	.LASF787
 10667 3b1d 0C       		.byte	0xc
ARM GAS  C:\Users\adrie\AppData\Local\Temp\cc7EdWgE.s 			page 189


 10668 3b1e 3E       		.byte	0x3e
 10669 3b1f 1F       		.byte	0x1f
 10670 3b20 493B0000 		.4byte	0x3b49
 10671 3b24 08       		.uleb128 0x8
 10672 3b25 FB0B0000 		.4byte	.LASF775
 10673 3b29 3E       		.byte	0x3e
 10674 3b2a 20       		.byte	0x20
 10675 3b2b C8030000 		.4byte	0x3c8
 10676 3b2f 00       		.byte	0
 10677 3b30 08       		.uleb128 0x8
 10678 3b31 5E070000 		.4byte	.LASF776
 10679 3b35 3E       		.byte	0x3e
 10680 3b36 21       		.byte	0x21
 10681 3b37 C8030000 		.4byte	0x3c8
 10682 3b3b 04       		.byte	0x4
 10683 3b3c 08       		.uleb128 0x8
 10684 3b3d D3040000 		.4byte	.LASF788
 10685 3b41 3E       		.byte	0x3e
 10686 3b42 22       		.byte	0x22
 10687 3b43 DA3A0000 		.4byte	0x3ada
 10688 3b47 08       		.byte	0x8
 10689 3b48 00       		.byte	0
 10690 3b49 04       		.uleb128 0x4
 10691 3b4a A81F0000 		.4byte	.LASF789
 10692 3b4e 3E       		.byte	0x3e
 10693 3b4f 23       		.byte	0x23
 10694 3b50 183B0000 		.4byte	0x3b18
 10695 3b54 0B       		.uleb128 0xb
 10696 3b55 04       		.byte	0x4
 10697 3b56 493B0000 		.4byte	0x3b49
 10698 3b5a 04       		.uleb128 0x4
 10699 3b5b 61160000 		.4byte	.LASF790
 10700 3b5f 3F       		.byte	0x3f
 10701 3b60 16       		.byte	0x16
 10702 3b61 B4000000 		.4byte	0xb4
 10703 3b65 07       		.uleb128 0x7
 10704 3b66 961E0000 		.4byte	.LASF791
 10705 3b6a 18       		.byte	0x18
 10706 3b6b 3F       		.byte	0x3f
 10707 3b6c 2F       		.byte	0x2f
 10708 3b6d B83B0000 		.4byte	0x3bb8
 10709 3b71 08       		.uleb128 0x8
 10710 3b72 7D130000 		.4byte	.LASF792
 10711 3b76 3F       		.byte	0x3f
 10712 3b77 31       		.byte	0x31
 10713 3b78 B83B0000 		.4byte	0x3bb8
 10714 3b7c 00       		.byte	0
 10715 3b7d 18       		.uleb128 0x18
 10716 3b7e 5F6B00   		.ascii	"_k\000"
 10717 3b81 3F       		.byte	0x3f
 10718 3b82 32       		.byte	0x32
 10719 3b83 2C000000 		.4byte	0x2c
 10720 3b87 04       		.byte	0x4
 10721 3b88 08       		.uleb128 0x8
 10722 3b89 2E1C0000 		.4byte	.LASF793
 10723 3b8d 3F       		.byte	0x3f
 10724 3b8e 32       		.byte	0x32
ARM GAS  C:\Users\adrie\AppData\Local\Temp\cc7EdWgE.s 			page 190


 10725 3b8f 2C000000 		.4byte	0x2c
 10726 3b93 08       		.byte	0x8
 10727 3b94 08       		.uleb128 0x8
 10728 3b95 611C0000 		.4byte	.LASF794
 10729 3b99 3F       		.byte	0x3f
 10730 3b9a 32       		.byte	0x32
 10731 3b9b 2C000000 		.4byte	0x2c
 10732 3b9f 0C       		.byte	0xc
 10733 3ba0 08       		.uleb128 0x8
 10734 3ba1 300B0000 		.4byte	.LASF795
 10735 3ba5 3F       		.byte	0x3f
 10736 3ba6 32       		.byte	0x32
 10737 3ba7 2C000000 		.4byte	0x2c
 10738 3bab 10       		.byte	0x10
 10739 3bac 18       		.uleb128 0x18
 10740 3bad 5F7800   		.ascii	"_x\000"
 10741 3bb0 3F       		.byte	0x3f
 10742 3bb1 33       		.byte	0x33
 10743 3bb2 BE3B0000 		.4byte	0x3bbe
 10744 3bb6 14       		.byte	0x14
 10745 3bb7 00       		.byte	0
 10746 3bb8 0B       		.uleb128 0xb
 10747 3bb9 04       		.byte	0x4
 10748 3bba 653B0000 		.4byte	0x3b65
 10749 3bbe 13       		.uleb128 0x13
 10750 3bbf 5A3B0000 		.4byte	0x3b5a
 10751 3bc3 CE3B0000 		.4byte	0x3bce
 10752 3bc7 14       		.uleb128 0x14
 10753 3bc8 45000000 		.4byte	0x45
 10754 3bcc 00       		.byte	0
 10755 3bcd 00       		.byte	0
 10756 3bce 07       		.uleb128 0x7
 10757 3bcf 8D1F0000 		.4byte	.LASF796
 10758 3bd3 24       		.byte	0x24
 10759 3bd4 3F       		.byte	0x3f
 10760 3bd5 37       		.byte	0x37
 10761 3bd6 473C0000 		.4byte	0x3c47
 10762 3bda 08       		.uleb128 0x8
 10763 3bdb E7140000 		.4byte	.LASF797
 10764 3bdf 3F       		.byte	0x3f
 10765 3be0 39       		.byte	0x39
 10766 3be1 2C000000 		.4byte	0x2c
 10767 3be5 00       		.byte	0
 10768 3be6 08       		.uleb128 0x8
 10769 3be7 540C0000 		.4byte	.LASF798
 10770 3beb 3F       		.byte	0x3f
 10771 3bec 3A       		.byte	0x3a
 10772 3bed 2C000000 		.4byte	0x2c
 10773 3bf1 04       		.byte	0x4
 10774 3bf2 08       		.uleb128 0x8
 10775 3bf3 41100000 		.4byte	.LASF799
 10776 3bf7 3F       		.byte	0x3f
 10777 3bf8 3B       		.byte	0x3b
 10778 3bf9 2C000000 		.4byte	0x2c
 10779 3bfd 08       		.byte	0x8
 10780 3bfe 08       		.uleb128 0x8
 10781 3bff 210A0000 		.4byte	.LASF800
ARM GAS  C:\Users\adrie\AppData\Local\Temp\cc7EdWgE.s 			page 191


 10782 3c03 3F       		.byte	0x3f
 10783 3c04 3C       		.byte	0x3c
 10784 3c05 2C000000 		.4byte	0x2c
 10785 3c09 0C       		.byte	0xc
 10786 3c0a 08       		.uleb128 0x8
 10787 3c0b 9D010000 		.4byte	.LASF801
 10788 3c0f 3F       		.byte	0x3f
 10789 3c10 3D       		.byte	0x3d
 10790 3c11 2C000000 		.4byte	0x2c
 10791 3c15 10       		.byte	0x10
 10792 3c16 08       		.uleb128 0x8
 10793 3c17 8F0C0000 		.4byte	.LASF802
 10794 3c1b 3F       		.byte	0x3f
 10795 3c1c 3E       		.byte	0x3e
 10796 3c1d 2C000000 		.4byte	0x2c
 10797 3c21 14       		.byte	0x14
 10798 3c22 08       		.uleb128 0x8
 10799 3c23 080A0000 		.4byte	.LASF803
 10800 3c27 3F       		.byte	0x3f
 10801 3c28 3F       		.byte	0x3f
 10802 3c29 2C000000 		.4byte	0x2c
 10803 3c2d 18       		.byte	0x18
 10804 3c2e 08       		.uleb128 0x8
 10805 3c2f 710A0000 		.4byte	.LASF804
 10806 3c33 3F       		.byte	0x3f
 10807 3c34 40       		.byte	0x40
 10808 3c35 2C000000 		.4byte	0x2c
 10809 3c39 1C       		.byte	0x1c
 10810 3c3a 08       		.uleb128 0x8
 10811 3c3b 1E2B0000 		.4byte	.LASF805
 10812 3c3f 3F       		.byte	0x3f
 10813 3c40 41       		.byte	0x41
 10814 3c41 2C000000 		.4byte	0x2c
 10815 3c45 20       		.byte	0x20
 10816 3c46 00       		.byte	0
 10817 3c47 2C       		.uleb128 0x2c
 10818 3c48 08150000 		.4byte	.LASF806
 10819 3c4c 0801     		.2byte	0x108
 10820 3c4e 3F       		.byte	0x3f
 10821 3c4f 4A       		.byte	0x4a
 10822 3c50 873C0000 		.4byte	0x3c87
 10823 3c54 08       		.uleb128 0x8
 10824 3c55 C8120000 		.4byte	.LASF807
 10825 3c59 3F       		.byte	0x3f
 10826 3c5a 4B       		.byte	0x4b
 10827 3c5b 873C0000 		.4byte	0x3c87
 10828 3c5f 00       		.byte	0
 10829 3c60 08       		.uleb128 0x8
 10830 3c61 98030000 		.4byte	.LASF808
 10831 3c65 3F       		.byte	0x3f
 10832 3c66 4C       		.byte	0x4c
 10833 3c67 873C0000 		.4byte	0x3c87
 10834 3c6b 80       		.byte	0x80
 10835 3c6c 27       		.uleb128 0x27
 10836 3c6d A6010000 		.4byte	.LASF809
 10837 3c71 3F       		.byte	0x3f
 10838 3c72 4E       		.byte	0x4e
ARM GAS  C:\Users\adrie\AppData\Local\Temp\cc7EdWgE.s 			page 192


 10839 3c73 5A3B0000 		.4byte	0x3b5a
 10840 3c77 0001     		.2byte	0x100
 10841 3c79 27       		.uleb128 0x27
 10842 3c7a B4220000 		.4byte	.LASF810
 10843 3c7e 3F       		.byte	0x3f
 10844 3c7f 51       		.byte	0x51
 10845 3c80 5A3B0000 		.4byte	0x3b5a
 10846 3c84 0401     		.2byte	0x104
 10847 3c86 00       		.byte	0
 10848 3c87 13       		.uleb128 0x13
 10849 3c88 C8030000 		.4byte	0x3c8
 10850 3c8c 973C0000 		.4byte	0x3c97
 10851 3c90 14       		.uleb128 0x14
 10852 3c91 45000000 		.4byte	0x45
 10853 3c95 1F       		.byte	0x1f
 10854 3c96 00       		.byte	0
 10855 3c97 2C       		.uleb128 0x2c
 10856 3c98 26010000 		.4byte	.LASF811
 10857 3c9c 9001     		.2byte	0x190
 10858 3c9e 3F       		.byte	0x3f
 10859 3c9f 5D       		.byte	0x5d
 10860 3ca0 D53C0000 		.4byte	0x3cd5
 10861 3ca4 08       		.uleb128 0x8
 10862 3ca5 7D130000 		.4byte	.LASF792
 10863 3ca9 3F       		.byte	0x3f
 10864 3caa 5E       		.byte	0x5e
 10865 3cab D53C0000 		.4byte	0x3cd5
 10866 3caf 00       		.byte	0
 10867 3cb0 08       		.uleb128 0x8
 10868 3cb1 C8010000 		.4byte	.LASF812
 10869 3cb5 3F       		.byte	0x3f
 10870 3cb6 5F       		.byte	0x5f
 10871 3cb7 2C000000 		.4byte	0x2c
 10872 3cbb 04       		.byte	0x4
 10873 3cbc 08       		.uleb128 0x8
 10874 3cbd 79210000 		.4byte	.LASF813
 10875 3cc1 3F       		.byte	0x3f
 10876 3cc2 61       		.byte	0x61
 10877 3cc3 DB3C0000 		.4byte	0x3cdb
 10878 3cc7 08       		.byte	0x8
 10879 3cc8 08       		.uleb128 0x8
 10880 3cc9 08150000 		.4byte	.LASF806
 10881 3ccd 3F       		.byte	0x3f
 10882 3cce 62       		.byte	0x62
 10883 3ccf 473C0000 		.4byte	0x3c47
 10884 3cd3 88       		.byte	0x88
 10885 3cd4 00       		.byte	0
 10886 3cd5 0B       		.uleb128 0xb
 10887 3cd6 04       		.byte	0x4
 10888 3cd7 973C0000 		.4byte	0x3c97
 10889 3cdb 13       		.uleb128 0x13
 10890 3cdc EB3C0000 		.4byte	0x3ceb
 10891 3ce0 EB3C0000 		.4byte	0x3ceb
 10892 3ce4 14       		.uleb128 0x14
 10893 3ce5 45000000 		.4byte	0x45
 10894 3ce9 1F       		.byte	0x1f
 10895 3cea 00       		.byte	0
ARM GAS  C:\Users\adrie\AppData\Local\Temp\cc7EdWgE.s 			page 193


 10896 3ceb 0B       		.uleb128 0xb
 10897 3cec 04       		.byte	0x4
 10898 3ced F13C0000 		.4byte	0x3cf1
 10899 3cf1 2F       		.uleb128 0x2f
 10900 3cf2 07       		.uleb128 0x7
 10901 3cf3 23190000 		.4byte	.LASF814
 10902 3cf7 08       		.byte	0x8
 10903 3cf8 3F       		.byte	0x3f
 10904 3cf9 75       		.byte	0x75
 10905 3cfa 173D0000 		.4byte	0x3d17
 10906 3cfe 08       		.uleb128 0x8
 10907 3cff 61150000 		.4byte	.LASF815
 10908 3d03 3F       		.byte	0x3f
 10909 3d04 76       		.byte	0x76
 10910 3d05 173D0000 		.4byte	0x3d17
 10911 3d09 00       		.byte	0
 10912 3d0a 08       		.uleb128 0x8
 10913 3d0b 150C0000 		.4byte	.LASF816
 10914 3d0f 3F       		.byte	0x3f
 10915 3d10 77       		.byte	0x77
 10916 3d11 2C000000 		.4byte	0x2c
 10917 3d15 04       		.byte	0x4
 10918 3d16 00       		.byte	0
 10919 3d17 0B       		.uleb128 0xb
 10920 3d18 04       		.byte	0x4
 10921 3d19 6C000000 		.4byte	0x6c
 10922 3d1d 07       		.uleb128 0x7
 10923 3d1e 6A210000 		.4byte	.LASF817
 10924 3d22 68       		.byte	0x68
 10925 3d23 3F       		.byte	0x3f
 10926 3d24 B5       		.byte	0xb5
 10927 3d25 473E0000 		.4byte	0x3e47
 10928 3d29 18       		.uleb128 0x18
 10929 3d2a 5F7000   		.ascii	"_p\000"
 10930 3d2d 3F       		.byte	0x3f
 10931 3d2e B6       		.byte	0xb6
 10932 3d2f 173D0000 		.4byte	0x3d17
 10933 3d33 00       		.byte	0
 10934 3d34 18       		.uleb128 0x18
 10935 3d35 5F7200   		.ascii	"_r\000"
 10936 3d38 3F       		.byte	0x3f
 10937 3d39 B7       		.byte	0xb7
 10938 3d3a 2C000000 		.4byte	0x2c
 10939 3d3e 04       		.byte	0x4
 10940 3d3f 18       		.uleb128 0x18
 10941 3d40 5F7700   		.ascii	"_w\000"
 10942 3d43 3F       		.byte	0x3f
 10943 3d44 B8       		.byte	0xb8
 10944 3d45 2C000000 		.4byte	0x2c
 10945 3d49 08       		.byte	0x8
 10946 3d4a 08       		.uleb128 0x8
 10947 3d4b 4E020000 		.4byte	.LASF818
 10948 3d4f 3F       		.byte	0x3f
 10949 3d50 B9       		.byte	0xb9
 10950 3d51 7E000000 		.4byte	0x7e
 10951 3d55 0C       		.byte	0xc
 10952 3d56 08       		.uleb128 0x8
ARM GAS  C:\Users\adrie\AppData\Local\Temp\cc7EdWgE.s 			page 194


 10953 3d57 30210000 		.4byte	.LASF819
 10954 3d5b 3F       		.byte	0x3f
 10955 3d5c BA       		.byte	0xba
 10956 3d5d 7E000000 		.4byte	0x7e
 10957 3d61 0E       		.byte	0xe
 10958 3d62 18       		.uleb128 0x18
 10959 3d63 5F626600 		.ascii	"_bf\000"
 10960 3d67 3F       		.byte	0x3f
 10961 3d68 BB       		.byte	0xbb
 10962 3d69 F23C0000 		.4byte	0x3cf2
 10963 3d6d 10       		.byte	0x10
 10964 3d6e 08       		.uleb128 0x8
 10965 3d6f 0D050000 		.4byte	.LASF820
 10966 3d73 3F       		.byte	0x3f
 10967 3d74 BC       		.byte	0xbc
 10968 3d75 2C000000 		.4byte	0x2c
 10969 3d79 18       		.byte	0x18
 10970 3d7a 08       		.uleb128 0x8
 10971 3d7b EC130000 		.4byte	.LASF821
 10972 3d7f 3F       		.byte	0x3f
 10973 3d80 C3       		.byte	0xc3
 10974 3d81 C8030000 		.4byte	0x3c8
 10975 3d85 1C       		.byte	0x1c
 10976 3d86 08       		.uleb128 0x8
 10977 3d87 DA2A0000 		.4byte	.LASF822
 10978 3d8b 3F       		.byte	0x3f
 10979 3d8c C5       		.byte	0xc5
 10980 3d8d A23F0000 		.4byte	0x3fa2
 10981 3d91 20       		.byte	0x20
 10982 3d92 08       		.uleb128 0x8
 10983 3d93 D30B0000 		.4byte	.LASF823
 10984 3d97 3F       		.byte	0x3f
 10985 3d98 C7       		.byte	0xc7
 10986 3d99 C63F0000 		.4byte	0x3fc6
 10987 3d9d 24       		.byte	0x24
 10988 3d9e 08       		.uleb128 0x8
 10989 3d9f 80170000 		.4byte	.LASF824
 10990 3da3 3F       		.byte	0x3f
 10991 3da4 CA       		.byte	0xca
 10992 3da5 EA3F0000 		.4byte	0x3fea
 10993 3da9 28       		.byte	0x28
 10994 3daa 08       		.uleb128 0x8
 10995 3dab 881D0000 		.4byte	.LASF825
 10996 3daf 3F       		.byte	0x3f
 10997 3db0 CB       		.byte	0xcb
 10998 3db1 04400000 		.4byte	0x4004
 10999 3db5 2C       		.byte	0x2c
 11000 3db6 18       		.uleb128 0x18
 11001 3db7 5F756200 		.ascii	"_ub\000"
 11002 3dbb 3F       		.byte	0x3f
 11003 3dbc CE       		.byte	0xce
 11004 3dbd F23C0000 		.4byte	0x3cf2
 11005 3dc1 30       		.byte	0x30
 11006 3dc2 18       		.uleb128 0x18
 11007 3dc3 5F757000 		.ascii	"_up\000"
 11008 3dc7 3F       		.byte	0x3f
 11009 3dc8 CF       		.byte	0xcf
ARM GAS  C:\Users\adrie\AppData\Local\Temp\cc7EdWgE.s 			page 195


 11010 3dc9 173D0000 		.4byte	0x3d17
 11011 3dcd 38       		.byte	0x38
 11012 3dce 18       		.uleb128 0x18
 11013 3dcf 5F757200 		.ascii	"_ur\000"
 11014 3dd3 3F       		.byte	0x3f
 11015 3dd4 D0       		.byte	0xd0
 11016 3dd5 2C000000 		.4byte	0x2c
 11017 3dd9 3C       		.byte	0x3c
 11018 3dda 08       		.uleb128 0x8
 11019 3ddb 5F200000 		.4byte	.LASF826
 11020 3ddf 3F       		.byte	0x3f
 11021 3de0 D3       		.byte	0xd3
 11022 3de1 0A400000 		.4byte	0x400a
 11023 3de5 40       		.byte	0x40
 11024 3de6 08       		.uleb128 0x8
 11025 3de7 FF020000 		.4byte	.LASF827
 11026 3deb 3F       		.byte	0x3f
 11027 3dec D4       		.byte	0xd4
 11028 3ded 1A400000 		.4byte	0x401a
 11029 3df1 43       		.byte	0x43
 11030 3df2 18       		.uleb128 0x18
 11031 3df3 5F6C6200 		.ascii	"_lb\000"
 11032 3df7 3F       		.byte	0x3f
 11033 3df8 D7       		.byte	0xd7
 11034 3df9 F23C0000 		.4byte	0x3cf2
 11035 3dfd 44       		.byte	0x44
 11036 3dfe 08       		.uleb128 0x8
 11037 3dff AA0C0000 		.4byte	.LASF828
 11038 3e03 3F       		.byte	0x3f
 11039 3e04 DA       		.byte	0xda
 11040 3e05 2C000000 		.4byte	0x2c
 11041 3e09 4C       		.byte	0x4c
 11042 3e0a 08       		.uleb128 0x8
 11043 3e0b C8180000 		.4byte	.LASF829
 11044 3e0f 3F       		.byte	0x3f
 11045 3e10 DB       		.byte	0xdb
 11046 3e11 1F390000 		.4byte	0x391f
 11047 3e15 50       		.byte	0x50
 11048 3e16 08       		.uleb128 0x8
 11049 3e17 41250000 		.4byte	.LASF830
 11050 3e1b 3F       		.byte	0x3f
 11051 3e1c DE       		.byte	0xde
 11052 3e1d 653E0000 		.4byte	0x3e65
 11053 3e21 54       		.byte	0x54
 11054 3e22 08       		.uleb128 0x8
 11055 3e23 F9020000 		.4byte	.LASF831
 11056 3e27 3F       		.byte	0x3f
 11057 3e28 E2       		.byte	0xe2
 11058 3e29 9C390000 		.4byte	0x399c
 11059 3e2d 58       		.byte	0x58
 11060 3e2e 08       		.uleb128 0x8
 11061 3e2f 45160000 		.4byte	.LASF832
 11062 3e33 3F       		.byte	0x3f
 11063 3e34 E4       		.byte	0xe4
 11064 3e35 91390000 		.4byte	0x3991
 11065 3e39 5C       		.byte	0x5c
 11066 3e3a 08       		.uleb128 0x8
ARM GAS  C:\Users\adrie\AppData\Local\Temp\cc7EdWgE.s 			page 196


 11067 3e3b 65270000 		.4byte	.LASF833
 11068 3e3f 3F       		.byte	0x3f
 11069 3e40 E5       		.byte	0xe5
 11070 3e41 2C000000 		.4byte	0x2c
 11071 3e45 64       		.byte	0x64
 11072 3e46 00       		.byte	0
 11073 3e47 20       		.uleb128 0x20
 11074 3e48 2C000000 		.4byte	0x2c
 11075 3e4c 653E0000 		.4byte	0x3e65
 11076 3e50 0E       		.uleb128 0xe
 11077 3e51 653E0000 		.4byte	0x3e65
 11078 3e55 0E       		.uleb128 0xe
 11079 3e56 C8030000 		.4byte	0x3c8
 11080 3e5a 0E       		.uleb128 0xe
 11081 3e5b BE390000 		.4byte	0x39be
 11082 3e5f 0E       		.uleb128 0xe
 11083 3e60 2C000000 		.4byte	0x2c
 11084 3e64 00       		.byte	0
 11085 3e65 0B       		.uleb128 0xb
 11086 3e66 04       		.byte	0x4
 11087 3e67 703E0000 		.4byte	0x3e70
 11088 3e6b 05       		.uleb128 0x5
 11089 3e6c 653E0000 		.4byte	0x3e65
 11090 3e70 10       		.uleb128 0x10
 11091 3e71 99190000 		.4byte	.LASF834
 11092 3e75 2804     		.2byte	0x428
 11093 3e77 3F       		.byte	0x3f
 11094 3e78 3902     		.2byte	0x239
 11095 3e7a A23F0000 		.4byte	0x3fa2
 11096 3e7e 0A       		.uleb128 0xa
 11097 3e7f 60120000 		.4byte	.LASF835
 11098 3e83 3F       		.byte	0x3f
 11099 3e84 3B02     		.2byte	0x23b
 11100 3e86 2C000000 		.4byte	0x2c
 11101 3e8a 00       		.byte	0
 11102 3e8b 0A       		.uleb128 0xa
 11103 3e8c 9D0D0000 		.4byte	.LASF836
 11104 3e90 3F       		.byte	0x3f
 11105 3e91 4002     		.2byte	0x240
 11106 3e93 71400000 		.4byte	0x4071
 11107 3e97 04       		.byte	0x4
 11108 3e98 0A       		.uleb128 0xa
 11109 3e99 AB0A0000 		.4byte	.LASF837
 11110 3e9d 3F       		.byte	0x3f
 11111 3e9e 4002     		.2byte	0x240
 11112 3ea0 71400000 		.4byte	0x4071
 11113 3ea4 08       		.byte	0x8
 11114 3ea5 0A       		.uleb128 0xa
 11115 3ea6 9C090000 		.4byte	.LASF838
 11116 3eaa 3F       		.byte	0x3f
 11117 3eab 4002     		.2byte	0x240
 11118 3ead 71400000 		.4byte	0x4071
 11119 3eb1 0C       		.byte	0xc
 11120 3eb2 0A       		.uleb128 0xa
 11121 3eb3 C3010000 		.4byte	.LASF839
 11122 3eb7 3F       		.byte	0x3f
 11123 3eb8 4202     		.2byte	0x242
ARM GAS  C:\Users\adrie\AppData\Local\Temp\cc7EdWgE.s 			page 197


 11124 3eba 2C000000 		.4byte	0x2c
 11125 3ebe 10       		.byte	0x10
 11126 3ebf 0A       		.uleb128 0xa
 11127 3ec0 9D0F0000 		.4byte	.LASF840
 11128 3ec4 3F       		.byte	0x3f
 11129 3ec5 4302     		.2byte	0x243
 11130 3ec7 53420000 		.4byte	0x4253
 11131 3ecb 14       		.byte	0x14
 11132 3ecc 0A       		.uleb128 0xa
 11133 3ecd A1250000 		.4byte	.LASF841
 11134 3ed1 3F       		.byte	0x3f
 11135 3ed2 4602     		.2byte	0x246
 11136 3ed4 2C000000 		.4byte	0x2c
 11137 3ed8 30       		.byte	0x30
 11138 3ed9 0A       		.uleb128 0xa
 11139 3eda D8270000 		.4byte	.LASF842
 11140 3ede 3F       		.byte	0x3f
 11141 3edf 4702     		.2byte	0x247
 11142 3ee1 68420000 		.4byte	0x4268
 11143 3ee5 34       		.byte	0x34
 11144 3ee6 0A       		.uleb128 0xa
 11145 3ee7 05260000 		.4byte	.LASF843
 11146 3eeb 3F       		.byte	0x3f
 11147 3eec 4902     		.2byte	0x249
 11148 3eee 2C000000 		.4byte	0x2c
 11149 3ef2 38       		.byte	0x38
 11150 3ef3 0A       		.uleb128 0xa
 11151 3ef4 B7200000 		.4byte	.LASF844
 11152 3ef8 3F       		.byte	0x3f
 11153 3ef9 4B02     		.2byte	0x24b
 11154 3efb 79420000 		.4byte	0x4279
 11155 3eff 3C       		.byte	0x3c
 11156 3f00 0A       		.uleb128 0xa
 11157 3f01 A4090000 		.4byte	.LASF845
 11158 3f05 3F       		.byte	0x3f
 11159 3f06 4E02     		.2byte	0x24e
 11160 3f08 B83B0000 		.4byte	0x3bb8
 11161 3f0c 40       		.byte	0x40
 11162 3f0d 0A       		.uleb128 0xa
 11163 3f0e 8D090000 		.4byte	.LASF846
 11164 3f12 3F       		.byte	0x3f
 11165 3f13 4F02     		.2byte	0x24f
 11166 3f15 2C000000 		.4byte	0x2c
 11167 3f19 44       		.byte	0x44
 11168 3f1a 0A       		.uleb128 0xa
 11169 3f1b F7220000 		.4byte	.LASF847
 11170 3f1f 3F       		.byte	0x3f
 11171 3f20 5002     		.2byte	0x250
 11172 3f22 B83B0000 		.4byte	0x3bb8
 11173 3f26 48       		.byte	0x48
 11174 3f27 0A       		.uleb128 0xa
 11175 3f28 72180000 		.4byte	.LASF848
 11176 3f2c 3F       		.byte	0x3f
 11177 3f2d 5102     		.2byte	0x251
 11178 3f2f 7F420000 		.4byte	0x427f
 11179 3f33 4C       		.byte	0x4c
 11180 3f34 0A       		.uleb128 0xa
ARM GAS  C:\Users\adrie\AppData\Local\Temp\cc7EdWgE.s 			page 198


 11181 3f35 93020000 		.4byte	.LASF849
 11182 3f39 3F       		.byte	0x3f
 11183 3f3a 5402     		.2byte	0x254
 11184 3f3c 2C000000 		.4byte	0x2c
 11185 3f40 50       		.byte	0x50
 11186 3f41 0A       		.uleb128 0xa
 11187 3f42 800F0000 		.4byte	.LASF850
 11188 3f46 3F       		.byte	0x3f
 11189 3f47 5502     		.2byte	0x255
 11190 3f49 BE390000 		.4byte	0x39be
 11191 3f4d 54       		.byte	0x54
 11192 3f4e 0A       		.uleb128 0xa
 11193 3f4f 68050000 		.4byte	.LASF851
 11194 3f53 3F       		.byte	0x3f
 11195 3f54 7802     		.2byte	0x278
 11196 3f56 31420000 		.4byte	0x4231
 11197 3f5a 58       		.byte	0x58
 11198 3f5b 11       		.uleb128 0x11
 11199 3f5c 26010000 		.4byte	.LASF811
 11200 3f60 3F       		.byte	0x3f
 11201 3f61 7C02     		.2byte	0x27c
 11202 3f63 D53C0000 		.4byte	0x3cd5
 11203 3f67 4801     		.2byte	0x148
 11204 3f69 11       		.uleb128 0x11
 11205 3f6a C61E0000 		.4byte	.LASF852
 11206 3f6e 3F       		.byte	0x3f
 11207 3f6f 7D02     		.2byte	0x27d
 11208 3f71 973C0000 		.4byte	0x3c97
 11209 3f75 4C01     		.2byte	0x14c
 11210 3f77 11       		.uleb128 0x11
 11211 3f78 C3020000 		.4byte	.LASF853
 11212 3f7c 3F       		.byte	0x3f
 11213 3f7d 8102     		.2byte	0x281
 11214 3f7f 90420000 		.4byte	0x4290
 11215 3f83 DC02     		.2byte	0x2dc
 11216 3f85 11       		.uleb128 0x11
 11217 3f86 87200000 		.4byte	.LASF854
 11218 3f8a 3F       		.byte	0x3f
 11219 3f8b 8602     		.2byte	0x286
 11220 3f8d 36400000 		.4byte	0x4036
 11221 3f91 E002     		.2byte	0x2e0
 11222 3f93 11       		.uleb128 0x11
 11223 3f94 AC060000 		.4byte	.LASF855
 11224 3f98 3F       		.byte	0x3f
 11225 3f99 8802     		.2byte	0x288
 11226 3f9b 9C420000 		.4byte	0x429c
 11227 3f9f EC02     		.2byte	0x2ec
 11228 3fa1 00       		.byte	0
 11229 3fa2 0B       		.uleb128 0xb
 11230 3fa3 04       		.byte	0x4
 11231 3fa4 473E0000 		.4byte	0x3e47
 11232 3fa8 20       		.uleb128 0x20
 11233 3fa9 2C000000 		.4byte	0x2c
 11234 3fad C63F0000 		.4byte	0x3fc6
 11235 3fb1 0E       		.uleb128 0xe
 11236 3fb2 653E0000 		.4byte	0x3e65
 11237 3fb6 0E       		.uleb128 0xe
ARM GAS  C:\Users\adrie\AppData\Local\Temp\cc7EdWgE.s 			page 199


 11238 3fb7 C8030000 		.4byte	0x3c8
 11239 3fbb 0E       		.uleb128 0xe
 11240 3fbc 0D110000 		.4byte	0x110d
 11241 3fc0 0E       		.uleb128 0xe
 11242 3fc1 2C000000 		.4byte	0x2c
 11243 3fc5 00       		.byte	0
 11244 3fc6 0B       		.uleb128 0xb
 11245 3fc7 04       		.byte	0x4
 11246 3fc8 A83F0000 		.4byte	0x3fa8
 11247 3fcc 20       		.uleb128 0x20
 11248 3fcd 2A390000 		.4byte	0x392a
 11249 3fd1 EA3F0000 		.4byte	0x3fea
 11250 3fd5 0E       		.uleb128 0xe
 11251 3fd6 653E0000 		.4byte	0x3e65
 11252 3fda 0E       		.uleb128 0xe
 11253 3fdb C8030000 		.4byte	0x3c8
 11254 3fdf 0E       		.uleb128 0xe
 11255 3fe0 2A390000 		.4byte	0x392a
 11256 3fe4 0E       		.uleb128 0xe
 11257 3fe5 2C000000 		.4byte	0x2c
 11258 3fe9 00       		.byte	0
 11259 3fea 0B       		.uleb128 0xb
 11260 3feb 04       		.byte	0x4
 11261 3fec CC3F0000 		.4byte	0x3fcc
 11262 3ff0 20       		.uleb128 0x20
 11263 3ff1 2C000000 		.4byte	0x2c
 11264 3ff5 04400000 		.4byte	0x4004
 11265 3ff9 0E       		.uleb128 0xe
 11266 3ffa 653E0000 		.4byte	0x3e65
 11267 3ffe 0E       		.uleb128 0xe
 11268 3fff C8030000 		.4byte	0x3c8
 11269 4003 00       		.byte	0
 11270 4004 0B       		.uleb128 0xb
 11271 4005 04       		.byte	0x4
 11272 4006 F03F0000 		.4byte	0x3ff0
 11273 400a 13       		.uleb128 0x13
 11274 400b 6C000000 		.4byte	0x6c
 11275 400f 1A400000 		.4byte	0x401a
 11276 4013 14       		.uleb128 0x14
 11277 4014 45000000 		.4byte	0x45
 11278 4018 02       		.byte	0x2
 11279 4019 00       		.byte	0
 11280 401a 13       		.uleb128 0x13
 11281 401b 6C000000 		.4byte	0x6c
 11282 401f 2A400000 		.4byte	0x402a
 11283 4023 14       		.uleb128 0x14
 11284 4024 45000000 		.4byte	0x45
 11285 4028 00       		.byte	0
 11286 4029 00       		.byte	0
 11287 402a 1A       		.uleb128 0x1a
 11288 402b 52290000 		.4byte	.LASF856
 11289 402f 3F       		.byte	0x3f
 11290 4030 1F01     		.2byte	0x11f
 11291 4032 1D3D0000 		.4byte	0x3d1d
 11292 4036 0C       		.uleb128 0xc
 11293 4037 CE1D0000 		.4byte	.LASF857
 11294 403b 0C       		.byte	0xc
ARM GAS  C:\Users\adrie\AppData\Local\Temp\cc7EdWgE.s 			page 200


 11295 403c 3F       		.byte	0x3f
 11296 403d 2301     		.2byte	0x123
 11297 403f 6B400000 		.4byte	0x406b
 11298 4043 0A       		.uleb128 0xa
 11299 4044 7D130000 		.4byte	.LASF792
 11300 4048 3F       		.byte	0x3f
 11301 4049 2501     		.2byte	0x125
 11302 404b 6B400000 		.4byte	0x406b
 11303 404f 00       		.byte	0
 11304 4050 0A       		.uleb128 0xa
 11305 4051 E3100000 		.4byte	.LASF858
 11306 4055 3F       		.byte	0x3f
 11307 4056 2601     		.2byte	0x126
 11308 4058 2C000000 		.4byte	0x2c
 11309 405c 04       		.byte	0x4
 11310 405d 0A       		.uleb128 0xa
 11311 405e A71B0000 		.4byte	.LASF859
 11312 4062 3F       		.byte	0x3f
 11313 4063 2701     		.2byte	0x127
 11314 4065 71400000 		.4byte	0x4071
 11315 4069 08       		.byte	0x8
 11316 406a 00       		.byte	0
 11317 406b 0B       		.uleb128 0xb
 11318 406c 04       		.byte	0x4
 11319 406d 36400000 		.4byte	0x4036
 11320 4071 0B       		.uleb128 0xb
 11321 4072 04       		.byte	0x4
 11322 4073 2A400000 		.4byte	0x402a
 11323 4077 0C       		.uleb128 0xc
 11324 4078 0A2B0000 		.4byte	.LASF860
 11325 407c 0E       		.byte	0xe
 11326 407d 3F       		.byte	0x3f
 11327 407e 3F01     		.2byte	0x13f
 11328 4080 AC400000 		.4byte	0x40ac
 11329 4084 0A       		.uleb128 0xa
 11330 4085 6B170000 		.4byte	.LASF861
 11331 4089 3F       		.byte	0x3f
 11332 408a 4001     		.2byte	0x140
 11333 408c AC400000 		.4byte	0x40ac
 11334 4090 00       		.byte	0
 11335 4091 0A       		.uleb128 0xa
 11336 4092 BC2A0000 		.4byte	.LASF862
 11337 4096 3F       		.byte	0x3f
 11338 4097 4101     		.2byte	0x141
 11339 4099 AC400000 		.4byte	0x40ac
 11340 409d 06       		.byte	0x6
 11341 409e 0A       		.uleb128 0xa
 11342 409f 76190000 		.4byte	.LASF863
 11343 40a3 3F       		.byte	0x3f
 11344 40a4 4201     		.2byte	0x142
 11345 40a6 90000000 		.4byte	0x90
 11346 40aa 0C       		.byte	0xc
 11347 40ab 00       		.byte	0
 11348 40ac 13       		.uleb128 0x13
 11349 40ad 90000000 		.4byte	0x90
 11350 40b1 BC400000 		.4byte	0x40bc
 11351 40b5 14       		.uleb128 0x14
ARM GAS  C:\Users\adrie\AppData\Local\Temp\cc7EdWgE.s 			page 201


 11352 40b6 45000000 		.4byte	0x45
 11353 40ba 02       		.byte	0x2
 11354 40bb 00       		.byte	0
 11355 40bc 19       		.uleb128 0x19
 11356 40bd D0       		.byte	0xd0
 11357 40be 3F       		.byte	0x3f
 11358 40bf 5902     		.2byte	0x259
 11359 40c1 BD410000 		.4byte	0x41bd
 11360 40c5 0A       		.uleb128 0xa
 11361 40c6 F6080000 		.4byte	.LASF864
 11362 40ca 3F       		.byte	0x3f
 11363 40cb 5B02     		.2byte	0x25b
 11364 40cd 45000000 		.4byte	0x45
 11365 40d1 00       		.byte	0
 11366 40d2 0A       		.uleb128 0xa
 11367 40d3 0C170000 		.4byte	.LASF865
 11368 40d7 3F       		.byte	0x3f
 11369 40d8 5C02     		.2byte	0x25c
 11370 40da BE390000 		.4byte	0x39be
 11371 40de 04       		.byte	0x4
 11372 40df 0A       		.uleb128 0xa
 11373 40e0 B7190000 		.4byte	.LASF866
 11374 40e4 3F       		.byte	0x3f
 11375 40e5 5D02     		.2byte	0x25d
 11376 40e7 BD410000 		.4byte	0x41bd
 11377 40eb 08       		.byte	0x8
 11378 40ec 0A       		.uleb128 0xa
 11379 40ed 34150000 		.4byte	.LASF867
 11380 40f1 3F       		.byte	0x3f
 11381 40f2 5E02     		.2byte	0x25e
 11382 40f4 CE3B0000 		.4byte	0x3bce
 11383 40f8 24       		.byte	0x24
 11384 40f9 0A       		.uleb128 0xa
 11385 40fa B4240000 		.4byte	.LASF868
 11386 40fe 3F       		.byte	0x3f
 11387 40ff 5F02     		.2byte	0x25f
 11388 4101 2C000000 		.4byte	0x2c
 11389 4105 48       		.byte	0x48
 11390 4106 0A       		.uleb128 0xa
 11391 4107 E61B0000 		.4byte	.LASF869
 11392 410b 3F       		.byte	0x3f
 11393 410c 6002     		.2byte	0x260
 11394 410e C6000000 		.4byte	0xc6
 11395 4112 50       		.byte	0x50
 11396 4113 0A       		.uleb128 0xa
 11397 4114 6A280000 		.4byte	.LASF870
 11398 4118 3F       		.byte	0x3f
 11399 4119 6102     		.2byte	0x261
 11400 411b 77400000 		.4byte	0x4077
 11401 411f 58       		.byte	0x58
 11402 4120 0A       		.uleb128 0xa
 11403 4121 7A200000 		.4byte	.LASF871
 11404 4125 3F       		.byte	0x3f
 11405 4126 6202     		.2byte	0x262
 11406 4128 91390000 		.4byte	0x3991
 11407 412c 68       		.byte	0x68
 11408 412d 0A       		.uleb128 0xa
ARM GAS  C:\Users\adrie\AppData\Local\Temp\cc7EdWgE.s 			page 202


 11409 412e E3060000 		.4byte	.LASF872
 11410 4132 3F       		.byte	0x3f
 11411 4133 6302     		.2byte	0x263
 11412 4135 91390000 		.4byte	0x3991
 11413 4139 70       		.byte	0x70
 11414 413a 0A       		.uleb128 0xa
 11415 413b 1C040000 		.4byte	.LASF873
 11416 413f 3F       		.byte	0x3f
 11417 4140 6402     		.2byte	0x264
 11418 4142 91390000 		.4byte	0x3991
 11419 4146 78       		.byte	0x78
 11420 4147 0A       		.uleb128 0xa
 11421 4148 AD190000 		.4byte	.LASF874
 11422 414c 3F       		.byte	0x3f
 11423 414d 6502     		.2byte	0x265
 11424 414f CD410000 		.4byte	0x41cd
 11425 4153 80       		.byte	0x80
 11426 4154 0A       		.uleb128 0xa
 11427 4155 CE130000 		.4byte	.LASF875
 11428 4159 3F       		.byte	0x3f
 11429 415a 6602     		.2byte	0x266
 11430 415c DD410000 		.4byte	0x41dd
 11431 4160 88       		.byte	0x88
 11432 4161 0A       		.uleb128 0xa
 11433 4162 611F0000 		.4byte	.LASF876
 11434 4166 3F       		.byte	0x3f
 11435 4167 6702     		.2byte	0x267
 11436 4169 2C000000 		.4byte	0x2c
 11437 416d A0       		.byte	0xa0
 11438 416e 0A       		.uleb128 0xa
 11439 416f 350D0000 		.4byte	.LASF877
 11440 4173 3F       		.byte	0x3f
 11441 4174 6802     		.2byte	0x268
 11442 4176 91390000 		.4byte	0x3991
 11443 417a A4       		.byte	0xa4
 11444 417b 0A       		.uleb128 0xa
 11445 417c 4D000000 		.4byte	.LASF878
 11446 4180 3F       		.byte	0x3f
 11447 4181 6902     		.2byte	0x269
 11448 4183 91390000 		.4byte	0x3991
 11449 4187 AC       		.byte	0xac
 11450 4188 0A       		.uleb128 0xa
 11451 4189 170B0000 		.4byte	.LASF879
 11452 418d 3F       		.byte	0x3f
 11453 418e 6A02     		.2byte	0x26a
 11454 4190 91390000 		.4byte	0x3991
 11455 4194 B4       		.byte	0xb4
 11456 4195 0A       		.uleb128 0xa
 11457 4196 9F150000 		.4byte	.LASF880
 11458 419a 3F       		.byte	0x3f
 11459 419b 6B02     		.2byte	0x26b
 11460 419d 91390000 		.4byte	0x3991
 11461 41a1 BC       		.byte	0xbc
 11462 41a2 0A       		.uleb128 0xa
 11463 41a3 FE190000 		.4byte	.LASF881
 11464 41a7 3F       		.byte	0x3f
 11465 41a8 6C02     		.2byte	0x26c
ARM GAS  C:\Users\adrie\AppData\Local\Temp\cc7EdWgE.s 			page 203


 11466 41aa 91390000 		.4byte	0x3991
 11467 41ae C4       		.byte	0xc4
 11468 41af 0A       		.uleb128 0xa
 11469 41b0 CE210000 		.4byte	.LASF882
 11470 41b4 3F       		.byte	0x3f
 11471 41b5 6D02     		.2byte	0x26d
 11472 41b7 2C000000 		.4byte	0x2c
 11473 41bb CC       		.byte	0xcc
 11474 41bc 00       		.byte	0
 11475 41bd 13       		.uleb128 0x13
 11476 41be 18110000 		.4byte	0x1118
 11477 41c2 CD410000 		.4byte	0x41cd
 11478 41c6 14       		.uleb128 0x14
 11479 41c7 45000000 		.4byte	0x45
 11480 41cb 19       		.byte	0x19
 11481 41cc 00       		.byte	0
 11482 41cd 13       		.uleb128 0x13
 11483 41ce 18110000 		.4byte	0x1118
 11484 41d2 DD410000 		.4byte	0x41dd
 11485 41d6 14       		.uleb128 0x14
 11486 41d7 45000000 		.4byte	0x45
 11487 41db 07       		.byte	0x7
 11488 41dc 00       		.byte	0
 11489 41dd 13       		.uleb128 0x13
 11490 41de 18110000 		.4byte	0x1118
 11491 41e2 ED410000 		.4byte	0x41ed
 11492 41e6 14       		.uleb128 0x14
 11493 41e7 45000000 		.4byte	0x45
 11494 41eb 17       		.byte	0x17
 11495 41ec 00       		.byte	0
 11496 41ed 19       		.uleb128 0x19
 11497 41ee F0       		.byte	0xf0
 11498 41ef 3F       		.byte	0x3f
 11499 41f0 7202     		.2byte	0x272
 11500 41f2 11420000 		.4byte	0x4211
 11501 41f6 0A       		.uleb128 0xa
 11502 41f7 6D270000 		.4byte	.LASF883
 11503 41fb 3F       		.byte	0x3f
 11504 41fc 7502     		.2byte	0x275
 11505 41fe 11420000 		.4byte	0x4211
 11506 4202 00       		.byte	0
 11507 4203 0A       		.uleb128 0xa
 11508 4204 A40D0000 		.4byte	.LASF884
 11509 4208 3F       		.byte	0x3f
 11510 4209 7602     		.2byte	0x276
 11511 420b 21420000 		.4byte	0x4221
 11512 420f 78       		.byte	0x78
 11513 4210 00       		.byte	0
 11514 4211 13       		.uleb128 0x13
 11515 4212 173D0000 		.4byte	0x3d17
 11516 4216 21420000 		.4byte	0x4221
 11517 421a 14       		.uleb128 0x14
 11518 421b 45000000 		.4byte	0x45
 11519 421f 1D       		.byte	0x1d
 11520 4220 00       		.byte	0
 11521 4221 13       		.uleb128 0x13
 11522 4222 45000000 		.4byte	0x45
ARM GAS  C:\Users\adrie\AppData\Local\Temp\cc7EdWgE.s 			page 204


 11523 4226 31420000 		.4byte	0x4231
 11524 422a 14       		.uleb128 0x14
 11525 422b 45000000 		.4byte	0x45
 11526 422f 1D       		.byte	0x1d
 11527 4230 00       		.byte	0
 11528 4231 2B       		.uleb128 0x2b
 11529 4232 F0       		.byte	0xf0
 11530 4233 3F       		.byte	0x3f
 11531 4234 5702     		.2byte	0x257
 11532 4236 53420000 		.4byte	0x4253
 11533 423a 1E       		.uleb128 0x1e
 11534 423b 99190000 		.4byte	.LASF834
 11535 423f 3F       		.byte	0x3f
 11536 4240 6E02     		.2byte	0x26e
 11537 4242 BC400000 		.4byte	0x40bc
 11538 4246 1E       		.uleb128 0x1e
 11539 4247 39200000 		.4byte	.LASF885
 11540 424b 3F       		.byte	0x3f
 11541 424c 7702     		.2byte	0x277
 11542 424e ED410000 		.4byte	0x41ed
 11543 4252 00       		.byte	0
 11544 4253 13       		.uleb128 0x13
 11545 4254 18110000 		.4byte	0x1118
 11546 4258 63420000 		.4byte	0x4263
 11547 425c 14       		.uleb128 0x14
 11548 425d 45000000 		.4byte	0x45
 11549 4261 18       		.byte	0x18
 11550 4262 00       		.byte	0
 11551 4263 2D       		.uleb128 0x2d
 11552 4264 8F200000 		.4byte	.LASF887
 11553 4268 0B       		.uleb128 0xb
 11554 4269 04       		.byte	0x4
 11555 426a 63420000 		.4byte	0x4263
 11556 426e 0D       		.uleb128 0xd
 11557 426f 79420000 		.4byte	0x4279
 11558 4273 0E       		.uleb128 0xe
 11559 4274 653E0000 		.4byte	0x3e65
 11560 4278 00       		.byte	0
 11561 4279 0B       		.uleb128 0xb
 11562 427a 04       		.byte	0x4
 11563 427b 6E420000 		.4byte	0x426e
 11564 427f 0B       		.uleb128 0xb
 11565 4280 04       		.byte	0x4
 11566 4281 B83B0000 		.4byte	0x3bb8
 11567 4285 0D       		.uleb128 0xd
 11568 4286 90420000 		.4byte	0x4290
 11569 428a 0E       		.uleb128 0xe
 11570 428b 2C000000 		.4byte	0x2c
 11571 428f 00       		.byte	0
 11572 4290 0B       		.uleb128 0xb
 11573 4291 04       		.byte	0x4
 11574 4292 96420000 		.4byte	0x4296
 11575 4296 0B       		.uleb128 0xb
 11576 4297 04       		.byte	0x4
 11577 4298 85420000 		.4byte	0x4285
 11578 429c 13       		.uleb128 0x13
 11579 429d 2A400000 		.4byte	0x402a
ARM GAS  C:\Users\adrie\AppData\Local\Temp\cc7EdWgE.s 			page 205


 11580 42a1 AC420000 		.4byte	0x42ac
 11581 42a5 14       		.uleb128 0x14
 11582 42a6 45000000 		.4byte	0x45
 11583 42aa 02       		.byte	0x2
 11584 42ab 00       		.byte	0
 11585 42ac 15       		.uleb128 0x15
 11586 42ad 1E200000 		.4byte	.LASF888
 11587 42b1 3F       		.byte	0x3f
 11588 42b2 0703     		.2byte	0x307
 11589 42b4 653E0000 		.4byte	0x3e65
 11590 42b8 15       		.uleb128 0x15
 11591 42b9 D1230000 		.4byte	.LASF889
 11592 42bd 3F       		.byte	0x3f
 11593 42be 0803     		.2byte	0x308
 11594 42c0 6B3E0000 		.4byte	0x3e6b
 11595 42c4 16       		.uleb128 0x16
 11596 42c5 3A010000 		.4byte	.LASF890
 11597 42c9 40       		.byte	0x40
 11598 42ca 63       		.byte	0x63
 11599 42cb BE390000 		.4byte	0x39be
 11600 42cf 04       		.uleb128 0x4
 11601 42d0 F4130000 		.4byte	.LASF891
 11602 42d4 41       		.byte	0x41
 11603 42d5 08       		.byte	0x8
 11604 42d6 DA420000 		.4byte	0x42da
 11605 42da 07       		.uleb128 0x7
 11606 42db 7E220000 		.4byte	.LASF892
 11607 42df 18       		.byte	0x18
 11608 42e0 41       		.byte	0x41
 11609 42e1 0B       		.byte	0xb
 11610 42e2 2E430000 		.4byte	0x432e
 11611 42e6 18       		.uleb128 0x18
 11612 42e7 696400   		.ascii	"id\000"
 11613 42ea 41       		.byte	0x41
 11614 42eb 0C       		.byte	0xc
 11615 42ec 0D110000 		.4byte	0x110d
 11616 42f0 00       		.byte	0
 11617 42f1 08       		.uleb128 0x8
 11618 42f2 2E010000 		.4byte	.LASF893
 11619 42f6 41       		.byte	0x41
 11620 42f7 0D       		.byte	0xd
 11621 42f8 F3000000 		.4byte	0xf3
 11622 42fc 04       		.byte	0x4
 11623 42fd 08       		.uleb128 0x8
 11624 42fe B7040000 		.4byte	.LASF894
 11625 4302 41       		.byte	0x41
 11626 4303 0E       		.byte	0xe
 11627 4304 98430000 		.4byte	0x4398
 11628 4308 08       		.byte	0x8
 11629 4309 08       		.uleb128 0x8
 11630 430a 6D0C0000 		.4byte	.LASF895
 11631 430e 41       		.byte	0x41
 11632 430f 0F       		.byte	0xf
 11633 4310 98430000 		.4byte	0x4398
 11634 4314 0C       		.byte	0xc
 11635 4315 08       		.uleb128 0x8
 11636 4316 55020000 		.4byte	.LASF780
ARM GAS  C:\Users\adrie\AppData\Local\Temp\cc7EdWgE.s 			page 206


 11637 431a 41       		.byte	0x41
 11638 431b 10       		.byte	0x10
 11639 431c 98430000 		.4byte	0x4398
 11640 4320 10       		.byte	0x10
 11641 4321 08       		.uleb128 0x8
 11642 4322 43290000 		.4byte	.LASF896
 11643 4326 41       		.byte	0x41
 11644 4327 11       		.byte	0x11
 11645 4328 9E430000 		.4byte	0x439e
 11646 432c 14       		.byte	0x14
 11647 432d 00       		.byte	0
 11648 432e 04       		.uleb128 0x4
 11649 432f DC170000 		.4byte	.LASF897
 11650 4333 41       		.byte	0x41
 11651 4334 09       		.byte	0x9
 11652 4335 39430000 		.4byte	0x4339
 11653 4339 07       		.uleb128 0x7
 11654 433a 88120000 		.4byte	.LASF898
 11655 433e 18       		.byte	0x18
 11656 433f 41       		.byte	0x41
 11657 4340 2E       		.byte	0x2e
 11658 4341 98430000 		.4byte	0x4398
 11659 4345 18       		.uleb128 0x18
 11660 4346 696400   		.ascii	"id\000"
 11661 4349 41       		.byte	0x41
 11662 434a 2F       		.byte	0x2f
 11663 434b 0D110000 		.4byte	0x110d
 11664 434f 00       		.byte	0
 11665 4350 18       		.uleb128 0x18
 11666 4351 6E7300   		.ascii	"ns\000"
 11667 4354 41       		.byte	0x41
 11668 4355 30       		.byte	0x30
 11669 4356 98430000 		.4byte	0x4398
 11670 435a 04       		.byte	0x4
 11671 435b 08       		.uleb128 0x8
 11672 435c 55020000 		.4byte	.LASF780
 11673 4360 41       		.byte	0x41
 11674 4361 31       		.byte	0x31
 11675 4362 9E430000 		.4byte	0x439e
 11676 4366 08       		.byte	0x8
 11677 4367 08       		.uleb128 0x8
 11678 4368 BB210000 		.4byte	.LASF899
 11679 436c 41       		.byte	0x41
 11680 436d 32       		.byte	0x32
 11681 436e 2F160000 		.4byte	0x162f
 11682 4372 0C       		.byte	0xc
 11683 4373 08       		.uleb128 0x8
 11684 4374 35130000 		.4byte	.LASF900
 11685 4378 41       		.byte	0x41
 11686 4379 33       		.byte	0x33
 11687 437a 2F160000 		.4byte	0x162f
 11688 437e 0D       		.byte	0xd
 11689 437f 08       		.uleb128 0x8
 11690 4380 67080000 		.4byte	.LASF901
 11691 4384 41       		.byte	0x41
 11692 4385 34       		.byte	0x34
 11693 4386 CD000000 		.4byte	0xcd
ARM GAS  C:\Users\adrie\AppData\Local\Temp\cc7EdWgE.s 			page 207


 11694 438a 0E       		.byte	0xe
 11695 438b 08       		.uleb128 0x8
 11696 438c 480D0000 		.4byte	.LASF902
 11697 4390 41       		.byte	0x41
 11698 4391 3C       		.byte	0x3c
 11699 4392 39440000 		.4byte	0x4439
 11700 4396 10       		.byte	0x10
 11701 4397 00       		.byte	0
 11702 4398 0B       		.uleb128 0xb
 11703 4399 04       		.byte	0x4
 11704 439a CF420000 		.4byte	0x42cf
 11705 439e 0B       		.uleb128 0xb
 11706 439f 04       		.byte	0x4
 11707 43a0 2E430000 		.4byte	0x432e
 11708 43a4 07       		.uleb128 0x7
 11709 43a5 511A0000 		.4byte	.LASF903
 11710 43a9 08       		.byte	0x8
 11711 43aa 41       		.byte	0x41
 11712 43ab 14       		.byte	0x14
 11713 43ac D5430000 		.4byte	0x43d5
 11714 43b0 18       		.uleb128 0x18
 11715 43b1 62756600 		.ascii	"buf\000"
 11716 43b5 41       		.byte	0x41
 11717 43b6 15       		.byte	0x15
 11718 43b7 BE390000 		.4byte	0x39be
 11719 43bb 00       		.byte	0
 11720 43bc 08       		.uleb128 0x8
 11721 43bd E3280000 		.4byte	.LASF904
 11722 43c1 41       		.byte	0x41
 11723 43c2 16       		.byte	0x16
 11724 43c3 E8000000 		.4byte	0xe8
 11725 43c7 04       		.byte	0x4
 11726 43c8 18       		.uleb128 0x18
 11727 43c9 6C656E00 		.ascii	"len\000"
 11728 43cd 41       		.byte	0x41
 11729 43ce 17       		.byte	0x17
 11730 43cf E8000000 		.4byte	0xe8
 11731 43d3 06       		.byte	0x6
 11732 43d4 00       		.byte	0
 11733 43d5 07       		.uleb128 0x7
 11734 43d6 D0180000 		.4byte	.LASF905
 11735 43da 08       		.byte	0x8
 11736 43db 41       		.byte	0x41
 11737 43dc 1A       		.byte	0x1a
 11738 43dd 06440000 		.4byte	0x4406
 11739 43e1 18       		.uleb128 0x18
 11740 43e2 62756600 		.ascii	"buf\000"
 11741 43e6 41       		.byte	0x41
 11742 43e7 1B       		.byte	0x1b
 11743 43e8 06440000 		.4byte	0x4406
 11744 43ec 00       		.byte	0
 11745 43ed 08       		.uleb128 0x8
 11746 43ee F6090000 		.4byte	.LASF906
 11747 43f2 41       		.byte	0x41
 11748 43f3 1C       		.byte	0x1c
 11749 43f4 E8000000 		.4byte	0xe8
 11750 43f8 04       		.byte	0x4
ARM GAS  C:\Users\adrie\AppData\Local\Temp\cc7EdWgE.s 			page 208


 11751 43f9 18       		.uleb128 0x18
 11752 43fa 64696D00 		.ascii	"dim\000"
 11753 43fe 41       		.byte	0x41
 11754 43ff 1D       		.byte	0x1d
 11755 4400 E8000000 		.4byte	0xe8
 11756 4404 06       		.byte	0x6
 11757 4405 00       		.byte	0
 11758 4406 0B       		.uleb128 0xb
 11759 4407 04       		.byte	0x4
 11760 4408 25000000 		.4byte	0x25
 11761 440c 07       		.uleb128 0x7
 11762 440d CF100000 		.4byte	.LASF907
 11763 4411 08       		.byte	0x8
 11764 4412 41       		.byte	0x41
 11765 4413 20       		.byte	0x20
 11766 4414 39440000 		.4byte	0x4439
 11767 4418 18       		.uleb128 0x18
 11768 4419 62756600 		.ascii	"buf\000"
 11769 441d 41       		.byte	0x41
 11770 441e 21       		.byte	0x21
 11771 441f 06440000 		.4byte	0x4406
 11772 4423 00       		.byte	0
 11773 4424 18       		.uleb128 0x18
 11774 4425 6E00     		.ascii	"n\000"
 11775 4427 41       		.byte	0x41
 11776 4428 22       		.byte	0x22
 11777 4429 E8000000 		.4byte	0xe8
 11778 442d 04       		.byte	0x4
 11779 442e 18       		.uleb128 0x18
 11780 442f 6D00     		.ascii	"m\000"
 11781 4431 41       		.byte	0x41
 11782 4432 23       		.byte	0x23
 11783 4433 E8000000 		.4byte	0xe8
 11784 4437 06       		.byte	0x6
 11785 4438 00       		.byte	0
 11786 4439 1D       		.uleb128 0x1d
 11787 443a 08       		.byte	0x8
 11788 443b 41       		.byte	0x41
 11789 443c 35       		.byte	0x35
 11790 443d 7E440000 		.4byte	0x447e
 11791 4441 23       		.uleb128 0x23
 11792 4442 6200     		.ascii	"b\000"
 11793 4444 41       		.byte	0x41
 11794 4445 36       		.byte	0x36
 11795 4446 2F160000 		.4byte	0x162f
 11796 444a 23       		.uleb128 0x23
 11797 444b 7300     		.ascii	"s\000"
 11798 444d 41       		.byte	0x41
 11799 444e 37       		.byte	0x37
 11800 444f 25000000 		.4byte	0x25
 11801 4453 23       		.uleb128 0x23
 11802 4454 6900     		.ascii	"i\000"
 11803 4456 41       		.byte	0x41
 11804 4457 38       		.byte	0x38
 11805 4458 F3000000 		.4byte	0xf3
 11806 445c 23       		.uleb128 0x23
 11807 445d 73747200 		.ascii	"str\000"
ARM GAS  C:\Users\adrie\AppData\Local\Temp\cc7EdWgE.s 			page 209


 11808 4461 41       		.byte	0x41
 11809 4462 39       		.byte	0x39
 11810 4463 A4430000 		.4byte	0x43a4
 11811 4467 2A       		.uleb128 0x2a
 11812 4468 C1000000 		.4byte	.LASF908
 11813 446c 41       		.byte	0x41
 11814 446d 3A       		.byte	0x3a
 11815 446e D5430000 		.4byte	0x43d5
 11816 4472 23       		.uleb128 0x23
 11817 4473 6D617400 		.ascii	"mat\000"
 11818 4477 41       		.byte	0x41
 11819 4478 3B       		.byte	0x3b
 11820 4479 0C440000 		.4byte	0x440c
 11821 447d 00       		.byte	0
 11822 447e 30       		.uleb128 0x30
 11823 447f 62757300 		.ascii	"bus\000"
 11824 4483 42       		.byte	0x42
 11825 4484 0E       		.byte	0xe
 11826 4485 0D3B0000 		.4byte	0x3b0d
 11827 4489 16       		.uleb128 0x16
 11828 448a BF0E0000 		.4byte	.LASF909
 11829 448e 42       		.byte	0x42
 11830 448f 10       		.byte	0x10
 11831 4490 CF420000 		.4byte	0x42cf
 11832 4494 16       		.uleb128 0x16
 11833 4495 2B0A0000 		.4byte	.LASF910
 11834 4499 43       		.byte	0x43
 11835 449a 14       		.byte	0x14
 11836 449b D1350000 		.4byte	0x35d1
 11837 449f 16       		.uleb128 0x16
 11838 44a0 0D0B0000 		.4byte	.LASF911
 11839 44a4 43       		.byte	0x43
 11840 44a5 15       		.byte	0x15
 11841 44a6 07370000 		.4byte	0x3707
 11842 44aa 16       		.uleb128 0x16
 11843 44ab 83130000 		.4byte	.LASF912
 11844 44af 43       		.byte	0x43
 11845 44b0 16       		.byte	0x16
 11846 44b1 55360000 		.4byte	0x3655
 11847 44b5 04       		.uleb128 0x4
 11848 44b6 E7090000 		.4byte	.LASF913
 11849 44ba 44       		.byte	0x44
 11850 44bb 28       		.byte	0x28
 11851 44bc A7390000 		.4byte	0x39a7
 11852 44c0 04       		.uleb128 0x4
 11853 44c1 950D0000 		.4byte	.LASF914
 11854 44c5 44       		.byte	0x44
 11855 44c6 63       		.byte	0x63
 11856 44c7 B5440000 		.4byte	0x44b5
 11857 44cb 0B       		.uleb128 0xb
 11858 44cc 04       		.byte	0x4
 11859 44cd DD000000 		.4byte	0xdd
 11860 44d1 07       		.uleb128 0x7
 11861 44d2 6B030000 		.4byte	.LASF915
 11862 44d6 08       		.byte	0x8
 11863 44d7 45       		.byte	0x45
 11864 44d8 07       		.byte	0x7
ARM GAS  C:\Users\adrie\AppData\Local\Temp\cc7EdWgE.s 			page 210


 11865 44d9 F6440000 		.4byte	0x44f6
 11866 44dd 18       		.uleb128 0x18
 11867 44de 6D617800 		.ascii	"max\000"
 11868 44e2 45       		.byte	0x45
 11869 44e3 08       		.byte	0x8
 11870 44e4 2C000000 		.4byte	0x2c
 11871 44e8 00       		.byte	0
 11872 44e9 08       		.uleb128 0x8
 11873 44ea C5280000 		.4byte	.LASF916
 11874 44ee 45       		.byte	0x45
 11875 44ef 08       		.byte	0x8
 11876 44f0 2C000000 		.4byte	0x2c
 11877 44f4 04       		.byte	0x4
 11878 44f5 00       		.byte	0
 11879 44f6 04       		.uleb128 0x4
 11880 44f7 6B030000 		.4byte	.LASF915
 11881 44fb 45       		.byte	0x45
 11882 44fc 09       		.byte	0x9
 11883 44fd D1440000 		.4byte	0x44d1
 11884 4501 21       		.uleb128 0x21
 11885 4502 07       		.byte	0x7
 11886 4503 01       		.byte	0x1
 11887 4504 6C000000 		.4byte	0x6c
 11888 4508 45       		.byte	0x45
 11889 4509 0B       		.byte	0xb
 11890 450a 3F450000 		.4byte	0x453f
 11891 450e 22       		.uleb128 0x22
 11892 450f E9150000 		.4byte	.LASF917
 11893 4513 00       		.byte	0
 11894 4514 22       		.uleb128 0x22
 11895 4515 BF260000 		.4byte	.LASF918
 11896 4519 01       		.byte	0x1
 11897 451a 22       		.uleb128 0x22
 11898 451b 6E1F0000 		.4byte	.LASF919
 11899 451f 02       		.byte	0x2
 11900 4520 22       		.uleb128 0x22
 11901 4521 23150000 		.4byte	.LASF920
 11902 4525 03       		.byte	0x3
 11903 4526 22       		.uleb128 0x22
 11904 4527 211F0000 		.4byte	.LASF921
 11905 452b 04       		.byte	0x4
 11906 452c 22       		.uleb128 0x22
 11907 452d 2E0F0000 		.4byte	.LASF922
 11908 4531 05       		.byte	0x5
 11909 4532 22       		.uleb128 0x22
 11910 4533 16150000 		.4byte	.LASF923
 11911 4537 06       		.byte	0x6
 11912 4538 22       		.uleb128 0x22
 11913 4539 15240000 		.4byte	.LASF924
 11914 453d 07       		.byte	0x7
 11915 453e 00       		.byte	0
 11916 453f 04       		.uleb128 0x4
 11917 4540 221A0000 		.4byte	.LASF925
 11918 4544 45       		.byte	0x45
 11919 4545 16       		.byte	0x16
 11920 4546 01450000 		.4byte	0x4501
 11921 454a 21       		.uleb128 0x21
ARM GAS  C:\Users\adrie\AppData\Local\Temp\cc7EdWgE.s 			page 211


 11922 454b 07       		.byte	0x7
 11923 454c 01       		.byte	0x1
 11924 454d 6C000000 		.4byte	0x6c
 11925 4551 45       		.byte	0x45
 11926 4552 18       		.byte	0x18
 11927 4553 70450000 		.4byte	0x4570
 11928 4557 22       		.uleb128 0x22
 11929 4558 B2200000 		.4byte	.LASF926
 11930 455c 00       		.byte	0
 11931 455d 22       		.uleb128 0x22
 11932 455e E4230000 		.4byte	.LASF927
 11933 4562 01       		.byte	0x1
 11934 4563 22       		.uleb128 0x22
 11935 4564 EE0B0000 		.4byte	.LASF928
 11936 4568 02       		.byte	0x2
 11937 4569 22       		.uleb128 0x22
 11938 456a D0150000 		.4byte	.LASF929
 11939 456e 03       		.byte	0x3
 11940 456f 00       		.byte	0
 11941 4570 04       		.uleb128 0x4
 11942 4571 80160000 		.4byte	.LASF930
 11943 4575 45       		.byte	0x45
 11944 4576 1D       		.byte	0x1d
 11945 4577 4A450000 		.4byte	0x454a
 11946 457b 31       		.uleb128 0x31
 11947 457c A91A0000 		.4byte	.LASF1045
 11948 4580 05       		.byte	0x5
 11949 4581 01       		.byte	0x1
 11950 4582 5A000000 		.4byte	0x5a
 11951 4586 46       		.byte	0x46
 11952 4587 8202     		.2byte	0x282
 11953 4589 A6450000 		.4byte	0x45a6
 11954 458d 32       		.uleb128 0x32
 11955 458e 1B180000 		.4byte	.LASF931
 11956 4592 7F       		.sleb128 -1
 11957 4593 22       		.uleb128 0x22
 11958 4594 B5020000 		.4byte	.LASF932
 11959 4598 00       		.byte	0
 11960 4599 22       		.uleb128 0x22
 11961 459a FF210000 		.4byte	.LASF933
 11962 459e 01       		.byte	0x1
 11963 459f 22       		.uleb128 0x22
 11964 45a0 120A0000 		.4byte	.LASF934
 11965 45a4 02       		.byte	0x2
 11966 45a5 00       		.byte	0
 11967 45a6 15       		.uleb128 0x15
 11968 45a7 052A0000 		.4byte	.LASF935
 11969 45ab 46       		.byte	0x46
 11970 45ac 8D02     		.2byte	0x28d
 11971 45ae 7B450000 		.4byte	0x457b
 11972 45b2 21       		.uleb128 0x21
 11973 45b3 07       		.byte	0x7
 11974 45b4 01       		.byte	0x1
 11975 45b5 6C000000 		.4byte	0x6c
 11976 45b9 47       		.byte	0x47
 11977 45ba 0D       		.byte	0xd
 11978 45bb DE450000 		.4byte	0x45de
ARM GAS  C:\Users\adrie\AppData\Local\Temp\cc7EdWgE.s 			page 212


 11979 45bf 22       		.uleb128 0x22
 11980 45c0 CF1E0000 		.4byte	.LASF936
 11981 45c4 00       		.byte	0
 11982 45c5 22       		.uleb128 0x22
 11983 45c6 D41E0000 		.4byte	.LASF937
 11984 45ca 01       		.byte	0x1
 11985 45cb 22       		.uleb128 0x22
 11986 45cc D91E0000 		.4byte	.LASF938
 11987 45d0 02       		.byte	0x2
 11988 45d1 22       		.uleb128 0x22
 11989 45d2 DE1E0000 		.4byte	.LASF939
 11990 45d6 03       		.byte	0x3
 11991 45d7 22       		.uleb128 0x22
 11992 45d8 AB130000 		.4byte	.LASF940
 11993 45dc 04       		.byte	0x4
 11994 45dd 00       		.byte	0
 11995 45de 33       		.uleb128 0x33
 11996 45df 01160000 		.4byte	.LASF941
 11997 45e3 01       		.byte	0x1
 11998 45e4 10       		.byte	0x10
 11999 45e5 77120000 		.4byte	0x1277
 12000 45e9 05       		.uleb128 0x5
 12001 45ea 03       		.byte	0x3
 12002 45eb 00000000 		.4byte	sendToComputer_sem
 12003 45ef 33       		.uleb128 0x33
 12004 45f0 AF010000 		.4byte	.LASF942
 12005 45f4 01       		.byte	0x1
 12006 45f5 14       		.byte	0x14
 12007 45f6 2C000000 		.4byte	0x2c
 12008 45fa 05       		.uleb128 0x5
 12009 45fb 03       		.byte	0x3
 12010 45fc 00000000 		.4byte	angle
 12011 4600 34       		.uleb128 0x34
 12012 4601 DC220000 		.4byte	.LASF943
 12013 4605 01       		.byte	0x1
 12014 4606 15       		.byte	0x15
 12015 4607 33000000 		.4byte	0x33
 12016 460b 34       		.uleb128 0x34
 12017 460c 2F290000 		.4byte	.LASF944
 12018 4610 01       		.byte	0x1
 12019 4611 16       		.byte	0x16
 12020 4612 2C000000 		.4byte	0x2c
 12021 4616 33       		.uleb128 0x33
 12022 4617 4A120000 		.4byte	.LASF945
 12023 461b 01       		.byte	0x1
 12024 461c 17       		.byte	0x17
 12025 461d 2C000000 		.4byte	0x2c
 12026 4621 05       		.uleb128 0x5
 12027 4622 03       		.byte	0x3
 12028 4623 00000000 		.4byte	nbr_passage
 12029 4627 34       		.uleb128 0x34
 12030 4628 6A1E0000 		.4byte	.LASF946
 12031 462c 01       		.byte	0x1
 12032 462d 1A       		.byte	0x1a
 12033 462e CD000000 		.4byte	0xcd
 12034 4632 13       		.uleb128 0x13
 12035 4633 2C000000 		.4byte	0x2c
ARM GAS  C:\Users\adrie\AppData\Local\Temp\cc7EdWgE.s 			page 213


 12036 4637 48460000 		.4byte	0x4648
 12037 463b 14       		.uleb128 0x14
 12038 463c 45000000 		.4byte	0x45
 12039 4640 03       		.byte	0x3
 12040 4641 14       		.uleb128 0x14
 12041 4642 45000000 		.4byte	0x45
 12042 4646 02       		.byte	0x2
 12043 4647 00       		.byte	0
 12044 4648 33       		.uleb128 0x33
 12045 4649 49040000 		.4byte	.LASF947
 12046 464d 01       		.byte	0x1
 12047 464e 1D       		.byte	0x1d
 12048 464f 32460000 		.4byte	0x4632
 12049 4653 05       		.uleb128 0x5
 12050 4654 03       		.byte	0x3
 12051 4655 00000000 		.4byte	moyenne
 12052 4659 13       		.uleb128 0x13
 12053 465a 25000000 		.4byte	0x25
 12054 465e 6A460000 		.4byte	0x466a
 12055 4662 29       		.uleb128 0x29
 12056 4663 45000000 		.4byte	0x45
 12057 4667 FF07     		.2byte	0x7ff
 12058 4669 00       		.byte	0
 12059 466a 33       		.uleb128 0x33
 12060 466b FA030000 		.4byte	.LASF948
 12061 466f 01       		.byte	0x1
 12062 4670 20       		.byte	0x20
 12063 4671 59460000 		.4byte	0x4659
 12064 4675 05       		.uleb128 0x5
 12065 4676 03       		.byte	0x3
 12066 4677 00000000 		.4byte	micLeft_cmplx_input
 12067 467b 33       		.uleb128 0x33
 12068 467c 47250000 		.4byte	.LASF949
 12069 4680 01       		.byte	0x1
 12070 4681 21       		.byte	0x21
 12071 4682 59460000 		.4byte	0x4659
 12072 4686 05       		.uleb128 0x5
 12073 4687 03       		.byte	0x3
 12074 4688 00000000 		.4byte	micRight_cmplx_input
 12075 468c 33       		.uleb128 0x33
 12076 468d 25170000 		.4byte	.LASF950
 12077 4691 01       		.byte	0x1
 12078 4692 22       		.byte	0x22
 12079 4693 59460000 		.4byte	0x4659
 12080 4697 05       		.uleb128 0x5
 12081 4698 03       		.byte	0x3
 12082 4699 00000000 		.4byte	micFront_cmplx_input
 12083 469d 33       		.uleb128 0x33
 12084 469e FB0D0000 		.4byte	.LASF951
 12085 46a2 01       		.byte	0x1
 12086 46a3 23       		.byte	0x23
 12087 46a4 59460000 		.4byte	0x4659
 12088 46a8 05       		.uleb128 0x5
 12089 46a9 03       		.byte	0x3
 12090 46aa 00000000 		.4byte	micBack_cmplx_input
 12091 46ae 13       		.uleb128 0x13
 12092 46af 25000000 		.4byte	0x25
ARM GAS  C:\Users\adrie\AppData\Local\Temp\cc7EdWgE.s 			page 214


 12093 46b3 BF460000 		.4byte	0x46bf
 12094 46b7 29       		.uleb128 0x29
 12095 46b8 45000000 		.4byte	0x45
 12096 46bc FF03     		.2byte	0x3ff
 12097 46be 00       		.byte	0
 12098 46bf 33       		.uleb128 0x33
 12099 46c0 B80A0000 		.4byte	.LASF952
 12100 46c4 01       		.byte	0x1
 12101 46c5 25       		.byte	0x25
 12102 46c6 AE460000 		.4byte	0x46ae
 12103 46ca 05       		.uleb128 0x5
 12104 46cb 03       		.byte	0x3
 12105 46cc 00000000 		.4byte	micLeft_output
 12106 46d0 33       		.uleb128 0x33
 12107 46d1 1A280000 		.4byte	.LASF953
 12108 46d5 01       		.byte	0x1
 12109 46d6 26       		.byte	0x26
 12110 46d7 AE460000 		.4byte	0x46ae
 12111 46db 05       		.uleb128 0x5
 12112 46dc 03       		.byte	0x3
 12113 46dd 00000000 		.4byte	micRight_output
 12114 46e1 33       		.uleb128 0x33
 12115 46e2 84050000 		.4byte	.LASF954
 12116 46e6 01       		.byte	0x1
 12117 46e7 27       		.byte	0x27
 12118 46e8 AE460000 		.4byte	0x46ae
 12119 46ec 05       		.uleb128 0x5
 12120 46ed 03       		.byte	0x3
 12121 46ee 00000000 		.4byte	micFront_output
 12122 46f2 33       		.uleb128 0x33
 12123 46f3 6D050000 		.4byte	.LASF955
 12124 46f7 01       		.byte	0x1
 12125 46f8 28       		.byte	0x28
 12126 46f9 AE460000 		.4byte	0x46ae
 12127 46fd 05       		.uleb128 0x5
 12128 46fe 03       		.byte	0x3
 12129 46ff 00000000 		.4byte	micBack_output
 12130 4703 13       		.uleb128 0x13
 12131 4704 8C0D0000 		.4byte	0xd8c
 12132 4708 13470000 		.4byte	0x4713
 12133 470c 14       		.uleb128 0x14
 12134 470d 45000000 		.4byte	0x45
 12135 4711 4E       		.byte	0x4e
 12136 4712 00       		.byte	0
 12137 4713 35       		.uleb128 0x35
 12138 4714 9B180000 		.4byte	.LASF956
 12139 4718 01       		.byte	0x1
 12140 4719 7B02     		.2byte	0x27b
 12141 471b 03470000 		.4byte	0x4703
 12142 471f 05       		.uleb128 0x5
 12143 4720 03       		.byte	0x3
 12144 4721 00000000 		.4byte	waPiRegulator
 12145 4725 36       		.uleb128 0x36
 12146 4726 592A0000 		.4byte	.LASF1046
 12147 472a 01       		.byte	0x1
 12148 472b C302     		.2byte	0x2c3
 12149 472d 00000000 		.4byte	.LFB307
ARM GAS  C:\Users\adrie\AppData\Local\Temp\cc7EdWgE.s 			page 215


 12150 4731 38000000 		.4byte	.LFE307-.LFB307
 12151 4735 01       		.uleb128 0x1
 12152 4736 9C       		.byte	0x9c
 12153 4737 78470000 		.4byte	0x4778
 12154 473b 37       		.uleb128 0x37
 12155 473c 1C000000 		.4byte	.LVL304
 12156 4740 2E5B0000 		.4byte	0x5b2e
 12157 4744 6E470000 		.4byte	0x476e
 12158 4748 38       		.uleb128 0x38
 12159 4749 01       		.uleb128 0x1
 12160 474a 50       		.byte	0x50
 12161 474b 05       		.uleb128 0x5
 12162 474c 03       		.byte	0x3
 12163 474d 00000000 		.4byte	.LANCHOR9
 12164 4751 38       		.uleb128 0x38
 12165 4752 01       		.uleb128 0x1
 12166 4753 51       		.byte	0x51
 12167 4754 03       		.uleb128 0x3
 12168 4755 0A       		.byte	0xa
 12169 4756 7802     		.2byte	0x278
 12170 4758 38       		.uleb128 0x38
 12171 4759 01       		.uleb128 0x1
 12172 475a 52       		.byte	0x52
 12173 475b 02       		.uleb128 0x2
 12174 475c 08       		.byte	0x8
 12175 475d 40       		.byte	0x40
 12176 475e 38       		.uleb128 0x38
 12177 475f 01       		.uleb128 0x1
 12178 4760 53       		.byte	0x53
 12179 4761 05       		.uleb128 0x5
 12180 4762 03       		.byte	0x3
 12181 4763 00000000 		.4byte	PiRegulator
 12182 4767 38       		.uleb128 0x38
 12183 4768 02       		.uleb128 0x2
 12184 4769 7D       		.byte	0x7d
 12185 476a 00       		.sleb128 0
 12186 476b 01       		.uleb128 0x1
 12187 476c 30       		.byte	0x30
 12188 476d 00       		.byte	0
 12189 476e 39       		.uleb128 0x39
 12190 476f 2C000000 		.4byte	.LVL305
 12191 4773 395B0000 		.4byte	0x5b39
 12192 4777 00       		.byte	0
 12193 4778 3A       		.uleb128 0x3a
 12194 4779 E71A0000 		.4byte	.LASF1047
 12195 477d 01       		.byte	0x1
 12196 477e 7C02     		.2byte	0x27c
 12197 4780 00000000 		.4byte	.LFB306
 12198 4784 28020000 		.4byte	.LFE306-.LFB306
 12199 4788 01       		.uleb128 0x1
 12200 4789 9C       		.byte	0x9c
 12201 478a 4E4B0000 		.4byte	0x4b4e
 12202 478e 3B       		.uleb128 0x3b
 12203 478f 61726700 		.ascii	"arg\000"
 12204 4793 01       		.byte	0x1
 12205 4794 7C02     		.2byte	0x27c
 12206 4796 C8030000 		.4byte	0x3c8
ARM GAS  C:\Users\adrie\AppData\Local\Temp\cc7EdWgE.s 			page 216


 12207 479a 00000000 		.4byte	.LLST10
 12208 479e 3C       		.uleb128 0x3c
 12209 479f 23070000 		.4byte	.LASF957
 12210 47a3 5E4B0000 		.4byte	0x4b5e
 12211 47a7 05       		.uleb128 0x5
 12212 47a8 03       		.byte	0x3
 12213 47a9 00000000 		.4byte	__FUNCTION__.14351
 12214 47ad 3D       		.uleb128 0x3d
 12215 47ae 430D0000 		.4byte	.LASF958
 12216 47b2 01       		.byte	0x1
 12217 47b3 8102     		.2byte	0x281
 12218 47b5 A7010000 		.4byte	0x1a7
 12219 47b9 3E       		.uleb128 0x3e
 12220 47ba 0E220000 		.4byte	.LASF959
 12221 47be 01       		.byte	0x1
 12222 47bf 8302     		.2byte	0x283
 12223 47c1 DD000000 		.4byte	0xdd
 12224 47c5 00       		.byte	0
 12225 47c6 3F       		.uleb128 0x3f
 12226 47c7 591E0000 		.4byte	.LASF960
 12227 47cb 01       		.byte	0x1
 12228 47cc 8402     		.2byte	0x284
 12229 47ce DD000000 		.4byte	0xdd
 12230 47d2 21000000 		.4byte	.LLST11
 12231 47d6 3F       		.uleb128 0x3f
 12232 47d7 151D0000 		.4byte	.LASF961
 12233 47db 01       		.byte	0x1
 12234 47dc 8502     		.2byte	0x285
 12235 47de F3000000 		.4byte	0xf3
 12236 47e2 35000000 		.4byte	.LLST12
 12237 47e6 3E       		.uleb128 0x3e
 12238 47e7 1F270000 		.4byte	.LASF962
 12239 47eb 01       		.byte	0x1
 12240 47ec 8602     		.2byte	0x286
 12241 47ee DD000000 		.4byte	0xdd
 12242 47f2 00       		.byte	0
 12243 47f3 3F       		.uleb128 0x3f
 12244 47f4 902A0000 		.4byte	.LASF963
 12245 47f8 01       		.byte	0x1
 12246 47f9 8702     		.2byte	0x287
 12247 47fb F3000000 		.4byte	0xf3
 12248 47ff 5F000000 		.4byte	.LLST13
 12249 4803 3F       		.uleb128 0x3f
 12250 4804 A3080000 		.4byte	.LASF964
 12251 4808 01       		.byte	0x1
 12252 4809 8802     		.2byte	0x288
 12253 480b 53000000 		.4byte	0x53
 12254 480f AC000000 		.4byte	.LLST14
 12255 4813 40       		.uleb128 0x40
 12256 4814 38000000 		.4byte	.Ldebug_ranges0+0x38
 12257 4818 374B0000 		.4byte	0x4b37
 12258 481c 3D       		.uleb128 0x3d
 12259 481d AF010000 		.4byte	.LASF942
 12260 4821 01       		.byte	0x1
 12261 4822 A102     		.2byte	0x2a1
 12262 4824 2C000000 		.4byte	0x2c
 12263 4828 41       		.uleb128 0x41
ARM GAS  C:\Users\adrie\AppData\Local\Temp\cc7EdWgE.s 			page 217


 12264 4829 FA4D0000 		.4byte	0x4dfa
 12265 482d 18000000 		.4byte	.LBB193
 12266 4831 58000000 		.4byte	.Ldebug_ranges0+0x58
 12267 4835 01       		.byte	0x1
 12268 4836 9002     		.2byte	0x290
 12269 4838 68480000 		.4byte	0x4868
 12270 483c 42       		.uleb128 0x42
 12271 483d 0B4E0000 		.4byte	0x4e0b
 12272 4841 F0000000 		.4byte	.LLST15
 12273 4845 43       		.uleb128 0x43
 12274 4846 58000000 		.4byte	.Ldebug_ranges0+0x58
 12275 484a 44       		.uleb128 0x44
 12276 484b 174E0000 		.4byte	0x4e17
 12277 484f 04010000 		.4byte	.LLST16
 12278 4853 45       		.uleb128 0x45
 12279 4854 234E0000 		.4byte	0x4e23
 12280 4858 90000000 		.4byte	.Ldebug_ranges0+0x90
 12281 485c 44       		.uleb128 0x44
 12282 485d 244E0000 		.4byte	0x4e24
 12283 4861 17010000 		.4byte	.LLST17
 12284 4865 00       		.byte	0
 12285 4866 00       		.byte	0
 12286 4867 00       		.byte	0
 12287 4868 41       		.uleb128 0x41
 12288 4869 634B0000 		.4byte	0x4b63
 12289 486d 1A000000 		.4byte	.LBB204
 12290 4871 B8000000 		.4byte	.Ldebug_ranges0+0xb8
 12291 4875 01       		.byte	0x1
 12292 4876 9E02     		.2byte	0x29e
 12293 4878 B2480000 		.4byte	0x48b2
 12294 487c 42       		.uleb128 0x42
 12295 487d 804B0000 		.4byte	0x4b80
 12296 4881 2B010000 		.4byte	.LLST18
 12297 4885 42       		.uleb128 0x42
 12298 4886 744B0000 		.4byte	0x4b74
 12299 488a 53010000 		.4byte	.LLST19
 12300 488e 43       		.uleb128 0x43
 12301 488f B8000000 		.4byte	.Ldebug_ranges0+0xb8
 12302 4893 44       		.uleb128 0x44
 12303 4894 8C4B0000 		.4byte	0x4b8c
 12304 4898 6B010000 		.4byte	.LLST20
 12305 489c 44       		.uleb128 0x44
 12306 489d 984B0000 		.4byte	0x4b98
 12307 48a1 B3010000 		.4byte	.LLST21
 12308 48a5 46       		.uleb128 0x46
 12309 48a6 A44B0000 		.4byte	0x4ba4
 12310 48aa 05       		.uleb128 0x5
 12311 48ab 03       		.byte	0x3
 12312 48ac 00000000 		.4byte	sum_error.14346
 12313 48b0 00       		.byte	0
 12314 48b1 00       		.byte	0
 12315 48b2 47       		.uleb128 0x47
 12316 48b3 C04E0000 		.4byte	0x4ec0
 12317 48b7 5C000000 		.4byte	.LBB208
 12318 48bb 2C000000 		.4byte	.LBE208-.LBB208
 12319 48bf 01       		.byte	0x1
 12320 48c0 9E02     		.2byte	0x29e
ARM GAS  C:\Users\adrie\AppData\Local\Temp\cc7EdWgE.s 			page 218


 12321 48c2 FA480000 		.4byte	0x48fa
 12322 48c6 42       		.uleb128 0x42
 12323 48c7 DD4E0000 		.4byte	0x4edd
 12324 48cb DB010000 		.4byte	.LLST22
 12325 48cf 42       		.uleb128 0x42
 12326 48d0 D14E0000 		.4byte	0x4ed1
 12327 48d4 EE010000 		.4byte	.LLST23
 12328 48d8 48       		.uleb128 0x48
 12329 48d9 5C000000 		.4byte	.LBB209
 12330 48dd 2C000000 		.4byte	.LBE209-.LBB209
 12331 48e1 44       		.uleb128 0x44
 12332 48e2 E94E0000 		.4byte	0x4ee9
 12333 48e6 01020000 		.4byte	.LLST24
 12334 48ea 49       		.uleb128 0x49
 12335 48eb F54E0000 		.4byte	0x4ef5
 12336 48ef 39       		.uleb128 0x39
 12337 48f0 88000000 		.4byte	.LVL38
 12338 48f4 425B0000 		.4byte	0x5b42
 12339 48f8 00       		.byte	0
 12340 48f9 00       		.byte	0
 12341 48fa 47       		.uleb128 0x47
 12342 48fb 5E560000 		.4byte	0x565e
 12343 48ff E4000000 		.4byte	.LBB211
 12344 4903 3A000000 		.4byte	.LBE211-.LBB211
 12345 4907 01       		.byte	0x1
 12346 4908 8D02     		.2byte	0x28d
 12347 490a F5490000 		.4byte	0x49f5
 12348 490e 48       		.uleb128 0x48
 12349 490f E4000000 		.4byte	.LBB212
 12350 4913 3A000000 		.4byte	.LBE212-.LBB212
 12351 4917 49       		.uleb128 0x49
 12352 4918 6E560000 		.4byte	0x566e
 12353 491c 4A       		.uleb128 0x4a
 12354 491d A1560000 		.4byte	0x56a1
 12355 4921 E4000000 		.4byte	.LBB213
 12356 4925 0E000000 		.4byte	.LBE213-.LBB213
 12357 4929 06       		.byte	0x6
 12358 492a FA       		.byte	0xfa
 12359 492b 71490000 		.4byte	0x4971
 12360 492f 47       		.uleb128 0x47
 12361 4930 B3560000 		.4byte	0x56b3
 12362 4934 E4000000 		.4byte	.LBB215
 12363 4938 06000000 		.4byte	.LBE215-.LBB215
 12364 493c 05       		.byte	0x5
 12365 493d 5C01     		.2byte	0x15c
 12366 493f 5E490000 		.4byte	0x495e
 12367 4943 4B       		.uleb128 0x4b
 12368 4944 BC560000 		.4byte	0x56bc
 12369 4948 E4000000 		.4byte	.LBB216
 12370 494c 06000000 		.4byte	.LBE216-.LBB216
 12371 4950 12       		.byte	0x12
 12372 4951 BF01     		.2byte	0x1bf
 12373 4953 42       		.uleb128 0x42
 12374 4954 C9560000 		.4byte	0x56c9
 12375 4958 1A020000 		.4byte	.LLST25
 12376 495c 00       		.byte	0
 12377 495d 00       		.byte	0
ARM GAS  C:\Users\adrie\AppData\Local\Temp\cc7EdWgE.s 			page 219


 12378 495e 39       		.uleb128 0x39
 12379 495f EE000000 		.4byte	.LVL48
 12380 4963 4D5B0000 		.4byte	0x5b4d
 12381 4967 39       		.uleb128 0x39
 12382 4968 F2000000 		.4byte	.LVL49
 12383 496c 585B0000 		.4byte	0x5b58
 12384 4970 00       		.byte	0
 12385 4971 4C       		.uleb128 0x4c
 12386 4972 7A560000 		.4byte	0x567a
 12387 4976 F2000000 		.4byte	.LBB218
 12388 497a 04000000 		.4byte	.LBE218-.LBB218
 12389 497e 06       		.byte	0x6
 12390 497f FB       		.byte	0xfb
 12391 4980 4D       		.uleb128 0x4d
 12392 4981 86560000 		.4byte	0x5686
 12393 4985 F6000000 		.4byte	.LBB220
 12394 4989 28000000 		.4byte	.LBE220-.LBB220
 12395 498d 06       		.byte	0x6
 12396 498e FC       		.byte	0xfc
 12397 498f 48       		.uleb128 0x48
 12398 4990 F6000000 		.4byte	.LBB221
 12399 4994 28000000 		.4byte	.LBE221-.LBB221
 12400 4998 49       		.uleb128 0x49
 12401 4999 93560000 		.4byte	0x5693
 12402 499d 47       		.uleb128 0x47
 12403 499e AA560000 		.4byte	0x56aa
 12404 49a2 18010000 		.4byte	.LBB222
 12405 49a6 06000000 		.4byte	.LBE222-.LBB222
 12406 49aa 05       		.byte	0x5
 12407 49ab 7301     		.2byte	0x173
 12408 49ad CC490000 		.4byte	0x49cc
 12409 49b1 4B       		.uleb128 0x4b
 12410 49b2 BC560000 		.4byte	0x56bc
 12411 49b6 18010000 		.4byte	.LBB223
 12412 49ba 06000000 		.4byte	.LBE223-.LBB223
 12413 49be 12       		.byte	0x12
 12414 49bf CD01     		.2byte	0x1cd
 12415 49c1 42       		.uleb128 0x42
 12416 49c2 C9560000 		.4byte	0x56c9
 12417 49c6 2F020000 		.4byte	.LLST26
 12418 49ca 00       		.byte	0
 12419 49cb 00       		.byte	0
 12420 49cc 39       		.uleb128 0x39
 12421 49cd FA000000 		.4byte	.LVL50
 12422 49d1 635B0000 		.4byte	0x5b63
 12423 49d5 39       		.uleb128 0x39
 12424 49d6 FE000000 		.4byte	.LVL51
 12425 49da 6E5B0000 		.4byte	0x5b6e
 12426 49de 4E       		.uleb128 0x4e
 12427 49df 18010000 		.4byte	.LVL52
 12428 49e3 795B0000 		.4byte	0x5b79
 12429 49e7 38       		.uleb128 0x38
 12430 49e8 01       		.uleb128 0x1
 12431 49e9 50       		.byte	0x50
 12432 49ea 05       		.uleb128 0x5
 12433 49eb 03       		.byte	0x3
 12434 49ec 00000000 		.4byte	.LANCHOR1
ARM GAS  C:\Users\adrie\AppData\Local\Temp\cc7EdWgE.s 			page 220


 12435 49f0 00       		.byte	0
 12436 49f1 00       		.byte	0
 12437 49f2 00       		.byte	0
 12438 49f3 00       		.byte	0
 12439 49f4 00       		.byte	0
 12440 49f5 41       		.uleb128 0x41
 12441 49f6 FA4D0000 		.4byte	0x4dfa
 12442 49fa 1E010000 		.4byte	.LBB225
 12443 49fe D8000000 		.4byte	.Ldebug_ranges0+0xd8
 12444 4a02 01       		.byte	0x1
 12445 4a03 9002     		.2byte	0x290
 12446 4a05 314A0000 		.4byte	0x4a31
 12447 4a09 4F       		.uleb128 0x4f
 12448 4a0a 0B4E0000 		.4byte	0x4e0b
 12449 4a0e 43       		.uleb128 0x43
 12450 4a0f D8000000 		.4byte	.Ldebug_ranges0+0xd8
 12451 4a13 44       		.uleb128 0x44
 12452 4a14 174E0000 		.4byte	0x4e17
 12453 4a18 43020000 		.4byte	.LLST27
 12454 4a1c 45       		.uleb128 0x45
 12455 4a1d 234E0000 		.4byte	0x4e23
 12456 4a21 10010000 		.4byte	.Ldebug_ranges0+0x110
 12457 4a25 44       		.uleb128 0x44
 12458 4a26 244E0000 		.4byte	0x4e24
 12459 4a2a 5A020000 		.4byte	.LLST28
 12460 4a2e 00       		.byte	0
 12461 4a2f 00       		.byte	0
 12462 4a30 00       		.byte	0
 12463 4a31 41       		.uleb128 0x41
 12464 4a32 FA4D0000 		.4byte	0x4dfa
 12465 4a36 32010000 		.4byte	.LBB243
 12466 4a3a 38010000 		.4byte	.Ldebug_ranges0+0x138
 12467 4a3e 01       		.byte	0x1
 12468 4a3f 9002     		.2byte	0x290
 12469 4a41 714A0000 		.4byte	0x4a71
 12470 4a45 42       		.uleb128 0x42
 12471 4a46 0B4E0000 		.4byte	0x4e0b
 12472 4a4a 6E020000 		.4byte	.LLST29
 12473 4a4e 43       		.uleb128 0x43
 12474 4a4f 38010000 		.4byte	.Ldebug_ranges0+0x138
 12475 4a53 44       		.uleb128 0x44
 12476 4a54 174E0000 		.4byte	0x4e17
 12477 4a58 82020000 		.4byte	.LLST30
 12478 4a5c 45       		.uleb128 0x45
 12479 4a5d 234E0000 		.4byte	0x4e23
 12480 4a61 60010000 		.4byte	.Ldebug_ranges0+0x160
 12481 4a65 44       		.uleb128 0x44
 12482 4a66 244E0000 		.4byte	0x4e24
 12483 4a6a 99020000 		.4byte	.LLST31
 12484 4a6e 00       		.byte	0
 12485 4a6f 00       		.byte	0
 12486 4a70 00       		.byte	0
 12487 4a71 41       		.uleb128 0x41
 12488 4a72 FA4D0000 		.4byte	0x4dfa
 12489 4a76 4E010000 		.4byte	.LBB256
 12490 4a7a 80010000 		.4byte	.Ldebug_ranges0+0x180
 12491 4a7e 01       		.byte	0x1
ARM GAS  C:\Users\adrie\AppData\Local\Temp\cc7EdWgE.s 			page 221


 12492 4a7f 9002     		.2byte	0x290
 12493 4a81 B14A0000 		.4byte	0x4ab1
 12494 4a85 42       		.uleb128 0x42
 12495 4a86 0B4E0000 		.4byte	0x4e0b
 12496 4a8a AD020000 		.4byte	.LLST32
 12497 4a8e 43       		.uleb128 0x43
 12498 4a8f 80010000 		.4byte	.Ldebug_ranges0+0x180
 12499 4a93 44       		.uleb128 0x44
 12500 4a94 174E0000 		.4byte	0x4e17
 12501 4a98 C1020000 		.4byte	.LLST33
 12502 4a9c 45       		.uleb128 0x45
 12503 4a9d 234E0000 		.4byte	0x4e23
 12504 4aa1 A8010000 		.4byte	.Ldebug_ranges0+0x1a8
 12505 4aa5 44       		.uleb128 0x44
 12506 4aa6 244E0000 		.4byte	0x4e24
 12507 4aaa AD020000 		.4byte	.LLST32
 12508 4aae 00       		.byte	0
 12509 4aaf 00       		.byte	0
 12510 4ab0 00       		.byte	0
 12511 4ab1 37       		.uleb128 0x37
 12512 4ab2 D4000000 		.4byte	.LVL44
 12513 4ab6 B7570000 		.4byte	0x57b7
 12514 4aba D64A0000 		.4byte	0x4ad6
 12515 4abe 38       		.uleb128 0x38
 12516 4abf 01       		.uleb128 0x1
 12517 4ac0 51       		.byte	0x51
 12518 4ac1 05       		.uleb128 0x5
 12519 4ac2 03       		.byte	0x3
 12520 4ac3 00000000 		.4byte	.LC0
 12521 4ac7 38       		.uleb128 0x38
 12522 4ac8 01       		.uleb128 0x1
 12523 4ac9 52       		.byte	0x52
 12524 4aca 02       		.uleb128 0x2
 12525 4acb 76       		.byte	0x76
 12526 4acc 00       		.sleb128 0
 12527 4acd 38       		.uleb128 0x38
 12528 4ace 02       		.uleb128 0x2
 12529 4acf 7D       		.byte	0x7d
 12530 4ad0 00       		.sleb128 0
 12531 4ad1 03       		.uleb128 0x3
 12532 4ad2 F5       		.byte	0xf5
 12533 4ad3 50       		.uleb128 0x50
 12534 4ad4 33       		.uleb128 0x33
 12535 4ad5 00       		.byte	0
 12536 4ad6 37       		.uleb128 0x37
 12537 4ad7 E4000000 		.4byte	.LVL46
 12538 4adb 855B0000 		.4byte	0x5b85
 12539 4adf F04A0000 		.4byte	0x4af0
 12540 4ae3 38       		.uleb128 0x38
 12541 4ae4 01       		.uleb128 0x1
 12542 4ae5 50       		.byte	0x50
 12543 4ae6 02       		.uleb128 0x2
 12544 4ae7 74       		.byte	0x74
 12545 4ae8 00       		.sleb128 0
 12546 4ae9 38       		.uleb128 0x38
 12547 4aea 01       		.uleb128 0x1
 12548 4aeb 51       		.byte	0x51
ARM GAS  C:\Users\adrie\AppData\Local\Temp\cc7EdWgE.s 			page 222


 12549 4aec 02       		.uleb128 0x2
 12550 4aed 74       		.byte	0x74
 12551 4aee 0A       		.sleb128 10
 12552 4aef 00       		.byte	0
 12553 4af0 37       		.uleb128 0x37
 12554 4af1 9C010000 		.4byte	.LVL61
 12555 4af5 B7570000 		.4byte	0x57b7
 12556 4af9 144B0000 		.4byte	0x4b14
 12557 4afd 38       		.uleb128 0x38
 12558 4afe 01       		.uleb128 0x1
 12559 4aff 51       		.byte	0x51
 12560 4b00 05       		.uleb128 0x5
 12561 4b01 03       		.byte	0x3
 12562 4b02 00000000 		.4byte	.LC0
 12563 4b06 38       		.uleb128 0x38
 12564 4b07 01       		.uleb128 0x1
 12565 4b08 52       		.byte	0x52
 12566 4b09 01       		.uleb128 0x1
 12567 4b0a 30       		.byte	0x30
 12568 4b0b 38       		.uleb128 0x38
 12569 4b0c 02       		.uleb128 0x2
 12570 4b0d 7D       		.byte	0x7d
 12571 4b0e 00       		.sleb128 0
 12572 4b0f 03       		.uleb128 0x3
 12573 4b10 F5       		.byte	0xf5
 12574 4b11 50       		.uleb128 0x50
 12575 4b12 33       		.uleb128 0x33
 12576 4b13 00       		.byte	0
 12577 4b14 37       		.uleb128 0x37
 12578 4b15 A4010000 		.4byte	.LVL63
 12579 4b19 905B0000 		.4byte	0x5b90
 12580 4b1d 274B0000 		.4byte	0x4b27
 12581 4b21 38       		.uleb128 0x38
 12582 4b22 01       		.uleb128 0x1
 12583 4b23 50       		.byte	0x50
 12584 4b24 01       		.uleb128 0x1
 12585 4b25 30       		.byte	0x30
 12586 4b26 00       		.byte	0
 12587 4b27 4E       		.uleb128 0x4e
 12588 4b28 AA010000 		.4byte	.LVL64
 12589 4b2c 9B5B0000 		.4byte	0x5b9b
 12590 4b30 38       		.uleb128 0x38
 12591 4b31 01       		.uleb128 0x1
 12592 4b32 50       		.byte	0x50
 12593 4b33 01       		.uleb128 0x1
 12594 4b34 30       		.byte	0x30
 12595 4b35 00       		.byte	0
 12596 4b36 00       		.byte	0
 12597 4b37 50       		.uleb128 0x50
 12598 4b38 46560000 		.4byte	0x5646
 12599 4b3c 08000000 		.4byte	.LBB187
 12600 4b40 18000000 		.4byte	.Ldebug_ranges0+0x18
 12601 4b44 01       		.byte	0x1
 12602 4b45 7E02     		.2byte	0x27e
 12603 4b47 4F       		.uleb128 0x4f
 12604 4b48 52560000 		.4byte	0x5652
 12605 4b4c 00       		.byte	0
ARM GAS  C:\Users\adrie\AppData\Local\Temp\cc7EdWgE.s 			page 223


 12606 4b4d 00       		.byte	0
 12607 4b4e 13       		.uleb128 0x13
 12608 4b4f 1F110000 		.4byte	0x111f
 12609 4b53 5E4B0000 		.4byte	0x4b5e
 12610 4b57 14       		.uleb128 0x14
 12611 4b58 45000000 		.4byte	0x45
 12612 4b5c 0B       		.byte	0xb
 12613 4b5d 00       		.byte	0
 12614 4b5e 05       		.uleb128 0x5
 12615 4b5f 4E4B0000 		.4byte	0x4b4e
 12616 4b63 51       		.uleb128 0x51
 12617 4b64 3E030000 		.4byte	.LASF976
 12618 4b68 01       		.byte	0x1
 12619 4b69 5C02     		.2byte	0x25c
 12620 4b6b DD000000 		.4byte	0xdd
 12621 4b6f 01       		.byte	0x1
 12622 4b70 B14B0000 		.4byte	0x4bb1
 12623 4b74 52       		.uleb128 0x52
 12624 4b75 DC220000 		.4byte	.LASF943
 12625 4b79 01       		.byte	0x1
 12626 4b7a 5C02     		.2byte	0x25c
 12627 4b7c 25000000 		.4byte	0x25
 12628 4b80 52       		.uleb128 0x52
 12629 4b81 450C0000 		.4byte	.LASF965
 12630 4b85 01       		.byte	0x1
 12631 4b86 5C02     		.2byte	0x25c
 12632 4b88 25000000 		.4byte	0x25
 12633 4b8c 3D       		.uleb128 0x3d
 12634 4b8d 1C250000 		.4byte	.LASF966
 12635 4b91 01       		.byte	0x1
 12636 4b92 5E02     		.2byte	0x25e
 12637 4b94 25000000 		.4byte	0x25
 12638 4b98 3D       		.uleb128 0x3d
 12639 4b99 0E220000 		.4byte	.LASF959
 12640 4b9d 01       		.byte	0x1
 12641 4b9e 5F02     		.2byte	0x25f
 12642 4ba0 25000000 		.4byte	0x25
 12643 4ba4 3D       		.uleb128 0x3d
 12644 4ba5 3B1D0000 		.4byte	.LASF967
 12645 4ba9 01       		.byte	0x1
 12646 4baa 6102     		.2byte	0x261
 12647 4bac 25000000 		.4byte	0x25
 12648 4bb0 00       		.byte	0
 12649 4bb1 53       		.uleb128 0x53
 12650 4bb2 8C260000 		.4byte	.LASF968
 12651 4bb6 01       		.byte	0x1
 12652 4bb7 5602     		.2byte	0x256
 12653 4bb9 25000000 		.4byte	0x25
 12654 4bbd 00000000 		.4byte	.LFB304
 12655 4bc1 28000000 		.4byte	.LFE304-.LFB304
 12656 4bc5 01       		.uleb128 0x1
 12657 4bc6 9C       		.byte	0x9c
 12658 4bc7 D54B0000 		.4byte	0x4bd5
 12659 4bcb 39       		.uleb128 0x39
 12660 4bcc 20000000 		.4byte	.LVL294
 12661 4bd0 395B0000 		.4byte	0x5b39
 12662 4bd4 00       		.byte	0
ARM GAS  C:\Users\adrie\AppData\Local\Temp\cc7EdWgE.s 			page 224


 12663 4bd5 54       		.uleb128 0x54
 12664 4bd6 31020000 		.4byte	.LASF1048
 12665 4bda 01       		.byte	0x1
 12666 4bdb 5202     		.2byte	0x252
 12667 4bdd 2C000000 		.4byte	0x2c
 12668 4be1 01       		.byte	0x1
 12669 4be2 53       		.uleb128 0x53
 12670 4be3 0D230000 		.4byte	.LASF969
 12671 4be7 01       		.byte	0x1
 12672 4be8 4E02     		.2byte	0x24e
 12673 4bea 2C000000 		.4byte	0x2c
 12674 4bee 00000000 		.4byte	.LFB302
 12675 4bf2 3C000000 		.4byte	.LFE302-.LFB302
 12676 4bf6 01       		.uleb128 0x1
 12677 4bf7 9C       		.byte	0x9c
 12678 4bf8 424C0000 		.4byte	0x4c42
 12679 4bfc 41       		.uleb128 0x41
 12680 4bfd FA4D0000 		.4byte	0x4dfa
 12681 4c01 02000000 		.4byte	.LBB439
 12682 4c05 38040000 		.4byte	.Ldebug_ranges0+0x438
 12683 4c09 01       		.byte	0x1
 12684 4c0a 4F02     		.2byte	0x24f
 12685 4c0c 384C0000 		.4byte	0x4c38
 12686 4c10 42       		.uleb128 0x42
 12687 4c11 0B4E0000 		.4byte	0x4e0b
 12688 4c15 D8020000 		.4byte	.LLST101
 12689 4c19 43       		.uleb128 0x43
 12690 4c1a 38040000 		.4byte	.Ldebug_ranges0+0x438
 12691 4c1e 44       		.uleb128 0x44
 12692 4c1f 86580000 		.4byte	0x5886
 12693 4c23 EC020000 		.4byte	.LLST102
 12694 4c27 45       		.uleb128 0x45
 12695 4c28 8B580000 		.4byte	0x588b
 12696 4c2c 68040000 		.4byte	.Ldebug_ranges0+0x468
 12697 4c30 49       		.uleb128 0x49
 12698 4c31 94580000 		.4byte	0x5894
 12699 4c35 00       		.byte	0
 12700 4c36 00       		.byte	0
 12701 4c37 00       		.byte	0
 12702 4c38 39       		.uleb128 0x39
 12703 4c39 30000000 		.4byte	.LVL292
 12704 4c3d 395B0000 		.4byte	0x5b39
 12705 4c41 00       		.byte	0
 12706 4c42 55       		.uleb128 0x55
 12707 4c43 E31E0000 		.4byte	.LASF978
 12708 4c47 01       		.byte	0x1
 12709 4c48 4402     		.2byte	0x244
 12710 4c4a 00000000 		.4byte	.LFB301
 12711 4c4e 20000000 		.4byte	.LFE301-.LFB301
 12712 4c52 01       		.uleb128 0x1
 12713 4c53 9C       		.byte	0x9c
 12714 4c54 724C0000 		.4byte	0x4c72
 12715 4c58 56       		.uleb128 0x56
 12716 4c59 240D0000 		.4byte	.LASF970
 12717 4c5d 01       		.byte	0x1
 12718 4c5e 4402     		.2byte	0x244
 12719 4c60 2C000000 		.4byte	0x2c
ARM GAS  C:\Users\adrie\AppData\Local\Temp\cc7EdWgE.s 			page 225


 12720 4c64 FF020000 		.4byte	.LLST100
 12721 4c68 39       		.uleb128 0x39
 12722 4c69 1C000000 		.4byte	.LVL289
 12723 4c6d 395B0000 		.4byte	0x5b39
 12724 4c71 00       		.byte	0
 12725 4c72 57       		.uleb128 0x57
 12726 4c73 5A050000 		.4byte	.LASF984
 12727 4c77 01       		.byte	0x1
 12728 4c78 DF01     		.2byte	0x1df
 12729 4c7a 01       		.byte	0x1
 12730 4c7b B04C0000 		.4byte	0x4cb0
 12731 4c7f 52       		.uleb128 0x52
 12732 4c80 220E0000 		.4byte	.LASF971
 12733 4c84 01       		.byte	0x1
 12734 4c85 DF01     		.2byte	0x1df
 12735 4c87 2C000000 		.4byte	0x2c
 12736 4c8b 52       		.uleb128 0x52
 12737 4c8c 69000000 		.4byte	.LASF972
 12738 4c90 01       		.byte	0x1
 12739 4c91 DF01     		.2byte	0x1df
 12740 4c93 2C000000 		.4byte	0x2c
 12741 4c97 52       		.uleb128 0x52
 12742 4c98 941D0000 		.4byte	.LASF973
 12743 4c9c 01       		.byte	0x1
 12744 4c9d DF01     		.2byte	0x1df
 12745 4c9f 2C000000 		.4byte	0x2c
 12746 4ca3 52       		.uleb128 0x52
 12747 4ca4 9A200000 		.4byte	.LASF974
 12748 4ca8 01       		.byte	0x1
 12749 4ca9 DF01     		.2byte	0x1df
 12750 4cab 2C000000 		.4byte	0x2c
 12751 4caf 00       		.byte	0
 12752 4cb0 53       		.uleb128 0x53
 12753 4cb1 0C1F0000 		.4byte	.LASF975
 12754 4cb5 01       		.byte	0x1
 12755 4cb6 C001     		.2byte	0x1c0
 12756 4cb8 06440000 		.4byte	0x4406
 12757 4cbc 00000000 		.4byte	.LFB299
 12758 4cc0 80000000 		.4byte	.LFE299-.LFB299
 12759 4cc4 01       		.uleb128 0x1
 12760 4cc5 9C       		.byte	0x9c
 12761 4cc6 E44C0000 		.4byte	0x4ce4
 12762 4cca 56       		.uleb128 0x56
 12763 4ccb 49260000 		.4byte	.LASF777
 12764 4ccf 01       		.byte	0x1
 12765 4cd0 C001     		.2byte	0x1c0
 12766 4cd2 3F450000 		.4byte	0x453f
 12767 4cd6 20030000 		.4byte	.LLST62
 12768 4cda 39       		.uleb128 0x39
 12769 4cdb 5C000000 		.4byte	.LVL206
 12770 4cdf 395B0000 		.4byte	0x5b39
 12771 4ce3 00       		.byte	0
 12772 4ce4 51       		.uleb128 0x51
 12773 4ce5 57190000 		.4byte	.LASF977
 12774 4ce9 01       		.byte	0x1
 12775 4cea AC01     		.2byte	0x1ac
 12776 4cec F6440000 		.4byte	0x44f6
ARM GAS  C:\Users\adrie\AppData\Local\Temp\cc7EdWgE.s 			page 226


 12777 4cf0 01       		.byte	0x1
 12778 4cf1 0E4D0000 		.4byte	0x4d0e
 12779 4cf5 52       		.uleb128 0x52
 12780 4cf6 49260000 		.4byte	.LASF777
 12781 4cfa 01       		.byte	0x1
 12782 4cfb AC01     		.2byte	0x1ac
 12783 4cfd 3F450000 		.4byte	0x453f
 12784 4d01 58       		.uleb128 0x58
 12785 4d02 59       		.uleb128 0x59
 12786 4d03 6100     		.ascii	"a\000"
 12787 4d05 01       		.byte	0x1
 12788 4d06 BB01     		.2byte	0x1bb
 12789 4d08 F6440000 		.4byte	0x44f6
 12790 4d0c 00       		.byte	0
 12791 4d0d 00       		.byte	0
 12792 4d0e 55       		.uleb128 0x55
 12793 4d0f 5B0E0000 		.4byte	.LASF979
 12794 4d13 01       		.byte	0x1
 12795 4d14 A801     		.2byte	0x1a8
 12796 4d16 00000000 		.4byte	.LFB297
 12797 4d1a 2C000000 		.4byte	.LFE297-.LFB297
 12798 4d1e 01       		.uleb128 0x1
 12799 4d1f 9C       		.byte	0x9c
 12800 4d20 624D0000 		.4byte	0x4d62
 12801 4d24 50       		.uleb128 0x50
 12802 4d25 2A560000 		.4byte	0x562a
 12803 4d29 0A000000 		.4byte	.LBB277
 12804 4d2d E8010000 		.4byte	.Ldebug_ranges0+0x1e8
 12805 4d31 01       		.byte	0x1
 12806 4d32 A901     		.2byte	0x1a9
 12807 4d34 5A       		.uleb128 0x5a
 12808 4d35 3A560000 		.4byte	0x563a
 12809 4d39 06       		.uleb128 0x6
 12810 4d3a 03       		.byte	0x3
 12811 4d3b 00000000 		.4byte	sendToComputer_sem
 12812 4d3f 9F       		.byte	0x9f
 12813 4d40 5B       		.uleb128 0x5b
 12814 4d41 1E000000 		.4byte	.LVL165
 12815 4d45 A65B0000 		.4byte	0x5ba6
 12816 4d49 574D0000 		.4byte	0x4d57
 12817 4d4d 38       		.uleb128 0x38
 12818 4d4e 01       		.uleb128 0x1
 12819 4d4f 50       		.byte	0x50
 12820 4d50 05       		.uleb128 0x5
 12821 4d51 03       		.byte	0x3
 12822 4d52 00000000 		.4byte	.LANCHOR5
 12823 4d56 00       		.byte	0
 12824 4d57 39       		.uleb128 0x39
 12825 4d58 22000000 		.4byte	.LVL166
 12826 4d5c 395B0000 		.4byte	0x5b39
 12827 4d60 00       		.byte	0
 12828 4d61 00       		.byte	0
 12829 4d62 51       		.uleb128 0x51
 12830 4d63 6F010000 		.4byte	.LASF980
 12831 4d67 01       		.byte	0x1
 12832 4d68 9501     		.2byte	0x195
 12833 4d6a F6440000 		.4byte	0x44f6
ARM GAS  C:\Users\adrie\AppData\Local\Temp\cc7EdWgE.s 			page 227


 12834 4d6e 01       		.byte	0x1
 12835 4d6f B04D0000 		.4byte	0x4db0
 12836 4d73 52       		.uleb128 0x52
 12837 4d74 53220000 		.4byte	.LASF981
 12838 4d78 01       		.byte	0x1
 12839 4d79 9501     		.2byte	0x195
 12840 4d7b 06440000 		.4byte	0x4406
 12841 4d7f 3D       		.uleb128 0x3d
 12842 4d80 6F010000 		.4byte	.LASF980
 12843 4d84 01       		.byte	0x1
 12844 4d85 9601     		.2byte	0x196
 12845 4d87 25000000 		.4byte	0x25
 12846 4d8b 3D       		.uleb128 0x3d
 12847 4d8c 2D0C0000 		.4byte	.LASF982
 12848 4d90 01       		.byte	0x1
 12849 4d91 9701     		.2byte	0x197
 12850 4d93 2C000000 		.4byte	0x2c
 12851 4d97 3D       		.uleb128 0x3d
 12852 4d98 C6140000 		.4byte	.LASF983
 12853 4d9c 01       		.byte	0x1
 12854 4d9d 9801     		.2byte	0x198
 12855 4d9f F6440000 		.4byte	0x44f6
 12856 4da3 58       		.uleb128 0x58
 12857 4da4 59       		.uleb128 0x59
 12858 4da5 6900     		.ascii	"i\000"
 12859 4da7 01       		.byte	0x1
 12860 4da8 9C01     		.2byte	0x19c
 12861 4daa 2C000000 		.4byte	0x2c
 12862 4dae 00       		.byte	0
 12863 4daf 00       		.byte	0
 12864 4db0 57       		.uleb128 0x57
 12865 4db1 32250000 		.4byte	.LASF985
 12866 4db5 01       		.byte	0x1
 12867 4db6 8901     		.2byte	0x189
 12868 4db8 01       		.byte	0x1
 12869 4db9 FA4D0000 		.4byte	0x4dfa
 12870 4dbd 52       		.uleb128 0x52
 12871 4dbe 5A2B0000 		.4byte	.LASF986
 12872 4dc2 01       		.byte	0x1
 12873 4dc3 8901     		.2byte	0x189
 12874 4dc5 CD000000 		.4byte	0xcd
 12875 4dc9 52       		.uleb128 0x52
 12876 4dca 220E0000 		.4byte	.LASF971
 12877 4dce 01       		.byte	0x1
 12878 4dcf 8901     		.2byte	0x189
 12879 4dd1 2C000000 		.4byte	0x2c
 12880 4dd5 52       		.uleb128 0x52
 12881 4dd6 69000000 		.4byte	.LASF972
 12882 4dda 01       		.byte	0x1
 12883 4ddb 8901     		.2byte	0x189
 12884 4ddd 2C000000 		.4byte	0x2c
 12885 4de1 52       		.uleb128 0x52
 12886 4de2 941D0000 		.4byte	.LASF973
 12887 4de6 01       		.byte	0x1
 12888 4de7 8901     		.2byte	0x189
 12889 4de9 2C000000 		.4byte	0x2c
 12890 4ded 52       		.uleb128 0x52
ARM GAS  C:\Users\adrie\AppData\Local\Temp\cc7EdWgE.s 			page 228


 12891 4dee 9A200000 		.4byte	.LASF974
 12892 4df2 01       		.byte	0x1
 12893 4df3 8901     		.2byte	0x189
 12894 4df5 2C000000 		.4byte	0x2c
 12895 4df9 00       		.byte	0
 12896 4dfa 51       		.uleb128 0x51
 12897 4dfb 471C0000 		.4byte	.LASF987
 12898 4dff 01       		.byte	0x1
 12899 4e00 7F01     		.2byte	0x17f
 12900 4e02 2C000000 		.4byte	0x2c
 12901 4e06 01       		.byte	0x1
 12902 4e07 304E0000 		.4byte	0x4e30
 12903 4e0b 52       		.uleb128 0x52
 12904 4e0c 0E040000 		.4byte	.LASF988
 12905 4e10 01       		.byte	0x1
 12906 4e11 7F01     		.2byte	0x17f
 12907 4e13 70450000 		.4byte	0x4570
 12908 4e17 3D       		.uleb128 0x3d
 12909 4e18 B3080000 		.4byte	.LASF989
 12910 4e1c 01       		.byte	0x1
 12911 4e1d 8001     		.2byte	0x180
 12912 4e1f 2C000000 		.4byte	0x2c
 12913 4e23 58       		.uleb128 0x58
 12914 4e24 59       		.uleb128 0x59
 12915 4e25 6900     		.ascii	"i\000"
 12916 4e27 01       		.byte	0x1
 12917 4e28 8101     		.2byte	0x181
 12918 4e2a CD000000 		.4byte	0xcd
 12919 4e2e 00       		.byte	0
 12920 4e2f 00       		.byte	0
 12921 4e30 55       		.uleb128 0x55
 12922 4e31 46130000 		.4byte	.LASF990
 12923 4e35 01       		.byte	0x1
 12924 4e36 1001     		.2byte	0x110
 12925 4e38 00000000 		.4byte	.LFB293
 12926 4e3c A4010000 		.4byte	.LFE293-.LFB293
 12927 4e40 01       		.uleb128 0x1
 12928 4e41 9C       		.byte	0x9c
 12929 4e42 C04E0000 		.4byte	0x4ec0
 12930 4e46 56       		.uleb128 0x56
 12931 4e47 220E0000 		.4byte	.LASF971
 12932 4e4b 01       		.byte	0x1
 12933 4e4c 1001     		.2byte	0x110
 12934 4e4e 2C000000 		.4byte	0x2c
 12935 4e52 F0030000 		.4byte	.LLST42
 12936 4e56 56       		.uleb128 0x56
 12937 4e57 69000000 		.4byte	.LASF972
 12938 4e5b 01       		.byte	0x1
 12939 4e5c 1001     		.2byte	0x110
 12940 4e5e 2C000000 		.4byte	0x2c
 12941 4e62 11040000 		.4byte	.LLST43
 12942 4e66 56       		.uleb128 0x56
 12943 4e67 941D0000 		.4byte	.LASF973
 12944 4e6b 01       		.byte	0x1
 12945 4e6c 1001     		.2byte	0x110
 12946 4e6e 2C000000 		.4byte	0x2c
 12947 4e72 32040000 		.4byte	.LLST44
ARM GAS  C:\Users\adrie\AppData\Local\Temp\cc7EdWgE.s 			page 229


 12948 4e76 56       		.uleb128 0x56
 12949 4e77 9A200000 		.4byte	.LASF974
 12950 4e7b 01       		.byte	0x1
 12951 4e7c 1001     		.2byte	0x110
 12952 4e7e 2C000000 		.4byte	0x2c
 12953 4e82 64050000 		.4byte	.LLST45
 12954 4e86 3F       		.uleb128 0x3f
 12955 4e87 2A040000 		.4byte	.LASF991
 12956 4e8b 01       		.byte	0x1
 12957 4e8c 1201     		.2byte	0x112
 12958 4e8e CD000000 		.4byte	0xcd
 12959 4e92 7F060000 		.4byte	.LLST46
 12960 4e96 3F       		.uleb128 0x3f
 12961 4e97 D7210000 		.4byte	.LASF992
 12962 4e9b 01       		.byte	0x1
 12963 4e9c 1401     		.2byte	0x114
 12964 4e9e 2C000000 		.4byte	0x2c
 12965 4ea2 FE060000 		.4byte	.LLST47
 12966 4ea6 3F       		.uleb128 0x3f
 12967 4ea7 61260000 		.4byte	.LASF993
 12968 4eab 01       		.byte	0x1
 12969 4eac 1501     		.2byte	0x115
 12970 4eae 2C000000 		.4byte	0x2c
 12971 4eb2 F1080000 		.4byte	.LLST48
 12972 4eb6 39       		.uleb128 0x39
 12973 4eb7 96010000 		.4byte	.LVL139
 12974 4ebb 395B0000 		.4byte	0x5b39
 12975 4ebf 00       		.byte	0
 12976 4ec0 51       		.uleb128 0x51
 12977 4ec1 BC0F0000 		.4byte	.LASF994
 12978 4ec5 01       		.byte	0x1
 12979 4ec6 0801     		.2byte	0x108
 12980 4ec8 33000000 		.4byte	0x33
 12981 4ecc 01       		.byte	0x1
 12982 4ecd 024F0000 		.4byte	0x4f02
 12983 4ed1 52       		.uleb128 0x52
 12984 4ed2 B81B0000 		.4byte	.LASF995
 12985 4ed6 01       		.byte	0x1
 12986 4ed7 0801     		.2byte	0x108
 12987 4ed9 F3000000 		.4byte	0xf3
 12988 4edd 52       		.uleb128 0x52
 12989 4ede 902A0000 		.4byte	.LASF963
 12990 4ee2 01       		.byte	0x1
 12991 4ee3 0801     		.2byte	0x108
 12992 4ee5 F3000000 		.4byte	0xf3
 12993 4ee9 3D       		.uleb128 0x3d
 12994 4eea 88130000 		.4byte	.LASF996
 12995 4eee 01       		.byte	0x1
 12996 4eef 0A01     		.2byte	0x10a
 12997 4ef1 33000000 		.4byte	0x33
 12998 4ef5 3D       		.uleb128 0x3d
 12999 4ef6 A3080000 		.4byte	.LASF964
 13000 4efa 01       		.byte	0x1
 13001 4efb 0B01     		.2byte	0x10b
 13002 4efd 33000000 		.4byte	0x33
 13003 4f01 00       		.byte	0
 13004 4f02 5C       		.uleb128 0x5c
ARM GAS  C:\Users\adrie\AppData\Local\Temp\cc7EdWgE.s 			page 230


 13005 4f03 72000000 		.4byte	.LASF997
 13006 4f07 01       		.byte	0x1
 13007 4f08 86       		.byte	0x86
 13008 4f09 00000000 		.4byte	.LFB291
 13009 4f0d 14030000 		.4byte	.LFE291-.LFB291
 13010 4f11 01       		.uleb128 0x1
 13011 4f12 9C       		.byte	0x9c
 13012 4f13 07550000 		.4byte	0x5507
 13013 4f17 5D       		.uleb128 0x5d
 13014 4f18 53220000 		.4byte	.LASF981
 13015 4f1c 01       		.byte	0x1
 13016 4f1d 86       		.byte	0x86
 13017 4f1e CB440000 		.4byte	0x44cb
 13018 4f22 1E0A0000 		.4byte	.LLST71
 13019 4f26 5D       		.uleb128 0x5d
 13020 4f27 05020000 		.4byte	.LASF998
 13021 4f2b 01       		.byte	0x1
 13022 4f2c 86       		.byte	0x86
 13023 4f2d E8000000 		.4byte	0xe8
 13024 4f31 580A0000 		.4byte	.LLST72
 13025 4f35 33       		.uleb128 0x33
 13026 4f36 29080000 		.4byte	.LASF999
 13027 4f3a 01       		.byte	0x1
 13028 4f3b 90       		.byte	0x90
 13029 4f3c E8000000 		.4byte	0xe8
 13030 4f40 05       		.uleb128 0x5
 13031 4f41 03       		.byte	0x3
 13032 4f42 00000000 		.4byte	nb_samples.14255
 13033 4f46 33       		.uleb128 0x33
 13034 4f47 5A2B0000 		.4byte	.LASF986
 13035 4f4b 01       		.byte	0x1
 13036 4f4c 91       		.byte	0x91
 13037 4f4d CD000000 		.4byte	0xcd
 13038 4f51 05       		.uleb128 0x5
 13039 4f52 03       		.byte	0x3
 13040 4f53 00000000 		.4byte	mustSend.14256
 13041 4f57 5E       		.uleb128 0x5e
 13042 4f58 10000000 		.4byte	.LBB332
 13043 4f5c AC000000 		.4byte	.LBE332-.LBB332
 13044 4f60 724F0000 		.4byte	0x4f72
 13045 4f64 5F       		.uleb128 0x5f
 13046 4f65 6900     		.ascii	"i\000"
 13047 4f67 01       		.byte	0x1
 13048 4f68 94       		.byte	0x94
 13049 4f69 E8000000 		.4byte	0xe8
 13050 4f6d 920A0000 		.4byte	.LLST73
 13051 4f71 00       		.byte	0
 13052 4f72 40       		.uleb128 0x40
 13053 4f73 18020000 		.4byte	.Ldebug_ranges0+0x218
 13054 4f77 FD540000 		.4byte	0x54fd
 13055 4f7b 60       		.uleb128 0x60
 13056 4f7c 220E0000 		.4byte	.LASF971
 13057 4f80 01       		.byte	0x1
 13058 4f81 C6       		.byte	0xc6
 13059 4f82 2C000000 		.4byte	0x2c
 13060 4f86 C80A0000 		.4byte	.LLST74
 13061 4f8a 60       		.uleb128 0x60
ARM GAS  C:\Users\adrie\AppData\Local\Temp\cc7EdWgE.s 			page 231


 13062 4f8b 69000000 		.4byte	.LASF972
 13063 4f8f 01       		.byte	0x1
 13064 4f90 C7       		.byte	0xc7
 13065 4f91 2C000000 		.4byte	0x2c
 13066 4f95 9C0B0000 		.4byte	.LLST75
 13067 4f99 60       		.uleb128 0x60
 13068 4f9a 941D0000 		.4byte	.LASF973
 13069 4f9e 01       		.byte	0x1
 13070 4f9f C8       		.byte	0xc8
 13071 4fa0 2C000000 		.4byte	0x2c
 13072 4fa4 540C0000 		.4byte	.LLST76
 13073 4fa8 60       		.uleb128 0x60
 13074 4fa9 9A200000 		.4byte	.LASF974
 13075 4fad 01       		.byte	0x1
 13076 4fae C9       		.byte	0xc9
 13077 4faf 2C000000 		.4byte	0x2c
 13078 4fb3 970C0000 		.4byte	.LLST77
 13079 4fb7 60       		.uleb128 0x60
 13080 4fb8 6E1A0000 		.4byte	.LASF1000
 13081 4fbc 01       		.byte	0x1
 13082 4fbd CA       		.byte	0xca
 13083 4fbe 2C000000 		.4byte	0x2c
 13084 4fc2 6B0D0000 		.4byte	.LLST78
 13085 4fc6 60       		.uleb128 0x60
 13086 4fc7 B8290000 		.4byte	.LASF1001
 13087 4fcb 01       		.byte	0x1
 13088 4fcc CB       		.byte	0xcb
 13089 4fcd 2C000000 		.4byte	0x2c
 13090 4fd1 8D0D0000 		.4byte	.LLST79
 13091 4fd5 60       		.uleb128 0x60
 13092 4fd6 E7010000 		.4byte	.LASF1002
 13093 4fda 01       		.byte	0x1
 13094 4fdb CC       		.byte	0xcc
 13095 4fdc 2C000000 		.4byte	0x2c
 13096 4fe0 AD0D0000 		.4byte	.LLST80
 13097 4fe4 60       		.uleb128 0x60
 13098 4fe5 731E0000 		.4byte	.LASF1003
 13099 4fe9 01       		.byte	0x1
 13100 4fea CD       		.byte	0xcd
 13101 4feb 2C000000 		.4byte	0x2c
 13102 4fef CD0D0000 		.4byte	.LLST81
 13103 4ff3 5E       		.uleb128 0x5e
 13104 4ff4 06020000 		.4byte	.LBB358
 13105 4ff8 BE000000 		.4byte	.LBE358-.LBB358
 13106 4ffc 79520000 		.4byte	0x5279
 13107 5000 34       		.uleb128 0x34
 13108 5001 A1140000 		.4byte	.LASF1004
 13109 5005 01       		.byte	0x1
 13110 5006 E0       		.byte	0xe0
 13111 5007 2C000000 		.4byte	0x2c
 13112 500b 34       		.uleb128 0x34
 13113 500c 84100000 		.4byte	.LASF1005
 13114 5010 01       		.byte	0x1
 13115 5011 E1       		.byte	0xe1
 13116 5012 2C000000 		.4byte	0x2c
 13117 5016 34       		.uleb128 0x34
 13118 5017 74270000 		.4byte	.LASF1006
ARM GAS  C:\Users\adrie\AppData\Local\Temp\cc7EdWgE.s 			page 232


 13119 501b 01       		.byte	0x1
 13120 501c E2       		.byte	0xe2
 13121 501d 2C000000 		.4byte	0x2c
 13122 5021 34       		.uleb128 0x34
 13123 5022 CD010000 		.4byte	.LASF1007
 13124 5026 01       		.byte	0x1
 13125 5027 E3       		.byte	0xe3
 13126 5028 2C000000 		.4byte	0x2c
 13127 502c 61       		.uleb128 0x61
 13128 502d F0550000 		.4byte	0x55f0
 13129 5031 06020000 		.4byte	.LBB359
 13130 5035 98020000 		.4byte	.Ldebug_ranges0+0x298
 13131 5039 01       		.byte	0x1
 13132 503a DB       		.byte	0xdb
 13133 503b 50510000 		.4byte	0x5150
 13134 503f 42       		.uleb128 0x42
 13135 5040 FD550000 		.4byte	0x55fd
 13136 5044 ED0D0000 		.4byte	.LLST91
 13137 5048 47       		.uleb128 0x47
 13138 5049 A1560000 		.4byte	0x56a1
 13139 504d 06020000 		.4byte	.LBB361
 13140 5051 0E000000 		.4byte	.LBE361-.LBB361
 13141 5055 07       		.byte	0x7
 13142 5056 1C01     		.2byte	0x11c
 13143 5058 9E500000 		.4byte	0x509e
 13144 505c 47       		.uleb128 0x47
 13145 505d B3560000 		.4byte	0x56b3
 13146 5061 06020000 		.4byte	.LBB363
 13147 5065 06000000 		.4byte	.LBE363-.LBB363
 13148 5069 05       		.byte	0x5
 13149 506a 5C01     		.2byte	0x15c
 13150 506c 8B500000 		.4byte	0x508b
 13151 5070 4B       		.uleb128 0x4b
 13152 5071 BC560000 		.4byte	0x56bc
 13153 5075 06020000 		.4byte	.LBB364
 13154 5079 06000000 		.4byte	.LBE364-.LBB364
 13155 507d 12       		.byte	0x12
 13156 507e BF01     		.2byte	0x1bf
 13157 5080 42       		.uleb128 0x42
 13158 5081 C9560000 		.4byte	0x56c9
 13159 5085 150E0000 		.4byte	.LLST92
 13160 5089 00       		.byte	0
 13161 508a 00       		.byte	0
 13162 508b 39       		.uleb128 0x39
 13163 508c 10020000 		.4byte	.LVL263
 13164 5090 4D5B0000 		.4byte	0x5b4d
 13165 5094 39       		.uleb128 0x39
 13166 5095 14020000 		.4byte	.LVL264
 13167 5099 585B0000 		.4byte	0x5b58
 13168 509d 00       		.byte	0
 13169 509e 41       		.uleb128 0x41
 13170 509f 10560000 		.4byte	0x5610
 13171 50a3 14020000 		.4byte	.LBB366
 13172 50a7 B0020000 		.4byte	.Ldebug_ranges0+0x2b0
 13173 50ab 07       		.byte	0x7
 13174 50ac 1D01     		.2byte	0x11d
 13175 50ae CE500000 		.4byte	0x50ce
ARM GAS  C:\Users\adrie\AppData\Local\Temp\cc7EdWgE.s 			page 233


 13176 50b2 42       		.uleb128 0x42
 13177 50b3 1D560000 		.4byte	0x561d
 13178 50b7 2A0E0000 		.4byte	.LLST93
 13179 50bb 39       		.uleb128 0x39
 13180 50bc 18020000 		.4byte	.LVL265
 13181 50c0 B15B0000 		.4byte	0x5bb1
 13182 50c4 39       		.uleb128 0x39
 13183 50c5 C2020000 		.4byte	.LVL285
 13184 50c9 BC5B0000 		.4byte	0x5bbc
 13185 50cd 00       		.byte	0
 13186 50ce 47       		.uleb128 0x47
 13187 50cf 86560000 		.4byte	0x5686
 13188 50d3 24020000 		.4byte	.LBB369
 13189 50d7 28000000 		.4byte	.LBE369-.LBB369
 13190 50db 07       		.byte	0x7
 13191 50dc 1F01     		.2byte	0x11f
 13192 50de 46510000 		.4byte	0x5146
 13193 50e2 48       		.uleb128 0x48
 13194 50e3 24020000 		.4byte	.LBB370
 13195 50e7 28000000 		.4byte	.LBE370-.LBB370
 13196 50eb 49       		.uleb128 0x49
 13197 50ec 93560000 		.4byte	0x5693
 13198 50f0 47       		.uleb128 0x47
 13199 50f1 AA560000 		.4byte	0x56aa
 13200 50f5 44020000 		.4byte	.LBB371
 13201 50f9 08000000 		.4byte	.LBE371-.LBB371
 13202 50fd 05       		.byte	0x5
 13203 50fe 7301     		.2byte	0x173
 13204 5100 1F510000 		.4byte	0x511f
 13205 5104 4B       		.uleb128 0x4b
 13206 5105 BC560000 		.4byte	0x56bc
 13207 5109 44020000 		.4byte	.LBB372
 13208 510d 08000000 		.4byte	.LBE372-.LBB372
 13209 5111 12       		.byte	0x12
 13210 5112 CD01     		.2byte	0x1cd
 13211 5114 42       		.uleb128 0x42
 13212 5115 C9560000 		.4byte	0x56c9
 13213 5119 520E0000 		.4byte	.LLST94
 13214 511d 00       		.byte	0
 13215 511e 00       		.byte	0
 13216 511f 39       		.uleb128 0x39
 13217 5120 28020000 		.4byte	.LVL268
 13218 5124 635B0000 		.4byte	0x5b63
 13219 5128 39       		.uleb128 0x39
 13220 5129 2C020000 		.4byte	.LVL269
 13221 512d 6E5B0000 		.4byte	0x5b6e
 13222 5131 4E       		.uleb128 0x4e
 13223 5132 44020000 		.4byte	.LVL270
 13224 5136 795B0000 		.4byte	0x5b79
 13225 513a 38       		.uleb128 0x38
 13226 513b 01       		.uleb128 0x1
 13227 513c 50       		.byte	0x50
 13228 513d 05       		.uleb128 0x5
 13229 513e 03       		.byte	0x3
 13230 513f 00000000 		.4byte	.LANCHOR1
 13231 5143 00       		.byte	0
 13232 5144 00       		.byte	0
ARM GAS  C:\Users\adrie\AppData\Local\Temp\cc7EdWgE.s 			page 234


 13233 5145 00       		.byte	0
 13234 5146 39       		.uleb128 0x39
 13235 5147 24020000 		.4byte	.LVL267
 13236 514b C75B0000 		.4byte	0x5bc7
 13237 514f 00       		.byte	0
 13238 5150 61       		.uleb128 0x61
 13239 5151 FA4D0000 		.4byte	0x4dfa
 13240 5155 4E020000 		.4byte	.LBB376
 13241 5159 C8020000 		.4byte	.Ldebug_ranges0+0x2c8
 13242 515d 01       		.byte	0x1
 13243 515e E0       		.byte	0xe0
 13244 515f 8B510000 		.4byte	0x518b
 13245 5163 42       		.uleb128 0x42
 13246 5164 0B4E0000 		.4byte	0x4e0b
 13247 5168 660E0000 		.4byte	.LLST95
 13248 516c 43       		.uleb128 0x43
 13249 516d C8020000 		.4byte	.Ldebug_ranges0+0x2c8
 13250 5171 44       		.uleb128 0x44
 13251 5172 86580000 		.4byte	0x5886
 13252 5176 7A0E0000 		.4byte	.LLST96
 13253 517a 45       		.uleb128 0x45
 13254 517b 8B580000 		.4byte	0x588b
 13255 517f 00030000 		.4byte	.Ldebug_ranges0+0x300
 13256 5183 49       		.uleb128 0x49
 13257 5184 94580000 		.4byte	0x5894
 13258 5188 00       		.byte	0
 13259 5189 00       		.byte	0
 13260 518a 00       		.byte	0
 13261 518b 61       		.uleb128 0x61
 13262 518c FA4D0000 		.4byte	0x4dfa
 13263 5190 5A020000 		.4byte	.LBB388
 13264 5194 28030000 		.4byte	.Ldebug_ranges0+0x328
 13265 5198 01       		.byte	0x1
 13266 5199 E1       		.byte	0xe1
 13267 519a C2510000 		.4byte	0x51c2
 13268 519e 42       		.uleb128 0x42
 13269 519f 0B4E0000 		.4byte	0x4e0b
 13270 51a3 AC0E0000 		.4byte	.LLST97
 13271 51a7 43       		.uleb128 0x43
 13272 51a8 28030000 		.4byte	.Ldebug_ranges0+0x328
 13273 51ac 49       		.uleb128 0x49
 13274 51ad 86580000 		.4byte	0x5886
 13275 51b1 45       		.uleb128 0x45
 13276 51b2 8B580000 		.4byte	0x588b
 13277 51b6 60030000 		.4byte	.Ldebug_ranges0+0x360
 13278 51ba 49       		.uleb128 0x49
 13279 51bb 94580000 		.4byte	0x5894
 13280 51bf 00       		.byte	0
 13281 51c0 00       		.byte	0
 13282 51c1 00       		.byte	0
 13283 51c2 61       		.uleb128 0x61
 13284 51c3 FA4D0000 		.4byte	0x4dfa
 13285 51c7 5E020000 		.4byte	.LBB399
 13286 51cb 88030000 		.4byte	.Ldebug_ranges0+0x388
 13287 51cf 01       		.byte	0x1
 13288 51d0 E2       		.byte	0xe2
 13289 51d1 F9510000 		.4byte	0x51f9
ARM GAS  C:\Users\adrie\AppData\Local\Temp\cc7EdWgE.s 			page 235


 13290 51d5 42       		.uleb128 0x42
 13291 51d6 0B4E0000 		.4byte	0x4e0b
 13292 51da C00E0000 		.4byte	.LLST98
 13293 51de 43       		.uleb128 0x43
 13294 51df 88030000 		.4byte	.Ldebug_ranges0+0x388
 13295 51e3 49       		.uleb128 0x49
 13296 51e4 86580000 		.4byte	0x5886
 13297 51e8 45       		.uleb128 0x45
 13298 51e9 8B580000 		.4byte	0x588b
 13299 51ed C0030000 		.4byte	.Ldebug_ranges0+0x3c0
 13300 51f1 49       		.uleb128 0x49
 13301 51f2 94580000 		.4byte	0x5894
 13302 51f6 00       		.byte	0
 13303 51f7 00       		.byte	0
 13304 51f8 00       		.byte	0
 13305 51f9 61       		.uleb128 0x61
 13306 51fa FA4D0000 		.4byte	0x4dfa
 13307 51fe 62020000 		.4byte	.LBB410
 13308 5202 E8030000 		.4byte	.Ldebug_ranges0+0x3e8
 13309 5206 01       		.byte	0x1
 13310 5207 E3       		.byte	0xe3
 13311 5208 30520000 		.4byte	0x5230
 13312 520c 42       		.uleb128 0x42
 13313 520d 0B4E0000 		.4byte	0x4e0b
 13314 5211 D40E0000 		.4byte	.LLST99
 13315 5215 43       		.uleb128 0x43
 13316 5216 E8030000 		.4byte	.Ldebug_ranges0+0x3e8
 13317 521a 49       		.uleb128 0x49
 13318 521b 86580000 		.4byte	0x5886
 13319 521f 45       		.uleb128 0x45
 13320 5220 8B580000 		.4byte	0x588b
 13321 5224 18040000 		.4byte	.Ldebug_ranges0+0x418
 13322 5228 49       		.uleb128 0x49
 13323 5229 94580000 		.4byte	0x5894
 13324 522d 00       		.byte	0
 13325 522e 00       		.byte	0
 13326 522f 00       		.byte	0
 13327 5230 37       		.uleb128 0x37
 13328 5231 AC020000 		.4byte	.LVL282
 13329 5235 724C0000 		.4byte	0x4c72
 13330 5239 56520000 		.4byte	0x5256
 13331 523d 38       		.uleb128 0x38
 13332 523e 01       		.uleb128 0x1
 13333 523f 50       		.byte	0x50
 13334 5240 02       		.uleb128 0x2
 13335 5241 7B       		.byte	0x7b
 13336 5242 00       		.sleb128 0
 13337 5243 38       		.uleb128 0x38
 13338 5244 01       		.uleb128 0x1
 13339 5245 51       		.byte	0x51
 13340 5246 02       		.uleb128 0x2
 13341 5247 7A       		.byte	0x7a
 13342 5248 00       		.sleb128 0
 13343 5249 38       		.uleb128 0x38
 13344 524a 01       		.uleb128 0x1
 13345 524b 52       		.byte	0x52
 13346 524c 02       		.uleb128 0x2
ARM GAS  C:\Users\adrie\AppData\Local\Temp\cc7EdWgE.s 			page 236


 13347 524d 79       		.byte	0x79
 13348 524e 00       		.sleb128 0
 13349 524f 38       		.uleb128 0x38
 13350 5250 01       		.uleb128 0x1
 13351 5251 53       		.byte	0x53
 13352 5252 02       		.uleb128 0x2
 13353 5253 75       		.byte	0x75
 13354 5254 00       		.sleb128 0
 13355 5255 00       		.byte	0
 13356 5256 4E       		.uleb128 0x4e
 13357 5257 B8020000 		.4byte	.LVL283
 13358 525b 304E0000 		.4byte	0x4e30
 13359 525f 38       		.uleb128 0x38
 13360 5260 01       		.uleb128 0x1
 13361 5261 50       		.byte	0x50
 13362 5262 02       		.uleb128 0x2
 13363 5263 7B       		.byte	0x7b
 13364 5264 00       		.sleb128 0
 13365 5265 38       		.uleb128 0x38
 13366 5266 01       		.uleb128 0x1
 13367 5267 51       		.byte	0x51
 13368 5268 02       		.uleb128 0x2
 13369 5269 7A       		.byte	0x7a
 13370 526a 00       		.sleb128 0
 13371 526b 38       		.uleb128 0x38
 13372 526c 01       		.uleb128 0x1
 13373 526d 52       		.byte	0x52
 13374 526e 02       		.uleb128 0x2
 13375 526f 79       		.byte	0x79
 13376 5270 00       		.sleb128 0
 13377 5271 38       		.uleb128 0x38
 13378 5272 01       		.uleb128 0x1
 13379 5273 53       		.byte	0x53
 13380 5274 02       		.uleb128 0x2
 13381 5275 75       		.byte	0x75
 13382 5276 00       		.sleb128 0
 13383 5277 00       		.byte	0
 13384 5278 00       		.byte	0
 13385 5279 61       		.uleb128 0x61
 13386 527a E44C0000 		.4byte	0x4ce4
 13387 527e 28010000 		.4byte	.LBB334
 13388 5282 30020000 		.4byte	.Ldebug_ranges0+0x230
 13389 5286 01       		.byte	0x1
 13390 5287 C8       		.byte	0xc8
 13391 5288 AC520000 		.4byte	0x52ac
 13392 528c 42       		.uleb128 0x42
 13393 528d F54C0000 		.4byte	0x4cf5
 13394 5291 E80E0000 		.4byte	.LLST82
 13395 5295 4E       		.uleb128 0x4e
 13396 5296 32010000 		.4byte	.LVL239
 13397 529a D6560000 		.4byte	0x56d6
 13398 529e 38       		.uleb128 0x38
 13399 529f 01       		.uleb128 0x1
 13400 52a0 50       		.byte	0x50
 13401 52a1 03       		.uleb128 0x3
 13402 52a2 91       		.byte	0x91
 13403 52a3 A47F     		.sleb128 -92
ARM GAS  C:\Users\adrie\AppData\Local\Temp\cc7EdWgE.s 			page 237


 13404 52a5 38       		.uleb128 0x38
 13405 52a6 01       		.uleb128 0x1
 13406 52a7 51       		.byte	0x51
 13407 52a8 01       		.uleb128 0x1
 13408 52a9 36       		.byte	0x36
 13409 52aa 00       		.byte	0
 13410 52ab 00       		.byte	0
 13411 52ac 61       		.uleb128 0x61
 13412 52ad E44C0000 		.4byte	0x4ce4
 13413 52b1 32010000 		.4byte	.LBB338
 13414 52b5 48020000 		.4byte	.Ldebug_ranges0+0x248
 13415 52b9 01       		.byte	0x1
 13416 52ba C9       		.byte	0xc9
 13417 52bb DF520000 		.4byte	0x52df
 13418 52bf 42       		.uleb128 0x42
 13419 52c0 F54C0000 		.4byte	0x4cf5
 13420 52c4 FC0E0000 		.4byte	.LLST83
 13421 52c8 4E       		.uleb128 0x4e
 13422 52c9 3E010000 		.4byte	.LVL241
 13423 52cd D6560000 		.4byte	0x56d6
 13424 52d1 38       		.uleb128 0x38
 13425 52d2 01       		.uleb128 0x1
 13426 52d3 50       		.byte	0x50
 13427 52d4 03       		.uleb128 0x3
 13428 52d5 91       		.byte	0x91
 13429 52d6 AC7F     		.sleb128 -84
 13430 52d8 38       		.uleb128 0x38
 13431 52d9 01       		.uleb128 0x1
 13432 52da 51       		.byte	0x51
 13433 52db 01       		.uleb128 0x1
 13434 52dc 37       		.byte	0x37
 13435 52dd 00       		.byte	0
 13436 52de 00       		.byte	0
 13437 52df 4A       		.uleb128 0x4a
 13438 52e0 E44C0000 		.4byte	0x4ce4
 13439 52e4 52010000 		.4byte	.LBB342
 13440 52e8 08000000 		.4byte	.LBE342-.LBB342
 13441 52ec 01       		.byte	0x1
 13442 52ed CC       		.byte	0xcc
 13443 52ee 11530000 		.4byte	0x5311
 13444 52f2 42       		.uleb128 0x42
 13445 52f3 F54C0000 		.4byte	0x4cf5
 13446 52f7 100F0000 		.4byte	.LLST84
 13447 52fb 4E       		.uleb128 0x4e
 13448 52fc 5A010000 		.4byte	.LVL245
 13449 5300 D6560000 		.4byte	0x56d6
 13450 5304 38       		.uleb128 0x38
 13451 5305 01       		.uleb128 0x1
 13452 5306 50       		.byte	0x50
 13453 5307 02       		.uleb128 0x2
 13454 5308 91       		.byte	0x91
 13455 5309 44       		.sleb128 -60
 13456 530a 38       		.uleb128 0x38
 13457 530b 01       		.uleb128 0x1
 13458 530c 51       		.byte	0x51
 13459 530d 01       		.uleb128 0x1
 13460 530e 36       		.byte	0x36
ARM GAS  C:\Users\adrie\AppData\Local\Temp\cc7EdWgE.s 			page 238


 13461 530f 00       		.byte	0
 13462 5310 00       		.byte	0
 13463 5311 4A       		.uleb128 0x4a
 13464 5312 E44C0000 		.4byte	0x4ce4
 13465 5316 5A010000 		.4byte	.LBB344
 13466 531a 08000000 		.4byte	.LBE344-.LBB344
 13467 531e 01       		.byte	0x1
 13468 531f CD       		.byte	0xcd
 13469 5320 43530000 		.4byte	0x5343
 13470 5324 42       		.uleb128 0x42
 13471 5325 F54C0000 		.4byte	0x4cf5
 13472 5329 240F0000 		.4byte	.LLST85
 13473 532d 4E       		.uleb128 0x4e
 13474 532e 62010000 		.4byte	.LVL246
 13475 5332 D6560000 		.4byte	0x56d6
 13476 5336 38       		.uleb128 0x38
 13477 5337 01       		.uleb128 0x1
 13478 5338 50       		.byte	0x50
 13479 5339 02       		.uleb128 0x2
 13480 533a 91       		.byte	0x91
 13481 533b 4C       		.sleb128 -52
 13482 533c 38       		.uleb128 0x38
 13483 533d 01       		.uleb128 0x1
 13484 533e 51       		.byte	0x51
 13485 533f 01       		.uleb128 0x1
 13486 5340 37       		.byte	0x37
 13487 5341 00       		.byte	0
 13488 5342 00       		.byte	0
 13489 5343 61       		.uleb128 0x61
 13490 5344 B04D0000 		.4byte	0x4db0
 13491 5348 66010000 		.4byte	.LBB346
 13492 534c 60020000 		.4byte	.Ldebug_ranges0+0x260
 13493 5350 01       		.byte	0x1
 13494 5351 D3       		.byte	0xd3
 13495 5352 84530000 		.4byte	0x5384
 13496 5356 42       		.uleb128 0x42
 13497 5357 ED4D0000 		.4byte	0x4ded
 13498 535b 380F0000 		.4byte	.LLST86
 13499 535f 42       		.uleb128 0x42
 13500 5360 E14D0000 		.4byte	0x4de1
 13501 5364 940F0000 		.4byte	.LLST87
 13502 5368 42       		.uleb128 0x42
 13503 5369 D54D0000 		.4byte	0x4dd5
 13504 536d A70F0000 		.4byte	.LLST88
 13505 5371 42       		.uleb128 0x42
 13506 5372 C94D0000 		.4byte	0x4dc9
 13507 5376 23100000 		.4byte	.LLST89
 13508 537a 42       		.uleb128 0x42
 13509 537b BD4D0000 		.4byte	0x4dbd
 13510 537f 7F100000 		.4byte	.LLST90
 13511 5383 00       		.byte	0
 13512 5384 37       		.uleb128 0x37
 13513 5385 C6000000 		.4byte	.LVL227
 13514 5389 D35B0000 		.4byte	0x5bd3
 13515 538d A2530000 		.4byte	0x53a2
 13516 5391 38       		.uleb128 0x38
 13517 5392 01       		.uleb128 0x1
ARM GAS  C:\Users\adrie\AppData\Local\Temp\cc7EdWgE.s 			page 239


 13518 5393 50       		.byte	0x50
 13519 5394 03       		.uleb128 0x3
 13520 5395 0A       		.byte	0xa
 13521 5396 0004     		.2byte	0x400
 13522 5398 38       		.uleb128 0x38
 13523 5399 01       		.uleb128 0x1
 13524 539a 51       		.byte	0x51
 13525 539b 05       		.uleb128 0x5
 13526 539c 03       		.byte	0x3
 13527 539d 00000000 		.4byte	micRight_cmplx_input
 13528 53a1 00       		.byte	0
 13529 53a2 37       		.uleb128 0x37
 13530 53a3 D0000000 		.4byte	.LVL228
 13531 53a7 D35B0000 		.4byte	0x5bd3
 13532 53ab C0530000 		.4byte	0x53c0
 13533 53af 38       		.uleb128 0x38
 13534 53b0 01       		.uleb128 0x1
 13535 53b1 50       		.byte	0x50
 13536 53b2 03       		.uleb128 0x3
 13537 53b3 0A       		.byte	0xa
 13538 53b4 0004     		.2byte	0x400
 13539 53b6 38       		.uleb128 0x38
 13540 53b7 01       		.uleb128 0x1
 13541 53b8 51       		.byte	0x51
 13542 53b9 05       		.uleb128 0x5
 13543 53ba 03       		.byte	0x3
 13544 53bb 00000000 		.4byte	micLeft_cmplx_input
 13545 53bf 00       		.byte	0
 13546 53c0 37       		.uleb128 0x37
 13547 53c1 DA000000 		.4byte	.LVL229
 13548 53c5 D35B0000 		.4byte	0x5bd3
 13549 53c9 DE530000 		.4byte	0x53de
 13550 53cd 38       		.uleb128 0x38
 13551 53ce 01       		.uleb128 0x1
 13552 53cf 50       		.byte	0x50
 13553 53d0 03       		.uleb128 0x3
 13554 53d1 0A       		.byte	0xa
 13555 53d2 0004     		.2byte	0x400
 13556 53d4 38       		.uleb128 0x38
 13557 53d5 01       		.uleb128 0x1
 13558 53d6 51       		.byte	0x51
 13559 53d7 05       		.uleb128 0x5
 13560 53d8 03       		.byte	0x3
 13561 53d9 00000000 		.4byte	micFront_cmplx_input
 13562 53dd 00       		.byte	0
 13563 53de 37       		.uleb128 0x37
 13564 53df E4000000 		.4byte	.LVL230
 13565 53e3 D35B0000 		.4byte	0x5bd3
 13566 53e7 FC530000 		.4byte	0x53fc
 13567 53eb 38       		.uleb128 0x38
 13568 53ec 01       		.uleb128 0x1
 13569 53ed 50       		.byte	0x50
 13570 53ee 03       		.uleb128 0x3
 13571 53ef 0A       		.byte	0xa
 13572 53f0 0004     		.2byte	0x400
 13573 53f2 38       		.uleb128 0x38
 13574 53f3 01       		.uleb128 0x1
ARM GAS  C:\Users\adrie\AppData\Local\Temp\cc7EdWgE.s 			page 240


 13575 53f4 51       		.byte	0x51
 13576 53f5 05       		.uleb128 0x5
 13577 53f6 03       		.byte	0x3
 13578 53f7 00000000 		.4byte	micBack_cmplx_input
 13579 53fb 00       		.byte	0
 13580 53fc 37       		.uleb128 0x37
 13581 53fd F0000000 		.4byte	.LVL231
 13582 5401 DE5B0000 		.4byte	0x5bde
 13583 5405 23540000 		.4byte	0x5423
 13584 5409 38       		.uleb128 0x38
 13585 540a 01       		.uleb128 0x1
 13586 540b 50       		.byte	0x50
 13587 540c 05       		.uleb128 0x5
 13588 540d 03       		.byte	0x3
 13589 540e 00000000 		.4byte	micRight_cmplx_input
 13590 5412 38       		.uleb128 0x38
 13591 5413 01       		.uleb128 0x1
 13592 5414 51       		.byte	0x51
 13593 5415 05       		.uleb128 0x5
 13594 5416 03       		.byte	0x3
 13595 5417 00000000 		.4byte	micRight_output
 13596 541b 38       		.uleb128 0x38
 13597 541c 01       		.uleb128 0x1
 13598 541d 52       		.byte	0x52
 13599 541e 03       		.uleb128 0x3
 13600 541f 0A       		.byte	0xa
 13601 5420 0004     		.2byte	0x400
 13602 5422 00       		.byte	0
 13603 5423 37       		.uleb128 0x37
 13604 5424 FC000000 		.4byte	.LVL232
 13605 5428 DE5B0000 		.4byte	0x5bde
 13606 542c 4A540000 		.4byte	0x544a
 13607 5430 38       		.uleb128 0x38
 13608 5431 01       		.uleb128 0x1
 13609 5432 50       		.byte	0x50
 13610 5433 05       		.uleb128 0x5
 13611 5434 03       		.byte	0x3
 13612 5435 00000000 		.4byte	micLeft_cmplx_input
 13613 5439 38       		.uleb128 0x38
 13614 543a 01       		.uleb128 0x1
 13615 543b 51       		.byte	0x51
 13616 543c 05       		.uleb128 0x5
 13617 543d 03       		.byte	0x3
 13618 543e 00000000 		.4byte	micLeft_output
 13619 5442 38       		.uleb128 0x38
 13620 5443 01       		.uleb128 0x1
 13621 5444 52       		.byte	0x52
 13622 5445 03       		.uleb128 0x3
 13623 5446 0A       		.byte	0xa
 13624 5447 0004     		.2byte	0x400
 13625 5449 00       		.byte	0
 13626 544a 37       		.uleb128 0x37
 13627 544b 08010000 		.4byte	.LVL233
 13628 544f DE5B0000 		.4byte	0x5bde
 13629 5453 71540000 		.4byte	0x5471
 13630 5457 38       		.uleb128 0x38
 13631 5458 01       		.uleb128 0x1
ARM GAS  C:\Users\adrie\AppData\Local\Temp\cc7EdWgE.s 			page 241


 13632 5459 50       		.byte	0x50
 13633 545a 05       		.uleb128 0x5
 13634 545b 03       		.byte	0x3
 13635 545c 00000000 		.4byte	micFront_cmplx_input
 13636 5460 38       		.uleb128 0x38
 13637 5461 01       		.uleb128 0x1
 13638 5462 51       		.byte	0x51
 13639 5463 05       		.uleb128 0x5
 13640 5464 03       		.byte	0x3
 13641 5465 00000000 		.4byte	micFront_output
 13642 5469 38       		.uleb128 0x38
 13643 546a 01       		.uleb128 0x1
 13644 546b 52       		.byte	0x52
 13645 546c 03       		.uleb128 0x3
 13646 546d 0A       		.byte	0xa
 13647 546e 0004     		.2byte	0x400
 13648 5470 00       		.byte	0
 13649 5471 37       		.uleb128 0x37
 13650 5472 14010000 		.4byte	.LVL234
 13651 5476 DE5B0000 		.4byte	0x5bde
 13652 547a 98540000 		.4byte	0x5498
 13653 547e 38       		.uleb128 0x38
 13654 547f 01       		.uleb128 0x1
 13655 5480 50       		.byte	0x50
 13656 5481 05       		.uleb128 0x5
 13657 5482 03       		.byte	0x3
 13658 5483 00000000 		.4byte	micBack_cmplx_input
 13659 5487 38       		.uleb128 0x38
 13660 5488 01       		.uleb128 0x1
 13661 5489 51       		.byte	0x51
 13662 548a 05       		.uleb128 0x5
 13663 548b 03       		.byte	0x3
 13664 548c 00000000 		.4byte	micBack_output
 13665 5490 38       		.uleb128 0x38
 13666 5491 01       		.uleb128 0x1
 13667 5492 52       		.byte	0x52
 13668 5493 03       		.uleb128 0x3
 13669 5494 0A       		.byte	0xa
 13670 5495 0004     		.2byte	0x400
 13671 5497 00       		.byte	0
 13672 5498 37       		.uleb128 0x37
 13673 5499 1C010000 		.4byte	.LVL235
 13674 549d E44C0000 		.4byte	0x4ce4
 13675 54a1 B2540000 		.4byte	0x54b2
 13676 54a5 38       		.uleb128 0x38
 13677 54a6 01       		.uleb128 0x1
 13678 54a7 50       		.byte	0x50
 13679 54a8 03       		.uleb128 0x3
 13680 54a9 91       		.byte	0x91
 13681 54aa 947F     		.sleb128 -108
 13682 54ac 38       		.uleb128 0x38
 13683 54ad 01       		.uleb128 0x1
 13684 54ae 51       		.byte	0x51
 13685 54af 01       		.uleb128 0x1
 13686 54b0 35       		.byte	0x35
 13687 54b1 00       		.byte	0
 13688 54b2 37       		.uleb128 0x37
ARM GAS  C:\Users\adrie\AppData\Local\Temp\cc7EdWgE.s 			page 242


 13689 54b3 28010000 		.4byte	.LVL237
 13690 54b7 E44C0000 		.4byte	0x4ce4
 13691 54bb CC540000 		.4byte	0x54cc
 13692 54bf 38       		.uleb128 0x38
 13693 54c0 01       		.uleb128 0x1
 13694 54c1 50       		.byte	0x50
 13695 54c2 03       		.uleb128 0x3
 13696 54c3 91       		.byte	0x91
 13697 54c4 9C7F     		.sleb128 -100
 13698 54c6 38       		.uleb128 0x38
 13699 54c7 01       		.uleb128 0x1
 13700 54c8 51       		.byte	0x51
 13701 54c9 01       		.uleb128 0x1
 13702 54ca 34       		.byte	0x34
 13703 54cb 00       		.byte	0
 13704 54cc 37       		.uleb128 0x37
 13705 54cd 4A010000 		.4byte	.LVL243
 13706 54d1 E44C0000 		.4byte	0x4ce4
 13707 54d5 E6540000 		.4byte	0x54e6
 13708 54d9 38       		.uleb128 0x38
 13709 54da 01       		.uleb128 0x1
 13710 54db 50       		.byte	0x50
 13711 54dc 03       		.uleb128 0x3
 13712 54dd 91       		.byte	0x91
 13713 54de B47F     		.sleb128 -76
 13714 54e0 38       		.uleb128 0x38
 13715 54e1 01       		.uleb128 0x1
 13716 54e2 51       		.byte	0x51
 13717 54e3 01       		.uleb128 0x1
 13718 54e4 35       		.byte	0x35
 13719 54e5 00       		.byte	0
 13720 54e6 4E       		.uleb128 0x4e
 13721 54e7 52010000 		.4byte	.LVL244
 13722 54eb E44C0000 		.4byte	0x4ce4
 13723 54ef 38       		.uleb128 0x38
 13724 54f0 01       		.uleb128 0x1
 13725 54f1 50       		.byte	0x50
 13726 54f2 03       		.uleb128 0x3
 13727 54f3 91       		.byte	0x91
 13728 54f4 BC7F     		.sleb128 -68
 13729 54f6 38       		.uleb128 0x38
 13730 54f7 01       		.uleb128 0x1
 13731 54f8 51       		.byte	0x51
 13732 54f9 01       		.uleb128 0x1
 13733 54fa 34       		.byte	0x34
 13734 54fb 00       		.byte	0
 13735 54fc 00       		.byte	0
 13736 54fd 39       		.uleb128 0x39
 13737 54fe C8020000 		.4byte	.LVL287
 13738 5502 395B0000 		.4byte	0x5b39
 13739 5506 00       		.byte	0
 13740 5507 5C       		.uleb128 0x5c
 13741 5508 921C0000 		.4byte	.LASF1008
 13742 550c 01       		.byte	0x1
 13743 550d 55       		.byte	0x55
 13744 550e 00000000 		.4byte	.LFB290
 13745 5512 C0000000 		.4byte	.LFE290-.LFB290
ARM GAS  C:\Users\adrie\AppData\Local\Temp\cc7EdWgE.s 			page 243


 13746 5516 01       		.uleb128 0x1
 13747 5517 9C       		.byte	0x9c
 13748 5518 AD550000 		.4byte	0x55ad
 13749 551c 5D       		.uleb128 0x5d
 13750 551d 53220000 		.4byte	.LASF981
 13751 5521 01       		.byte	0x1
 13752 5522 55       		.byte	0x55
 13753 5523 06440000 		.4byte	0x4406
 13754 5527 92100000 		.4byte	.LLST35
 13755 552b 60       		.uleb128 0x60
 13756 552c 6F010000 		.4byte	.LASF980
 13757 5530 01       		.byte	0x1
 13758 5531 56       		.byte	0x56
 13759 5532 25000000 		.4byte	0x25
 13760 5536 C0100000 		.4byte	.LLST36
 13761 553a 60       		.uleb128 0x60
 13762 553b 2D0C0000 		.4byte	.LASF982
 13763 553f 01       		.byte	0x1
 13764 5540 57       		.byte	0x57
 13765 5541 DD000000 		.4byte	0xdd
 13766 5545 20110000 		.4byte	.LLST37
 13767 5549 5E       		.uleb128 0x5e
 13768 554a 16000000 		.4byte	.LBB271
 13769 554e 22000000 		.4byte	.LBE271-.LBB271
 13770 5552 64550000 		.4byte	0x5564
 13771 5556 5F       		.uleb128 0x5f
 13772 5557 6900     		.ascii	"i\000"
 13773 5559 01       		.byte	0x1
 13774 555a 5A       		.byte	0x5a
 13775 555b E8000000 		.4byte	0xe8
 13776 555f 35110000 		.4byte	.LLST38
 13777 5563 00       		.byte	0
 13778 5564 37       		.uleb128 0x37
 13779 5565 5E000000 		.4byte	.LVL75
 13780 5569 905B0000 		.4byte	0x5b90
 13781 556d 77550000 		.4byte	0x5577
 13782 5571 38       		.uleb128 0x38
 13783 5572 01       		.uleb128 0x1
 13784 5573 50       		.byte	0x50
 13785 5574 01       		.uleb128 0x1
 13786 5575 30       		.byte	0x30
 13787 5576 00       		.byte	0
 13788 5577 39       		.uleb128 0x39
 13789 5578 6E000000 		.4byte	.LVL76
 13790 557c 395B0000 		.4byte	0x5b39
 13791 5580 39       		.uleb128 0x39
 13792 5581 74000000 		.4byte	.LVL77
 13793 5585 905B0000 		.4byte	0x5b90
 13794 5589 62       		.uleb128 0x62
 13795 558a 8C000000 		.4byte	.LVL78
 13796 558e 9B5B0000 		.4byte	0x5b9b
 13797 5592 39       		.uleb128 0x39
 13798 5593 98000000 		.4byte	.LVL79
 13799 5597 905B0000 		.4byte	0x5b90
 13800 559b 63       		.uleb128 0x63
 13801 559c AC000000 		.4byte	.LVL80
 13802 55a0 9B5B0000 		.4byte	0x5b9b
ARM GAS  C:\Users\adrie\AppData\Local\Temp\cc7EdWgE.s 			page 244


 13803 55a4 38       		.uleb128 0x38
 13804 55a5 01       		.uleb128 0x1
 13805 55a6 50       		.byte	0x50
 13806 55a7 03       		.uleb128 0x3
 13807 55a8 0B       		.byte	0xb
 13808 55a9 A8FD     		.2byte	0xfda8
 13809 55ab 00       		.byte	0
 13810 55ac 00       		.byte	0
 13811 55ad 64       		.uleb128 0x64
 13812 55ae D41D0000 		.4byte	.LASF1012
 13813 55b2 02       		.byte	0x2
 13814 55b3 45       		.byte	0x45
 13815 55b4 2C000000 		.4byte	0x2c
 13816 55b8 03       		.byte	0x3
 13817 55b9 EA550000 		.4byte	0x55ea
 13818 55bd 65       		.uleb128 0x65
 13819 55be 63687000 		.ascii	"chp\000"
 13820 55c2 02       		.byte	0x2
 13821 55c3 45       		.byte	0x45
 13822 55c4 EA550000 		.4byte	0x55ea
 13823 55c8 65       		.uleb128 0x65
 13824 55c9 666D7400 		.ascii	"fmt\000"
 13825 55cd 02       		.byte	0x2
 13826 55ce 45       		.byte	0x45
 13827 55cf 0D110000 		.4byte	0x110d
 13828 55d3 66       		.uleb128 0x66
 13829 55d4 67       		.uleb128 0x67
 13830 55d5 617000   		.ascii	"ap\000"
 13831 55d8 02       		.byte	0x2
 13832 55d9 46       		.byte	0x46
 13833 55da C0440000 		.4byte	0x44c0
 13834 55de 34       		.uleb128 0x34
 13835 55df 6D130000 		.4byte	.LASF1009
 13836 55e3 02       		.byte	0x2
 13837 55e4 47       		.byte	0x47
 13838 55e5 2C000000 		.4byte	0x2c
 13839 55e9 00       		.byte	0
 13840 55ea 0B       		.uleb128 0xb
 13841 55eb 04       		.byte	0x4
 13842 55ec 97140000 		.4byte	0x1497
 13843 55f0 68       		.uleb128 0x68
 13844 55f1 BB180000 		.4byte	.LASF1010
 13845 55f5 07       		.byte	0x7
 13846 55f6 1A01     		.2byte	0x11a
 13847 55f8 03       		.byte	0x3
 13848 55f9 0A560000 		.4byte	0x560a
 13849 55fd 69       		.uleb128 0x69
 13850 55fe 62737000 		.ascii	"bsp\000"
 13851 5602 07       		.byte	0x7
 13852 5603 1A01     		.2byte	0x11a
 13853 5605 0A560000 		.4byte	0x560a
 13854 5609 00       		.byte	0
 13855 560a 0B       		.uleb128 0xb
 13856 560b 04       		.byte	0x4
 13857 560c 77120000 		.4byte	0x1277
 13858 5610 68       		.uleb128 0x68
 13859 5611 1F160000 		.4byte	.LASF1011
ARM GAS  C:\Users\adrie\AppData\Local\Temp\cc7EdWgE.s 			page 245


 13860 5615 07       		.byte	0x7
 13861 5616 0A01     		.2byte	0x10a
 13862 5618 03       		.byte	0x3
 13863 5619 2A560000 		.4byte	0x562a
 13864 561d 69       		.uleb128 0x69
 13865 561e 62737000 		.ascii	"bsp\000"
 13866 5622 07       		.byte	0x7
 13867 5623 0A01     		.2byte	0x10a
 13868 5625 0A560000 		.4byte	0x560a
 13869 5629 00       		.byte	0
 13870 562a 64       		.uleb128 0x64
 13871 562b F0040000 		.4byte	.LASF1013
 13872 562f 07       		.byte	0x7
 13873 5630 8D       		.byte	0x8d
 13874 5631 70010000 		.4byte	0x170
 13875 5635 03       		.byte	0x3
 13876 5636 46560000 		.4byte	0x5646
 13877 563a 65       		.uleb128 0x65
 13878 563b 62737000 		.ascii	"bsp\000"
 13879 563f 07       		.byte	0x7
 13880 5640 8D       		.byte	0x8d
 13881 5641 0A560000 		.4byte	0x560a
 13882 5645 00       		.byte	0
 13883 5646 6A       		.uleb128 0x6a
 13884 5647 81240000 		.4byte	.LASF1014
 13885 564b 03       		.byte	0x3
 13886 564c 84       		.byte	0x84
 13887 564d 03       		.byte	0x3
 13888 564e 5E560000 		.4byte	0x565e
 13889 5652 6B       		.uleb128 0x6b
 13890 5653 49260000 		.4byte	.LASF777
 13891 5657 03       		.byte	0x3
 13892 5658 84       		.byte	0x84
 13893 5659 0D110000 		.4byte	0x110d
 13894 565d 00       		.byte	0
 13895 565e 64       		.uleb128 0x64
 13896 565f 95270000 		.4byte	.LASF1015
 13897 5663 06       		.byte	0x6
 13898 5664 F7       		.byte	0xf7
 13899 5665 A7010000 		.4byte	0x1a7
 13900 5669 03       		.byte	0x3
 13901 566a 7A560000 		.4byte	0x567a
 13902 566e 34       		.uleb128 0x34
 13903 566f 43280000 		.4byte	.LASF1016
 13904 5673 06       		.byte	0x6
 13905 5674 F8       		.byte	0xf8
 13906 5675 A7010000 		.4byte	0x1a7
 13907 5679 00       		.byte	0
 13908 567a 6C       		.uleb128 0x6c
 13909 567b 8B210000 		.4byte	.LASF1049
 13910 567f 06       		.byte	0x6
 13911 5680 E4       		.byte	0xe4
 13912 5681 A7010000 		.4byte	0x1a7
 13913 5685 03       		.byte	0x3
 13914 5686 68       		.uleb128 0x68
 13915 5687 9B240000 		.4byte	.LASF1017
 13916 568b 05       		.byte	0x5
ARM GAS  C:\Users\adrie\AppData\Local\Temp\cc7EdWgE.s 			page 246


 13917 568c 6601     		.2byte	0x166
 13918 568e 03       		.byte	0x3
 13919 568f A1560000 		.4byte	0x56a1
 13920 5693 6D       		.uleb128 0x6d
 13921 5694 69180000 		.4byte	.LASF1018
 13922 5698 5E4B0000 		.4byte	0x4b5e
 13923 569c 9B240000 		.4byte	.LASF1017
 13924 56a0 00       		.byte	0
 13925 56a1 6E       		.uleb128 0x6e
 13926 56a2 BA1A0000 		.4byte	.LASF1019
 13927 56a6 05       		.byte	0x5
 13928 56a7 5A01     		.2byte	0x15a
 13929 56a9 03       		.byte	0x3
 13930 56aa 6E       		.uleb128 0x6e
 13931 56ab 451A0000 		.4byte	.LASF1020
 13932 56af 12       		.byte	0x12
 13933 56b0 CA01     		.2byte	0x1ca
 13934 56b2 03       		.byte	0x3
 13935 56b3 6E       		.uleb128 0x6e
 13936 56b4 671C0000 		.4byte	.LASF1021
 13937 56b8 12       		.byte	0x12
 13938 56b9 BC01     		.2byte	0x1bc
 13939 56bb 03       		.byte	0x3
 13940 56bc 68       		.uleb128 0x68
 13941 56bd 6F280000 		.4byte	.LASF1022
 13942 56c1 04       		.byte	0x4
 13943 56c2 2002     		.2byte	0x220
 13944 56c4 03       		.byte	0x3
 13945 56c5 D6560000 		.4byte	0x56d6
 13946 56c9 52       		.uleb128 0x52
 13947 56ca 480D0000 		.4byte	.LASF902
 13948 56ce 04       		.byte	0x4
 13949 56cf 2002     		.2byte	0x220
 13950 56d1 03010000 		.4byte	0x103
 13951 56d5 00       		.byte	0
 13952 56d6 6F       		.uleb128 0x6f
 13953 56d7 E44C0000 		.4byte	0x4ce4
 13954 56db 00000000 		.4byte	.LFB308
 13955 56df BC000000 		.4byte	.LFE308-.LFB308
 13956 56e3 01       		.uleb128 0x1
 13957 56e4 9C       		.byte	0x9c
 13958 56e5 B7570000 		.4byte	0x57b7
 13959 56e9 42       		.uleb128 0x42
 13960 56ea F54C0000 		.4byte	0x4cf5
 13961 56ee 61110000 		.4byte	.LLST0
 13962 56f2 70       		.uleb128 0x70
 13963 56f3 014D0000 		.4byte	0x4d01
 13964 56f7 12000000 		.4byte	.LBB145
 13965 56fb 06000000 		.4byte	.LBE145-.LBB145
 13966 56ff 0D570000 		.4byte	0x570d
 13967 5703 44       		.uleb128 0x44
 13968 5704 024D0000 		.4byte	0x4d02
 13969 5708 B4110000 		.4byte	.LLST1
 13970 570c 00       		.byte	0
 13971 570d 41       		.uleb128 0x41
 13972 570e 624D0000 		.4byte	0x4d62
 13973 5712 26000000 		.4byte	.LBB146
ARM GAS  C:\Users\adrie\AppData\Local\Temp\cc7EdWgE.s 			page 247


 13974 5716 00000000 		.4byte	.Ldebug_ranges0+0
 13975 571a 01       		.byte	0x1
 13976 571b B801     		.2byte	0x1b8
 13977 571d 5B570000 		.4byte	0x575b
 13978 5721 4F       		.uleb128 0x4f
 13979 5722 734D0000 		.4byte	0x4d73
 13980 5726 43       		.uleb128 0x43
 13981 5727 00000000 		.4byte	.Ldebug_ranges0+0
 13982 572b 44       		.uleb128 0x44
 13983 572c 7F4D0000 		.4byte	0x4d7f
 13984 5730 CE110000 		.4byte	.LLST2
 13985 5734 44       		.uleb128 0x44
 13986 5735 8B4D0000 		.4byte	0x4d8b
 13987 5739 E2110000 		.4byte	.LLST3
 13988 573d 49       		.uleb128 0x49
 13989 573e 974D0000 		.4byte	0x4d97
 13990 5742 71       		.uleb128 0x71
 13991 5743 A34D0000 		.4byte	0x4da3
 13992 5747 2E000000 		.4byte	.LBB148
 13993 574b 2C000000 		.4byte	.LBE148-.LBB148
 13994 574f 44       		.uleb128 0x44
 13995 5750 A44D0000 		.4byte	0x4da4
 13996 5754 00120000 		.4byte	.LLST4
 13997 5758 00       		.byte	0
 13998 5759 00       		.byte	0
 13999 575a 00       		.byte	0
 14000 575b 47       		.uleb128 0x47
 14001 575c 624D0000 		.4byte	0x4d62
 14002 5760 68000000 		.4byte	.LBB150
 14003 5764 34000000 		.4byte	.LBE150-.LBB150
 14004 5768 01       		.byte	0x1
 14005 5769 B501     		.2byte	0x1b5
 14006 576b AD570000 		.4byte	0x57ad
 14007 576f 4F       		.uleb128 0x4f
 14008 5770 734D0000 		.4byte	0x4d73
 14009 5774 48       		.uleb128 0x48
 14010 5775 68000000 		.4byte	.LBB151
 14011 5779 34000000 		.4byte	.LBE151-.LBB151
 14012 577d 44       		.uleb128 0x44
 14013 577e 7F4D0000 		.4byte	0x4d7f
 14014 5782 13120000 		.4byte	.LLST5
 14015 5786 44       		.uleb128 0x44
 14016 5787 8B4D0000 		.4byte	0x4d8b
 14017 578b 27120000 		.4byte	.LLST6
 14018 578f 49       		.uleb128 0x49
 14019 5790 974D0000 		.4byte	0x4d97
 14020 5794 71       		.uleb128 0x71
 14021 5795 A34D0000 		.4byte	0x4da3
 14022 5799 70000000 		.4byte	.LBB152
 14023 579d 2C000000 		.4byte	.LBE152-.LBB152
 14024 57a1 44       		.uleb128 0x44
 14025 57a2 A44D0000 		.4byte	0x4da4
 14026 57a6 45120000 		.4byte	.LLST7
 14027 57aa 00       		.byte	0
 14028 57ab 00       		.byte	0
 14029 57ac 00       		.byte	0
 14030 57ad 39       		.uleb128 0x39
ARM GAS  C:\Users\adrie\AppData\Local\Temp\cc7EdWgE.s 			page 248


 14031 57ae AC000000 		.4byte	.LVL22
 14032 57b2 395B0000 		.4byte	0x5b39
 14033 57b6 00       		.byte	0
 14034 57b7 6F       		.uleb128 0x6f
 14035 57b8 AD550000 		.4byte	0x55ad
 14036 57bc 00000000 		.4byte	.LFB311
 14037 57c0 3C000000 		.4byte	.LFE311-.LFB311
 14038 57c4 01       		.uleb128 0x1
 14039 57c5 9C       		.byte	0x9c
 14040 57c6 24580000 		.4byte	0x5824
 14041 57ca 42       		.uleb128 0x42
 14042 57cb BD550000 		.4byte	0x55bd
 14043 57cf 58120000 		.4byte	.LLST8
 14044 57d3 5A       		.uleb128 0x5a
 14045 57d4 C8550000 		.4byte	0x55c8
 14046 57d8 02       		.uleb128 0x2
 14047 57d9 91       		.byte	0x91
 14048 57da 74       		.sleb128 -12
 14049 57db 46       		.uleb128 0x46
 14050 57dc D4550000 		.4byte	0x55d4
 14051 57e0 02       		.uleb128 0x2
 14052 57e1 91       		.byte	0x91
 14053 57e2 60       		.sleb128 -32
 14054 57e3 44       		.uleb128 0x44
 14055 57e4 DE550000 		.4byte	0x55de
 14056 57e8 79120000 		.4byte	.LLST9
 14057 57ec 5A       		.uleb128 0x5a
 14058 57ed C8550000 		.4byte	0x55c8
 14059 57f1 06       		.uleb128 0x6
 14060 57f2 03       		.byte	0x3
 14061 57f3 00000000 		.4byte	.LC0
 14062 57f7 9F       		.byte	0x9f
 14063 57f8 4F       		.uleb128 0x4f
 14064 57f9 BD550000 		.4byte	0x55bd
 14065 57fd 37       		.uleb128 0x37
 14066 57fe 1A000000 		.4byte	.LVL26
 14067 5802 EA5B0000 		.4byte	0x5bea
 14068 5806 1A580000 		.4byte	0x581a
 14069 580a 38       		.uleb128 0x38
 14070 580b 01       		.uleb128 0x1
 14071 580c 51       		.byte	0x51
 14072 580d 05       		.uleb128 0x5
 14073 580e 03       		.byte	0x3
 14074 580f 00000000 		.4byte	.LC0
 14075 5813 38       		.uleb128 0x38
 14076 5814 01       		.uleb128 0x1
 14077 5815 52       		.byte	0x52
 14078 5816 02       		.uleb128 0x2
 14079 5817 91       		.byte	0x91
 14080 5818 60       		.sleb128 -32
 14081 5819 00       		.byte	0
 14082 581a 39       		.uleb128 0x39
 14083 581b 30000000 		.4byte	.LVL27
 14084 581f 395B0000 		.4byte	0x5b39
 14085 5823 00       		.byte	0
 14086 5824 72       		.uleb128 0x72
 14087 5825 C04E0000 		.4byte	0x4ec0
ARM GAS  C:\Users\adrie\AppData\Local\Temp\cc7EdWgE.s 			page 249


 14088 5829 00000000 		.4byte	.LFB292
 14089 582d 68000000 		.4byte	.LFE292-.LFB292
 14090 5831 01       		.uleb128 0x1
 14091 5832 9C       		.byte	0x9c
 14092 5833 6A580000 		.4byte	0x586a
 14093 5837 42       		.uleb128 0x42
 14094 5838 D14E0000 		.4byte	0x4ed1
 14095 583c 8C120000 		.4byte	.LLST39
 14096 5840 42       		.uleb128 0x42
 14097 5841 DD4E0000 		.4byte	0x4edd
 14098 5845 D1120000 		.4byte	.LLST40
 14099 5849 44       		.uleb128 0x44
 14100 584a E94E0000 		.4byte	0x4ee9
 14101 584e 0B130000 		.4byte	.LLST41
 14102 5852 49       		.uleb128 0x49
 14103 5853 F54E0000 		.4byte	0x4ef5
 14104 5857 62       		.uleb128 0x62
 14105 5858 50000000 		.4byte	.LVL90
 14106 585c 425B0000 		.4byte	0x5b42
 14107 5860 39       		.uleb128 0x39
 14108 5861 54000000 		.4byte	.LVL91
 14109 5865 395B0000 		.4byte	0x5b39
 14110 5869 00       		.byte	0
 14111 586a 6F       		.uleb128 0x6f
 14112 586b FA4D0000 		.4byte	0x4dfa
 14113 586f 00000000 		.4byte	.LFB294
 14114 5873 44000000 		.4byte	.LFE294-.LFB294
 14115 5877 01       		.uleb128 0x1
 14116 5878 9C       		.byte	0x9c
 14117 5879 A8580000 		.4byte	0x58a8
 14118 587d 42       		.uleb128 0x42
 14119 587e 0B4E0000 		.4byte	0x4e0b
 14120 5882 6A130000 		.4byte	.LLST49
 14121 5886 49       		.uleb128 0x49
 14122 5887 174E0000 		.4byte	0x4e17
 14123 588b 40       		.uleb128 0x40
 14124 588c C0010000 		.4byte	.Ldebug_ranges0+0x1c0
 14125 5890 9E580000 		.4byte	0x589e
 14126 5894 44       		.uleb128 0x44
 14127 5895 244E0000 		.4byte	0x4e24
 14128 5899 8B130000 		.4byte	.LLST50
 14129 589d 00       		.byte	0
 14130 589e 39       		.uleb128 0x39
 14131 589f 38000000 		.4byte	.LVL144
 14132 58a3 395B0000 		.4byte	0x5b39
 14133 58a7 00       		.byte	0
 14134 58a8 6F       		.uleb128 0x6f
 14135 58a9 B04D0000 		.4byte	0x4db0
 14136 58ad 00000000 		.4byte	.LFB295
 14137 58b1 44000000 		.4byte	.LFE295-.LFB295
 14138 58b5 01       		.uleb128 0x1
 14139 58b6 9C       		.byte	0x9c
 14140 58b7 F2580000 		.4byte	0x58f2
 14141 58bb 42       		.uleb128 0x42
 14142 58bc BD4D0000 		.4byte	0x4dbd
 14143 58c0 AB130000 		.4byte	.LLST51
 14144 58c4 42       		.uleb128 0x42
ARM GAS  C:\Users\adrie\AppData\Local\Temp\cc7EdWgE.s 			page 250


 14145 58c5 C94D0000 		.4byte	0x4dc9
 14146 58c9 CC130000 		.4byte	.LLST52
 14147 58cd 42       		.uleb128 0x42
 14148 58ce D54D0000 		.4byte	0x4dd5
 14149 58d2 ED130000 		.4byte	.LLST53
 14150 58d6 42       		.uleb128 0x42
 14151 58d7 E14D0000 		.4byte	0x4de1
 14152 58db 1F140000 		.4byte	.LLST54
 14153 58df 42       		.uleb128 0x42
 14154 58e0 ED4D0000 		.4byte	0x4ded
 14155 58e4 40140000 		.4byte	.LLST55
 14156 58e8 39       		.uleb128 0x39
 14157 58e9 3C000000 		.4byte	.LVL151
 14158 58ed 395B0000 		.4byte	0x5b39
 14159 58f1 00       		.byte	0
 14160 58f2 6F       		.uleb128 0x6f
 14161 58f3 624D0000 		.4byte	0x4d62
 14162 58f7 00000000 		.4byte	.LFB296
 14163 58fb 64000000 		.4byte	.LFE296-.LFB296
 14164 58ff 01       		.uleb128 0x1
 14165 5900 9C       		.byte	0x9c
 14166 5901 4A590000 		.4byte	0x594a
 14167 5905 42       		.uleb128 0x42
 14168 5906 734D0000 		.4byte	0x4d73
 14169 590a 60140000 		.4byte	.LLST56
 14170 590e 44       		.uleb128 0x44
 14171 590f 7F4D0000 		.4byte	0x4d7f
 14172 5913 8E140000 		.4byte	.LLST57
 14173 5917 44       		.uleb128 0x44
 14174 5918 8B4D0000 		.4byte	0x4d8b
 14175 591c B2140000 		.4byte	.LLST58
 14176 5920 44       		.uleb128 0x44
 14177 5921 974D0000 		.4byte	0x4d97
 14178 5925 EC140000 		.4byte	.LLST59
 14179 5929 5E       		.uleb128 0x5e
 14180 592a 14000000 		.4byte	.LBB276
 14181 592e 2C000000 		.4byte	.LBE276-.LBB276
 14182 5932 40590000 		.4byte	0x5940
 14183 5936 44       		.uleb128 0x44
 14184 5937 A44D0000 		.4byte	0x4da4
 14185 593b 1D150000 		.4byte	.LLST60
 14186 593f 00       		.byte	0
 14187 5940 39       		.uleb128 0x39
 14188 5941 5A000000 		.4byte	.LVL163
 14189 5945 395B0000 		.4byte	0x5b39
 14190 5949 00       		.byte	0
 14191 594a 6F       		.uleb128 0x6f
 14192 594b E44C0000 		.4byte	0x4ce4
 14193 594f 00000000 		.4byte	.LFB298
 14194 5953 C0000000 		.4byte	.LFE298-.LFB298
 14195 5957 01       		.uleb128 0x1
 14196 5958 9C       		.byte	0x9c
 14197 5959 0C5A0000 		.4byte	0x5a0c
 14198 595d 42       		.uleb128 0x42
 14199 595e F54C0000 		.4byte	0x4cf5
 14200 5962 3C150000 		.4byte	.LLST61
 14201 5966 41       		.uleb128 0x41
ARM GAS  C:\Users\adrie\AppData\Local\Temp\cc7EdWgE.s 			page 251


 14202 5967 624D0000 		.4byte	0x4d62
 14203 596b 28000000 		.4byte	.LBB281
 14204 596f 00020000 		.4byte	.Ldebug_ranges0+0x200
 14205 5973 01       		.byte	0x1
 14206 5974 B201     		.2byte	0x1b2
 14207 5976 A8590000 		.4byte	0x59a8
 14208 597a 4F       		.uleb128 0x4f
 14209 597b 734D0000 		.4byte	0x4d73
 14210 597f 43       		.uleb128 0x43
 14211 5980 00020000 		.4byte	.Ldebug_ranges0+0x200
 14212 5984 49       		.uleb128 0x49
 14213 5985 0E590000 		.4byte	0x590e
 14214 5989 49       		.uleb128 0x49
 14215 598a 17590000 		.4byte	0x5917
 14216 598e 49       		.uleb128 0x49
 14217 598f 20590000 		.4byte	0x5920
 14218 5993 71       		.uleb128 0x71
 14219 5994 29590000 		.4byte	0x5929
 14220 5998 30000000 		.4byte	.LBB283
 14221 599c 2C000000 		.4byte	.LBE283-.LBB283
 14222 59a0 49       		.uleb128 0x49
 14223 59a1 36590000 		.4byte	0x5936
 14224 59a5 00       		.byte	0
 14225 59a6 00       		.byte	0
 14226 59a7 00       		.byte	0
 14227 59a8 47       		.uleb128 0x47
 14228 59a9 624D0000 		.4byte	0x4d62
 14229 59ad 6A000000 		.4byte	.LBB285
 14230 59b1 34000000 		.4byte	.LBE285-.LBB285
 14231 59b5 01       		.byte	0x1
 14232 59b6 AF01     		.2byte	0x1af
 14233 59b8 EE590000 		.4byte	0x59ee
 14234 59bc 4F       		.uleb128 0x4f
 14235 59bd 734D0000 		.4byte	0x4d73
 14236 59c1 48       		.uleb128 0x48
 14237 59c2 6A000000 		.4byte	.LBB286
 14238 59c6 34000000 		.4byte	.LBE286-.LBB286
 14239 59ca 49       		.uleb128 0x49
 14240 59cb 0E590000 		.4byte	0x590e
 14241 59cf 49       		.uleb128 0x49
 14242 59d0 17590000 		.4byte	0x5917
 14243 59d4 49       		.uleb128 0x49
 14244 59d5 20590000 		.4byte	0x5920
 14245 59d9 71       		.uleb128 0x71
 14246 59da 29590000 		.4byte	0x5929
 14247 59de 72000000 		.4byte	.LBB287
 14248 59e2 2C000000 		.4byte	.LBE287-.LBB287
 14249 59e6 49       		.uleb128 0x49
 14250 59e7 36590000 		.4byte	0x5936
 14251 59eb 00       		.byte	0
 14252 59ec 00       		.byte	0
 14253 59ed 00       		.byte	0
 14254 59ee 37       		.uleb128 0x37
 14255 59ef 18000000 		.4byte	.LVL168
 14256 59f3 D6560000 		.4byte	0x56d6
 14257 59f7 025A0000 		.4byte	0x5a02
 14258 59fb 38       		.uleb128 0x38
ARM GAS  C:\Users\adrie\AppData\Local\Temp\cc7EdWgE.s 			page 252


 14259 59fc 01       		.uleb128 0x1
 14260 59fd 50       		.byte	0x50
 14261 59fe 02       		.uleb128 0x2
 14262 59ff 74       		.byte	0x74
 14263 5a00 00       		.sleb128 0
 14264 5a01 00       		.byte	0
 14265 5a02 39       		.uleb128 0x39
 14266 5a03 AE000000 		.4byte	.LVL189
 14267 5a07 395B0000 		.4byte	0x5b39
 14268 5a0b 00       		.byte	0
 14269 5a0c 6F       		.uleb128 0x6f
 14270 5a0d 724C0000 		.4byte	0x4c72
 14271 5a11 00000000 		.4byte	.LFB300
 14272 5a15 88000000 		.4byte	.LFE300-.LFB300
 14273 5a19 01       		.uleb128 0x1
 14274 5a1a 9C       		.byte	0x9c
 14275 5a1b C55A0000 		.4byte	0x5ac5
 14276 5a1f 42       		.uleb128 0x42
 14277 5a20 7F4C0000 		.4byte	0x4c7f
 14278 5a24 8F150000 		.4byte	.LLST63
 14279 5a28 42       		.uleb128 0x42
 14280 5a29 8B4C0000 		.4byte	0x4c8b
 14281 5a2d F8150000 		.4byte	.LLST64
 14282 5a31 42       		.uleb128 0x42
 14283 5a32 974C0000 		.4byte	0x4c97
 14284 5a36 61160000 		.4byte	.LLST65
 14285 5a3a 42       		.uleb128 0x42
 14286 5a3b A34C0000 		.4byte	0x4ca3
 14287 5a3f CA160000 		.4byte	.LLST66
 14288 5a43 70       		.uleb128 0x70
 14289 5a44 724C0000 		.4byte	0x4c72
 14290 5a48 5C000000 		.4byte	.LBB291
 14291 5a4c 0E000000 		.4byte	.LBE291-.LBB291
 14292 5a50 795A0000 		.4byte	0x5a79
 14293 5a54 42       		.uleb128 0x42
 14294 5a55 7F4C0000 		.4byte	0x4c7f
 14295 5a59 33170000 		.4byte	.LLST67
 14296 5a5d 42       		.uleb128 0x42
 14297 5a5e 8B4C0000 		.4byte	0x4c8b
 14298 5a62 46170000 		.4byte	.LLST68
 14299 5a66 42       		.uleb128 0x42
 14300 5a67 974C0000 		.4byte	0x4c97
 14301 5a6b 59170000 		.4byte	.LLST69
 14302 5a6f 42       		.uleb128 0x42
 14303 5a70 A34C0000 		.4byte	0x4ca3
 14304 5a74 6C170000 		.4byte	.LLST70
 14305 5a78 00       		.byte	0
 14306 5a79 39       		.uleb128 0x39
 14307 5a7a 18000000 		.4byte	.LVL209
 14308 5a7e F55B0000 		.4byte	0x5bf5
 14309 5a82 5B       		.uleb128 0x5b
 14310 5a83 3A000000 		.4byte	.LVL211
 14311 5a87 005C0000 		.4byte	0x5c00
 14312 5a8b 9A5A0000 		.4byte	0x5a9a
 14313 5a8f 38       		.uleb128 0x38
 14314 5a90 01       		.uleb128 0x1
 14315 5a91 50       		.byte	0x50
ARM GAS  C:\Users\adrie\AppData\Local\Temp\cc7EdWgE.s 			page 253


 14316 5a92 01       		.uleb128 0x1
 14317 5a93 30       		.byte	0x30
 14318 5a94 38       		.uleb128 0x38
 14319 5a95 01       		.uleb128 0x1
 14320 5a96 51       		.byte	0x51
 14321 5a97 01       		.uleb128 0x1
 14322 5a98 31       		.byte	0x31
 14323 5a99 00       		.byte	0
 14324 5a9a 62       		.uleb128 0x62
 14325 5a9b 5C000000 		.4byte	.LVL213
 14326 5a9f 005C0000 		.4byte	0x5c00
 14327 5aa3 5B       		.uleb128 0x5b
 14328 5aa4 80000000 		.4byte	.LVL216
 14329 5aa8 005C0000 		.4byte	0x5c00
 14330 5aac BB5A0000 		.4byte	0x5abb
 14331 5ab0 38       		.uleb128 0x38
 14332 5ab1 01       		.uleb128 0x1
 14333 5ab2 50       		.byte	0x50
 14334 5ab3 01       		.uleb128 0x1
 14335 5ab4 33       		.byte	0x33
 14336 5ab5 38       		.uleb128 0x38
 14337 5ab6 01       		.uleb128 0x1
 14338 5ab7 51       		.byte	0x51
 14339 5ab8 01       		.uleb128 0x1
 14340 5ab9 31       		.byte	0x31
 14341 5aba 00       		.byte	0
 14342 5abb 39       		.uleb128 0x39
 14343 5abc 84000000 		.4byte	.LVL217
 14344 5ac0 395B0000 		.4byte	0x5b39
 14345 5ac4 00       		.byte	0
 14346 5ac5 6F       		.uleb128 0x6f
 14347 5ac6 D54B0000 		.4byte	0x4bd5
 14348 5aca 00000000 		.4byte	.LFB303
 14349 5ace 28000000 		.4byte	.LFE303-.LFB303
 14350 5ad2 01       		.uleb128 0x1
 14351 5ad3 9C       		.byte	0x9c
 14352 5ad4 E25A0000 		.4byte	0x5ae2
 14353 5ad8 39       		.uleb128 0x39
 14354 5ad9 20000000 		.4byte	.LVL293
 14355 5add 395B0000 		.4byte	0x5b39
 14356 5ae1 00       		.byte	0
 14357 5ae2 6F       		.uleb128 0x6f
 14358 5ae3 634B0000 		.4byte	0x4b63
 14359 5ae7 00000000 		.4byte	.LFB305
 14360 5aeb B0000000 		.4byte	.LFE305-.LFB305
 14361 5aef 01       		.uleb128 0x1
 14362 5af0 9C       		.byte	0x9c
 14363 5af1 2E5B0000 		.4byte	0x5b2e
 14364 5af5 42       		.uleb128 0x42
 14365 5af6 744B0000 		.4byte	0x4b74
 14366 5afa 7F170000 		.4byte	.LLST103
 14367 5afe 42       		.uleb128 0x42
 14368 5aff 804B0000 		.4byte	0x4b80
 14369 5b03 A3170000 		.4byte	.LLST104
 14370 5b07 44       		.uleb128 0x44
 14371 5b08 8C4B0000 		.4byte	0x4b8c
 14372 5b0c C7170000 		.4byte	.LLST105
ARM GAS  C:\Users\adrie\AppData\Local\Temp\cc7EdWgE.s 			page 254


 14373 5b10 44       		.uleb128 0x44
 14374 5b11 984B0000 		.4byte	0x4b98
 14375 5b15 F1170000 		.4byte	.LLST106
 14376 5b19 46       		.uleb128 0x46
 14377 5b1a A44B0000 		.4byte	0x4ba4
 14378 5b1e 05       		.uleb128 0x5
 14379 5b1f 03       		.byte	0x3
 14380 5b20 00000000 		.4byte	sum_error.14346
 14381 5b24 39       		.uleb128 0x39
 14382 5b25 8E000000 		.4byte	.LVL303
 14383 5b29 395B0000 		.4byte	0x5b39
 14384 5b2d 00       		.byte	0
 14385 5b2e 73       		.uleb128 0x73
 14386 5b2f 820A0000 		.4byte	.LASF1023
 14387 5b33 820A0000 		.4byte	.LASF1023
 14388 5b37 48       		.byte	0x48
 14389 5b38 89       		.byte	0x89
 14390 5b39 74       		.uleb128 0x74
 14391 5b3a BA060000 		.4byte	.LASF1050
 14392 5b3e BA060000 		.4byte	.LASF1050
 14393 5b42 73       		.uleb128 0x73
 14394 5b43 E02A0000 		.4byte	.LASF1024
 14395 5b47 E02A0000 		.4byte	.LASF1024
 14396 5b4b 46       		.byte	0x46
 14397 5b4c 70       		.byte	0x70
 14398 5b4d 73       		.uleb128 0x73
 14399 5b4e 7B290000 		.4byte	.LASF1025
 14400 5b52 7B290000 		.4byte	.LASF1025
 14401 5b56 15       		.byte	0x15
 14402 5b57 4F       		.byte	0x4f
 14403 5b58 73       		.uleb128 0x73
 14404 5b59 8F040000 		.4byte	.LASF1026
 14405 5b5d 8F040000 		.4byte	.LASF1026
 14406 5b61 13       		.byte	0x13
 14407 5b62 D8       		.byte	0xd8
 14408 5b63 73       		.uleb128 0x73
 14409 5b64 B6160000 		.4byte	.LASF1027
 14410 5b68 B6160000 		.4byte	.LASF1027
 14411 5b6c 13       		.byte	0x13
 14412 5b6d D9       		.byte	0xd9
 14413 5b6e 73       		.uleb128 0x73
 14414 5b6f 231E0000 		.4byte	.LASF1028
 14415 5b73 231E0000 		.4byte	.LASF1028
 14416 5b77 15       		.byte	0x15
 14417 5b78 50       		.byte	0x50
 14418 5b79 75       		.uleb128 0x75
 14419 5b7a 6C070000 		.4byte	.LASF1029
 14420 5b7e 6C070000 		.4byte	.LASF1029
 14421 5b82 05       		.byte	0x5
 14422 5b83 1601     		.2byte	0x116
 14423 5b85 73       		.uleb128 0x73
 14424 5b86 59290000 		.4byte	.LASF1030
 14425 5b8a 59290000 		.4byte	.LASF1030
 14426 5b8e 48       		.byte	0x48
 14427 5b8f 98       		.byte	0x98
 14428 5b90 73       		.uleb128 0x73
 14429 5b91 791A0000 		.4byte	.LASF1031
ARM GAS  C:\Users\adrie\AppData\Local\Temp\cc7EdWgE.s 			page 255


 14430 5b95 791A0000 		.4byte	.LASF1031
 14431 5b99 49       		.byte	0x49
 14432 5b9a 0E       		.byte	0xe
 14433 5b9b 73       		.uleb128 0x73
 14434 5b9c 0C1B0000 		.4byte	.LASF1032
 14435 5ba0 0C1B0000 		.4byte	.LASF1032
 14436 5ba4 49       		.byte	0x49
 14437 5ba5 15       		.byte	0x15
 14438 5ba6 73       		.uleb128 0x73
 14439 5ba7 502B0000 		.4byte	.LASF1033
 14440 5bab 502B0000 		.4byte	.LASF1033
 14441 5baf 16       		.byte	0x16
 14442 5bb0 5E       		.byte	0x5e
 14443 5bb1 73       		.uleb128 0x73
 14444 5bb2 2D1F0000 		.4byte	.LASF1034
 14445 5bb6 2D1F0000 		.4byte	.LASF1034
 14446 5bba 13       		.byte	0x13
 14447 5bbb DE       		.byte	0xde
 14448 5bbc 73       		.uleb128 0x73
 14449 5bbd BC150000 		.4byte	.LASF1035
 14450 5bc1 BC150000 		.4byte	.LASF1035
 14451 5bc5 16       		.byte	0x16
 14452 5bc6 63       		.byte	0x63
 14453 5bc7 75       		.uleb128 0x75
 14454 5bc8 B81C0000 		.4byte	.LASF1036
 14455 5bcc B81C0000 		.4byte	.LASF1036
 14456 5bd0 0D       		.byte	0xd
 14457 5bd1 1702     		.2byte	0x217
 14458 5bd3 73       		.uleb128 0x73
 14459 5bd4 F5290000 		.4byte	.LASF1037
 14460 5bd8 F5290000 		.4byte	.LASF1037
 14461 5bdc 4A       		.byte	0x4a
 14462 5bdd 0D       		.byte	0xd
 14463 5bde 75       		.uleb128 0x75
 14464 5bdf 72100000 		.4byte	.LASF1038
 14465 5be3 72100000 		.4byte	.LASF1038
 14466 5be7 4B       		.byte	0x4b
 14467 5be8 3619     		.2byte	0x1936
 14468 5bea 73       		.uleb128 0x73
 14469 5beb F1060000 		.4byte	.LASF1039
 14470 5bef F1060000 		.4byte	.LASF1039
 14471 5bf3 02       		.byte	0x2
 14472 5bf4 28       		.byte	0x28
 14473 5bf5 73       		.uleb128 0x73
 14474 5bf6 BB270000 		.4byte	.LASF1040
 14475 5bfa BB270000 		.4byte	.LASF1040
 14476 5bfe 47       		.byte	0x47
 14477 5bff 37       		.byte	0x37
 14478 5c00 73       		.uleb128 0x73
 14479 5c01 53130000 		.4byte	.LASF1041
 14480 5c05 53130000 		.4byte	.LASF1041
 14481 5c09 47       		.byte	0x47
 14482 5c0a 30       		.byte	0x30
 14483 5c0b 00       		.byte	0
 14484              		.section	.debug_abbrev,"",%progbits
 14485              	.Ldebug_abbrev0:
 14486 0000 01       		.uleb128 0x1
ARM GAS  C:\Users\adrie\AppData\Local\Temp\cc7EdWgE.s 			page 256


 14487 0001 11       		.uleb128 0x11
 14488 0002 01       		.byte	0x1
 14489 0003 25       		.uleb128 0x25
 14490 0004 0E       		.uleb128 0xe
 14491 0005 13       		.uleb128 0x13
 14492 0006 0B       		.uleb128 0xb
 14493 0007 03       		.uleb128 0x3
 14494 0008 0E       		.uleb128 0xe
 14495 0009 1B       		.uleb128 0x1b
 14496 000a 0E       		.uleb128 0xe
 14497 000b 55       		.uleb128 0x55
 14498 000c 17       		.uleb128 0x17
 14499 000d 11       		.uleb128 0x11
 14500 000e 01       		.uleb128 0x1
 14501 000f 10       		.uleb128 0x10
 14502 0010 17       		.uleb128 0x17
 14503 0011 00       		.byte	0
 14504 0012 00       		.byte	0
 14505 0013 02       		.uleb128 0x2
 14506 0014 24       		.uleb128 0x24
 14507 0015 00       		.byte	0
 14508 0016 0B       		.uleb128 0xb
 14509 0017 0B       		.uleb128 0xb
 14510 0018 3E       		.uleb128 0x3e
 14511 0019 0B       		.uleb128 0xb
 14512 001a 03       		.uleb128 0x3
 14513 001b 0E       		.uleb128 0xe
 14514 001c 00       		.byte	0
 14515 001d 00       		.byte	0
 14516 001e 03       		.uleb128 0x3
 14517 001f 24       		.uleb128 0x24
 14518 0020 00       		.byte	0
 14519 0021 0B       		.uleb128 0xb
 14520 0022 0B       		.uleb128 0xb
 14521 0023 3E       		.uleb128 0x3e
 14522 0024 0B       		.uleb128 0xb
 14523 0025 03       		.uleb128 0x3
 14524 0026 08       		.uleb128 0x8
 14525 0027 00       		.byte	0
 14526 0028 00       		.byte	0
 14527 0029 04       		.uleb128 0x4
 14528 002a 16       		.uleb128 0x16
 14529 002b 00       		.byte	0
 14530 002c 03       		.uleb128 0x3
 14531 002d 0E       		.uleb128 0xe
 14532 002e 3A       		.uleb128 0x3a
 14533 002f 0B       		.uleb128 0xb
 14534 0030 3B       		.uleb128 0x3b
 14535 0031 0B       		.uleb128 0xb
 14536 0032 49       		.uleb128 0x49
 14537 0033 13       		.uleb128 0x13
 14538 0034 00       		.byte	0
 14539 0035 00       		.byte	0
 14540 0036 05       		.uleb128 0x5
 14541 0037 26       		.uleb128 0x26
 14542 0038 00       		.byte	0
 14543 0039 49       		.uleb128 0x49
ARM GAS  C:\Users\adrie\AppData\Local\Temp\cc7EdWgE.s 			page 257


 14544 003a 13       		.uleb128 0x13
 14545 003b 00       		.byte	0
 14546 003c 00       		.byte	0
 14547 003d 06       		.uleb128 0x6
 14548 003e 35       		.uleb128 0x35
 14549 003f 00       		.byte	0
 14550 0040 49       		.uleb128 0x49
 14551 0041 13       		.uleb128 0x13
 14552 0042 00       		.byte	0
 14553 0043 00       		.byte	0
 14554 0044 07       		.uleb128 0x7
 14555 0045 13       		.uleb128 0x13
 14556 0046 01       		.byte	0x1
 14557 0047 03       		.uleb128 0x3
 14558 0048 0E       		.uleb128 0xe
 14559 0049 0B       		.uleb128 0xb
 14560 004a 0B       		.uleb128 0xb
 14561 004b 3A       		.uleb128 0x3a
 14562 004c 0B       		.uleb128 0xb
 14563 004d 3B       		.uleb128 0x3b
 14564 004e 0B       		.uleb128 0xb
 14565 004f 01       		.uleb128 0x1
 14566 0050 13       		.uleb128 0x13
 14567 0051 00       		.byte	0
 14568 0052 00       		.byte	0
 14569 0053 08       		.uleb128 0x8
 14570 0054 0D       		.uleb128 0xd
 14571 0055 00       		.byte	0
 14572 0056 03       		.uleb128 0x3
 14573 0057 0E       		.uleb128 0xe
 14574 0058 3A       		.uleb128 0x3a
 14575 0059 0B       		.uleb128 0xb
 14576 005a 3B       		.uleb128 0x3b
 14577 005b 0B       		.uleb128 0xb
 14578 005c 49       		.uleb128 0x49
 14579 005d 13       		.uleb128 0x13
 14580 005e 38       		.uleb128 0x38
 14581 005f 0B       		.uleb128 0xb
 14582 0060 00       		.byte	0
 14583 0061 00       		.byte	0
 14584 0062 09       		.uleb128 0x9
 14585 0063 0D       		.uleb128 0xd
 14586 0064 00       		.byte	0
 14587 0065 03       		.uleb128 0x3
 14588 0066 08       		.uleb128 0x8
 14589 0067 3A       		.uleb128 0x3a
 14590 0068 0B       		.uleb128 0xb
 14591 0069 3B       		.uleb128 0x3b
 14592 006a 05       		.uleb128 0x5
 14593 006b 49       		.uleb128 0x49
 14594 006c 13       		.uleb128 0x13
 14595 006d 38       		.uleb128 0x38
 14596 006e 0B       		.uleb128 0xb
 14597 006f 00       		.byte	0
 14598 0070 00       		.byte	0
 14599 0071 0A       		.uleb128 0xa
 14600 0072 0D       		.uleb128 0xd
ARM GAS  C:\Users\adrie\AppData\Local\Temp\cc7EdWgE.s 			page 258


 14601 0073 00       		.byte	0
 14602 0074 03       		.uleb128 0x3
 14603 0075 0E       		.uleb128 0xe
 14604 0076 3A       		.uleb128 0x3a
 14605 0077 0B       		.uleb128 0xb
 14606 0078 3B       		.uleb128 0x3b
 14607 0079 05       		.uleb128 0x5
 14608 007a 49       		.uleb128 0x49
 14609 007b 13       		.uleb128 0x13
 14610 007c 38       		.uleb128 0x38
 14611 007d 0B       		.uleb128 0xb
 14612 007e 00       		.byte	0
 14613 007f 00       		.byte	0
 14614 0080 0B       		.uleb128 0xb
 14615 0081 0F       		.uleb128 0xf
 14616 0082 00       		.byte	0
 14617 0083 0B       		.uleb128 0xb
 14618 0084 0B       		.uleb128 0xb
 14619 0085 49       		.uleb128 0x49
 14620 0086 13       		.uleb128 0x13
 14621 0087 00       		.byte	0
 14622 0088 00       		.byte	0
 14623 0089 0C       		.uleb128 0xc
 14624 008a 13       		.uleb128 0x13
 14625 008b 01       		.byte	0x1
 14626 008c 03       		.uleb128 0x3
 14627 008d 0E       		.uleb128 0xe
 14628 008e 0B       		.uleb128 0xb
 14629 008f 0B       		.uleb128 0xb
 14630 0090 3A       		.uleb128 0x3a
 14631 0091 0B       		.uleb128 0xb
 14632 0092 3B       		.uleb128 0x3b
 14633 0093 05       		.uleb128 0x5
 14634 0094 01       		.uleb128 0x1
 14635 0095 13       		.uleb128 0x13
 14636 0096 00       		.byte	0
 14637 0097 00       		.byte	0
 14638 0098 0D       		.uleb128 0xd
 14639 0099 15       		.uleb128 0x15
 14640 009a 01       		.byte	0x1
 14641 009b 27       		.uleb128 0x27
 14642 009c 19       		.uleb128 0x19
 14643 009d 01       		.uleb128 0x1
 14644 009e 13       		.uleb128 0x13
 14645 009f 00       		.byte	0
 14646 00a0 00       		.byte	0
 14647 00a1 0E       		.uleb128 0xe
 14648 00a2 05       		.uleb128 0x5
 14649 00a3 00       		.byte	0
 14650 00a4 49       		.uleb128 0x49
 14651 00a5 13       		.uleb128 0x13
 14652 00a6 00       		.byte	0
 14653 00a7 00       		.byte	0
 14654 00a8 0F       		.uleb128 0xf
 14655 00a9 0F       		.uleb128 0xf
 14656 00aa 00       		.byte	0
 14657 00ab 0B       		.uleb128 0xb
ARM GAS  C:\Users\adrie\AppData\Local\Temp\cc7EdWgE.s 			page 259


 14658 00ac 0B       		.uleb128 0xb
 14659 00ad 00       		.byte	0
 14660 00ae 00       		.byte	0
 14661 00af 10       		.uleb128 0x10
 14662 00b0 13       		.uleb128 0x13
 14663 00b1 01       		.byte	0x1
 14664 00b2 03       		.uleb128 0x3
 14665 00b3 0E       		.uleb128 0xe
 14666 00b4 0B       		.uleb128 0xb
 14667 00b5 05       		.uleb128 0x5
 14668 00b6 3A       		.uleb128 0x3a
 14669 00b7 0B       		.uleb128 0xb
 14670 00b8 3B       		.uleb128 0x3b
 14671 00b9 05       		.uleb128 0x5
 14672 00ba 01       		.uleb128 0x1
 14673 00bb 13       		.uleb128 0x13
 14674 00bc 00       		.byte	0
 14675 00bd 00       		.byte	0
 14676 00be 11       		.uleb128 0x11
 14677 00bf 0D       		.uleb128 0xd
 14678 00c0 00       		.byte	0
 14679 00c1 03       		.uleb128 0x3
 14680 00c2 0E       		.uleb128 0xe
 14681 00c3 3A       		.uleb128 0x3a
 14682 00c4 0B       		.uleb128 0xb
 14683 00c5 3B       		.uleb128 0x3b
 14684 00c6 05       		.uleb128 0x5
 14685 00c7 49       		.uleb128 0x49
 14686 00c8 13       		.uleb128 0x13
 14687 00c9 38       		.uleb128 0x38
 14688 00ca 05       		.uleb128 0x5
 14689 00cb 00       		.byte	0
 14690 00cc 00       		.byte	0
 14691 00cd 12       		.uleb128 0x12
 14692 00ce 0D       		.uleb128 0xd
 14693 00cf 00       		.byte	0
 14694 00d0 03       		.uleb128 0x3
 14695 00d1 08       		.uleb128 0x8
 14696 00d2 3A       		.uleb128 0x3a
 14697 00d3 0B       		.uleb128 0xb
 14698 00d4 3B       		.uleb128 0x3b
 14699 00d5 05       		.uleb128 0x5
 14700 00d6 49       		.uleb128 0x49
 14701 00d7 13       		.uleb128 0x13
 14702 00d8 38       		.uleb128 0x38
 14703 00d9 05       		.uleb128 0x5
 14704 00da 00       		.byte	0
 14705 00db 00       		.byte	0
 14706 00dc 13       		.uleb128 0x13
 14707 00dd 01       		.uleb128 0x1
 14708 00de 01       		.byte	0x1
 14709 00df 49       		.uleb128 0x49
 14710 00e0 13       		.uleb128 0x13
 14711 00e1 01       		.uleb128 0x1
 14712 00e2 13       		.uleb128 0x13
 14713 00e3 00       		.byte	0
 14714 00e4 00       		.byte	0
ARM GAS  C:\Users\adrie\AppData\Local\Temp\cc7EdWgE.s 			page 260


 14715 00e5 14       		.uleb128 0x14
 14716 00e6 21       		.uleb128 0x21
 14717 00e7 00       		.byte	0
 14718 00e8 49       		.uleb128 0x49
 14719 00e9 13       		.uleb128 0x13
 14720 00ea 2F       		.uleb128 0x2f
 14721 00eb 0B       		.uleb128 0xb
 14722 00ec 00       		.byte	0
 14723 00ed 00       		.byte	0
 14724 00ee 15       		.uleb128 0x15
 14725 00ef 34       		.uleb128 0x34
 14726 00f0 00       		.byte	0
 14727 00f1 03       		.uleb128 0x3
 14728 00f2 0E       		.uleb128 0xe
 14729 00f3 3A       		.uleb128 0x3a
 14730 00f4 0B       		.uleb128 0xb
 14731 00f5 3B       		.uleb128 0x3b
 14732 00f6 05       		.uleb128 0x5
 14733 00f7 49       		.uleb128 0x49
 14734 00f8 13       		.uleb128 0x13
 14735 00f9 3F       		.uleb128 0x3f
 14736 00fa 19       		.uleb128 0x19
 14737 00fb 3C       		.uleb128 0x3c
 14738 00fc 19       		.uleb128 0x19
 14739 00fd 00       		.byte	0
 14740 00fe 00       		.byte	0
 14741 00ff 16       		.uleb128 0x16
 14742 0100 34       		.uleb128 0x34
 14743 0101 00       		.byte	0
 14744 0102 03       		.uleb128 0x3
 14745 0103 0E       		.uleb128 0xe
 14746 0104 3A       		.uleb128 0x3a
 14747 0105 0B       		.uleb128 0xb
 14748 0106 3B       		.uleb128 0x3b
 14749 0107 0B       		.uleb128 0xb
 14750 0108 49       		.uleb128 0x49
 14751 0109 13       		.uleb128 0x13
 14752 010a 3F       		.uleb128 0x3f
 14753 010b 19       		.uleb128 0x19
 14754 010c 3C       		.uleb128 0x3c
 14755 010d 19       		.uleb128 0x19
 14756 010e 00       		.byte	0
 14757 010f 00       		.byte	0
 14758 0110 17       		.uleb128 0x17
 14759 0111 13       		.uleb128 0x13
 14760 0112 01       		.byte	0x1
 14761 0113 0B       		.uleb128 0xb
 14762 0114 0B       		.uleb128 0xb
 14763 0115 3A       		.uleb128 0x3a
 14764 0116 0B       		.uleb128 0xb
 14765 0117 3B       		.uleb128 0x3b
 14766 0118 0B       		.uleb128 0xb
 14767 0119 01       		.uleb128 0x1
 14768 011a 13       		.uleb128 0x13
 14769 011b 00       		.byte	0
 14770 011c 00       		.byte	0
 14771 011d 18       		.uleb128 0x18
ARM GAS  C:\Users\adrie\AppData\Local\Temp\cc7EdWgE.s 			page 261


 14772 011e 0D       		.uleb128 0xd
 14773 011f 00       		.byte	0
 14774 0120 03       		.uleb128 0x3
 14775 0121 08       		.uleb128 0x8
 14776 0122 3A       		.uleb128 0x3a
 14777 0123 0B       		.uleb128 0xb
 14778 0124 3B       		.uleb128 0x3b
 14779 0125 0B       		.uleb128 0xb
 14780 0126 49       		.uleb128 0x49
 14781 0127 13       		.uleb128 0x13
 14782 0128 38       		.uleb128 0x38
 14783 0129 0B       		.uleb128 0xb
 14784 012a 00       		.byte	0
 14785 012b 00       		.byte	0
 14786 012c 19       		.uleb128 0x19
 14787 012d 13       		.uleb128 0x13
 14788 012e 01       		.byte	0x1
 14789 012f 0B       		.uleb128 0xb
 14790 0130 0B       		.uleb128 0xb
 14791 0131 3A       		.uleb128 0x3a
 14792 0132 0B       		.uleb128 0xb
 14793 0133 3B       		.uleb128 0x3b
 14794 0134 05       		.uleb128 0x5
 14795 0135 01       		.uleb128 0x1
 14796 0136 13       		.uleb128 0x13
 14797 0137 00       		.byte	0
 14798 0138 00       		.byte	0
 14799 0139 1A       		.uleb128 0x1a
 14800 013a 16       		.uleb128 0x16
 14801 013b 00       		.byte	0
 14802 013c 03       		.uleb128 0x3
 14803 013d 0E       		.uleb128 0xe
 14804 013e 3A       		.uleb128 0x3a
 14805 013f 0B       		.uleb128 0xb
 14806 0140 3B       		.uleb128 0x3b
 14807 0141 05       		.uleb128 0x5
 14808 0142 49       		.uleb128 0x49
 14809 0143 13       		.uleb128 0x13
 14810 0144 00       		.byte	0
 14811 0145 00       		.byte	0
 14812 0146 1B       		.uleb128 0x1b
 14813 0147 13       		.uleb128 0x13
 14814 0148 01       		.byte	0x1
 14815 0149 0B       		.uleb128 0xb
 14816 014a 05       		.uleb128 0x5
 14817 014b 3A       		.uleb128 0x3a
 14818 014c 0B       		.uleb128 0xb
 14819 014d 3B       		.uleb128 0x3b
 14820 014e 05       		.uleb128 0x5
 14821 014f 01       		.uleb128 0x1
 14822 0150 13       		.uleb128 0x13
 14823 0151 00       		.byte	0
 14824 0152 00       		.byte	0
 14825 0153 1C       		.uleb128 0x1c
 14826 0154 13       		.uleb128 0x13
 14827 0155 01       		.byte	0x1
 14828 0156 0B       		.uleb128 0xb
ARM GAS  C:\Users\adrie\AppData\Local\Temp\cc7EdWgE.s 			page 262


 14829 0157 05       		.uleb128 0x5
 14830 0158 3A       		.uleb128 0x3a
 14831 0159 0B       		.uleb128 0xb
 14832 015a 3B       		.uleb128 0x3b
 14833 015b 0B       		.uleb128 0xb
 14834 015c 01       		.uleb128 0x1
 14835 015d 13       		.uleb128 0x13
 14836 015e 00       		.byte	0
 14837 015f 00       		.byte	0
 14838 0160 1D       		.uleb128 0x1d
 14839 0161 17       		.uleb128 0x17
 14840 0162 01       		.byte	0x1
 14841 0163 0B       		.uleb128 0xb
 14842 0164 0B       		.uleb128 0xb
 14843 0165 3A       		.uleb128 0x3a
 14844 0166 0B       		.uleb128 0xb
 14845 0167 3B       		.uleb128 0x3b
 14846 0168 0B       		.uleb128 0xb
 14847 0169 01       		.uleb128 0x1
 14848 016a 13       		.uleb128 0x13
 14849 016b 00       		.byte	0
 14850 016c 00       		.byte	0
 14851 016d 1E       		.uleb128 0x1e
 14852 016e 0D       		.uleb128 0xd
 14853 016f 00       		.byte	0
 14854 0170 03       		.uleb128 0x3
 14855 0171 0E       		.uleb128 0xe
 14856 0172 3A       		.uleb128 0x3a
 14857 0173 0B       		.uleb128 0xb
 14858 0174 3B       		.uleb128 0x3b
 14859 0175 05       		.uleb128 0x5
 14860 0176 49       		.uleb128 0x49
 14861 0177 13       		.uleb128 0x13
 14862 0178 00       		.byte	0
 14863 0179 00       		.byte	0
 14864 017a 1F       		.uleb128 0x1f
 14865 017b 34       		.uleb128 0x34
 14866 017c 00       		.byte	0
 14867 017d 03       		.uleb128 0x3
 14868 017e 08       		.uleb128 0x8
 14869 017f 3A       		.uleb128 0x3a
 14870 0180 0B       		.uleb128 0xb
 14871 0181 3B       		.uleb128 0x3b
 14872 0182 05       		.uleb128 0x5
 14873 0183 49       		.uleb128 0x49
 14874 0184 13       		.uleb128 0x13
 14875 0185 3F       		.uleb128 0x3f
 14876 0186 19       		.uleb128 0x19
 14877 0187 3C       		.uleb128 0x3c
 14878 0188 19       		.uleb128 0x19
 14879 0189 00       		.byte	0
 14880 018a 00       		.byte	0
 14881 018b 20       		.uleb128 0x20
 14882 018c 15       		.uleb128 0x15
 14883 018d 01       		.byte	0x1
 14884 018e 27       		.uleb128 0x27
 14885 018f 19       		.uleb128 0x19
ARM GAS  C:\Users\adrie\AppData\Local\Temp\cc7EdWgE.s 			page 263


 14886 0190 49       		.uleb128 0x49
 14887 0191 13       		.uleb128 0x13
 14888 0192 01       		.uleb128 0x1
 14889 0193 13       		.uleb128 0x13
 14890 0194 00       		.byte	0
 14891 0195 00       		.byte	0
 14892 0196 21       		.uleb128 0x21
 14893 0197 04       		.uleb128 0x4
 14894 0198 01       		.byte	0x1
 14895 0199 3E       		.uleb128 0x3e
 14896 019a 0B       		.uleb128 0xb
 14897 019b 0B       		.uleb128 0xb
 14898 019c 0B       		.uleb128 0xb
 14899 019d 49       		.uleb128 0x49
 14900 019e 13       		.uleb128 0x13
 14901 019f 3A       		.uleb128 0x3a
 14902 01a0 0B       		.uleb128 0xb
 14903 01a1 3B       		.uleb128 0x3b
 14904 01a2 0B       		.uleb128 0xb
 14905 01a3 01       		.uleb128 0x1
 14906 01a4 13       		.uleb128 0x13
 14907 01a5 00       		.byte	0
 14908 01a6 00       		.byte	0
 14909 01a7 22       		.uleb128 0x22
 14910 01a8 28       		.uleb128 0x28
 14911 01a9 00       		.byte	0
 14912 01aa 03       		.uleb128 0x3
 14913 01ab 0E       		.uleb128 0xe
 14914 01ac 1C       		.uleb128 0x1c
 14915 01ad 0B       		.uleb128 0xb
 14916 01ae 00       		.byte	0
 14917 01af 00       		.byte	0
 14918 01b0 23       		.uleb128 0x23
 14919 01b1 0D       		.uleb128 0xd
 14920 01b2 00       		.byte	0
 14921 01b3 03       		.uleb128 0x3
 14922 01b4 08       		.uleb128 0x8
 14923 01b5 3A       		.uleb128 0x3a
 14924 01b6 0B       		.uleb128 0xb
 14925 01b7 3B       		.uleb128 0x3b
 14926 01b8 0B       		.uleb128 0xb
 14927 01b9 49       		.uleb128 0x49
 14928 01ba 13       		.uleb128 0x13
 14929 01bb 00       		.byte	0
 14930 01bc 00       		.byte	0
 14931 01bd 24       		.uleb128 0x24
 14932 01be 04       		.uleb128 0x4
 14933 01bf 01       		.byte	0x1
 14934 01c0 3E       		.uleb128 0x3e
 14935 01c1 0B       		.uleb128 0xb
 14936 01c2 0B       		.uleb128 0xb
 14937 01c3 0B       		.uleb128 0xb
 14938 01c4 49       		.uleb128 0x49
 14939 01c5 13       		.uleb128 0x13
 14940 01c6 3A       		.uleb128 0x3a
 14941 01c7 0B       		.uleb128 0xb
 14942 01c8 3B       		.uleb128 0x3b
ARM GAS  C:\Users\adrie\AppData\Local\Temp\cc7EdWgE.s 			page 264


 14943 01c9 05       		.uleb128 0x5
 14944 01ca 01       		.uleb128 0x1
 14945 01cb 13       		.uleb128 0x13
 14946 01cc 00       		.byte	0
 14947 01cd 00       		.byte	0
 14948 01ce 25       		.uleb128 0x25
 14949 01cf 26       		.uleb128 0x26
 14950 01d0 00       		.byte	0
 14951 01d1 00       		.byte	0
 14952 01d2 00       		.byte	0
 14953 01d3 26       		.uleb128 0x26
 14954 01d4 13       		.uleb128 0x13
 14955 01d5 01       		.byte	0x1
 14956 01d6 0B       		.uleb128 0xb
 14957 01d7 06       		.uleb128 0x6
 14958 01d8 3A       		.uleb128 0x3a
 14959 01d9 0B       		.uleb128 0xb
 14960 01da 3B       		.uleb128 0x3b
 14961 01db 0B       		.uleb128 0xb
 14962 01dc 01       		.uleb128 0x1
 14963 01dd 13       		.uleb128 0x13
 14964 01de 00       		.byte	0
 14965 01df 00       		.byte	0
 14966 01e0 27       		.uleb128 0x27
 14967 01e1 0D       		.uleb128 0xd
 14968 01e2 00       		.byte	0
 14969 01e3 03       		.uleb128 0x3
 14970 01e4 0E       		.uleb128 0xe
 14971 01e5 3A       		.uleb128 0x3a
 14972 01e6 0B       		.uleb128 0xb
 14973 01e7 3B       		.uleb128 0x3b
 14974 01e8 0B       		.uleb128 0xb
 14975 01e9 49       		.uleb128 0x49
 14976 01ea 13       		.uleb128 0x13
 14977 01eb 38       		.uleb128 0x38
 14978 01ec 05       		.uleb128 0x5
 14979 01ed 00       		.byte	0
 14980 01ee 00       		.byte	0
 14981 01ef 28       		.uleb128 0x28
 14982 01f0 0D       		.uleb128 0xd
 14983 01f1 00       		.byte	0
 14984 01f2 03       		.uleb128 0x3
 14985 01f3 08       		.uleb128 0x8
 14986 01f4 3A       		.uleb128 0x3a
 14987 01f5 0B       		.uleb128 0xb
 14988 01f6 3B       		.uleb128 0x3b
 14989 01f7 0B       		.uleb128 0xb
 14990 01f8 49       		.uleb128 0x49
 14991 01f9 13       		.uleb128 0x13
 14992 01fa 38       		.uleb128 0x38
 14993 01fb 05       		.uleb128 0x5
 14994 01fc 00       		.byte	0
 14995 01fd 00       		.byte	0
 14996 01fe 29       		.uleb128 0x29
 14997 01ff 21       		.uleb128 0x21
 14998 0200 00       		.byte	0
 14999 0201 49       		.uleb128 0x49
ARM GAS  C:\Users\adrie\AppData\Local\Temp\cc7EdWgE.s 			page 265


 15000 0202 13       		.uleb128 0x13
 15001 0203 2F       		.uleb128 0x2f
 15002 0204 05       		.uleb128 0x5
 15003 0205 00       		.byte	0
 15004 0206 00       		.byte	0
 15005 0207 2A       		.uleb128 0x2a
 15006 0208 0D       		.uleb128 0xd
 15007 0209 00       		.byte	0
 15008 020a 03       		.uleb128 0x3
 15009 020b 0E       		.uleb128 0xe
 15010 020c 3A       		.uleb128 0x3a
 15011 020d 0B       		.uleb128 0xb
 15012 020e 3B       		.uleb128 0x3b
 15013 020f 0B       		.uleb128 0xb
 15014 0210 49       		.uleb128 0x49
 15015 0211 13       		.uleb128 0x13
 15016 0212 00       		.byte	0
 15017 0213 00       		.byte	0
 15018 0214 2B       		.uleb128 0x2b
 15019 0215 17       		.uleb128 0x17
 15020 0216 01       		.byte	0x1
 15021 0217 0B       		.uleb128 0xb
 15022 0218 0B       		.uleb128 0xb
 15023 0219 3A       		.uleb128 0x3a
 15024 021a 0B       		.uleb128 0xb
 15025 021b 3B       		.uleb128 0x3b
 15026 021c 05       		.uleb128 0x5
 15027 021d 01       		.uleb128 0x1
 15028 021e 13       		.uleb128 0x13
 15029 021f 00       		.byte	0
 15030 0220 00       		.byte	0
 15031 0221 2C       		.uleb128 0x2c
 15032 0222 13       		.uleb128 0x13
 15033 0223 01       		.byte	0x1
 15034 0224 03       		.uleb128 0x3
 15035 0225 0E       		.uleb128 0xe
 15036 0226 0B       		.uleb128 0xb
 15037 0227 05       		.uleb128 0x5
 15038 0228 3A       		.uleb128 0x3a
 15039 0229 0B       		.uleb128 0xb
 15040 022a 3B       		.uleb128 0x3b
 15041 022b 0B       		.uleb128 0xb
 15042 022c 01       		.uleb128 0x1
 15043 022d 13       		.uleb128 0x13
 15044 022e 00       		.byte	0
 15045 022f 00       		.byte	0
 15046 0230 2D       		.uleb128 0x2d
 15047 0231 13       		.uleb128 0x13
 15048 0232 00       		.byte	0
 15049 0233 03       		.uleb128 0x3
 15050 0234 0E       		.uleb128 0xe
 15051 0235 3C       		.uleb128 0x3c
 15052 0236 19       		.uleb128 0x19
 15053 0237 00       		.byte	0
 15054 0238 00       		.byte	0
 15055 0239 2E       		.uleb128 0x2e
 15056 023a 0D       		.uleb128 0xd
ARM GAS  C:\Users\adrie\AppData\Local\Temp\cc7EdWgE.s 			page 266


 15057 023b 00       		.byte	0
 15058 023c 03       		.uleb128 0x3
 15059 023d 0E       		.uleb128 0xe
 15060 023e 49       		.uleb128 0x49
 15061 023f 13       		.uleb128 0x13
 15062 0240 38       		.uleb128 0x38
 15063 0241 0B       		.uleb128 0xb
 15064 0242 34       		.uleb128 0x34
 15065 0243 19       		.uleb128 0x19
 15066 0244 00       		.byte	0
 15067 0245 00       		.byte	0
 15068 0246 2F       		.uleb128 0x2f
 15069 0247 15       		.uleb128 0x15
 15070 0248 00       		.byte	0
 15071 0249 27       		.uleb128 0x27
 15072 024a 19       		.uleb128 0x19
 15073 024b 00       		.byte	0
 15074 024c 00       		.byte	0
 15075 024d 30       		.uleb128 0x30
 15076 024e 34       		.uleb128 0x34
 15077 024f 00       		.byte	0
 15078 0250 03       		.uleb128 0x3
 15079 0251 08       		.uleb128 0x8
 15080 0252 3A       		.uleb128 0x3a
 15081 0253 0B       		.uleb128 0xb
 15082 0254 3B       		.uleb128 0x3b
 15083 0255 0B       		.uleb128 0xb
 15084 0256 49       		.uleb128 0x49
 15085 0257 13       		.uleb128 0x13
 15086 0258 3F       		.uleb128 0x3f
 15087 0259 19       		.uleb128 0x19
 15088 025a 3C       		.uleb128 0x3c
 15089 025b 19       		.uleb128 0x19
 15090 025c 00       		.byte	0
 15091 025d 00       		.byte	0
 15092 025e 31       		.uleb128 0x31
 15093 025f 04       		.uleb128 0x4
 15094 0260 01       		.byte	0x1
 15095 0261 03       		.uleb128 0x3
 15096 0262 0E       		.uleb128 0xe
 15097 0263 3E       		.uleb128 0x3e
 15098 0264 0B       		.uleb128 0xb
 15099 0265 0B       		.uleb128 0xb
 15100 0266 0B       		.uleb128 0xb
 15101 0267 49       		.uleb128 0x49
 15102 0268 13       		.uleb128 0x13
 15103 0269 3A       		.uleb128 0x3a
 15104 026a 0B       		.uleb128 0xb
 15105 026b 3B       		.uleb128 0x3b
 15106 026c 05       		.uleb128 0x5
 15107 026d 01       		.uleb128 0x1
 15108 026e 13       		.uleb128 0x13
 15109 026f 00       		.byte	0
 15110 0270 00       		.byte	0
 15111 0271 32       		.uleb128 0x32
 15112 0272 28       		.uleb128 0x28
 15113 0273 00       		.byte	0
ARM GAS  C:\Users\adrie\AppData\Local\Temp\cc7EdWgE.s 			page 267


 15114 0274 03       		.uleb128 0x3
 15115 0275 0E       		.uleb128 0xe
 15116 0276 1C       		.uleb128 0x1c
 15117 0277 0D       		.uleb128 0xd
 15118 0278 00       		.byte	0
 15119 0279 00       		.byte	0
 15120 027a 33       		.uleb128 0x33
 15121 027b 34       		.uleb128 0x34
 15122 027c 00       		.byte	0
 15123 027d 03       		.uleb128 0x3
 15124 027e 0E       		.uleb128 0xe
 15125 027f 3A       		.uleb128 0x3a
 15126 0280 0B       		.uleb128 0xb
 15127 0281 3B       		.uleb128 0x3b
 15128 0282 0B       		.uleb128 0xb
 15129 0283 49       		.uleb128 0x49
 15130 0284 13       		.uleb128 0x13
 15131 0285 02       		.uleb128 0x2
 15132 0286 18       		.uleb128 0x18
 15133 0287 00       		.byte	0
 15134 0288 00       		.byte	0
 15135 0289 34       		.uleb128 0x34
 15136 028a 34       		.uleb128 0x34
 15137 028b 00       		.byte	0
 15138 028c 03       		.uleb128 0x3
 15139 028d 0E       		.uleb128 0xe
 15140 028e 3A       		.uleb128 0x3a
 15141 028f 0B       		.uleb128 0xb
 15142 0290 3B       		.uleb128 0x3b
 15143 0291 0B       		.uleb128 0xb
 15144 0292 49       		.uleb128 0x49
 15145 0293 13       		.uleb128 0x13
 15146 0294 00       		.byte	0
 15147 0295 00       		.byte	0
 15148 0296 35       		.uleb128 0x35
 15149 0297 34       		.uleb128 0x34
 15150 0298 00       		.byte	0
 15151 0299 03       		.uleb128 0x3
 15152 029a 0E       		.uleb128 0xe
 15153 029b 3A       		.uleb128 0x3a
 15154 029c 0B       		.uleb128 0xb
 15155 029d 3B       		.uleb128 0x3b
 15156 029e 05       		.uleb128 0x5
 15157 029f 49       		.uleb128 0x49
 15158 02a0 13       		.uleb128 0x13
 15159 02a1 02       		.uleb128 0x2
 15160 02a2 18       		.uleb128 0x18
 15161 02a3 00       		.byte	0
 15162 02a4 00       		.byte	0
 15163 02a5 36       		.uleb128 0x36
 15164 02a6 2E       		.uleb128 0x2e
 15165 02a7 01       		.byte	0x1
 15166 02a8 3F       		.uleb128 0x3f
 15167 02a9 19       		.uleb128 0x19
 15168 02aa 03       		.uleb128 0x3
 15169 02ab 0E       		.uleb128 0xe
 15170 02ac 3A       		.uleb128 0x3a
ARM GAS  C:\Users\adrie\AppData\Local\Temp\cc7EdWgE.s 			page 268


 15171 02ad 0B       		.uleb128 0xb
 15172 02ae 3B       		.uleb128 0x3b
 15173 02af 05       		.uleb128 0x5
 15174 02b0 11       		.uleb128 0x11
 15175 02b1 01       		.uleb128 0x1
 15176 02b2 12       		.uleb128 0x12
 15177 02b3 06       		.uleb128 0x6
 15178 02b4 40       		.uleb128 0x40
 15179 02b5 18       		.uleb128 0x18
 15180 02b6 9742     		.uleb128 0x2117
 15181 02b8 19       		.uleb128 0x19
 15182 02b9 01       		.uleb128 0x1
 15183 02ba 13       		.uleb128 0x13
 15184 02bb 00       		.byte	0
 15185 02bc 00       		.byte	0
 15186 02bd 37       		.uleb128 0x37
 15187 02be 898201   		.uleb128 0x4109
 15188 02c1 01       		.byte	0x1
 15189 02c2 11       		.uleb128 0x11
 15190 02c3 01       		.uleb128 0x1
 15191 02c4 31       		.uleb128 0x31
 15192 02c5 13       		.uleb128 0x13
 15193 02c6 01       		.uleb128 0x1
 15194 02c7 13       		.uleb128 0x13
 15195 02c8 00       		.byte	0
 15196 02c9 00       		.byte	0
 15197 02ca 38       		.uleb128 0x38
 15198 02cb 8A8201   		.uleb128 0x410a
 15199 02ce 00       		.byte	0
 15200 02cf 02       		.uleb128 0x2
 15201 02d0 18       		.uleb128 0x18
 15202 02d1 9142     		.uleb128 0x2111
 15203 02d3 18       		.uleb128 0x18
 15204 02d4 00       		.byte	0
 15205 02d5 00       		.byte	0
 15206 02d6 39       		.uleb128 0x39
 15207 02d7 898201   		.uleb128 0x4109
 15208 02da 00       		.byte	0
 15209 02db 11       		.uleb128 0x11
 15210 02dc 01       		.uleb128 0x1
 15211 02dd 31       		.uleb128 0x31
 15212 02de 13       		.uleb128 0x13
 15213 02df 00       		.byte	0
 15214 02e0 00       		.byte	0
 15215 02e1 3A       		.uleb128 0x3a
 15216 02e2 2E       		.uleb128 0x2e
 15217 02e3 01       		.byte	0x1
 15218 02e4 03       		.uleb128 0x3
 15219 02e5 0E       		.uleb128 0xe
 15220 02e6 3A       		.uleb128 0x3a
 15221 02e7 0B       		.uleb128 0xb
 15222 02e8 3B       		.uleb128 0x3b
 15223 02e9 05       		.uleb128 0x5
 15224 02ea 27       		.uleb128 0x27
 15225 02eb 19       		.uleb128 0x19
 15226 02ec 11       		.uleb128 0x11
 15227 02ed 01       		.uleb128 0x1
ARM GAS  C:\Users\adrie\AppData\Local\Temp\cc7EdWgE.s 			page 269


 15228 02ee 12       		.uleb128 0x12
 15229 02ef 06       		.uleb128 0x6
 15230 02f0 40       		.uleb128 0x40
 15231 02f1 18       		.uleb128 0x18
 15232 02f2 9642     		.uleb128 0x2116
 15233 02f4 19       		.uleb128 0x19
 15234 02f5 01       		.uleb128 0x1
 15235 02f6 13       		.uleb128 0x13
 15236 02f7 00       		.byte	0
 15237 02f8 00       		.byte	0
 15238 02f9 3B       		.uleb128 0x3b
 15239 02fa 05       		.uleb128 0x5
 15240 02fb 00       		.byte	0
 15241 02fc 03       		.uleb128 0x3
 15242 02fd 08       		.uleb128 0x8
 15243 02fe 3A       		.uleb128 0x3a
 15244 02ff 0B       		.uleb128 0xb
 15245 0300 3B       		.uleb128 0x3b
 15246 0301 05       		.uleb128 0x5
 15247 0302 49       		.uleb128 0x49
 15248 0303 13       		.uleb128 0x13
 15249 0304 02       		.uleb128 0x2
 15250 0305 17       		.uleb128 0x17
 15251 0306 00       		.byte	0
 15252 0307 00       		.byte	0
 15253 0308 3C       		.uleb128 0x3c
 15254 0309 34       		.uleb128 0x34
 15255 030a 00       		.byte	0
 15256 030b 03       		.uleb128 0x3
 15257 030c 0E       		.uleb128 0xe
 15258 030d 49       		.uleb128 0x49
 15259 030e 13       		.uleb128 0x13
 15260 030f 34       		.uleb128 0x34
 15261 0310 19       		.uleb128 0x19
 15262 0311 02       		.uleb128 0x2
 15263 0312 18       		.uleb128 0x18
 15264 0313 00       		.byte	0
 15265 0314 00       		.byte	0
 15266 0315 3D       		.uleb128 0x3d
 15267 0316 34       		.uleb128 0x34
 15268 0317 00       		.byte	0
 15269 0318 03       		.uleb128 0x3
 15270 0319 0E       		.uleb128 0xe
 15271 031a 3A       		.uleb128 0x3a
 15272 031b 0B       		.uleb128 0xb
 15273 031c 3B       		.uleb128 0x3b
 15274 031d 05       		.uleb128 0x5
 15275 031e 49       		.uleb128 0x49
 15276 031f 13       		.uleb128 0x13
 15277 0320 00       		.byte	0
 15278 0321 00       		.byte	0
 15279 0322 3E       		.uleb128 0x3e
 15280 0323 34       		.uleb128 0x34
 15281 0324 00       		.byte	0
 15282 0325 03       		.uleb128 0x3
 15283 0326 0E       		.uleb128 0xe
 15284 0327 3A       		.uleb128 0x3a
ARM GAS  C:\Users\adrie\AppData\Local\Temp\cc7EdWgE.s 			page 270


 15285 0328 0B       		.uleb128 0xb
 15286 0329 3B       		.uleb128 0x3b
 15287 032a 05       		.uleb128 0x5
 15288 032b 49       		.uleb128 0x49
 15289 032c 13       		.uleb128 0x13
 15290 032d 1C       		.uleb128 0x1c
 15291 032e 0B       		.uleb128 0xb
 15292 032f 00       		.byte	0
 15293 0330 00       		.byte	0
 15294 0331 3F       		.uleb128 0x3f
 15295 0332 34       		.uleb128 0x34
 15296 0333 00       		.byte	0
 15297 0334 03       		.uleb128 0x3
 15298 0335 0E       		.uleb128 0xe
 15299 0336 3A       		.uleb128 0x3a
 15300 0337 0B       		.uleb128 0xb
 15301 0338 3B       		.uleb128 0x3b
 15302 0339 05       		.uleb128 0x5
 15303 033a 49       		.uleb128 0x49
 15304 033b 13       		.uleb128 0x13
 15305 033c 02       		.uleb128 0x2
 15306 033d 17       		.uleb128 0x17
 15307 033e 00       		.byte	0
 15308 033f 00       		.byte	0
 15309 0340 40       		.uleb128 0x40
 15310 0341 0B       		.uleb128 0xb
 15311 0342 01       		.byte	0x1
 15312 0343 55       		.uleb128 0x55
 15313 0344 17       		.uleb128 0x17
 15314 0345 01       		.uleb128 0x1
 15315 0346 13       		.uleb128 0x13
 15316 0347 00       		.byte	0
 15317 0348 00       		.byte	0
 15318 0349 41       		.uleb128 0x41
 15319 034a 1D       		.uleb128 0x1d
 15320 034b 01       		.byte	0x1
 15321 034c 31       		.uleb128 0x31
 15322 034d 13       		.uleb128 0x13
 15323 034e 52       		.uleb128 0x52
 15324 034f 01       		.uleb128 0x1
 15325 0350 55       		.uleb128 0x55
 15326 0351 17       		.uleb128 0x17
 15327 0352 58       		.uleb128 0x58
 15328 0353 0B       		.uleb128 0xb
 15329 0354 59       		.uleb128 0x59
 15330 0355 05       		.uleb128 0x5
 15331 0356 01       		.uleb128 0x1
 15332 0357 13       		.uleb128 0x13
 15333 0358 00       		.byte	0
 15334 0359 00       		.byte	0
 15335 035a 42       		.uleb128 0x42
 15336 035b 05       		.uleb128 0x5
 15337 035c 00       		.byte	0
 15338 035d 31       		.uleb128 0x31
 15339 035e 13       		.uleb128 0x13
 15340 035f 02       		.uleb128 0x2
 15341 0360 17       		.uleb128 0x17
ARM GAS  C:\Users\adrie\AppData\Local\Temp\cc7EdWgE.s 			page 271


 15342 0361 00       		.byte	0
 15343 0362 00       		.byte	0
 15344 0363 43       		.uleb128 0x43
 15345 0364 0B       		.uleb128 0xb
 15346 0365 01       		.byte	0x1
 15347 0366 55       		.uleb128 0x55
 15348 0367 17       		.uleb128 0x17
 15349 0368 00       		.byte	0
 15350 0369 00       		.byte	0
 15351 036a 44       		.uleb128 0x44
 15352 036b 34       		.uleb128 0x34
 15353 036c 00       		.byte	0
 15354 036d 31       		.uleb128 0x31
 15355 036e 13       		.uleb128 0x13
 15356 036f 02       		.uleb128 0x2
 15357 0370 17       		.uleb128 0x17
 15358 0371 00       		.byte	0
 15359 0372 00       		.byte	0
 15360 0373 45       		.uleb128 0x45
 15361 0374 0B       		.uleb128 0xb
 15362 0375 01       		.byte	0x1
 15363 0376 31       		.uleb128 0x31
 15364 0377 13       		.uleb128 0x13
 15365 0378 55       		.uleb128 0x55
 15366 0379 17       		.uleb128 0x17
 15367 037a 00       		.byte	0
 15368 037b 00       		.byte	0
 15369 037c 46       		.uleb128 0x46
 15370 037d 34       		.uleb128 0x34
 15371 037e 00       		.byte	0
 15372 037f 31       		.uleb128 0x31
 15373 0380 13       		.uleb128 0x13
 15374 0381 02       		.uleb128 0x2
 15375 0382 18       		.uleb128 0x18
 15376 0383 00       		.byte	0
 15377 0384 00       		.byte	0
 15378 0385 47       		.uleb128 0x47
 15379 0386 1D       		.uleb128 0x1d
 15380 0387 01       		.byte	0x1
 15381 0388 31       		.uleb128 0x31
 15382 0389 13       		.uleb128 0x13
 15383 038a 11       		.uleb128 0x11
 15384 038b 01       		.uleb128 0x1
 15385 038c 12       		.uleb128 0x12
 15386 038d 06       		.uleb128 0x6
 15387 038e 58       		.uleb128 0x58
 15388 038f 0B       		.uleb128 0xb
 15389 0390 59       		.uleb128 0x59
 15390 0391 05       		.uleb128 0x5
 15391 0392 01       		.uleb128 0x1
 15392 0393 13       		.uleb128 0x13
 15393 0394 00       		.byte	0
 15394 0395 00       		.byte	0
 15395 0396 48       		.uleb128 0x48
 15396 0397 0B       		.uleb128 0xb
 15397 0398 01       		.byte	0x1
 15398 0399 11       		.uleb128 0x11
ARM GAS  C:\Users\adrie\AppData\Local\Temp\cc7EdWgE.s 			page 272


 15399 039a 01       		.uleb128 0x1
 15400 039b 12       		.uleb128 0x12
 15401 039c 06       		.uleb128 0x6
 15402 039d 00       		.byte	0
 15403 039e 00       		.byte	0
 15404 039f 49       		.uleb128 0x49
 15405 03a0 34       		.uleb128 0x34
 15406 03a1 00       		.byte	0
 15407 03a2 31       		.uleb128 0x31
 15408 03a3 13       		.uleb128 0x13
 15409 03a4 00       		.byte	0
 15410 03a5 00       		.byte	0
 15411 03a6 4A       		.uleb128 0x4a
 15412 03a7 1D       		.uleb128 0x1d
 15413 03a8 01       		.byte	0x1
 15414 03a9 31       		.uleb128 0x31
 15415 03aa 13       		.uleb128 0x13
 15416 03ab 11       		.uleb128 0x11
 15417 03ac 01       		.uleb128 0x1
 15418 03ad 12       		.uleb128 0x12
 15419 03ae 06       		.uleb128 0x6
 15420 03af 58       		.uleb128 0x58
 15421 03b0 0B       		.uleb128 0xb
 15422 03b1 59       		.uleb128 0x59
 15423 03b2 0B       		.uleb128 0xb
 15424 03b3 01       		.uleb128 0x1
 15425 03b4 13       		.uleb128 0x13
 15426 03b5 00       		.byte	0
 15427 03b6 00       		.byte	0
 15428 03b7 4B       		.uleb128 0x4b
 15429 03b8 1D       		.uleb128 0x1d
 15430 03b9 01       		.byte	0x1
 15431 03ba 31       		.uleb128 0x31
 15432 03bb 13       		.uleb128 0x13
 15433 03bc 11       		.uleb128 0x11
 15434 03bd 01       		.uleb128 0x1
 15435 03be 12       		.uleb128 0x12
 15436 03bf 06       		.uleb128 0x6
 15437 03c0 58       		.uleb128 0x58
 15438 03c1 0B       		.uleb128 0xb
 15439 03c2 59       		.uleb128 0x59
 15440 03c3 05       		.uleb128 0x5
 15441 03c4 00       		.byte	0
 15442 03c5 00       		.byte	0
 15443 03c6 4C       		.uleb128 0x4c
 15444 03c7 1D       		.uleb128 0x1d
 15445 03c8 00       		.byte	0
 15446 03c9 31       		.uleb128 0x31
 15447 03ca 13       		.uleb128 0x13
 15448 03cb 11       		.uleb128 0x11
 15449 03cc 01       		.uleb128 0x1
 15450 03cd 12       		.uleb128 0x12
 15451 03ce 06       		.uleb128 0x6
 15452 03cf 58       		.uleb128 0x58
 15453 03d0 0B       		.uleb128 0xb
 15454 03d1 59       		.uleb128 0x59
 15455 03d2 0B       		.uleb128 0xb
ARM GAS  C:\Users\adrie\AppData\Local\Temp\cc7EdWgE.s 			page 273


 15456 03d3 00       		.byte	0
 15457 03d4 00       		.byte	0
 15458 03d5 4D       		.uleb128 0x4d
 15459 03d6 1D       		.uleb128 0x1d
 15460 03d7 01       		.byte	0x1
 15461 03d8 31       		.uleb128 0x31
 15462 03d9 13       		.uleb128 0x13
 15463 03da 11       		.uleb128 0x11
 15464 03db 01       		.uleb128 0x1
 15465 03dc 12       		.uleb128 0x12
 15466 03dd 06       		.uleb128 0x6
 15467 03de 58       		.uleb128 0x58
 15468 03df 0B       		.uleb128 0xb
 15469 03e0 59       		.uleb128 0x59
 15470 03e1 0B       		.uleb128 0xb
 15471 03e2 00       		.byte	0
 15472 03e3 00       		.byte	0
 15473 03e4 4E       		.uleb128 0x4e
 15474 03e5 898201   		.uleb128 0x4109
 15475 03e8 01       		.byte	0x1
 15476 03e9 11       		.uleb128 0x11
 15477 03ea 01       		.uleb128 0x1
 15478 03eb 31       		.uleb128 0x31
 15479 03ec 13       		.uleb128 0x13
 15480 03ed 00       		.byte	0
 15481 03ee 00       		.byte	0
 15482 03ef 4F       		.uleb128 0x4f
 15483 03f0 05       		.uleb128 0x5
 15484 03f1 00       		.byte	0
 15485 03f2 31       		.uleb128 0x31
 15486 03f3 13       		.uleb128 0x13
 15487 03f4 00       		.byte	0
 15488 03f5 00       		.byte	0
 15489 03f6 50       		.uleb128 0x50
 15490 03f7 1D       		.uleb128 0x1d
 15491 03f8 01       		.byte	0x1
 15492 03f9 31       		.uleb128 0x31
 15493 03fa 13       		.uleb128 0x13
 15494 03fb 52       		.uleb128 0x52
 15495 03fc 01       		.uleb128 0x1
 15496 03fd 55       		.uleb128 0x55
 15497 03fe 17       		.uleb128 0x17
 15498 03ff 58       		.uleb128 0x58
 15499 0400 0B       		.uleb128 0xb
 15500 0401 59       		.uleb128 0x59
 15501 0402 05       		.uleb128 0x5
 15502 0403 00       		.byte	0
 15503 0404 00       		.byte	0
 15504 0405 51       		.uleb128 0x51
 15505 0406 2E       		.uleb128 0x2e
 15506 0407 01       		.byte	0x1
 15507 0408 3F       		.uleb128 0x3f
 15508 0409 19       		.uleb128 0x19
 15509 040a 03       		.uleb128 0x3
 15510 040b 0E       		.uleb128 0xe
 15511 040c 3A       		.uleb128 0x3a
 15512 040d 0B       		.uleb128 0xb
ARM GAS  C:\Users\adrie\AppData\Local\Temp\cc7EdWgE.s 			page 274


 15513 040e 3B       		.uleb128 0x3b
 15514 040f 05       		.uleb128 0x5
 15515 0410 27       		.uleb128 0x27
 15516 0411 19       		.uleb128 0x19
 15517 0412 49       		.uleb128 0x49
 15518 0413 13       		.uleb128 0x13
 15519 0414 20       		.uleb128 0x20
 15520 0415 0B       		.uleb128 0xb
 15521 0416 01       		.uleb128 0x1
 15522 0417 13       		.uleb128 0x13
 15523 0418 00       		.byte	0
 15524 0419 00       		.byte	0
 15525 041a 52       		.uleb128 0x52
 15526 041b 05       		.uleb128 0x5
 15527 041c 00       		.byte	0
 15528 041d 03       		.uleb128 0x3
 15529 041e 0E       		.uleb128 0xe
 15530 041f 3A       		.uleb128 0x3a
 15531 0420 0B       		.uleb128 0xb
 15532 0421 3B       		.uleb128 0x3b
 15533 0422 05       		.uleb128 0x5
 15534 0423 49       		.uleb128 0x49
 15535 0424 13       		.uleb128 0x13
 15536 0425 00       		.byte	0
 15537 0426 00       		.byte	0
 15538 0427 53       		.uleb128 0x53
 15539 0428 2E       		.uleb128 0x2e
 15540 0429 01       		.byte	0x1
 15541 042a 3F       		.uleb128 0x3f
 15542 042b 19       		.uleb128 0x19
 15543 042c 03       		.uleb128 0x3
 15544 042d 0E       		.uleb128 0xe
 15545 042e 3A       		.uleb128 0x3a
 15546 042f 0B       		.uleb128 0xb
 15547 0430 3B       		.uleb128 0x3b
 15548 0431 05       		.uleb128 0x5
 15549 0432 27       		.uleb128 0x27
 15550 0433 19       		.uleb128 0x19
 15551 0434 49       		.uleb128 0x49
 15552 0435 13       		.uleb128 0x13
 15553 0436 11       		.uleb128 0x11
 15554 0437 01       		.uleb128 0x1
 15555 0438 12       		.uleb128 0x12
 15556 0439 06       		.uleb128 0x6
 15557 043a 40       		.uleb128 0x40
 15558 043b 18       		.uleb128 0x18
 15559 043c 9742     		.uleb128 0x2117
 15560 043e 19       		.uleb128 0x19
 15561 043f 01       		.uleb128 0x1
 15562 0440 13       		.uleb128 0x13
 15563 0441 00       		.byte	0
 15564 0442 00       		.byte	0
 15565 0443 54       		.uleb128 0x54
 15566 0444 2E       		.uleb128 0x2e
 15567 0445 00       		.byte	0
 15568 0446 3F       		.uleb128 0x3f
 15569 0447 19       		.uleb128 0x19
ARM GAS  C:\Users\adrie\AppData\Local\Temp\cc7EdWgE.s 			page 275


 15570 0448 03       		.uleb128 0x3
 15571 0449 0E       		.uleb128 0xe
 15572 044a 3A       		.uleb128 0x3a
 15573 044b 0B       		.uleb128 0xb
 15574 044c 3B       		.uleb128 0x3b
 15575 044d 05       		.uleb128 0x5
 15576 044e 27       		.uleb128 0x27
 15577 044f 19       		.uleb128 0x19
 15578 0450 49       		.uleb128 0x49
 15579 0451 13       		.uleb128 0x13
 15580 0452 20       		.uleb128 0x20
 15581 0453 0B       		.uleb128 0xb
 15582 0454 00       		.byte	0
 15583 0455 00       		.byte	0
 15584 0456 55       		.uleb128 0x55
 15585 0457 2E       		.uleb128 0x2e
 15586 0458 01       		.byte	0x1
 15587 0459 3F       		.uleb128 0x3f
 15588 045a 19       		.uleb128 0x19
 15589 045b 03       		.uleb128 0x3
 15590 045c 0E       		.uleb128 0xe
 15591 045d 3A       		.uleb128 0x3a
 15592 045e 0B       		.uleb128 0xb
 15593 045f 3B       		.uleb128 0x3b
 15594 0460 05       		.uleb128 0x5
 15595 0461 27       		.uleb128 0x27
 15596 0462 19       		.uleb128 0x19
 15597 0463 11       		.uleb128 0x11
 15598 0464 01       		.uleb128 0x1
 15599 0465 12       		.uleb128 0x12
 15600 0466 06       		.uleb128 0x6
 15601 0467 40       		.uleb128 0x40
 15602 0468 18       		.uleb128 0x18
 15603 0469 9742     		.uleb128 0x2117
 15604 046b 19       		.uleb128 0x19
 15605 046c 01       		.uleb128 0x1
 15606 046d 13       		.uleb128 0x13
 15607 046e 00       		.byte	0
 15608 046f 00       		.byte	0
 15609 0470 56       		.uleb128 0x56
 15610 0471 05       		.uleb128 0x5
 15611 0472 00       		.byte	0
 15612 0473 03       		.uleb128 0x3
 15613 0474 0E       		.uleb128 0xe
 15614 0475 3A       		.uleb128 0x3a
 15615 0476 0B       		.uleb128 0xb
 15616 0477 3B       		.uleb128 0x3b
 15617 0478 05       		.uleb128 0x5
 15618 0479 49       		.uleb128 0x49
 15619 047a 13       		.uleb128 0x13
 15620 047b 02       		.uleb128 0x2
 15621 047c 17       		.uleb128 0x17
 15622 047d 00       		.byte	0
 15623 047e 00       		.byte	0
 15624 047f 57       		.uleb128 0x57
 15625 0480 2E       		.uleb128 0x2e
 15626 0481 01       		.byte	0x1
ARM GAS  C:\Users\adrie\AppData\Local\Temp\cc7EdWgE.s 			page 276


 15627 0482 3F       		.uleb128 0x3f
 15628 0483 19       		.uleb128 0x19
 15629 0484 03       		.uleb128 0x3
 15630 0485 0E       		.uleb128 0xe
 15631 0486 3A       		.uleb128 0x3a
 15632 0487 0B       		.uleb128 0xb
 15633 0488 3B       		.uleb128 0x3b
 15634 0489 05       		.uleb128 0x5
 15635 048a 27       		.uleb128 0x27
 15636 048b 19       		.uleb128 0x19
 15637 048c 20       		.uleb128 0x20
 15638 048d 0B       		.uleb128 0xb
 15639 048e 01       		.uleb128 0x1
 15640 048f 13       		.uleb128 0x13
 15641 0490 00       		.byte	0
 15642 0491 00       		.byte	0
 15643 0492 58       		.uleb128 0x58
 15644 0493 0B       		.uleb128 0xb
 15645 0494 01       		.byte	0x1
 15646 0495 00       		.byte	0
 15647 0496 00       		.byte	0
 15648 0497 59       		.uleb128 0x59
 15649 0498 34       		.uleb128 0x34
 15650 0499 00       		.byte	0
 15651 049a 03       		.uleb128 0x3
 15652 049b 08       		.uleb128 0x8
 15653 049c 3A       		.uleb128 0x3a
 15654 049d 0B       		.uleb128 0xb
 15655 049e 3B       		.uleb128 0x3b
 15656 049f 05       		.uleb128 0x5
 15657 04a0 49       		.uleb128 0x49
 15658 04a1 13       		.uleb128 0x13
 15659 04a2 00       		.byte	0
 15660 04a3 00       		.byte	0
 15661 04a4 5A       		.uleb128 0x5a
 15662 04a5 05       		.uleb128 0x5
 15663 04a6 00       		.byte	0
 15664 04a7 31       		.uleb128 0x31
 15665 04a8 13       		.uleb128 0x13
 15666 04a9 02       		.uleb128 0x2
 15667 04aa 18       		.uleb128 0x18
 15668 04ab 00       		.byte	0
 15669 04ac 00       		.byte	0
 15670 04ad 5B       		.uleb128 0x5b
 15671 04ae 898201   		.uleb128 0x4109
 15672 04b1 01       		.byte	0x1
 15673 04b2 11       		.uleb128 0x11
 15674 04b3 01       		.uleb128 0x1
 15675 04b4 9542     		.uleb128 0x2115
 15676 04b6 19       		.uleb128 0x19
 15677 04b7 31       		.uleb128 0x31
 15678 04b8 13       		.uleb128 0x13
 15679 04b9 01       		.uleb128 0x1
 15680 04ba 13       		.uleb128 0x13
 15681 04bb 00       		.byte	0
 15682 04bc 00       		.byte	0
 15683 04bd 5C       		.uleb128 0x5c
ARM GAS  C:\Users\adrie\AppData\Local\Temp\cc7EdWgE.s 			page 277


 15684 04be 2E       		.uleb128 0x2e
 15685 04bf 01       		.byte	0x1
 15686 04c0 3F       		.uleb128 0x3f
 15687 04c1 19       		.uleb128 0x19
 15688 04c2 03       		.uleb128 0x3
 15689 04c3 0E       		.uleb128 0xe
 15690 04c4 3A       		.uleb128 0x3a
 15691 04c5 0B       		.uleb128 0xb
 15692 04c6 3B       		.uleb128 0x3b
 15693 04c7 0B       		.uleb128 0xb
 15694 04c8 27       		.uleb128 0x27
 15695 04c9 19       		.uleb128 0x19
 15696 04ca 11       		.uleb128 0x11
 15697 04cb 01       		.uleb128 0x1
 15698 04cc 12       		.uleb128 0x12
 15699 04cd 06       		.uleb128 0x6
 15700 04ce 40       		.uleb128 0x40
 15701 04cf 18       		.uleb128 0x18
 15702 04d0 9742     		.uleb128 0x2117
 15703 04d2 19       		.uleb128 0x19
 15704 04d3 01       		.uleb128 0x1
 15705 04d4 13       		.uleb128 0x13
 15706 04d5 00       		.byte	0
 15707 04d6 00       		.byte	0
 15708 04d7 5D       		.uleb128 0x5d
 15709 04d8 05       		.uleb128 0x5
 15710 04d9 00       		.byte	0
 15711 04da 03       		.uleb128 0x3
 15712 04db 0E       		.uleb128 0xe
 15713 04dc 3A       		.uleb128 0x3a
 15714 04dd 0B       		.uleb128 0xb
 15715 04de 3B       		.uleb128 0x3b
 15716 04df 0B       		.uleb128 0xb
 15717 04e0 49       		.uleb128 0x49
 15718 04e1 13       		.uleb128 0x13
 15719 04e2 02       		.uleb128 0x2
 15720 04e3 17       		.uleb128 0x17
 15721 04e4 00       		.byte	0
 15722 04e5 00       		.byte	0
 15723 04e6 5E       		.uleb128 0x5e
 15724 04e7 0B       		.uleb128 0xb
 15725 04e8 01       		.byte	0x1
 15726 04e9 11       		.uleb128 0x11
 15727 04ea 01       		.uleb128 0x1
 15728 04eb 12       		.uleb128 0x12
 15729 04ec 06       		.uleb128 0x6
 15730 04ed 01       		.uleb128 0x1
 15731 04ee 13       		.uleb128 0x13
 15732 04ef 00       		.byte	0
 15733 04f0 00       		.byte	0
 15734 04f1 5F       		.uleb128 0x5f
 15735 04f2 34       		.uleb128 0x34
 15736 04f3 00       		.byte	0
 15737 04f4 03       		.uleb128 0x3
 15738 04f5 08       		.uleb128 0x8
 15739 04f6 3A       		.uleb128 0x3a
 15740 04f7 0B       		.uleb128 0xb
ARM GAS  C:\Users\adrie\AppData\Local\Temp\cc7EdWgE.s 			page 278


 15741 04f8 3B       		.uleb128 0x3b
 15742 04f9 0B       		.uleb128 0xb
 15743 04fa 49       		.uleb128 0x49
 15744 04fb 13       		.uleb128 0x13
 15745 04fc 02       		.uleb128 0x2
 15746 04fd 17       		.uleb128 0x17
 15747 04fe 00       		.byte	0
 15748 04ff 00       		.byte	0
 15749 0500 60       		.uleb128 0x60
 15750 0501 34       		.uleb128 0x34
 15751 0502 00       		.byte	0
 15752 0503 03       		.uleb128 0x3
 15753 0504 0E       		.uleb128 0xe
 15754 0505 3A       		.uleb128 0x3a
 15755 0506 0B       		.uleb128 0xb
 15756 0507 3B       		.uleb128 0x3b
 15757 0508 0B       		.uleb128 0xb
 15758 0509 49       		.uleb128 0x49
 15759 050a 13       		.uleb128 0x13
 15760 050b 02       		.uleb128 0x2
 15761 050c 17       		.uleb128 0x17
 15762 050d 00       		.byte	0
 15763 050e 00       		.byte	0
 15764 050f 61       		.uleb128 0x61
 15765 0510 1D       		.uleb128 0x1d
 15766 0511 01       		.byte	0x1
 15767 0512 31       		.uleb128 0x31
 15768 0513 13       		.uleb128 0x13
 15769 0514 52       		.uleb128 0x52
 15770 0515 01       		.uleb128 0x1
 15771 0516 55       		.uleb128 0x55
 15772 0517 17       		.uleb128 0x17
 15773 0518 58       		.uleb128 0x58
 15774 0519 0B       		.uleb128 0xb
 15775 051a 59       		.uleb128 0x59
 15776 051b 0B       		.uleb128 0xb
 15777 051c 01       		.uleb128 0x1
 15778 051d 13       		.uleb128 0x13
 15779 051e 00       		.byte	0
 15780 051f 00       		.byte	0
 15781 0520 62       		.uleb128 0x62
 15782 0521 898201   		.uleb128 0x4109
 15783 0524 00       		.byte	0
 15784 0525 11       		.uleb128 0x11
 15785 0526 01       		.uleb128 0x1
 15786 0527 9542     		.uleb128 0x2115
 15787 0529 19       		.uleb128 0x19
 15788 052a 31       		.uleb128 0x31
 15789 052b 13       		.uleb128 0x13
 15790 052c 00       		.byte	0
 15791 052d 00       		.byte	0
 15792 052e 63       		.uleb128 0x63
 15793 052f 898201   		.uleb128 0x4109
 15794 0532 01       		.byte	0x1
 15795 0533 11       		.uleb128 0x11
 15796 0534 01       		.uleb128 0x1
 15797 0535 9542     		.uleb128 0x2115
ARM GAS  C:\Users\adrie\AppData\Local\Temp\cc7EdWgE.s 			page 279


 15798 0537 19       		.uleb128 0x19
 15799 0538 31       		.uleb128 0x31
 15800 0539 13       		.uleb128 0x13
 15801 053a 00       		.byte	0
 15802 053b 00       		.byte	0
 15803 053c 64       		.uleb128 0x64
 15804 053d 2E       		.uleb128 0x2e
 15805 053e 01       		.byte	0x1
 15806 053f 03       		.uleb128 0x3
 15807 0540 0E       		.uleb128 0xe
 15808 0541 3A       		.uleb128 0x3a
 15809 0542 0B       		.uleb128 0xb
 15810 0543 3B       		.uleb128 0x3b
 15811 0544 0B       		.uleb128 0xb
 15812 0545 27       		.uleb128 0x27
 15813 0546 19       		.uleb128 0x19
 15814 0547 49       		.uleb128 0x49
 15815 0548 13       		.uleb128 0x13
 15816 0549 20       		.uleb128 0x20
 15817 054a 0B       		.uleb128 0xb
 15818 054b 01       		.uleb128 0x1
 15819 054c 13       		.uleb128 0x13
 15820 054d 00       		.byte	0
 15821 054e 00       		.byte	0
 15822 054f 65       		.uleb128 0x65
 15823 0550 05       		.uleb128 0x5
 15824 0551 00       		.byte	0
 15825 0552 03       		.uleb128 0x3
 15826 0553 08       		.uleb128 0x8
 15827 0554 3A       		.uleb128 0x3a
 15828 0555 0B       		.uleb128 0xb
 15829 0556 3B       		.uleb128 0x3b
 15830 0557 0B       		.uleb128 0xb
 15831 0558 49       		.uleb128 0x49
 15832 0559 13       		.uleb128 0x13
 15833 055a 00       		.byte	0
 15834 055b 00       		.byte	0
 15835 055c 66       		.uleb128 0x66
 15836 055d 18       		.uleb128 0x18
 15837 055e 00       		.byte	0
 15838 055f 00       		.byte	0
 15839 0560 00       		.byte	0
 15840 0561 67       		.uleb128 0x67
 15841 0562 34       		.uleb128 0x34
 15842 0563 00       		.byte	0
 15843 0564 03       		.uleb128 0x3
 15844 0565 08       		.uleb128 0x8
 15845 0566 3A       		.uleb128 0x3a
 15846 0567 0B       		.uleb128 0xb
 15847 0568 3B       		.uleb128 0x3b
 15848 0569 0B       		.uleb128 0xb
 15849 056a 49       		.uleb128 0x49
 15850 056b 13       		.uleb128 0x13
 15851 056c 00       		.byte	0
 15852 056d 00       		.byte	0
 15853 056e 68       		.uleb128 0x68
 15854 056f 2E       		.uleb128 0x2e
ARM GAS  C:\Users\adrie\AppData\Local\Temp\cc7EdWgE.s 			page 280


 15855 0570 01       		.byte	0x1
 15856 0571 03       		.uleb128 0x3
 15857 0572 0E       		.uleb128 0xe
 15858 0573 3A       		.uleb128 0x3a
 15859 0574 0B       		.uleb128 0xb
 15860 0575 3B       		.uleb128 0x3b
 15861 0576 05       		.uleb128 0x5
 15862 0577 27       		.uleb128 0x27
 15863 0578 19       		.uleb128 0x19
 15864 0579 20       		.uleb128 0x20
 15865 057a 0B       		.uleb128 0xb
 15866 057b 01       		.uleb128 0x1
 15867 057c 13       		.uleb128 0x13
 15868 057d 00       		.byte	0
 15869 057e 00       		.byte	0
 15870 057f 69       		.uleb128 0x69
 15871 0580 05       		.uleb128 0x5
 15872 0581 00       		.byte	0
 15873 0582 03       		.uleb128 0x3
 15874 0583 08       		.uleb128 0x8
 15875 0584 3A       		.uleb128 0x3a
 15876 0585 0B       		.uleb128 0xb
 15877 0586 3B       		.uleb128 0x3b
 15878 0587 05       		.uleb128 0x5
 15879 0588 49       		.uleb128 0x49
 15880 0589 13       		.uleb128 0x13
 15881 058a 00       		.byte	0
 15882 058b 00       		.byte	0
 15883 058c 6A       		.uleb128 0x6a
 15884 058d 2E       		.uleb128 0x2e
 15885 058e 01       		.byte	0x1
 15886 058f 03       		.uleb128 0x3
 15887 0590 0E       		.uleb128 0xe
 15888 0591 3A       		.uleb128 0x3a
 15889 0592 0B       		.uleb128 0xb
 15890 0593 3B       		.uleb128 0x3b
 15891 0594 0B       		.uleb128 0xb
 15892 0595 27       		.uleb128 0x27
 15893 0596 19       		.uleb128 0x19
 15894 0597 20       		.uleb128 0x20
 15895 0598 0B       		.uleb128 0xb
 15896 0599 01       		.uleb128 0x1
 15897 059a 13       		.uleb128 0x13
 15898 059b 00       		.byte	0
 15899 059c 00       		.byte	0
 15900 059d 6B       		.uleb128 0x6b
 15901 059e 05       		.uleb128 0x5
 15902 059f 00       		.byte	0
 15903 05a0 03       		.uleb128 0x3
 15904 05a1 0E       		.uleb128 0xe
 15905 05a2 3A       		.uleb128 0x3a
 15906 05a3 0B       		.uleb128 0xb
 15907 05a4 3B       		.uleb128 0x3b
 15908 05a5 0B       		.uleb128 0xb
 15909 05a6 49       		.uleb128 0x49
 15910 05a7 13       		.uleb128 0x13
 15911 05a8 00       		.byte	0
ARM GAS  C:\Users\adrie\AppData\Local\Temp\cc7EdWgE.s 			page 281


 15912 05a9 00       		.byte	0
 15913 05aa 6C       		.uleb128 0x6c
 15914 05ab 2E       		.uleb128 0x2e
 15915 05ac 00       		.byte	0
 15916 05ad 03       		.uleb128 0x3
 15917 05ae 0E       		.uleb128 0xe
 15918 05af 3A       		.uleb128 0x3a
 15919 05b0 0B       		.uleb128 0xb
 15920 05b1 3B       		.uleb128 0x3b
 15921 05b2 0B       		.uleb128 0xb
 15922 05b3 27       		.uleb128 0x27
 15923 05b4 19       		.uleb128 0x19
 15924 05b5 49       		.uleb128 0x49
 15925 05b6 13       		.uleb128 0x13
 15926 05b7 20       		.uleb128 0x20
 15927 05b8 0B       		.uleb128 0xb
 15928 05b9 00       		.byte	0
 15929 05ba 00       		.byte	0
 15930 05bb 6D       		.uleb128 0x6d
 15931 05bc 34       		.uleb128 0x34
 15932 05bd 00       		.byte	0
 15933 05be 03       		.uleb128 0x3
 15934 05bf 0E       		.uleb128 0xe
 15935 05c0 49       		.uleb128 0x49
 15936 05c1 13       		.uleb128 0x13
 15937 05c2 34       		.uleb128 0x34
 15938 05c3 19       		.uleb128 0x19
 15939 05c4 1C       		.uleb128 0x1c
 15940 05c5 0E       		.uleb128 0xe
 15941 05c6 00       		.byte	0
 15942 05c7 00       		.byte	0
 15943 05c8 6E       		.uleb128 0x6e
 15944 05c9 2E       		.uleb128 0x2e
 15945 05ca 00       		.byte	0
 15946 05cb 03       		.uleb128 0x3
 15947 05cc 0E       		.uleb128 0xe
 15948 05cd 3A       		.uleb128 0x3a
 15949 05ce 0B       		.uleb128 0xb
 15950 05cf 3B       		.uleb128 0x3b
 15951 05d0 05       		.uleb128 0x5
 15952 05d1 27       		.uleb128 0x27
 15953 05d2 19       		.uleb128 0x19
 15954 05d3 20       		.uleb128 0x20
 15955 05d4 0B       		.uleb128 0xb
 15956 05d5 00       		.byte	0
 15957 05d6 00       		.byte	0
 15958 05d7 6F       		.uleb128 0x6f
 15959 05d8 2E       		.uleb128 0x2e
 15960 05d9 01       		.byte	0x1
 15961 05da 31       		.uleb128 0x31
 15962 05db 13       		.uleb128 0x13
 15963 05dc 11       		.uleb128 0x11
 15964 05dd 01       		.uleb128 0x1
 15965 05de 12       		.uleb128 0x12
 15966 05df 06       		.uleb128 0x6
 15967 05e0 40       		.uleb128 0x40
 15968 05e1 18       		.uleb128 0x18
ARM GAS  C:\Users\adrie\AppData\Local\Temp\cc7EdWgE.s 			page 282


 15969 05e2 9742     		.uleb128 0x2117
 15970 05e4 19       		.uleb128 0x19
 15971 05e5 01       		.uleb128 0x1
 15972 05e6 13       		.uleb128 0x13
 15973 05e7 00       		.byte	0
 15974 05e8 00       		.byte	0
 15975 05e9 70       		.uleb128 0x70
 15976 05ea 0B       		.uleb128 0xb
 15977 05eb 01       		.byte	0x1
 15978 05ec 31       		.uleb128 0x31
 15979 05ed 13       		.uleb128 0x13
 15980 05ee 11       		.uleb128 0x11
 15981 05ef 01       		.uleb128 0x1
 15982 05f0 12       		.uleb128 0x12
 15983 05f1 06       		.uleb128 0x6
 15984 05f2 01       		.uleb128 0x1
 15985 05f3 13       		.uleb128 0x13
 15986 05f4 00       		.byte	0
 15987 05f5 00       		.byte	0
 15988 05f6 71       		.uleb128 0x71
 15989 05f7 0B       		.uleb128 0xb
 15990 05f8 01       		.byte	0x1
 15991 05f9 31       		.uleb128 0x31
 15992 05fa 13       		.uleb128 0x13
 15993 05fb 11       		.uleb128 0x11
 15994 05fc 01       		.uleb128 0x1
 15995 05fd 12       		.uleb128 0x12
 15996 05fe 06       		.uleb128 0x6
 15997 05ff 00       		.byte	0
 15998 0600 00       		.byte	0
 15999 0601 72       		.uleb128 0x72
 16000 0602 2E       		.uleb128 0x2e
 16001 0603 01       		.byte	0x1
 16002 0604 31       		.uleb128 0x31
 16003 0605 13       		.uleb128 0x13
 16004 0606 11       		.uleb128 0x11
 16005 0607 01       		.uleb128 0x1
 16006 0608 12       		.uleb128 0x12
 16007 0609 06       		.uleb128 0x6
 16008 060a 40       		.uleb128 0x40
 16009 060b 18       		.uleb128 0x18
 16010 060c 9642     		.uleb128 0x2116
 16011 060e 19       		.uleb128 0x19
 16012 060f 01       		.uleb128 0x1
 16013 0610 13       		.uleb128 0x13
 16014 0611 00       		.byte	0
 16015 0612 00       		.byte	0
 16016 0613 73       		.uleb128 0x73
 16017 0614 2E       		.uleb128 0x2e
 16018 0615 00       		.byte	0
 16019 0616 3F       		.uleb128 0x3f
 16020 0617 19       		.uleb128 0x19
 16021 0618 3C       		.uleb128 0x3c
 16022 0619 19       		.uleb128 0x19
 16023 061a 6E       		.uleb128 0x6e
 16024 061b 0E       		.uleb128 0xe
 16025 061c 03       		.uleb128 0x3
ARM GAS  C:\Users\adrie\AppData\Local\Temp\cc7EdWgE.s 			page 283


 16026 061d 0E       		.uleb128 0xe
 16027 061e 3A       		.uleb128 0x3a
 16028 061f 0B       		.uleb128 0xb
 16029 0620 3B       		.uleb128 0x3b
 16030 0621 0B       		.uleb128 0xb
 16031 0622 00       		.byte	0
 16032 0623 00       		.byte	0
 16033 0624 74       		.uleb128 0x74
 16034 0625 2E       		.uleb128 0x2e
 16035 0626 00       		.byte	0
 16036 0627 3F       		.uleb128 0x3f
 16037 0628 19       		.uleb128 0x19
 16038 0629 3C       		.uleb128 0x3c
 16039 062a 19       		.uleb128 0x19
 16040 062b 6E       		.uleb128 0x6e
 16041 062c 0E       		.uleb128 0xe
 16042 062d 03       		.uleb128 0x3
 16043 062e 0E       		.uleb128 0xe
 16044 062f 00       		.byte	0
 16045 0630 00       		.byte	0
 16046 0631 75       		.uleb128 0x75
 16047 0632 2E       		.uleb128 0x2e
 16048 0633 00       		.byte	0
 16049 0634 3F       		.uleb128 0x3f
 16050 0635 19       		.uleb128 0x19
 16051 0636 3C       		.uleb128 0x3c
 16052 0637 19       		.uleb128 0x19
 16053 0638 6E       		.uleb128 0x6e
 16054 0639 0E       		.uleb128 0xe
 16055 063a 03       		.uleb128 0x3
 16056 063b 0E       		.uleb128 0xe
 16057 063c 3A       		.uleb128 0x3a
 16058 063d 0B       		.uleb128 0xb
 16059 063e 3B       		.uleb128 0x3b
 16060 063f 05       		.uleb128 0x5
 16061 0640 00       		.byte	0
 16062 0641 00       		.byte	0
 16063 0642 00       		.byte	0
 16064              		.section	.debug_loc,"",%progbits
 16065              	.Ldebug_loc0:
 16066              	.LLST10:
 16067 0000 00000000 		.4byte	.LVL28
 16068 0004 2C000000 		.4byte	.LVL30
 16069 0008 0100     		.2byte	0x1
 16070 000a 50       		.byte	0x50
 16071 000b 2C000000 		.4byte	.LVL30
 16072 000f 28020000 		.4byte	.LFE306
 16073 0013 0400     		.2byte	0x4
 16074 0015 F3       		.byte	0xf3
 16075 0016 01       		.uleb128 0x1
 16076 0017 50       		.byte	0x50
 16077 0018 9F       		.byte	0x9f
 16078 0019 00000000 		.4byte	0
 16079 001d 00000000 		.4byte	0
 16080              	.LLST11:
 16081 0021 28000000 		.4byte	.LVL29
 16082 0025 2C000000 		.4byte	.LVL30
ARM GAS  C:\Users\adrie\AppData\Local\Temp\cc7EdWgE.s 			page 284


 16083 0029 0200     		.2byte	0x2
 16084 002b 30       		.byte	0x30
 16085 002c 9F       		.byte	0x9f
 16086 002d 00000000 		.4byte	0
 16087 0031 00000000 		.4byte	0
 16088              	.LLST12:
 16089 0035 28000000 		.4byte	.LVL29
 16090 0039 2C000000 		.4byte	.LVL30
 16091 003d 0200     		.2byte	0x2
 16092 003f 30       		.byte	0x30
 16093 0040 9F       		.byte	0x9f
 16094 0041 2C000000 		.4byte	.LVL30
 16095 0045 E4000000 		.4byte	.LVL46
 16096 0049 0100     		.2byte	0x1
 16097 004b 5B       		.byte	0x5b
 16098 004c 7A010000 		.4byte	.LVL58
 16099 0050 28020000 		.4byte	.LFE306
 16100 0054 0100     		.2byte	0x1
 16101 0056 5B       		.byte	0x5b
 16102 0057 00000000 		.4byte	0
 16103 005b 00000000 		.4byte	0
 16104              	.LLST13:
 16105 005f 28000000 		.4byte	.LVL29
 16106 0063 2C000000 		.4byte	.LVL30
 16107 0067 0200     		.2byte	0x2
 16108 0069 30       		.byte	0x30
 16109 006a 9F       		.byte	0x9f
 16110 006b 2C000000 		.4byte	.LVL30
 16111 006f DA000000 		.4byte	.LVL45
 16112 0073 0100     		.2byte	0x1
 16113 0075 56       		.byte	0x56
 16114 0076 E4000000 		.4byte	.LVL46
 16115 007a 88010000 		.4byte	.LVL59
 16116 007e 0100     		.2byte	0x1
 16117 0080 56       		.byte	0x56
 16118 0081 88010000 		.4byte	.LVL59
 16119 0085 9E010000 		.4byte	.LVL62
 16120 0089 0200     		.2byte	0x2
 16121 008b 30       		.byte	0x30
 16122 008c 9F       		.byte	0x9f
 16123 008d AC010000 		.4byte	.LVL65
 16124 0091 C6010000 		.4byte	.LVL66
 16125 0095 0100     		.2byte	0x1
 16126 0097 56       		.byte	0x56
 16127 0098 C6010000 		.4byte	.LVL66
 16128 009c 28020000 		.4byte	.LFE306
 16129 00a0 0200     		.2byte	0x2
 16130 00a2 30       		.byte	0x30
 16131 00a3 9F       		.byte	0x9f
 16132 00a4 00000000 		.4byte	0
 16133 00a8 00000000 		.4byte	0
 16134              	.LLST14:
 16135 00ac 28000000 		.4byte	.LVL29
 16136 00b0 2C000000 		.4byte	.LVL30
 16137 00b4 0A00     		.2byte	0xa
 16138 00b6 9E       		.byte	0x9e
 16139 00b7 08       		.uleb128 0x8
ARM GAS  C:\Users\adrie\AppData\Local\Temp\cc7EdWgE.s 			page 285


 16140 00b8 000000A0 		.4byte	0xa0000000
 16141 00bc 9999B93F 		.4byte	0x3fb99999
 16142 00c0 C6000000 		.4byte	.LVL42
 16143 00c4 E4000000 		.4byte	.LVL46
 16144 00c8 0A00     		.2byte	0xa
 16145 00ca 9E       		.byte	0x9e
 16146 00cb 08       		.uleb128 0x8
 16147 00cc 00000040 		.4byte	0x40000000
 16148 00d0 3333D33F 		.4byte	0x3fd33333
 16149 00d4 8E010000 		.4byte	.LVL60
 16150 00d8 AC010000 		.4byte	.LVL65
 16151 00dc 0A00     		.2byte	0xa
 16152 00de 9E       		.byte	0x9e
 16153 00df 08       		.uleb128 0x8
 16154 00e0 00000040 		.4byte	0x40000000
 16155 00e4 3333D33F 		.4byte	0x3fd33333
 16156 00e8 00000000 		.4byte	0
 16157 00ec 00000000 		.4byte	0
 16158              	.LLST15:
 16159 00f0 28010000 		.4byte	.LVL54
 16160 00f4 2A010000 		.4byte	.LVL55
 16161 00f8 0200     		.2byte	0x2
 16162 00fa 30       		.byte	0x30
 16163 00fb 9F       		.byte	0x9f
 16164 00fc 00000000 		.4byte	0
 16165 0100 00000000 		.4byte	0
 16166              	.LLST16:
 16167 0104 28010000 		.4byte	.LVL54
 16168 0108 2A010000 		.4byte	.LVL55
 16169 010c 0100     		.2byte	0x1
 16170 010e 53       		.byte	0x53
 16171 010f 00000000 		.4byte	0
 16172 0113 00000000 		.4byte	0
 16173              	.LLST17:
 16174 0117 28010000 		.4byte	.LVL54
 16175 011b 2A010000 		.4byte	.LVL55
 16176 011f 0200     		.2byte	0x2
 16177 0121 31       		.byte	0x31
 16178 0122 9F       		.byte	0x9f
 16179 0123 00000000 		.4byte	0
 16180 0127 00000000 		.4byte	0
 16181              	.LLST18:
 16182 012b 88000000 		.4byte	.LVL38
 16183 012f DA000000 		.4byte	.LVL45
 16184 0133 0600     		.2byte	0x6
 16185 0135 9E       		.byte	0x9e
 16186 0136 04       		.uleb128 0x4
 16187 0137 295C8F3D 		.4byte	0x3d8f5c29
 16188 013b AC010000 		.4byte	.LVL65
 16189 013f C6010000 		.4byte	.LVL66
 16190 0143 0600     		.2byte	0x6
 16191 0145 9E       		.byte	0x9e
 16192 0146 04       		.uleb128 0x4
 16193 0147 295C8F3D 		.4byte	0x3d8f5c29
 16194 014b 00000000 		.4byte	0
 16195 014f 00000000 		.4byte	0
 16196              	.LLST19:
ARM GAS  C:\Users\adrie\AppData\Local\Temp\cc7EdWgE.s 			page 286


 16197 0153 88000000 		.4byte	.LVL38
 16198 0157 8F000000 		.4byte	.LVL39-1
 16199 015b 0600     		.2byte	0x6
 16200 015d F5       		.byte	0xf5
 16201 015e 40       		.uleb128 0x40
 16202 015f 33       		.uleb128 0x33
 16203 0160 F7       		.byte	0xf7
 16204 0161 25       		.uleb128 0x25
 16205 0162 9F       		.byte	0x9f
 16206 0163 00000000 		.4byte	0
 16207 0167 00000000 		.4byte	0
 16208              	.LLST20:
 16209 016b 88000000 		.4byte	.LVL38
 16210 016f 98000000 		.4byte	.LVL40
 16211 0173 0600     		.2byte	0x6
 16212 0175 9E       		.byte	0x9e
 16213 0176 04       		.uleb128 0x4
 16214 0177 00000000 		.4byte	0
 16215 017b 98000000 		.4byte	.LVL40
 16216 017f B8000000 		.4byte	.LVL41
 16217 0183 0200     		.2byte	0x2
 16218 0185 90       		.byte	0x90
 16219 0186 4F       		.uleb128 0x4f
 16220 0187 B8000000 		.4byte	.LVL41
 16221 018b D0000000 		.4byte	.LVL43
 16222 018f 0800     		.2byte	0x8
 16223 0191 F5       		.byte	0xf5
 16224 0192 00       		.uleb128 0
 16225 0193 25       		.uleb128 0x25
 16226 0194 F5       		.byte	0xf5
 16227 0195 52       		.uleb128 0x52
 16228 0196 25       		.uleb128 0x25
 16229 0197 1C       		.byte	0x1c
 16230 0198 9F       		.byte	0x9f
 16231 0199 AC010000 		.4byte	.LVL65
 16232 019d C6010000 		.4byte	.LVL66
 16233 01a1 0800     		.2byte	0x8
 16234 01a3 F5       		.byte	0xf5
 16235 01a4 00       		.uleb128 0
 16236 01a5 25       		.uleb128 0x25
 16237 01a6 F5       		.byte	0xf5
 16238 01a7 52       		.uleb128 0x52
 16239 01a8 25       		.uleb128 0x25
 16240 01a9 1C       		.byte	0x1c
 16241 01aa 9F       		.byte	0x9f
 16242 01ab 00000000 		.4byte	0
 16243 01af 00000000 		.4byte	0
 16244              	.LLST21:
 16245 01b3 88000000 		.4byte	.LVL38
 16246 01b7 DA000000 		.4byte	.LVL45
 16247 01bb 0600     		.2byte	0x6
 16248 01bd 9E       		.byte	0x9e
 16249 01be 04       		.uleb128 0x4
 16250 01bf 00000000 		.4byte	0
 16251 01c3 AC010000 		.4byte	.LVL65
 16252 01c7 C6010000 		.4byte	.LVL66
 16253 01cb 0600     		.2byte	0x6
ARM GAS  C:\Users\adrie\AppData\Local\Temp\cc7EdWgE.s 			page 287


 16254 01cd 9E       		.byte	0x9e
 16255 01ce 04       		.uleb128 0x4
 16256 01cf 00000000 		.4byte	0
 16257 01d3 00000000 		.4byte	0
 16258 01d7 00000000 		.4byte	0
 16259              	.LLST22:
 16260 01db 5C000000 		.4byte	.LVL33
 16261 01df 88000000 		.4byte	.LVL38
 16262 01e3 0100     		.2byte	0x1
 16263 01e5 56       		.byte	0x56
 16264 01e6 00000000 		.4byte	0
 16265 01ea 00000000 		.4byte	0
 16266              	.LLST23:
 16267 01ee 5C000000 		.4byte	.LVL33
 16268 01f2 88000000 		.4byte	.LVL38
 16269 01f6 0100     		.2byte	0x1
 16270 01f8 5B       		.byte	0x5b
 16271 01f9 00000000 		.4byte	0
 16272 01fd 00000000 		.4byte	0
 16273              	.LLST24:
 16274 0201 5C000000 		.4byte	.LVL33
 16275 0205 88000000 		.4byte	.LVL38
 16276 0209 0700     		.2byte	0x7
 16277 020b 7B       		.byte	0x7b
 16278 020c 00       		.sleb128 0
 16279 020d F7       		.byte	0xf7
 16280 020e 2C       		.uleb128 0x2c
 16281 020f F7       		.byte	0xf7
 16282 0210 33       		.uleb128 0x33
 16283 0211 9F       		.byte	0x9f
 16284 0212 00000000 		.4byte	0
 16285 0216 00000000 		.4byte	0
 16286              	.LLST25:
 16287 021a E4000000 		.4byte	.LVL46
 16288 021e EA000000 		.4byte	.LVL47
 16289 0222 0300     		.2byte	0x3
 16290 0224 08       		.byte	0x8
 16291 0225 20       		.byte	0x20
 16292 0226 9F       		.byte	0x9f
 16293 0227 00000000 		.4byte	0
 16294 022b 00000000 		.4byte	0
 16295              	.LLST26:
 16296 022f 18010000 		.4byte	.LVL52
 16297 0233 1E010000 		.4byte	.LVL53
 16298 0237 0200     		.2byte	0x2
 16299 0239 30       		.byte	0x30
 16300 023a 9F       		.byte	0x9f
 16301 023b 00000000 		.4byte	0
 16302 023f 00000000 		.4byte	0
 16303              	.LLST27:
 16304 0243 1E010000 		.4byte	.LVL53
 16305 0247 28010000 		.4byte	.LVL54
 16306 024b 0500     		.2byte	0x5
 16307 024d 03       		.byte	0x3
 16308 024e 18000000 		.4byte	moyenne+24
 16309 0252 00000000 		.4byte	0
 16310 0256 00000000 		.4byte	0
ARM GAS  C:\Users\adrie\AppData\Local\Temp\cc7EdWgE.s 			page 288


 16311              	.LLST28:
 16312 025a 1E010000 		.4byte	.LVL53
 16313 025e 28010000 		.4byte	.LVL54
 16314 0262 0200     		.2byte	0x2
 16315 0264 31       		.byte	0x31
 16316 0265 9F       		.byte	0x9f
 16317 0266 00000000 		.4byte	0
 16318 026a 00000000 		.4byte	0
 16319              	.LLST29:
 16320 026e 2A010000 		.4byte	.LVL55
 16321 0272 3A010000 		.4byte	.LVL56
 16322 0276 0200     		.2byte	0x2
 16323 0278 33       		.byte	0x33
 16324 0279 9F       		.byte	0x9f
 16325 027a 00000000 		.4byte	0
 16326 027e 00000000 		.4byte	0
 16327              	.LLST30:
 16328 0282 2A010000 		.4byte	.LVL55
 16329 0286 3A010000 		.4byte	.LVL56
 16330 028a 0500     		.2byte	0x5
 16331 028c 03       		.byte	0x3
 16332 028d 24000000 		.4byte	moyenne+36
 16333 0291 00000000 		.4byte	0
 16334 0295 00000000 		.4byte	0
 16335              	.LLST31:
 16336 0299 2A010000 		.4byte	.LVL55
 16337 029d 3A010000 		.4byte	.LVL56
 16338 02a1 0200     		.2byte	0x2
 16339 02a3 31       		.byte	0x31
 16340 02a4 9F       		.byte	0x9f
 16341 02a5 00000000 		.4byte	0
 16342 02a9 00000000 		.4byte	0
 16343              	.LLST32:
 16344 02ad 3A010000 		.4byte	.LVL56
 16345 02b1 54010000 		.4byte	.LVL57
 16346 02b5 0200     		.2byte	0x2
 16347 02b7 31       		.byte	0x31
 16348 02b8 9F       		.byte	0x9f
 16349 02b9 00000000 		.4byte	0
 16350 02bd 00000000 		.4byte	0
 16351              	.LLST33:
 16352 02c1 3A010000 		.4byte	.LVL56
 16353 02c5 54010000 		.4byte	.LVL57
 16354 02c9 0500     		.2byte	0x5
 16355 02cb 03       		.byte	0x3
 16356 02cc 0C000000 		.4byte	moyenne+12
 16357 02d0 00000000 		.4byte	0
 16358 02d4 00000000 		.4byte	0
 16359              	.LLST101:
 16360 02d8 12000000 		.4byte	.LVL290
 16361 02dc 14000000 		.4byte	.LVL291
 16362 02e0 0200     		.2byte	0x2
 16363 02e2 32       		.byte	0x32
 16364 02e3 9F       		.byte	0x9f
 16365 02e4 00000000 		.4byte	0
 16366 02e8 00000000 		.4byte	0
 16367              	.LLST102:
ARM GAS  C:\Users\adrie\AppData\Local\Temp\cc7EdWgE.s 			page 289


 16368 02ec 12000000 		.4byte	.LVL290
 16369 02f0 14000000 		.4byte	.LVL291
 16370 02f4 0100     		.2byte	0x1
 16371 02f6 53       		.byte	0x53
 16372 02f7 00000000 		.4byte	0
 16373 02fb 00000000 		.4byte	0
 16374              	.LLST100:
 16375 02ff 00000000 		.4byte	.LVL288
 16376 0303 1B000000 		.4byte	.LVL289-1
 16377 0307 0100     		.2byte	0x1
 16378 0309 50       		.byte	0x50
 16379 030a 1B000000 		.4byte	.LVL289-1
 16380 030e 20000000 		.4byte	.LFE301
 16381 0312 0400     		.2byte	0x4
 16382 0314 F3       		.byte	0xf3
 16383 0315 01       		.uleb128 0x1
 16384 0316 50       		.byte	0x50
 16385 0317 9F       		.byte	0x9f
 16386 0318 00000000 		.4byte	0
 16387 031c 00000000 		.4byte	0
 16388              	.LLST62:
 16389 0320 00000000 		.4byte	.LVL190
 16390 0324 2C000000 		.4byte	.LVL191
 16391 0328 0100     		.2byte	0x1
 16392 032a 50       		.byte	0x50
 16393 032b 2C000000 		.4byte	.LVL191
 16394 032f 30000000 		.4byte	.LVL192
 16395 0333 0400     		.2byte	0x4
 16396 0335 F3       		.byte	0xf3
 16397 0336 01       		.uleb128 0x1
 16398 0337 50       		.byte	0x50
 16399 0338 9F       		.byte	0x9f
 16400 0339 30000000 		.4byte	.LVL192
 16401 033d 32000000 		.4byte	.LVL193
 16402 0341 0100     		.2byte	0x1
 16403 0343 50       		.byte	0x50
 16404 0344 32000000 		.4byte	.LVL193
 16405 0348 40000000 		.4byte	.LVL194
 16406 034c 0400     		.2byte	0x4
 16407 034e F3       		.byte	0xf3
 16408 034f 01       		.uleb128 0x1
 16409 0350 50       		.byte	0x50
 16410 0351 9F       		.byte	0x9f
 16411 0352 40000000 		.4byte	.LVL194
 16412 0356 42000000 		.4byte	.LVL195
 16413 035a 0100     		.2byte	0x1
 16414 035c 50       		.byte	0x50
 16415 035d 42000000 		.4byte	.LVL195
 16416 0361 44000000 		.4byte	.LVL196
 16417 0365 0400     		.2byte	0x4
 16418 0367 F3       		.byte	0xf3
 16419 0368 01       		.uleb128 0x1
 16420 0369 50       		.byte	0x50
 16421 036a 9F       		.byte	0x9f
 16422 036b 44000000 		.4byte	.LVL196
 16423 036f 46000000 		.4byte	.LVL197
 16424 0373 0100     		.2byte	0x1
ARM GAS  C:\Users\adrie\AppData\Local\Temp\cc7EdWgE.s 			page 290


 16425 0375 50       		.byte	0x50
 16426 0376 46000000 		.4byte	.LVL197
 16427 037a 48000000 		.4byte	.LVL198
 16428 037e 0400     		.2byte	0x4
 16429 0380 F3       		.byte	0xf3
 16430 0381 01       		.uleb128 0x1
 16431 0382 50       		.byte	0x50
 16432 0383 9F       		.byte	0x9f
 16433 0384 48000000 		.4byte	.LVL198
 16434 0388 4A000000 		.4byte	.LVL199
 16435 038c 0100     		.2byte	0x1
 16436 038e 50       		.byte	0x50
 16437 038f 4A000000 		.4byte	.LVL199
 16438 0393 4C000000 		.4byte	.LVL200
 16439 0397 0400     		.2byte	0x4
 16440 0399 F3       		.byte	0xf3
 16441 039a 01       		.uleb128 0x1
 16442 039b 50       		.byte	0x50
 16443 039c 9F       		.byte	0x9f
 16444 039d 4C000000 		.4byte	.LVL200
 16445 03a1 4E000000 		.4byte	.LVL201
 16446 03a5 0100     		.2byte	0x1
 16447 03a7 50       		.byte	0x50
 16448 03a8 4E000000 		.4byte	.LVL201
 16449 03ac 50000000 		.4byte	.LVL202
 16450 03b0 0400     		.2byte	0x4
 16451 03b2 F3       		.byte	0xf3
 16452 03b3 01       		.uleb128 0x1
 16453 03b4 50       		.byte	0x50
 16454 03b5 9F       		.byte	0x9f
 16455 03b6 50000000 		.4byte	.LVL202
 16456 03ba 52000000 		.4byte	.LVL203
 16457 03be 0100     		.2byte	0x1
 16458 03c0 50       		.byte	0x50
 16459 03c1 52000000 		.4byte	.LVL203
 16460 03c5 54000000 		.4byte	.LVL204
 16461 03c9 0400     		.2byte	0x4
 16462 03cb F3       		.byte	0xf3
 16463 03cc 01       		.uleb128 0x1
 16464 03cd 50       		.byte	0x50
 16465 03ce 9F       		.byte	0x9f
 16466 03cf 54000000 		.4byte	.LVL204
 16467 03d3 56000000 		.4byte	.LVL205
 16468 03d7 0100     		.2byte	0x1
 16469 03d9 50       		.byte	0x50
 16470 03da 56000000 		.4byte	.LVL205
 16471 03de 80000000 		.4byte	.LFE299
 16472 03e2 0400     		.2byte	0x4
 16473 03e4 F3       		.byte	0xf3
 16474 03e5 01       		.uleb128 0x1
 16475 03e6 50       		.byte	0x50
 16476 03e7 9F       		.byte	0x9f
 16477 03e8 00000000 		.4byte	0
 16478 03ec 00000000 		.4byte	0
 16479              	.LLST42:
 16480 03f0 00000000 		.4byte	.LVL92
 16481 03f4 95010000 		.4byte	.LVL139-1
ARM GAS  C:\Users\adrie\AppData\Local\Temp\cc7EdWgE.s 			page 291


 16482 03f8 0100     		.2byte	0x1
 16483 03fa 50       		.byte	0x50
 16484 03fb 95010000 		.4byte	.LVL139-1
 16485 03ff A4010000 		.4byte	.LFE293
 16486 0403 0400     		.2byte	0x4
 16487 0405 F3       		.byte	0xf3
 16488 0406 01       		.uleb128 0x1
 16489 0407 50       		.byte	0x50
 16490 0408 9F       		.byte	0x9f
 16491 0409 00000000 		.4byte	0
 16492 040d 00000000 		.4byte	0
 16493              	.LLST43:
 16494 0411 00000000 		.4byte	.LVL92
 16495 0415 95010000 		.4byte	.LVL139-1
 16496 0419 0100     		.2byte	0x1
 16497 041b 51       		.byte	0x51
 16498 041c 95010000 		.4byte	.LVL139-1
 16499 0420 A4010000 		.4byte	.LFE293
 16500 0424 0400     		.2byte	0x4
 16501 0426 F3       		.byte	0xf3
 16502 0427 01       		.uleb128 0x1
 16503 0428 51       		.byte	0x51
 16504 0429 9F       		.byte	0x9f
 16505 042a 00000000 		.4byte	0
 16506 042e 00000000 		.4byte	0
 16507              	.LLST44:
 16508 0432 00000000 		.4byte	.LVL92
 16509 0436 46000000 		.4byte	.LVL97
 16510 043a 0100     		.2byte	0x1
 16511 043c 52       		.byte	0x52
 16512 043d 46000000 		.4byte	.LVL97
 16513 0441 4A000000 		.4byte	.LVL98
 16514 0445 0400     		.2byte	0x4
 16515 0447 F3       		.byte	0xf3
 16516 0448 01       		.uleb128 0x1
 16517 0449 52       		.byte	0x52
 16518 044a 9F       		.byte	0x9f
 16519 044b 4A000000 		.4byte	.LVL98
 16520 044f 74000000 		.4byte	.LVL103
 16521 0453 0100     		.2byte	0x1
 16522 0455 52       		.byte	0x52
 16523 0456 74000000 		.4byte	.LVL103
 16524 045a 86000000 		.4byte	.LVL105
 16525 045e 0400     		.2byte	0x4
 16526 0460 F3       		.byte	0xf3
 16527 0461 01       		.uleb128 0x1
 16528 0462 52       		.byte	0x52
 16529 0463 9F       		.byte	0x9f
 16530 0464 86000000 		.4byte	.LVL105
 16531 0468 CE000000 		.4byte	.LVL108
 16532 046c 0100     		.2byte	0x1
 16533 046e 52       		.byte	0x52
 16534 046f CE000000 		.4byte	.LVL108
 16535 0473 D6000000 		.4byte	.LVL109
 16536 0477 0400     		.2byte	0x4
 16537 0479 F3       		.byte	0xf3
 16538 047a 01       		.uleb128 0x1
ARM GAS  C:\Users\adrie\AppData\Local\Temp\cc7EdWgE.s 			page 292


 16539 047b 52       		.byte	0x52
 16540 047c 9F       		.byte	0x9f
 16541 047d D6000000 		.4byte	.LVL109
 16542 0481 24010000 		.4byte	.LVL115
 16543 0485 0100     		.2byte	0x1
 16544 0487 52       		.byte	0x52
 16545 0488 24010000 		.4byte	.LVL115
 16546 048c 2A010000 		.4byte	.LVL116
 16547 0490 0400     		.2byte	0x4
 16548 0492 F3       		.byte	0xf3
 16549 0493 01       		.uleb128 0x1
 16550 0494 52       		.byte	0x52
 16551 0495 9F       		.byte	0x9f
 16552 0496 2A010000 		.4byte	.LVL116
 16553 049a 30010000 		.4byte	.LVL118
 16554 049e 0100     		.2byte	0x1
 16555 04a0 52       		.byte	0x52
 16556 04a1 30010000 		.4byte	.LVL118
 16557 04a5 34010000 		.4byte	.LVL119
 16558 04a9 0400     		.2byte	0x4
 16559 04ab F3       		.byte	0xf3
 16560 04ac 01       		.uleb128 0x1
 16561 04ad 52       		.byte	0x52
 16562 04ae 9F       		.byte	0x9f
 16563 04af 34010000 		.4byte	.LVL119
 16564 04b3 3C010000 		.4byte	.LVL121
 16565 04b7 0100     		.2byte	0x1
 16566 04b9 52       		.byte	0x52
 16567 04ba 3C010000 		.4byte	.LVL121
 16568 04be 40010000 		.4byte	.LVL122
 16569 04c2 0400     		.2byte	0x4
 16570 04c4 F3       		.byte	0xf3
 16571 04c5 01       		.uleb128 0x1
 16572 04c6 52       		.byte	0x52
 16573 04c7 9F       		.byte	0x9f
 16574 04c8 40010000 		.4byte	.LVL122
 16575 04cc 42010000 		.4byte	.LVL123
 16576 04d0 0100     		.2byte	0x1
 16577 04d2 52       		.byte	0x52
 16578 04d3 42010000 		.4byte	.LVL123
 16579 04d7 46010000 		.4byte	.LVL124
 16580 04db 0400     		.2byte	0x4
 16581 04dd F3       		.byte	0xf3
 16582 04de 01       		.uleb128 0x1
 16583 04df 52       		.byte	0x52
 16584 04e0 9F       		.byte	0x9f
 16585 04e1 46010000 		.4byte	.LVL124
 16586 04e5 4C010000 		.4byte	.LVL126
 16587 04e9 0100     		.2byte	0x1
 16588 04eb 52       		.byte	0x52
 16589 04ec 4C010000 		.4byte	.LVL126
 16590 04f0 50010000 		.4byte	.LVL127
 16591 04f4 0400     		.2byte	0x4
 16592 04f6 F3       		.byte	0xf3
 16593 04f7 01       		.uleb128 0x1
 16594 04f8 52       		.byte	0x52
 16595 04f9 9F       		.byte	0x9f
ARM GAS  C:\Users\adrie\AppData\Local\Temp\cc7EdWgE.s 			page 293


 16596 04fa 50010000 		.4byte	.LVL127
 16597 04fe 54010000 		.4byte	.LVL129
 16598 0502 0100     		.2byte	0x1
 16599 0504 52       		.byte	0x52
 16600 0505 54010000 		.4byte	.LVL129
 16601 0509 58010000 		.4byte	.LVL130
 16602 050d 0200     		.2byte	0x2
 16603 050f 90       		.byte	0x90
 16604 0510 4F       		.uleb128 0x4f
 16605 0511 58010000 		.4byte	.LVL130
 16606 0515 5C010000 		.4byte	.LVL132
 16607 0519 0100     		.2byte	0x1
 16608 051b 52       		.byte	0x52
 16609 051c 5C010000 		.4byte	.LVL132
 16610 0520 60010000 		.4byte	.LVL133
 16611 0524 0400     		.2byte	0x4
 16612 0526 F3       		.byte	0xf3
 16613 0527 01       		.uleb128 0x1
 16614 0528 52       		.byte	0x52
 16615 0529 9F       		.byte	0x9f
 16616 052a 60010000 		.4byte	.LVL133
 16617 052e 6E010000 		.4byte	.LVL135
 16618 0532 0100     		.2byte	0x1
 16619 0534 52       		.byte	0x52
 16620 0535 6E010000 		.4byte	.LVL135
 16621 0539 72010000 		.4byte	.LVL136
 16622 053d 0400     		.2byte	0x4
 16623 053f F3       		.byte	0xf3
 16624 0540 01       		.uleb128 0x1
 16625 0541 52       		.byte	0x52
 16626 0542 9F       		.byte	0x9f
 16627 0543 72010000 		.4byte	.LVL136
 16628 0547 92010000 		.4byte	.LVL138
 16629 054b 0100     		.2byte	0x1
 16630 054d 52       		.byte	0x52
 16631 054e 92010000 		.4byte	.LVL138
 16632 0552 A4010000 		.4byte	.LFE293
 16633 0556 0400     		.2byte	0x4
 16634 0558 F3       		.byte	0xf3
 16635 0559 01       		.uleb128 0x1
 16636 055a 52       		.byte	0x52
 16637 055b 9F       		.byte	0x9f
 16638 055c 00000000 		.4byte	0
 16639 0560 00000000 		.4byte	0
 16640              	.LLST45:
 16641 0564 00000000 		.4byte	.LVL92
 16642 0568 44000000 		.4byte	.LVL96
 16643 056c 0100     		.2byte	0x1
 16644 056e 53       		.byte	0x53
 16645 056f 44000000 		.4byte	.LVL96
 16646 0573 4A000000 		.4byte	.LVL98
 16647 0577 0400     		.2byte	0x4
 16648 0579 F3       		.byte	0xf3
 16649 057a 01       		.uleb128 0x1
 16650 057b 53       		.byte	0x53
 16651 057c 9F       		.byte	0x9f
 16652 057d 4A000000 		.4byte	.LVL98
ARM GAS  C:\Users\adrie\AppData\Local\Temp\cc7EdWgE.s 			page 294


 16653 0581 6C000000 		.4byte	.LVL102
 16654 0585 0100     		.2byte	0x1
 16655 0587 53       		.byte	0x53
 16656 0588 6C000000 		.4byte	.LVL102
 16657 058c 86000000 		.4byte	.LVL105
 16658 0590 0400     		.2byte	0x4
 16659 0592 F3       		.byte	0xf3
 16660 0593 01       		.uleb128 0x1
 16661 0594 53       		.byte	0x53
 16662 0595 9F       		.byte	0x9f
 16663 0596 86000000 		.4byte	.LVL105
 16664 059a C6000000 		.4byte	.LVL107
 16665 059e 0100     		.2byte	0x1
 16666 05a0 53       		.byte	0x53
 16667 05a1 C6000000 		.4byte	.LVL107
 16668 05a5 D6000000 		.4byte	.LVL109
 16669 05a9 0400     		.2byte	0x4
 16670 05ab F3       		.byte	0xf3
 16671 05ac 01       		.uleb128 0x1
 16672 05ad 53       		.byte	0x53
 16673 05ae 9F       		.byte	0x9f
 16674 05af D6000000 		.4byte	.LVL109
 16675 05b3 1A010000 		.4byte	.LVL114
 16676 05b7 0100     		.2byte	0x1
 16677 05b9 53       		.byte	0x53
 16678 05ba 1A010000 		.4byte	.LVL114
 16679 05be 2A010000 		.4byte	.LVL116
 16680 05c2 0400     		.2byte	0x4
 16681 05c4 F3       		.byte	0xf3
 16682 05c5 01       		.uleb128 0x1
 16683 05c6 53       		.byte	0x53
 16684 05c7 9F       		.byte	0x9f
 16685 05c8 2A010000 		.4byte	.LVL116
 16686 05cc 2C010000 		.4byte	.LVL117
 16687 05d0 0100     		.2byte	0x1
 16688 05d2 53       		.byte	0x53
 16689 05d3 2C010000 		.4byte	.LVL117
 16690 05d7 34010000 		.4byte	.LVL119
 16691 05db 0400     		.2byte	0x4
 16692 05dd F3       		.byte	0xf3
 16693 05de 01       		.uleb128 0x1
 16694 05df 53       		.byte	0x53
 16695 05e0 9F       		.byte	0x9f
 16696 05e1 34010000 		.4byte	.LVL119
 16697 05e5 3A010000 		.4byte	.LVL120
 16698 05e9 0100     		.2byte	0x1
 16699 05eb 53       		.byte	0x53
 16700 05ec 3A010000 		.4byte	.LVL120
 16701 05f0 46010000 		.4byte	.LVL124
 16702 05f4 0400     		.2byte	0x4
 16703 05f6 F3       		.byte	0xf3
 16704 05f7 01       		.uleb128 0x1
 16705 05f8 53       		.byte	0x53
 16706 05f9 9F       		.byte	0x9f
 16707 05fa 46010000 		.4byte	.LVL124
 16708 05fe 48010000 		.4byte	.LVL125
 16709 0602 0100     		.2byte	0x1
ARM GAS  C:\Users\adrie\AppData\Local\Temp\cc7EdWgE.s 			page 295


 16710 0604 53       		.byte	0x53
 16711 0605 48010000 		.4byte	.LVL125
 16712 0609 50010000 		.4byte	.LVL127
 16713 060d 0400     		.2byte	0x4
 16714 060f F3       		.byte	0xf3
 16715 0610 01       		.uleb128 0x1
 16716 0611 53       		.byte	0x53
 16717 0612 9F       		.byte	0x9f
 16718 0613 50010000 		.4byte	.LVL127
 16719 0617 52010000 		.4byte	.LVL128
 16720 061b 0100     		.2byte	0x1
 16721 061d 53       		.byte	0x53
 16722 061e 52010000 		.4byte	.LVL128
 16723 0622 58010000 		.4byte	.LVL130
 16724 0626 0400     		.2byte	0x4
 16725 0628 F3       		.byte	0xf3
 16726 0629 01       		.uleb128 0x1
 16727 062a 53       		.byte	0x53
 16728 062b 9F       		.byte	0x9f
 16729 062c 58010000 		.4byte	.LVL130
 16730 0630 5A010000 		.4byte	.LVL131
 16731 0634 0100     		.2byte	0x1
 16732 0636 53       		.byte	0x53
 16733 0637 5A010000 		.4byte	.LVL131
 16734 063b 60010000 		.4byte	.LVL133
 16735 063f 0400     		.2byte	0x4
 16736 0641 F3       		.byte	0xf3
 16737 0642 01       		.uleb128 0x1
 16738 0643 53       		.byte	0x53
 16739 0644 9F       		.byte	0x9f
 16740 0645 60010000 		.4byte	.LVL133
 16741 0649 6C010000 		.4byte	.LVL134
 16742 064d 0100     		.2byte	0x1
 16743 064f 53       		.byte	0x53
 16744 0650 6C010000 		.4byte	.LVL134
 16745 0654 72010000 		.4byte	.LVL136
 16746 0658 0400     		.2byte	0x4
 16747 065a F3       		.byte	0xf3
 16748 065b 01       		.uleb128 0x1
 16749 065c 53       		.byte	0x53
 16750 065d 9F       		.byte	0x9f
 16751 065e 72010000 		.4byte	.LVL136
 16752 0662 92010000 		.4byte	.LVL138
 16753 0666 0100     		.2byte	0x1
 16754 0668 53       		.byte	0x53
 16755 0669 92010000 		.4byte	.LVL138
 16756 066d A4010000 		.4byte	.LFE293
 16757 0671 0400     		.2byte	0x4
 16758 0673 F3       		.byte	0xf3
 16759 0674 01       		.uleb128 0x1
 16760 0675 53       		.byte	0x53
 16761 0676 9F       		.byte	0x9f
 16762 0677 00000000 		.4byte	0
 16763 067b 00000000 		.4byte	0
 16764              	.LLST46:
 16765 067f 0A000000 		.4byte	.LVL93
 16766 0683 14000000 		.4byte	.LVL94
ARM GAS  C:\Users\adrie\AppData\Local\Temp\cc7EdWgE.s 			page 296


 16767 0687 0300     		.2byte	0x3
 16768 0689 09       		.byte	0x9
 16769 068a FF       		.byte	0xff
 16770 068b 9F       		.byte	0x9f
 16771 068c 14000000 		.4byte	.LVL94
 16772 0690 34000000 		.4byte	.LVL95
 16773 0694 0100     		.2byte	0x1
 16774 0696 55       		.byte	0x55
 16775 0697 4A000000 		.4byte	.LVL98
 16776 069b 4E000000 		.4byte	.LVL99
 16777 069f 0100     		.2byte	0x1
 16778 06a1 55       		.byte	0x55
 16779 06a2 86000000 		.4byte	.LVL105
 16780 06a6 AA000000 		.4byte	.LVL106
 16781 06aa 0100     		.2byte	0x1
 16782 06ac 55       		.byte	0x55
 16783 06ad D6000000 		.4byte	.LVL109
 16784 06b1 02010000 		.4byte	.LVL112
 16785 06b5 0300     		.2byte	0x3
 16786 06b7 09       		.byte	0x9
 16787 06b8 FF       		.byte	0xff
 16788 06b9 9F       		.byte	0x9f
 16789 06ba 02010000 		.4byte	.LVL112
 16790 06be 16010000 		.4byte	.LVL113
 16791 06c2 0100     		.2byte	0x1
 16792 06c4 55       		.byte	0x55
 16793 06c5 34010000 		.4byte	.LVL119
 16794 06c9 40010000 		.4byte	.LVL122
 16795 06cd 0300     		.2byte	0x3
 16796 06cf 09       		.byte	0x9
 16797 06d0 FF       		.byte	0xff
 16798 06d1 9F       		.byte	0x9f
 16799 06d2 50010000 		.4byte	.LVL127
 16800 06d6 58010000 		.4byte	.LVL130
 16801 06da 0100     		.2byte	0x1
 16802 06dc 55       		.byte	0x55
 16803 06dd 60010000 		.4byte	.LVL133
 16804 06e1 72010000 		.4byte	.LVL136
 16805 06e5 0300     		.2byte	0x3
 16806 06e7 09       		.byte	0x9
 16807 06e8 FF       		.byte	0xff
 16808 06e9 9F       		.byte	0x9f
 16809 06ea 72010000 		.4byte	.LVL136
 16810 06ee 92010000 		.4byte	.LVL138
 16811 06f2 0200     		.2byte	0x2
 16812 06f4 30       		.byte	0x30
 16813 06f5 9F       		.byte	0x9f
 16814 06f6 00000000 		.4byte	0
 16815 06fa 00000000 		.4byte	0
 16816              	.LLST47:
 16817 06fe 34000000 		.4byte	.LVL95
 16818 0702 4A000000 		.4byte	.LVL98
 16819 0706 0100     		.2byte	0x1
 16820 0708 55       		.byte	0x55
 16821 0709 4E000000 		.4byte	.LVL99
 16822 070d 60000000 		.4byte	.LVL100
 16823 0711 1300     		.2byte	0x13
ARM GAS  C:\Users\adrie\AppData\Local\Temp\cc7EdWgE.s 			page 297


 16824 0713 70       		.byte	0x70
 16825 0714 00       		.sleb128 0
 16826 0715 F7       		.byte	0xf7
 16827 0716 2C       		.uleb128 0x2c
 16828 0717 F7       		.byte	0xf7
 16829 0718 25       		.uleb128 0x25
 16830 0719 F4       		.byte	0xf4
 16831 071a 25       		.uleb128 0x25
 16832 071b 04       		.byte	0x4
 16833 071c AE47613F 		.4byte	0x3f6147ae
 16834 0720 1E       		.byte	0x1e
 16835 0721 F7       		.byte	0xf7
 16836 0722 2C       		.uleb128 0x2c
 16837 0723 F7       		.byte	0xf7
 16838 0724 00       		.uleb128 0
 16839 0725 9F       		.byte	0x9f
 16840 0726 60000000 		.4byte	.LVL100
 16841 072a 64000000 		.4byte	.LVL101
 16842 072e 1000     		.2byte	0x10
 16843 0730 F5       		.byte	0xf5
 16844 0731 4F       		.uleb128 0x4f
 16845 0732 25       		.uleb128 0x25
 16846 0733 F4       		.byte	0xf4
 16847 0734 25       		.uleb128 0x25
 16848 0735 04       		.byte	0x4
 16849 0736 AE47613F 		.4byte	0x3f6147ae
 16850 073a 1E       		.byte	0x1e
 16851 073b F7       		.byte	0xf7
 16852 073c 2C       		.uleb128 0x2c
 16853 073d F7       		.byte	0xf7
 16854 073e 00       		.uleb128 0
 16855 073f 9F       		.byte	0x9f
 16856 0740 64000000 		.4byte	.LVL101
 16857 0744 78000000 		.4byte	.LVL104
 16858 0748 1300     		.2byte	0x13
 16859 074a 70       		.byte	0x70
 16860 074b 00       		.sleb128 0
 16861 074c F7       		.byte	0xf7
 16862 074d 2C       		.uleb128 0x2c
 16863 074e F7       		.byte	0xf7
 16864 074f 25       		.uleb128 0x25
 16865 0750 F4       		.byte	0xf4
 16866 0751 25       		.uleb128 0x25
 16867 0752 04       		.byte	0x4
 16868 0753 AE47613F 		.4byte	0x3f6147ae
 16869 0757 1E       		.byte	0x1e
 16870 0758 F7       		.byte	0xf7
 16871 0759 2C       		.uleb128 0x2c
 16872 075a F7       		.byte	0xf7
 16873 075b 00       		.uleb128 0
 16874 075c 9F       		.byte	0x9f
 16875 075d 86000000 		.4byte	.LVL105
 16876 0761 AA000000 		.4byte	.LVL106
 16877 0765 1300     		.2byte	0x13
 16878 0767 72       		.byte	0x72
 16879 0768 00       		.sleb128 0
 16880 0769 F7       		.byte	0xf7
ARM GAS  C:\Users\adrie\AppData\Local\Temp\cc7EdWgE.s 			page 298


 16881 076a 2C       		.uleb128 0x2c
 16882 076b F7       		.byte	0xf7
 16883 076c 25       		.uleb128 0x25
 16884 076d F4       		.byte	0xf4
 16885 076e 25       		.uleb128 0x25
 16886 076f 04       		.byte	0x4
 16887 0770 AE47613F 		.4byte	0x3f6147ae
 16888 0774 1E       		.byte	0x1e
 16889 0775 F7       		.byte	0xf7
 16890 0776 2C       		.uleb128 0x2c
 16891 0777 F7       		.byte	0xf7
 16892 0778 00       		.uleb128 0
 16893 0779 9F       		.byte	0x9f
 16894 077a AA000000 		.4byte	.LVL106
 16895 077e C6000000 		.4byte	.LVL107
 16896 0782 1300     		.2byte	0x13
 16897 0784 73       		.byte	0x73
 16898 0785 00       		.sleb128 0
 16899 0786 F7       		.byte	0xf7
 16900 0787 2C       		.uleb128 0x2c
 16901 0788 F7       		.byte	0xf7
 16902 0789 25       		.uleb128 0x25
 16903 078a F4       		.byte	0xf4
 16904 078b 25       		.uleb128 0x25
 16905 078c 04       		.byte	0x4
 16906 078d AE47613F 		.4byte	0x3f6147ae
 16907 0791 1E       		.byte	0x1e
 16908 0792 F7       		.byte	0xf7
 16909 0793 2C       		.uleb128 0x2c
 16910 0794 F7       		.byte	0xf7
 16911 0795 00       		.uleb128 0
 16912 0796 9F       		.byte	0x9f
 16913 0797 C6000000 		.4byte	.LVL107
 16914 079b D6000000 		.4byte	.LVL109
 16915 079f 1400     		.2byte	0x14
 16916 07a1 F3       		.byte	0xf3
 16917 07a2 01       		.uleb128 0x1
 16918 07a3 53       		.byte	0x53
 16919 07a4 F7       		.byte	0xf7
 16920 07a5 2C       		.uleb128 0x2c
 16921 07a6 F7       		.byte	0xf7
 16922 07a7 25       		.uleb128 0x25
 16923 07a8 F4       		.byte	0xf4
 16924 07a9 25       		.uleb128 0x25
 16925 07aa 04       		.byte	0x4
 16926 07ab AE47613F 		.4byte	0x3f6147ae
 16927 07af 1E       		.byte	0x1e
 16928 07b0 F7       		.byte	0xf7
 16929 07b1 2C       		.uleb128 0x2c
 16930 07b2 F7       		.byte	0xf7
 16931 07b3 00       		.uleb128 0
 16932 07b4 9F       		.byte	0x9f
 16933 07b5 F2000000 		.4byte	.LVL110
 16934 07b9 00010000 		.4byte	.LVL111
 16935 07bd 0100     		.2byte	0x1
 16936 07bf 55       		.byte	0x55
 16937 07c0 00010000 		.4byte	.LVL111
ARM GAS  C:\Users\adrie\AppData\Local\Temp\cc7EdWgE.s 			page 299


 16938 07c4 02010000 		.4byte	.LVL112
 16939 07c8 0200     		.2byte	0x2
 16940 07ca 90       		.byte	0x90
 16941 07cb 4F       		.uleb128 0x4f
 16942 07cc 02010000 		.4byte	.LVL112
 16943 07d0 16010000 		.4byte	.LVL113
 16944 07d4 1300     		.2byte	0x13
 16945 07d6 72       		.byte	0x72
 16946 07d7 00       		.sleb128 0
 16947 07d8 F7       		.byte	0xf7
 16948 07d9 2C       		.uleb128 0x2c
 16949 07da F7       		.byte	0xf7
 16950 07db 25       		.uleb128 0x25
 16951 07dc F4       		.byte	0xf4
 16952 07dd 25       		.uleb128 0x25
 16953 07de 04       		.byte	0x4
 16954 07df AE47613F 		.4byte	0x3f6147ae
 16955 07e3 1E       		.byte	0x1e
 16956 07e4 F7       		.byte	0xf7
 16957 07e5 2C       		.uleb128 0x2c
 16958 07e6 F7       		.byte	0xf7
 16959 07e7 00       		.uleb128 0
 16960 07e8 9F       		.byte	0x9f
 16961 07e9 16010000 		.4byte	.LVL113
 16962 07ed 2A010000 		.4byte	.LVL116
 16963 07f1 1300     		.2byte	0x13
 16964 07f3 71       		.byte	0x71
 16965 07f4 00       		.sleb128 0
 16966 07f5 F7       		.byte	0xf7
 16967 07f6 2C       		.uleb128 0x2c
 16968 07f7 F7       		.byte	0xf7
 16969 07f8 25       		.uleb128 0x25
 16970 07f9 F4       		.byte	0xf4
 16971 07fa 25       		.uleb128 0x25
 16972 07fb 04       		.byte	0x4
 16973 07fc AE47613F 		.4byte	0x3f6147ae
 16974 0800 1E       		.byte	0x1e
 16975 0801 F7       		.byte	0xf7
 16976 0802 2C       		.uleb128 0x2c
 16977 0803 F7       		.byte	0xf7
 16978 0804 00       		.uleb128 0
 16979 0805 9F       		.byte	0x9f
 16980 0806 2A010000 		.4byte	.LVL116
 16981 080a 40010000 		.4byte	.LVL122
 16982 080e 0100     		.2byte	0x1
 16983 0810 55       		.byte	0x55
 16984 0811 40010000 		.4byte	.LVL122
 16985 0815 46010000 		.4byte	.LVL124
 16986 0819 1300     		.2byte	0x13
 16987 081b 71       		.byte	0x71
 16988 081c 00       		.sleb128 0
 16989 081d F7       		.byte	0xf7
 16990 081e 2C       		.uleb128 0x2c
 16991 081f F7       		.byte	0xf7
 16992 0820 25       		.uleb128 0x25
 16993 0821 F4       		.byte	0xf4
 16994 0822 25       		.uleb128 0x25
ARM GAS  C:\Users\adrie\AppData\Local\Temp\cc7EdWgE.s 			page 300


 16995 0823 04       		.byte	0x4
 16996 0824 AE47613F 		.4byte	0x3f6147ae
 16997 0828 1E       		.byte	0x1e
 16998 0829 F7       		.byte	0xf7
 16999 082a 2C       		.uleb128 0x2c
 17000 082b F7       		.byte	0xf7
 17001 082c 00       		.uleb128 0
 17002 082d 9F       		.byte	0x9f
 17003 082e 46010000 		.4byte	.LVL124
 17004 0832 48010000 		.4byte	.LVL125
 17005 0836 1300     		.2byte	0x13
 17006 0838 73       		.byte	0x73
 17007 0839 00       		.sleb128 0
 17008 083a F7       		.byte	0xf7
 17009 083b 2C       		.uleb128 0x2c
 17010 083c F7       		.byte	0xf7
 17011 083d 25       		.uleb128 0x25
 17012 083e F4       		.byte	0xf4
 17013 083f 25       		.uleb128 0x25
 17014 0840 04       		.byte	0x4
 17015 0841 AE47613F 		.4byte	0x3f6147ae
 17016 0845 1E       		.byte	0x1e
 17017 0846 F7       		.byte	0xf7
 17018 0847 2C       		.uleb128 0x2c
 17019 0848 F7       		.byte	0xf7
 17020 0849 00       		.uleb128 0
 17021 084a 9F       		.byte	0x9f
 17022 084b 48010000 		.4byte	.LVL125
 17023 084f 50010000 		.4byte	.LVL127
 17024 0853 1400     		.2byte	0x14
 17025 0855 F3       		.byte	0xf3
 17026 0856 01       		.uleb128 0x1
 17027 0857 53       		.byte	0x53
 17028 0858 F7       		.byte	0xf7
 17029 0859 2C       		.uleb128 0x2c
 17030 085a F7       		.byte	0xf7
 17031 085b 25       		.uleb128 0x25
 17032 085c F4       		.byte	0xf4
 17033 085d 25       		.uleb128 0x25
 17034 085e 04       		.byte	0x4
 17035 085f AE47613F 		.4byte	0x3f6147ae
 17036 0863 1E       		.byte	0x1e
 17037 0864 F7       		.byte	0xf7
 17038 0865 2C       		.uleb128 0x2c
 17039 0866 F7       		.byte	0xf7
 17040 0867 00       		.uleb128 0
 17041 0868 9F       		.byte	0x9f
 17042 0869 50010000 		.4byte	.LVL127
 17043 086d 54010000 		.4byte	.LVL129
 17044 0871 1300     		.2byte	0x13
 17045 0873 72       		.byte	0x72
 17046 0874 00       		.sleb128 0
 17047 0875 F7       		.byte	0xf7
 17048 0876 2C       		.uleb128 0x2c
 17049 0877 F7       		.byte	0xf7
 17050 0878 25       		.uleb128 0x25
 17051 0879 F4       		.byte	0xf4
ARM GAS  C:\Users\adrie\AppData\Local\Temp\cc7EdWgE.s 			page 301


 17052 087a 25       		.uleb128 0x25
 17053 087b 04       		.byte	0x4
 17054 087c AE47613F 		.4byte	0x3f6147ae
 17055 0880 1E       		.byte	0x1e
 17056 0881 F7       		.byte	0xf7
 17057 0882 2C       		.uleb128 0x2c
 17058 0883 F7       		.byte	0xf7
 17059 0884 00       		.uleb128 0
 17060 0885 9F       		.byte	0x9f
 17061 0886 54010000 		.4byte	.LVL129
 17062 088a 58010000 		.4byte	.LVL130
 17063 088e 1400     		.2byte	0x14
 17064 0890 92       		.byte	0x92
 17065 0891 4F       		.uleb128 0x4f
 17066 0892 00       		.sleb128 0
 17067 0893 F7       		.byte	0xf7
 17068 0894 2C       		.uleb128 0x2c
 17069 0895 F7       		.byte	0xf7
 17070 0896 25       		.uleb128 0x25
 17071 0897 F4       		.byte	0xf4
 17072 0898 25       		.uleb128 0x25
 17073 0899 04       		.byte	0x4
 17074 089a AE47613F 		.4byte	0x3f6147ae
 17075 089e 1E       		.byte	0x1e
 17076 089f F7       		.byte	0xf7
 17077 08a0 2C       		.uleb128 0x2c
 17078 08a1 F7       		.byte	0xf7
 17079 08a2 00       		.uleb128 0
 17080 08a3 9F       		.byte	0x9f
 17081 08a4 58010000 		.4byte	.LVL130
 17082 08a8 60010000 		.4byte	.LVL133
 17083 08ac 1300     		.2byte	0x13
 17084 08ae 70       		.byte	0x70
 17085 08af 00       		.sleb128 0
 17086 08b0 F7       		.byte	0xf7
 17087 08b1 2C       		.uleb128 0x2c
 17088 08b2 F7       		.byte	0xf7
 17089 08b3 25       		.uleb128 0x25
 17090 08b4 F4       		.byte	0xf4
 17091 08b5 25       		.uleb128 0x25
 17092 08b6 04       		.byte	0x4
 17093 08b7 AE47613F 		.4byte	0x3f6147ae
 17094 08bb 1E       		.byte	0x1e
 17095 08bc F7       		.byte	0xf7
 17096 08bd 2C       		.uleb128 0x2c
 17097 08be F7       		.byte	0xf7
 17098 08bf 00       		.uleb128 0
 17099 08c0 9F       		.byte	0x9f
 17100 08c1 60010000 		.4byte	.LVL133
 17101 08c5 78010000 		.4byte	.LVL137
 17102 08c9 0100     		.2byte	0x1
 17103 08cb 55       		.byte	0x55
 17104 08cc 78010000 		.4byte	.LVL137
 17105 08d0 92010000 		.4byte	.LVL138
 17106 08d4 1300     		.2byte	0x13
 17107 08d6 72       		.byte	0x72
 17108 08d7 00       		.sleb128 0
ARM GAS  C:\Users\adrie\AppData\Local\Temp\cc7EdWgE.s 			page 302


 17109 08d8 F7       		.byte	0xf7
 17110 08d9 2C       		.uleb128 0x2c
 17111 08da F7       		.byte	0xf7
 17112 08db 25       		.uleb128 0x25
 17113 08dc F4       		.byte	0xf4
 17114 08dd 25       		.uleb128 0x25
 17115 08de 04       		.byte	0x4
 17116 08df AE47613F 		.4byte	0x3f6147ae
 17117 08e3 1E       		.byte	0x1e
 17118 08e4 F7       		.byte	0xf7
 17119 08e5 2C       		.uleb128 0x2c
 17120 08e6 F7       		.byte	0xf7
 17121 08e7 00       		.uleb128 0
 17122 08e8 9F       		.byte	0x9f
 17123 08e9 00000000 		.4byte	0
 17124 08ed 00000000 		.4byte	0
 17125              	.LLST48:
 17126 08f1 4E000000 		.4byte	.LVL99
 17127 08f5 78000000 		.4byte	.LVL104
 17128 08f9 1300     		.2byte	0x13
 17129 08fb 71       		.byte	0x71
 17130 08fc 00       		.sleb128 0
 17131 08fd F7       		.byte	0xf7
 17132 08fe 2C       		.uleb128 0x2c
 17133 08ff F7       		.byte	0xf7
 17134 0900 25       		.uleb128 0x25
 17135 0901 F4       		.byte	0xf4
 17136 0902 25       		.uleb128 0x25
 17137 0903 04       		.byte	0x4
 17138 0904 AE47613F 		.4byte	0x3f6147ae
 17139 0908 1E       		.byte	0x1e
 17140 0909 F7       		.byte	0xf7
 17141 090a 2C       		.uleb128 0x2c
 17142 090b F7       		.byte	0xf7
 17143 090c 00       		.uleb128 0
 17144 090d 9F       		.byte	0x9f
 17145 090e AA000000 		.4byte	.LVL106
 17146 0912 CE000000 		.4byte	.LVL108
 17147 0916 1300     		.2byte	0x13
 17148 0918 72       		.byte	0x72
 17149 0919 00       		.sleb128 0
 17150 091a F7       		.byte	0xf7
 17151 091b 2C       		.uleb128 0x2c
 17152 091c F7       		.byte	0xf7
 17153 091d 25       		.uleb128 0x25
 17154 091e F4       		.byte	0xf4
 17155 091f 25       		.uleb128 0x25
 17156 0920 04       		.byte	0x4
 17157 0921 AE47613F 		.4byte	0x3f6147ae
 17158 0925 1E       		.byte	0x1e
 17159 0926 F7       		.byte	0xf7
 17160 0927 2C       		.uleb128 0x2c
 17161 0928 F7       		.byte	0xf7
 17162 0929 00       		.uleb128 0
 17163 092a 9F       		.byte	0x9f
 17164 092b CE000000 		.4byte	.LVL108
 17165 092f D6000000 		.4byte	.LVL109
ARM GAS  C:\Users\adrie\AppData\Local\Temp\cc7EdWgE.s 			page 303


 17166 0933 1400     		.2byte	0x14
 17167 0935 F3       		.byte	0xf3
 17168 0936 01       		.uleb128 0x1
 17169 0937 52       		.byte	0x52
 17170 0938 F7       		.byte	0xf7
 17171 0939 2C       		.uleb128 0x2c
 17172 093a F7       		.byte	0xf7
 17173 093b 25       		.uleb128 0x25
 17174 093c F4       		.byte	0xf4
 17175 093d 25       		.uleb128 0x25
 17176 093e 04       		.byte	0x4
 17177 093f AE47613F 		.4byte	0x3f6147ae
 17178 0943 1E       		.byte	0x1e
 17179 0944 F7       		.byte	0xf7
 17180 0945 2C       		.uleb128 0x2c
 17181 0946 F7       		.byte	0xf7
 17182 0947 00       		.uleb128 0
 17183 0948 9F       		.byte	0x9f
 17184 0949 16010000 		.4byte	.LVL113
 17185 094d 2A010000 		.4byte	.LVL116
 17186 0951 1300     		.2byte	0x13
 17187 0953 70       		.byte	0x70
 17188 0954 00       		.sleb128 0
 17189 0955 F7       		.byte	0xf7
 17190 0956 2C       		.uleb128 0x2c
 17191 0957 F7       		.byte	0xf7
 17192 0958 25       		.uleb128 0x25
 17193 0959 F4       		.byte	0xf4
 17194 095a 25       		.uleb128 0x25
 17195 095b 04       		.byte	0x4
 17196 095c AE47613F 		.4byte	0x3f6147ae
 17197 0960 1E       		.byte	0x1e
 17198 0961 F7       		.byte	0xf7
 17199 0962 2C       		.uleb128 0x2c
 17200 0963 F7       		.byte	0xf7
 17201 0964 00       		.uleb128 0
 17202 0965 9F       		.byte	0x9f
 17203 0966 40010000 		.4byte	.LVL122
 17204 096a 46010000 		.4byte	.LVL124
 17205 096e 1300     		.2byte	0x13
 17206 0970 70       		.byte	0x70
 17207 0971 00       		.sleb128 0
 17208 0972 F7       		.byte	0xf7
 17209 0973 2C       		.uleb128 0x2c
 17210 0974 F7       		.byte	0xf7
 17211 0975 25       		.uleb128 0x25
 17212 0976 F4       		.byte	0xf4
 17213 0977 25       		.uleb128 0x25
 17214 0978 04       		.byte	0x4
 17215 0979 AE47613F 		.4byte	0x3f6147ae
 17216 097d 1E       		.byte	0x1e
 17217 097e F7       		.byte	0xf7
 17218 097f 2C       		.uleb128 0x2c
 17219 0980 F7       		.byte	0xf7
 17220 0981 00       		.uleb128 0
 17221 0982 9F       		.byte	0x9f
 17222 0983 46010000 		.4byte	.LVL124
ARM GAS  C:\Users\adrie\AppData\Local\Temp\cc7EdWgE.s 			page 304


 17223 0987 4C010000 		.4byte	.LVL126
 17224 098b 1300     		.2byte	0x13
 17225 098d 72       		.byte	0x72
 17226 098e 00       		.sleb128 0
 17227 098f F7       		.byte	0xf7
 17228 0990 2C       		.uleb128 0x2c
 17229 0991 F7       		.byte	0xf7
 17230 0992 25       		.uleb128 0x25
 17231 0993 F4       		.byte	0xf4
 17232 0994 25       		.uleb128 0x25
 17233 0995 04       		.byte	0x4
 17234 0996 AE47613F 		.4byte	0x3f6147ae
 17235 099a 1E       		.byte	0x1e
 17236 099b F7       		.byte	0xf7
 17237 099c 2C       		.uleb128 0x2c
 17238 099d F7       		.byte	0xf7
 17239 099e 00       		.uleb128 0
 17240 099f 9F       		.byte	0x9f
 17241 09a0 4C010000 		.4byte	.LVL126
 17242 09a4 50010000 		.4byte	.LVL127
 17243 09a8 1400     		.2byte	0x14
 17244 09aa F3       		.byte	0xf3
 17245 09ab 01       		.uleb128 0x1
 17246 09ac 52       		.byte	0x52
 17247 09ad F7       		.byte	0xf7
 17248 09ae 2C       		.uleb128 0x2c
 17249 09af F7       		.byte	0xf7
 17250 09b0 25       		.uleb128 0x25
 17251 09b1 F4       		.byte	0xf4
 17252 09b2 25       		.uleb128 0x25
 17253 09b3 04       		.byte	0x4
 17254 09b4 AE47613F 		.4byte	0x3f6147ae
 17255 09b8 1E       		.byte	0x1e
 17256 09b9 F7       		.byte	0xf7
 17257 09ba 2C       		.uleb128 0x2c
 17258 09bb F7       		.byte	0xf7
 17259 09bc 00       		.uleb128 0
 17260 09bd 9F       		.byte	0x9f
 17261 09be 50010000 		.4byte	.LVL127
 17262 09c2 52010000 		.4byte	.LVL128
 17263 09c6 1300     		.2byte	0x13
 17264 09c8 73       		.byte	0x73
 17265 09c9 00       		.sleb128 0
 17266 09ca F7       		.byte	0xf7
 17267 09cb 2C       		.uleb128 0x2c
 17268 09cc F7       		.byte	0xf7
 17269 09cd 25       		.uleb128 0x25
 17270 09ce F4       		.byte	0xf4
 17271 09cf 25       		.uleb128 0x25
 17272 09d0 04       		.byte	0x4
 17273 09d1 AE47613F 		.4byte	0x3f6147ae
 17274 09d5 1E       		.byte	0x1e
 17275 09d6 F7       		.byte	0xf7
 17276 09d7 2C       		.uleb128 0x2c
 17277 09d8 F7       		.byte	0xf7
 17278 09d9 00       		.uleb128 0
 17279 09da 9F       		.byte	0x9f
ARM GAS  C:\Users\adrie\AppData\Local\Temp\cc7EdWgE.s 			page 305


 17280 09db 52010000 		.4byte	.LVL128
 17281 09df 58010000 		.4byte	.LVL130
 17282 09e3 1400     		.2byte	0x14
 17283 09e5 F3       		.byte	0xf3
 17284 09e6 01       		.uleb128 0x1
 17285 09e7 53       		.byte	0x53
 17286 09e8 F7       		.byte	0xf7
 17287 09e9 2C       		.uleb128 0x2c
 17288 09ea F7       		.byte	0xf7
 17289 09eb 25       		.uleb128 0x25
 17290 09ec F4       		.byte	0xf4
 17291 09ed 25       		.uleb128 0x25
 17292 09ee 04       		.byte	0x4
 17293 09ef AE47613F 		.4byte	0x3f6147ae
 17294 09f3 1E       		.byte	0x1e
 17295 09f4 F7       		.byte	0xf7
 17296 09f5 2C       		.uleb128 0x2c
 17297 09f6 F7       		.byte	0xf7
 17298 09f7 00       		.uleb128 0
 17299 09f8 9F       		.byte	0x9f
 17300 09f9 58010000 		.4byte	.LVL130
 17301 09fd 60010000 		.4byte	.LVL133
 17302 0a01 1300     		.2byte	0x13
 17303 0a03 71       		.byte	0x71
 17304 0a04 00       		.sleb128 0
 17305 0a05 F7       		.byte	0xf7
 17306 0a06 2C       		.uleb128 0x2c
 17307 0a07 F7       		.byte	0xf7
 17308 0a08 25       		.uleb128 0x25
 17309 0a09 F4       		.byte	0xf4
 17310 0a0a 25       		.uleb128 0x25
 17311 0a0b 04       		.byte	0x4
 17312 0a0c AE47613F 		.4byte	0x3f6147ae
 17313 0a10 1E       		.byte	0x1e
 17314 0a11 F7       		.byte	0xf7
 17315 0a12 2C       		.uleb128 0x2c
 17316 0a13 F7       		.byte	0xf7
 17317 0a14 00       		.uleb128 0
 17318 0a15 9F       		.byte	0x9f
 17319 0a16 00000000 		.4byte	0
 17320 0a1a 00000000 		.4byte	0
 17321              	.LLST71:
 17322 0a1e 00000000 		.4byte	.LVL218
 17323 0a22 C2000000 		.4byte	.LVL226
 17324 0a26 0100     		.2byte	0x1
 17325 0a28 50       		.byte	0x50
 17326 0a29 C2000000 		.4byte	.LVL226
 17327 0a2d F4010000 		.4byte	.LVL258
 17328 0a31 0400     		.2byte	0x4
 17329 0a33 F3       		.byte	0xf3
 17330 0a34 01       		.uleb128 0x1
 17331 0a35 50       		.byte	0x50
 17332 0a36 9F       		.byte	0x9f
 17333 0a37 F4010000 		.4byte	.LVL258
 17334 0a3b FC010000 		.4byte	.LVL259
 17335 0a3f 0100     		.2byte	0x1
 17336 0a41 50       		.byte	0x50
ARM GAS  C:\Users\adrie\AppData\Local\Temp\cc7EdWgE.s 			page 306


 17337 0a42 FC010000 		.4byte	.LVL259
 17338 0a46 14030000 		.4byte	.LFE291
 17339 0a4a 0400     		.2byte	0x4
 17340 0a4c F3       		.byte	0xf3
 17341 0a4d 01       		.uleb128 0x1
 17342 0a4e 50       		.byte	0x50
 17343 0a4f 9F       		.byte	0x9f
 17344 0a50 00000000 		.4byte	0
 17345 0a54 00000000 		.4byte	0
 17346              	.LLST72:
 17347 0a58 00000000 		.4byte	.LVL218
 17348 0a5c BE000000 		.4byte	.LVL225
 17349 0a60 0100     		.2byte	0x1
 17350 0a62 51       		.byte	0x51
 17351 0a63 BE000000 		.4byte	.LVL225
 17352 0a67 F4010000 		.4byte	.LVL258
 17353 0a6b 0400     		.2byte	0x4
 17354 0a6d F3       		.byte	0xf3
 17355 0a6e 01       		.uleb128 0x1
 17356 0a6f 51       		.byte	0x51
 17357 0a70 9F       		.byte	0x9f
 17358 0a71 F4010000 		.4byte	.LVL258
 17359 0a75 FC010000 		.4byte	.LVL259
 17360 0a79 0100     		.2byte	0x1
 17361 0a7b 51       		.byte	0x51
 17362 0a7c FC010000 		.4byte	.LVL259
 17363 0a80 14030000 		.4byte	.LFE291
 17364 0a84 0400     		.2byte	0x4
 17365 0a86 F3       		.byte	0xf3
 17366 0a87 01       		.uleb128 0x1
 17367 0a88 51       		.byte	0x51
 17368 0a89 9F       		.byte	0x9f
 17369 0a8a 00000000 		.4byte	0
 17370 0a8e 00000000 		.4byte	0
 17371              	.LLST73:
 17372 0a92 10000000 		.4byte	.LVL219
 17373 0a96 2E000000 		.4byte	.LVL220
 17374 0a9a 0200     		.2byte	0x2
 17375 0a9c 30       		.byte	0x30
 17376 0a9d 9F       		.byte	0x9f
 17377 0a9e 2E000000 		.4byte	.LVL220
 17378 0aa2 30000000 		.4byte	.LVL221
 17379 0aa6 0100     		.2byte	0x1
 17380 0aa8 57       		.byte	0x57
 17381 0aa9 32000000 		.4byte	.LVL222
 17382 0aad BC000000 		.4byte	.LVL224
 17383 0ab1 0100     		.2byte	0x1
 17384 0ab3 57       		.byte	0x57
 17385 0ab4 F4010000 		.4byte	.LVL258
 17386 0ab8 FC010000 		.4byte	.LVL259
 17387 0abc 0200     		.2byte	0x2
 17388 0abe 30       		.byte	0x30
 17389 0abf 9F       		.byte	0x9f
 17390 0ac0 00000000 		.4byte	0
 17391 0ac4 00000000 		.4byte	0
 17392              	.LLST74:
 17393 0ac8 24010000 		.4byte	.LVL236
ARM GAS  C:\Users\adrie\AppData\Local\Temp\cc7EdWgE.s 			page 307


 17394 0acc 88010000 		.4byte	.LVL251
 17395 0ad0 1300     		.2byte	0x13
 17396 0ad2 7A       		.byte	0x7a
 17397 0ad3 00       		.sleb128 0
 17398 0ad4 F7       		.byte	0xf7
 17399 0ad5 2C       		.uleb128 0x2c
 17400 0ad6 F7       		.byte	0xf7
 17401 0ad7 25       		.uleb128 0x25
 17402 0ad8 F4       		.byte	0xf4
 17403 0ad9 25       		.uleb128 0x25
 17404 0ada 04       		.byte	0x4
 17405 0adb A4707D3F 		.4byte	0x3f7d70a4
 17406 0adf 1E       		.byte	0x1e
 17407 0ae0 F7       		.byte	0xf7
 17408 0ae1 2C       		.uleb128 0x2c
 17409 0ae2 F7       		.byte	0xf7
 17410 0ae3 00       		.uleb128 0
 17411 0ae4 9F       		.byte	0x9f
 17412 0ae5 88010000 		.4byte	.LVL251
 17413 0ae9 90010000 		.4byte	.LVL252
 17414 0aed 1000     		.2byte	0x10
 17415 0aef F5       		.byte	0xf5
 17416 0af0 4E       		.uleb128 0x4e
 17417 0af1 25       		.uleb128 0x25
 17418 0af2 F4       		.byte	0xf4
 17419 0af3 25       		.uleb128 0x25
 17420 0af4 04       		.byte	0x4
 17421 0af5 A4707D3F 		.4byte	0x3f7d70a4
 17422 0af9 1E       		.byte	0x1e
 17423 0afa F7       		.byte	0xf7
 17424 0afb 2C       		.uleb128 0x2c
 17425 0afc F7       		.byte	0xf7
 17426 0afd 00       		.uleb128 0
 17427 0afe 9F       		.byte	0x9f
 17428 0aff 90010000 		.4byte	.LVL252
 17429 0b03 DC010000 		.4byte	.LVL256
 17430 0b07 1300     		.2byte	0x13
 17431 0b09 7A       		.byte	0x7a
 17432 0b0a 00       		.sleb128 0
 17433 0b0b F7       		.byte	0xf7
 17434 0b0c 2C       		.uleb128 0x2c
 17435 0b0d F7       		.byte	0xf7
 17436 0b0e 25       		.uleb128 0x25
 17437 0b0f F4       		.byte	0xf4
 17438 0b10 25       		.uleb128 0x25
 17439 0b11 04       		.byte	0x4
 17440 0b12 A4707D3F 		.4byte	0x3f7d70a4
 17441 0b16 1E       		.byte	0x1e
 17442 0b17 F7       		.byte	0xf7
 17443 0b18 2C       		.uleb128 0x2c
 17444 0b19 F7       		.byte	0xf7
 17445 0b1a 00       		.uleb128 0
 17446 0b1b 9F       		.byte	0x9f
 17447 0b1c DC010000 		.4byte	.LVL256
 17448 0b20 E4010000 		.4byte	.LVL257
 17449 0b24 1500     		.2byte	0x15
 17450 0b26 91       		.byte	0x91
ARM GAS  C:\Users\adrie\AppData\Local\Temp\cc7EdWgE.s 			page 308


 17451 0b27 947F     		.sleb128 -108
 17452 0b29 06       		.byte	0x6
 17453 0b2a F7       		.byte	0xf7
 17454 0b2b 2C       		.uleb128 0x2c
 17455 0b2c F7       		.byte	0xf7
 17456 0b2d 25       		.uleb128 0x25
 17457 0b2e F4       		.byte	0xf4
 17458 0b2f 25       		.uleb128 0x25
 17459 0b30 04       		.byte	0x4
 17460 0b31 A4707D3F 		.4byte	0x3f7d70a4
 17461 0b35 1E       		.byte	0x1e
 17462 0b36 F7       		.byte	0xf7
 17463 0b37 2C       		.uleb128 0x2c
 17464 0b38 F7       		.byte	0xf7
 17465 0b39 00       		.uleb128 0
 17466 0b3a 9F       		.byte	0x9f
 17467 0b3b FC010000 		.4byte	.LVL259
 17468 0b3f 5E020000 		.4byte	.LVL273
 17469 0b43 1300     		.2byte	0x13
 17470 0b45 7A       		.byte	0x7a
 17471 0b46 00       		.sleb128 0
 17472 0b47 F7       		.byte	0xf7
 17473 0b48 2C       		.uleb128 0x2c
 17474 0b49 F7       		.byte	0xf7
 17475 0b4a 25       		.uleb128 0x25
 17476 0b4b F4       		.byte	0xf4
 17477 0b4c 25       		.uleb128 0x25
 17478 0b4d 04       		.byte	0x4
 17479 0b4e A4707D3F 		.4byte	0x3f7d70a4
 17480 0b52 1E       		.byte	0x1e
 17481 0b53 F7       		.byte	0xf7
 17482 0b54 2C       		.uleb128 0x2c
 17483 0b55 F7       		.byte	0xf7
 17484 0b56 00       		.uleb128 0
 17485 0b57 9F       		.byte	0x9f
 17486 0b58 5E020000 		.4byte	.LVL273
 17487 0b5c BE020000 		.4byte	.LVL284
 17488 0b60 1500     		.2byte	0x15
 17489 0b62 91       		.byte	0x91
 17490 0b63 947F     		.sleb128 -108
 17491 0b65 06       		.byte	0x6
 17492 0b66 F7       		.byte	0xf7
 17493 0b67 2C       		.uleb128 0x2c
 17494 0b68 F7       		.byte	0xf7
 17495 0b69 25       		.uleb128 0x25
 17496 0b6a F4       		.byte	0xf4
 17497 0b6b 25       		.uleb128 0x25
 17498 0b6c 04       		.byte	0x4
 17499 0b6d A4707D3F 		.4byte	0x3f7d70a4
 17500 0b71 1E       		.byte	0x1e
 17501 0b72 F7       		.byte	0xf7
 17502 0b73 2C       		.uleb128 0x2c
 17503 0b74 F7       		.byte	0xf7
 17504 0b75 00       		.uleb128 0
 17505 0b76 9F       		.byte	0x9f
 17506 0b77 BE020000 		.4byte	.LVL284
 17507 0b7b C4020000 		.4byte	.LVL286
ARM GAS  C:\Users\adrie\AppData\Local\Temp\cc7EdWgE.s 			page 309


 17508 0b7f 1300     		.2byte	0x13
 17509 0b81 7A       		.byte	0x7a
 17510 0b82 00       		.sleb128 0
 17511 0b83 F7       		.byte	0xf7
 17512 0b84 2C       		.uleb128 0x2c
 17513 0b85 F7       		.byte	0xf7
 17514 0b86 25       		.uleb128 0x25
 17515 0b87 F4       		.byte	0xf4
 17516 0b88 25       		.uleb128 0x25
 17517 0b89 04       		.byte	0x4
 17518 0b8a A4707D3F 		.4byte	0x3f7d70a4
 17519 0b8e 1E       		.byte	0x1e
 17520 0b8f F7       		.byte	0xf7
 17521 0b90 2C       		.uleb128 0x2c
 17522 0b91 F7       		.byte	0xf7
 17523 0b92 00       		.uleb128 0
 17524 0b93 9F       		.byte	0x9f
 17525 0b94 00000000 		.4byte	0
 17526 0b98 00000000 		.4byte	0
 17527              	.LLST75:
 17528 0b9c 2E010000 		.4byte	.LVL238
 17529 0ba0 76010000 		.4byte	.LVL248
 17530 0ba4 1300     		.2byte	0x13
 17531 0ba6 75       		.byte	0x75
 17532 0ba7 00       		.sleb128 0
 17533 0ba8 F7       		.byte	0xf7
 17534 0ba9 2C       		.uleb128 0x2c
 17535 0baa F7       		.byte	0xf7
 17536 0bab 25       		.uleb128 0x25
 17537 0bac F4       		.byte	0xf4
 17538 0bad 25       		.uleb128 0x25
 17539 0bae 04       		.byte	0x4
 17540 0baf A4707D3F 		.4byte	0x3f7d70a4
 17541 0bb3 1E       		.byte	0x1e
 17542 0bb4 F7       		.byte	0xf7
 17543 0bb5 2C       		.uleb128 0x2c
 17544 0bb6 F7       		.byte	0xf7
 17545 0bb7 00       		.uleb128 0
 17546 0bb8 9F       		.byte	0x9f
 17547 0bb9 76010000 		.4byte	.LVL248
 17548 0bbd 7C010000 		.4byte	.LVL249
 17549 0bc1 1400     		.2byte	0x14
 17550 0bc3 92       		.byte	0x92
 17551 0bc4 4F       		.uleb128 0x4f
 17552 0bc5 00       		.sleb128 0
 17553 0bc6 F7       		.byte	0xf7
 17554 0bc7 2C       		.uleb128 0x2c
 17555 0bc8 F7       		.byte	0xf7
 17556 0bc9 25       		.uleb128 0x25
 17557 0bca F4       		.byte	0xf4
 17558 0bcb 25       		.uleb128 0x25
 17559 0bcc 04       		.byte	0x4
 17560 0bcd A4707D3F 		.4byte	0x3f7d70a4
 17561 0bd1 1E       		.byte	0x1e
 17562 0bd2 F7       		.byte	0xf7
 17563 0bd3 2C       		.uleb128 0x2c
 17564 0bd4 F7       		.byte	0xf7
ARM GAS  C:\Users\adrie\AppData\Local\Temp\cc7EdWgE.s 			page 310


 17565 0bd5 00       		.uleb128 0
 17566 0bd6 9F       		.byte	0x9f
 17567 0bd7 7C010000 		.4byte	.LVL249
 17568 0bdb 84010000 		.4byte	.LVL250
 17569 0bdf 1000     		.2byte	0x10
 17570 0be1 F5       		.byte	0xf5
 17571 0be2 4D       		.uleb128 0x4d
 17572 0be3 25       		.uleb128 0x25
 17573 0be4 F4       		.byte	0xf4
 17574 0be5 25       		.uleb128 0x25
 17575 0be6 04       		.byte	0x4
 17576 0be7 A4707D3F 		.4byte	0x3f7d70a4
 17577 0beb 1E       		.byte	0x1e
 17578 0bec F7       		.byte	0xf7
 17579 0bed 2C       		.uleb128 0x2c
 17580 0bee F7       		.byte	0xf7
 17581 0bef 00       		.uleb128 0
 17582 0bf0 9F       		.byte	0x9f
 17583 0bf1 84010000 		.4byte	.LVL250
 17584 0bf5 E4010000 		.4byte	.LVL257
 17585 0bf9 1500     		.2byte	0x15
 17586 0bfb 91       		.byte	0x91
 17587 0bfc 9C7F     		.sleb128 -100
 17588 0bfe 06       		.byte	0x6
 17589 0bff F7       		.byte	0xf7
 17590 0c00 2C       		.uleb128 0x2c
 17591 0c01 F7       		.byte	0xf7
 17592 0c02 25       		.uleb128 0x25
 17593 0c03 F4       		.byte	0xf4
 17594 0c04 25       		.uleb128 0x25
 17595 0c05 04       		.byte	0x4
 17596 0c06 A4707D3F 		.4byte	0x3f7d70a4
 17597 0c0a 1E       		.byte	0x1e
 17598 0c0b F7       		.byte	0xf7
 17599 0c0c 2C       		.uleb128 0x2c
 17600 0c0d F7       		.byte	0xf7
 17601 0c0e 00       		.uleb128 0
 17602 0c0f 9F       		.byte	0x9f
 17603 0c10 FC010000 		.4byte	.LVL259
 17604 0c14 00020000 		.4byte	.LVL260
 17605 0c18 1300     		.2byte	0x13
 17606 0c1a 75       		.byte	0x75
 17607 0c1b 00       		.sleb128 0
 17608 0c1c F7       		.byte	0xf7
 17609 0c1d 2C       		.uleb128 0x2c
 17610 0c1e F7       		.byte	0xf7
 17611 0c1f 25       		.uleb128 0x25
 17612 0c20 F4       		.byte	0xf4
 17613 0c21 25       		.uleb128 0x25
 17614 0c22 04       		.byte	0x4
 17615 0c23 A4707D3F 		.4byte	0x3f7d70a4
 17616 0c27 1E       		.byte	0x1e
 17617 0c28 F7       		.byte	0xf7
 17618 0c29 2C       		.uleb128 0x2c
 17619 0c2a F7       		.byte	0xf7
 17620 0c2b 00       		.uleb128 0
 17621 0c2c 9F       		.byte	0x9f
ARM GAS  C:\Users\adrie\AppData\Local\Temp\cc7EdWgE.s 			page 311


 17622 0c2d 00020000 		.4byte	.LVL260
 17623 0c31 C4020000 		.4byte	.LVL286
 17624 0c35 1500     		.2byte	0x15
 17625 0c37 91       		.byte	0x91
 17626 0c38 9C7F     		.sleb128 -100
 17627 0c3a 06       		.byte	0x6
 17628 0c3b F7       		.byte	0xf7
 17629 0c3c 2C       		.uleb128 0x2c
 17630 0c3d F7       		.byte	0xf7
 17631 0c3e 25       		.uleb128 0x25
 17632 0c3f F4       		.byte	0xf4
 17633 0c40 25       		.uleb128 0x25
 17634 0c41 04       		.byte	0x4
 17635 0c42 A4707D3F 		.4byte	0x3f7d70a4
 17636 0c46 1E       		.byte	0x1e
 17637 0c47 F7       		.byte	0xf7
 17638 0c48 2C       		.uleb128 0x2c
 17639 0c49 F7       		.byte	0xf7
 17640 0c4a 00       		.uleb128 0
 17641 0c4b 9F       		.byte	0x9f
 17642 0c4c 00000000 		.4byte	0
 17643 0c50 00000000 		.4byte	0
 17644              	.LLST76:
 17645 0c54 3A010000 		.4byte	.LVL240
 17646 0c58 DC010000 		.4byte	.LVL256
 17647 0c5c 0100     		.2byte	0x1
 17648 0c5e 59       		.byte	0x59
 17649 0c5f DC010000 		.4byte	.LVL256
 17650 0c63 E4010000 		.4byte	.LVL257
 17651 0c67 0300     		.2byte	0x3
 17652 0c69 91       		.byte	0x91
 17653 0c6a A47F     		.sleb128 -92
 17654 0c6c FC010000 		.4byte	.LVL259
 17655 0c70 62020000 		.4byte	.LVL274
 17656 0c74 0100     		.2byte	0x1
 17657 0c76 59       		.byte	0x59
 17658 0c77 62020000 		.4byte	.LVL274
 17659 0c7b BE020000 		.4byte	.LVL284
 17660 0c7f 0300     		.2byte	0x3
 17661 0c81 91       		.byte	0x91
 17662 0c82 A47F     		.sleb128 -92
 17663 0c84 BE020000 		.4byte	.LVL284
 17664 0c88 C4020000 		.4byte	.LVL286
 17665 0c8c 0100     		.2byte	0x1
 17666 0c8e 59       		.byte	0x59
 17667 0c8f 00000000 		.4byte	0
 17668 0c93 00000000 		.4byte	0
 17669              	.LLST77:
 17670 0c97 46010000 		.4byte	.LVL242
 17671 0c9b 94010000 		.4byte	.LVL253
 17672 0c9f 1300     		.2byte	0x13
 17673 0ca1 78       		.byte	0x78
 17674 0ca2 00       		.sleb128 0
 17675 0ca3 F7       		.byte	0xf7
 17676 0ca4 2C       		.uleb128 0x2c
 17677 0ca5 F7       		.byte	0xf7
 17678 0ca6 25       		.uleb128 0x25
ARM GAS  C:\Users\adrie\AppData\Local\Temp\cc7EdWgE.s 			page 312


 17679 0ca7 F4       		.byte	0xf4
 17680 0ca8 25       		.uleb128 0x25
 17681 0ca9 04       		.byte	0x4
 17682 0caa A4707D3F 		.4byte	0x3f7d70a4
 17683 0cae 1E       		.byte	0x1e
 17684 0caf F7       		.byte	0xf7
 17685 0cb0 2C       		.uleb128 0x2c
 17686 0cb1 F7       		.byte	0xf7
 17687 0cb2 00       		.uleb128 0
 17688 0cb3 9F       		.byte	0x9f
 17689 0cb4 94010000 		.4byte	.LVL253
 17690 0cb8 A4010000 		.4byte	.LVL254
 17691 0cbc 1000     		.2byte	0x10
 17692 0cbe F5       		.byte	0xf5
 17693 0cbf 4F       		.uleb128 0x4f
 17694 0cc0 25       		.uleb128 0x25
 17695 0cc1 F4       		.byte	0xf4
 17696 0cc2 25       		.uleb128 0x25
 17697 0cc3 04       		.byte	0x4
 17698 0cc4 A4707D3F 		.4byte	0x3f7d70a4
 17699 0cc8 1E       		.byte	0x1e
 17700 0cc9 F7       		.byte	0xf7
 17701 0cca 2C       		.uleb128 0x2c
 17702 0ccb F7       		.byte	0xf7
 17703 0ccc 00       		.uleb128 0
 17704 0ccd 9F       		.byte	0x9f
 17705 0cce A4010000 		.4byte	.LVL254
 17706 0cd2 DC010000 		.4byte	.LVL256
 17707 0cd6 1300     		.2byte	0x13
 17708 0cd8 78       		.byte	0x78
 17709 0cd9 00       		.sleb128 0
 17710 0cda F7       		.byte	0xf7
 17711 0cdb 2C       		.uleb128 0x2c
 17712 0cdc F7       		.byte	0xf7
 17713 0cdd 25       		.uleb128 0x25
 17714 0cde F4       		.byte	0xf4
 17715 0cdf 25       		.uleb128 0x25
 17716 0ce0 04       		.byte	0x4
 17717 0ce1 A4707D3F 		.4byte	0x3f7d70a4
 17718 0ce5 1E       		.byte	0x1e
 17719 0ce6 F7       		.byte	0xf7
 17720 0ce7 2C       		.uleb128 0x2c
 17721 0ce8 F7       		.byte	0xf7
 17722 0ce9 00       		.uleb128 0
 17723 0cea 9F       		.byte	0x9f
 17724 0ceb DC010000 		.4byte	.LVL256
 17725 0cef E4010000 		.4byte	.LVL257
 17726 0cf3 1500     		.2byte	0x15
 17727 0cf5 91       		.byte	0x91
 17728 0cf6 AC7F     		.sleb128 -84
 17729 0cf8 06       		.byte	0x6
 17730 0cf9 F7       		.byte	0xf7
 17731 0cfa 2C       		.uleb128 0x2c
 17732 0cfb F7       		.byte	0xf7
 17733 0cfc 25       		.uleb128 0x25
 17734 0cfd F4       		.byte	0xf4
 17735 0cfe 25       		.uleb128 0x25
ARM GAS  C:\Users\adrie\AppData\Local\Temp\cc7EdWgE.s 			page 313


 17736 0cff 04       		.byte	0x4
 17737 0d00 A4707D3F 		.4byte	0x3f7d70a4
 17738 0d04 1E       		.byte	0x1e
 17739 0d05 F7       		.byte	0xf7
 17740 0d06 2C       		.uleb128 0x2c
 17741 0d07 F7       		.byte	0xf7
 17742 0d08 00       		.uleb128 0
 17743 0d09 9F       		.byte	0x9f
 17744 0d0a FC010000 		.4byte	.LVL259
 17745 0d0e 66020000 		.4byte	.LVL275
 17746 0d12 1300     		.2byte	0x13
 17747 0d14 78       		.byte	0x78
 17748 0d15 00       		.sleb128 0
 17749 0d16 F7       		.byte	0xf7
 17750 0d17 2C       		.uleb128 0x2c
 17751 0d18 F7       		.byte	0xf7
 17752 0d19 25       		.uleb128 0x25
 17753 0d1a F4       		.byte	0xf4
 17754 0d1b 25       		.uleb128 0x25
 17755 0d1c 04       		.byte	0x4
 17756 0d1d A4707D3F 		.4byte	0x3f7d70a4
 17757 0d21 1E       		.byte	0x1e
 17758 0d22 F7       		.byte	0xf7
 17759 0d23 2C       		.uleb128 0x2c
 17760 0d24 F7       		.byte	0xf7
 17761 0d25 00       		.uleb128 0
 17762 0d26 9F       		.byte	0x9f
 17763 0d27 66020000 		.4byte	.LVL275
 17764 0d2b BE020000 		.4byte	.LVL284
 17765 0d2f 1500     		.2byte	0x15
 17766 0d31 91       		.byte	0x91
 17767 0d32 AC7F     		.sleb128 -84
 17768 0d34 06       		.byte	0x6
 17769 0d35 F7       		.byte	0xf7
 17770 0d36 2C       		.uleb128 0x2c
 17771 0d37 F7       		.byte	0xf7
 17772 0d38 25       		.uleb128 0x25
 17773 0d39 F4       		.byte	0xf4
 17774 0d3a 25       		.uleb128 0x25
 17775 0d3b 04       		.byte	0x4
 17776 0d3c A4707D3F 		.4byte	0x3f7d70a4
 17777 0d40 1E       		.byte	0x1e
 17778 0d41 F7       		.byte	0xf7
 17779 0d42 2C       		.uleb128 0x2c
 17780 0d43 F7       		.byte	0xf7
 17781 0d44 00       		.uleb128 0
 17782 0d45 9F       		.byte	0x9f
 17783 0d46 BE020000 		.4byte	.LVL284
 17784 0d4a C4020000 		.4byte	.LVL286
 17785 0d4e 1300     		.2byte	0x13
 17786 0d50 78       		.byte	0x78
 17787 0d51 00       		.sleb128 0
 17788 0d52 F7       		.byte	0xf7
 17789 0d53 2C       		.uleb128 0x2c
 17790 0d54 F7       		.byte	0xf7
 17791 0d55 25       		.uleb128 0x25
 17792 0d56 F4       		.byte	0xf4
ARM GAS  C:\Users\adrie\AppData\Local\Temp\cc7EdWgE.s 			page 314


 17793 0d57 25       		.uleb128 0x25
 17794 0d58 04       		.byte	0x4
 17795 0d59 A4707D3F 		.4byte	0x3f7d70a4
 17796 0d5d 1E       		.byte	0x1e
 17797 0d5e F7       		.byte	0xf7
 17798 0d5f 2C       		.uleb128 0x2c
 17799 0d60 F7       		.byte	0xf7
 17800 0d61 00       		.uleb128 0
 17801 0d62 9F       		.byte	0x9f
 17802 0d63 00000000 		.4byte	0
 17803 0d67 00000000 		.4byte	0
 17804              	.LLST78:
 17805 0d6b 4A010000 		.4byte	.LVL243
 17806 0d6f E4010000 		.4byte	.LVL257
 17807 0d73 0300     		.2byte	0x3
 17808 0d75 91       		.byte	0x91
 17809 0d76 B87F     		.sleb128 -72
 17810 0d78 FC010000 		.4byte	.LVL259
 17811 0d7c C4020000 		.4byte	.LVL286
 17812 0d80 0300     		.2byte	0x3
 17813 0d82 91       		.byte	0x91
 17814 0d83 B87F     		.sleb128 -72
 17815 0d85 00000000 		.4byte	0
 17816 0d89 00000000 		.4byte	0
 17817              	.LLST79:
 17818 0d8d 52010000 		.4byte	.LVL244
 17819 0d91 E4010000 		.4byte	.LVL257
 17820 0d95 0200     		.2byte	0x2
 17821 0d97 91       		.byte	0x91
 17822 0d98 40       		.sleb128 -64
 17823 0d99 FC010000 		.4byte	.LVL259
 17824 0d9d C4020000 		.4byte	.LVL286
 17825 0da1 0200     		.2byte	0x2
 17826 0da3 91       		.byte	0x91
 17827 0da4 40       		.sleb128 -64
 17828 0da5 00000000 		.4byte	0
 17829 0da9 00000000 		.4byte	0
 17830              	.LLST80:
 17831 0dad 5A010000 		.4byte	.LVL245
 17832 0db1 E4010000 		.4byte	.LVL257
 17833 0db5 0200     		.2byte	0x2
 17834 0db7 91       		.byte	0x91
 17835 0db8 48       		.sleb128 -56
 17836 0db9 FC010000 		.4byte	.LVL259
 17837 0dbd C4020000 		.4byte	.LVL286
 17838 0dc1 0200     		.2byte	0x2
 17839 0dc3 91       		.byte	0x91
 17840 0dc4 48       		.sleb128 -56
 17841 0dc5 00000000 		.4byte	0
 17842 0dc9 00000000 		.4byte	0
 17843              	.LLST81:
 17844 0dcd 62010000 		.4byte	.LVL246
 17845 0dd1 E4010000 		.4byte	.LVL257
 17846 0dd5 0200     		.2byte	0x2
 17847 0dd7 91       		.byte	0x91
 17848 0dd8 50       		.sleb128 -48
 17849 0dd9 FC010000 		.4byte	.LVL259
ARM GAS  C:\Users\adrie\AppData\Local\Temp\cc7EdWgE.s 			page 315


 17850 0ddd C4020000 		.4byte	.LVL286
 17851 0de1 0200     		.2byte	0x2
 17852 0de3 91       		.byte	0x91
 17853 0de4 50       		.sleb128 -48
 17854 0de5 00000000 		.4byte	0
 17855 0de9 00000000 		.4byte	0
 17856              	.LLST91:
 17857 0ded 06020000 		.4byte	.LVL261
 17858 0df1 4C020000 		.4byte	.LVL271
 17859 0df5 0600     		.2byte	0x6
 17860 0df7 03       		.byte	0x3
 17861 0df8 00000000 		.4byte	sendToComputer_sem
 17862 0dfc 9F       		.byte	0x9f
 17863 0dfd BE020000 		.4byte	.LVL284
 17864 0e01 C4020000 		.4byte	.LVL286
 17865 0e05 0600     		.2byte	0x6
 17866 0e07 03       		.byte	0x3
 17867 0e08 00000000 		.4byte	sendToComputer_sem
 17868 0e0c 9F       		.byte	0x9f
 17869 0e0d 00000000 		.4byte	0
 17870 0e11 00000000 		.4byte	0
 17871              	.LLST92:
 17872 0e15 06020000 		.4byte	.LVL261
 17873 0e19 0C020000 		.4byte	.LVL262
 17874 0e1d 0300     		.2byte	0x3
 17875 0e1f 08       		.byte	0x8
 17876 0e20 20       		.byte	0x20
 17877 0e21 9F       		.byte	0x9f
 17878 0e22 00000000 		.4byte	0
 17879 0e26 00000000 		.4byte	0
 17880              	.LLST93:
 17881 0e2a 14020000 		.4byte	.LVL264
 17882 0e2e 20020000 		.4byte	.LVL266
 17883 0e32 0600     		.2byte	0x6
 17884 0e34 03       		.byte	0x3
 17885 0e35 00000000 		.4byte	sendToComputer_sem
 17886 0e39 9F       		.byte	0x9f
 17887 0e3a BE020000 		.4byte	.LVL284
 17888 0e3e C4020000 		.4byte	.LVL286
 17889 0e42 0600     		.2byte	0x6
 17890 0e44 03       		.byte	0x3
 17891 0e45 00000000 		.4byte	sendToComputer_sem
 17892 0e49 9F       		.byte	0x9f
 17893 0e4a 00000000 		.4byte	0
 17894 0e4e 00000000 		.4byte	0
 17895              	.LLST94:
 17896 0e52 44020000 		.4byte	.LVL270
 17897 0e56 4C020000 		.4byte	.LVL271
 17898 0e5a 0200     		.2byte	0x2
 17899 0e5c 30       		.byte	0x30
 17900 0e5d 9F       		.byte	0x9f
 17901 0e5e 00000000 		.4byte	0
 17902 0e62 00000000 		.4byte	0
 17903              	.LLST95:
 17904 0e66 56020000 		.4byte	.LVL272
 17905 0e6a 94020000 		.4byte	.LVL278
 17906 0e6e 0200     		.2byte	0x2
ARM GAS  C:\Users\adrie\AppData\Local\Temp\cc7EdWgE.s 			page 316


 17907 0e70 31       		.byte	0x31
 17908 0e71 9F       		.byte	0x9f
 17909 0e72 00000000 		.4byte	0
 17910 0e76 00000000 		.4byte	0
 17911              	.LLST96:
 17912 0e7a 56020000 		.4byte	.LVL272
 17913 0e7e 70020000 		.4byte	.LVL276
 17914 0e82 0500     		.2byte	0x5
 17915 0e84 03       		.byte	0x3
 17916 0e85 0C000000 		.4byte	moyenne+12
 17917 0e89 70020000 		.4byte	.LVL276
 17918 0e8d 80020000 		.4byte	.LVL277
 17919 0e91 0600     		.2byte	0x6
 17920 0e93 7E       		.byte	0x7e
 17921 0e94 00       		.sleb128 0
 17922 0e95 7B       		.byte	0x7b
 17923 0e96 00       		.sleb128 0
 17924 0e97 22       		.byte	0x22
 17925 0e98 9F       		.byte	0x9f
 17926 0e99 80020000 		.4byte	.LVL277
 17927 0e9d 94020000 		.4byte	.LVL278
 17928 0ea1 0100     		.2byte	0x1
 17929 0ea3 5B       		.byte	0x5b
 17930 0ea4 00000000 		.4byte	0
 17931 0ea8 00000000 		.4byte	0
 17932              	.LLST97:
 17933 0eac 94020000 		.4byte	.LVL278
 17934 0eb0 98020000 		.4byte	.LVL279
 17935 0eb4 0200     		.2byte	0x2
 17936 0eb6 30       		.byte	0x30
 17937 0eb7 9F       		.byte	0x9f
 17938 0eb8 00000000 		.4byte	0
 17939 0ebc 00000000 		.4byte	0
 17940              	.LLST98:
 17941 0ec0 98020000 		.4byte	.LVL279
 17942 0ec4 9C020000 		.4byte	.LVL280
 17943 0ec8 0200     		.2byte	0x2
 17944 0eca 32       		.byte	0x32
 17945 0ecb 9F       		.byte	0x9f
 17946 0ecc 00000000 		.4byte	0
 17947 0ed0 00000000 		.4byte	0
 17948              	.LLST99:
 17949 0ed4 9C020000 		.4byte	.LVL280
 17950 0ed8 A0020000 		.4byte	.LVL281
 17951 0edc 0200     		.2byte	0x2
 17952 0ede 33       		.byte	0x33
 17953 0edf 9F       		.byte	0x9f
 17954 0ee0 00000000 		.4byte	0
 17955 0ee4 00000000 		.4byte	0
 17956              	.LLST82:
 17957 0ee8 2E010000 		.4byte	.LVL238
 17958 0eec 32010000 		.4byte	.LVL239
 17959 0ef0 0200     		.2byte	0x2
 17960 0ef2 36       		.byte	0x36
 17961 0ef3 9F       		.byte	0x9f
 17962 0ef4 00000000 		.4byte	0
 17963 0ef8 00000000 		.4byte	0
ARM GAS  C:\Users\adrie\AppData\Local\Temp\cc7EdWgE.s 			page 317


 17964              	.LLST83:
 17965 0efc 3A010000 		.4byte	.LVL240
 17966 0f00 3E010000 		.4byte	.LVL241
 17967 0f04 0200     		.2byte	0x2
 17968 0f06 37       		.byte	0x37
 17969 0f07 9F       		.byte	0x9f
 17970 0f08 00000000 		.4byte	0
 17971 0f0c 00000000 		.4byte	0
 17972              	.LLST84:
 17973 0f10 52010000 		.4byte	.LVL244
 17974 0f14 5A010000 		.4byte	.LVL245
 17975 0f18 0200     		.2byte	0x2
 17976 0f1a 36       		.byte	0x36
 17977 0f1b 9F       		.byte	0x9f
 17978 0f1c 00000000 		.4byte	0
 17979 0f20 00000000 		.4byte	0
 17980              	.LLST85:
 17981 0f24 5A010000 		.4byte	.LVL245
 17982 0f28 62010000 		.4byte	.LVL246
 17983 0f2c 0200     		.2byte	0x2
 17984 0f2e 37       		.byte	0x37
 17985 0f2f 9F       		.byte	0x9f
 17986 0f30 00000000 		.4byte	0
 17987 0f34 00000000 		.4byte	0
 17988              	.LLST86:
 17989 0f38 66010000 		.4byte	.LVL247
 17990 0f3c 94010000 		.4byte	.LVL253
 17991 0f40 1300     		.2byte	0x13
 17992 0f42 78       		.byte	0x78
 17993 0f43 00       		.sleb128 0
 17994 0f44 F7       		.byte	0xf7
 17995 0f45 2C       		.uleb128 0x2c
 17996 0f46 F7       		.byte	0xf7
 17997 0f47 25       		.uleb128 0x25
 17998 0f48 F4       		.byte	0xf4
 17999 0f49 25       		.uleb128 0x25
 18000 0f4a 04       		.byte	0x4
 18001 0f4b A4707D3F 		.4byte	0x3f7d70a4
 18002 0f4f 1E       		.byte	0x1e
 18003 0f50 F7       		.byte	0xf7
 18004 0f51 2C       		.uleb128 0x2c
 18005 0f52 F7       		.byte	0xf7
 18006 0f53 00       		.uleb128 0
 18007 0f54 9F       		.byte	0x9f
 18008 0f55 94010000 		.4byte	.LVL253
 18009 0f59 A4010000 		.4byte	.LVL254
 18010 0f5d 1000     		.2byte	0x10
 18011 0f5f F5       		.byte	0xf5
 18012 0f60 4F       		.uleb128 0x4f
 18013 0f61 25       		.uleb128 0x25
 18014 0f62 F4       		.byte	0xf4
 18015 0f63 25       		.uleb128 0x25
 18016 0f64 04       		.byte	0x4
 18017 0f65 A4707D3F 		.4byte	0x3f7d70a4
 18018 0f69 1E       		.byte	0x1e
 18019 0f6a F7       		.byte	0xf7
 18020 0f6b 2C       		.uleb128 0x2c
ARM GAS  C:\Users\adrie\AppData\Local\Temp\cc7EdWgE.s 			page 318


 18021 0f6c F7       		.byte	0xf7
 18022 0f6d 00       		.uleb128 0
 18023 0f6e 9F       		.byte	0x9f
 18024 0f6f A4010000 		.4byte	.LVL254
 18025 0f73 DA010000 		.4byte	.LVL255
 18026 0f77 1300     		.2byte	0x13
 18027 0f79 78       		.byte	0x78
 18028 0f7a 00       		.sleb128 0
 18029 0f7b F7       		.byte	0xf7
 18030 0f7c 2C       		.uleb128 0x2c
 18031 0f7d F7       		.byte	0xf7
 18032 0f7e 25       		.uleb128 0x25
 18033 0f7f F4       		.byte	0xf4
 18034 0f80 25       		.uleb128 0x25
 18035 0f81 04       		.byte	0x4
 18036 0f82 A4707D3F 		.4byte	0x3f7d70a4
 18037 0f86 1E       		.byte	0x1e
 18038 0f87 F7       		.byte	0xf7
 18039 0f88 2C       		.uleb128 0x2c
 18040 0f89 F7       		.byte	0xf7
 18041 0f8a 00       		.uleb128 0
 18042 0f8b 9F       		.byte	0x9f
 18043 0f8c 00000000 		.4byte	0
 18044 0f90 00000000 		.4byte	0
 18045              	.LLST87:
 18046 0f94 66010000 		.4byte	.LVL247
 18047 0f98 DA010000 		.4byte	.LVL255
 18048 0f9c 0100     		.2byte	0x1
 18049 0f9e 59       		.byte	0x59
 18050 0f9f 00000000 		.4byte	0
 18051 0fa3 00000000 		.4byte	0
 18052              	.LLST88:
 18053 0fa7 66010000 		.4byte	.LVL247
 18054 0fab 76010000 		.4byte	.LVL248
 18055 0faf 1300     		.2byte	0x13
 18056 0fb1 75       		.byte	0x75
 18057 0fb2 00       		.sleb128 0
 18058 0fb3 F7       		.byte	0xf7
 18059 0fb4 2C       		.uleb128 0x2c
 18060 0fb5 F7       		.byte	0xf7
 18061 0fb6 25       		.uleb128 0x25
 18062 0fb7 F4       		.byte	0xf4
 18063 0fb8 25       		.uleb128 0x25
 18064 0fb9 04       		.byte	0x4
 18065 0fba A4707D3F 		.4byte	0x3f7d70a4
 18066 0fbe 1E       		.byte	0x1e
 18067 0fbf F7       		.byte	0xf7
 18068 0fc0 2C       		.uleb128 0x2c
 18069 0fc1 F7       		.byte	0xf7
 18070 0fc2 00       		.uleb128 0
 18071 0fc3 9F       		.byte	0x9f
 18072 0fc4 76010000 		.4byte	.LVL248
 18073 0fc8 7C010000 		.4byte	.LVL249
 18074 0fcc 1400     		.2byte	0x14
 18075 0fce 92       		.byte	0x92
 18076 0fcf 4F       		.uleb128 0x4f
 18077 0fd0 00       		.sleb128 0
ARM GAS  C:\Users\adrie\AppData\Local\Temp\cc7EdWgE.s 			page 319


 18078 0fd1 F7       		.byte	0xf7
 18079 0fd2 2C       		.uleb128 0x2c
 18080 0fd3 F7       		.byte	0xf7
 18081 0fd4 25       		.uleb128 0x25
 18082 0fd5 F4       		.byte	0xf4
 18083 0fd6 25       		.uleb128 0x25
 18084 0fd7 04       		.byte	0x4
 18085 0fd8 A4707D3F 		.4byte	0x3f7d70a4
 18086 0fdc 1E       		.byte	0x1e
 18087 0fdd F7       		.byte	0xf7
 18088 0fde 2C       		.uleb128 0x2c
 18089 0fdf F7       		.byte	0xf7
 18090 0fe0 00       		.uleb128 0
 18091 0fe1 9F       		.byte	0x9f
 18092 0fe2 7C010000 		.4byte	.LVL249
 18093 0fe6 84010000 		.4byte	.LVL250
 18094 0fea 1000     		.2byte	0x10
 18095 0fec F5       		.byte	0xf5
 18096 0fed 4D       		.uleb128 0x4d
 18097 0fee 25       		.uleb128 0x25
 18098 0fef F4       		.byte	0xf4
 18099 0ff0 25       		.uleb128 0x25
 18100 0ff1 04       		.byte	0x4
 18101 0ff2 A4707D3F 		.4byte	0x3f7d70a4
 18102 0ff6 1E       		.byte	0x1e
 18103 0ff7 F7       		.byte	0xf7
 18104 0ff8 2C       		.uleb128 0x2c
 18105 0ff9 F7       		.byte	0xf7
 18106 0ffa 00       		.uleb128 0
 18107 0ffb 9F       		.byte	0x9f
 18108 0ffc 84010000 		.4byte	.LVL250
 18109 1000 DA010000 		.4byte	.LVL255
 18110 1004 1500     		.2byte	0x15
 18111 1006 91       		.byte	0x91
 18112 1007 9C7F     		.sleb128 -100
 18113 1009 06       		.byte	0x6
 18114 100a F7       		.byte	0xf7
 18115 100b 2C       		.uleb128 0x2c
 18116 100c F7       		.byte	0xf7
 18117 100d 25       		.uleb128 0x25
 18118 100e F4       		.byte	0xf4
 18119 100f 25       		.uleb128 0x25
 18120 1010 04       		.byte	0x4
 18121 1011 A4707D3F 		.4byte	0x3f7d70a4
 18122 1015 1E       		.byte	0x1e
 18123 1016 F7       		.byte	0xf7
 18124 1017 2C       		.uleb128 0x2c
 18125 1018 F7       		.byte	0xf7
 18126 1019 00       		.uleb128 0
 18127 101a 9F       		.byte	0x9f
 18128 101b 00000000 		.4byte	0
 18129 101f 00000000 		.4byte	0
 18130              	.LLST89:
 18131 1023 66010000 		.4byte	.LVL247
 18132 1027 88010000 		.4byte	.LVL251
 18133 102b 1300     		.2byte	0x13
 18134 102d 7A       		.byte	0x7a
ARM GAS  C:\Users\adrie\AppData\Local\Temp\cc7EdWgE.s 			page 320


 18135 102e 00       		.sleb128 0
 18136 102f F7       		.byte	0xf7
 18137 1030 2C       		.uleb128 0x2c
 18138 1031 F7       		.byte	0xf7
 18139 1032 25       		.uleb128 0x25
 18140 1033 F4       		.byte	0xf4
 18141 1034 25       		.uleb128 0x25
 18142 1035 04       		.byte	0x4
 18143 1036 A4707D3F 		.4byte	0x3f7d70a4
 18144 103a 1E       		.byte	0x1e
 18145 103b F7       		.byte	0xf7
 18146 103c 2C       		.uleb128 0x2c
 18147 103d F7       		.byte	0xf7
 18148 103e 00       		.uleb128 0
 18149 103f 9F       		.byte	0x9f
 18150 1040 88010000 		.4byte	.LVL251
 18151 1044 90010000 		.4byte	.LVL252
 18152 1048 1000     		.2byte	0x10
 18153 104a F5       		.byte	0xf5
 18154 104b 4E       		.uleb128 0x4e
 18155 104c 25       		.uleb128 0x25
 18156 104d F4       		.byte	0xf4
 18157 104e 25       		.uleb128 0x25
 18158 104f 04       		.byte	0x4
 18159 1050 A4707D3F 		.4byte	0x3f7d70a4
 18160 1054 1E       		.byte	0x1e
 18161 1055 F7       		.byte	0xf7
 18162 1056 2C       		.uleb128 0x2c
 18163 1057 F7       		.byte	0xf7
 18164 1058 00       		.uleb128 0
 18165 1059 9F       		.byte	0x9f
 18166 105a 90010000 		.4byte	.LVL252
 18167 105e DA010000 		.4byte	.LVL255
 18168 1062 1300     		.2byte	0x13
 18169 1064 7A       		.byte	0x7a
 18170 1065 00       		.sleb128 0
 18171 1066 F7       		.byte	0xf7
 18172 1067 2C       		.uleb128 0x2c
 18173 1068 F7       		.byte	0xf7
 18174 1069 25       		.uleb128 0x25
 18175 106a F4       		.byte	0xf4
 18176 106b 25       		.uleb128 0x25
 18177 106c 04       		.byte	0x4
 18178 106d A4707D3F 		.4byte	0x3f7d70a4
 18179 1071 1E       		.byte	0x1e
 18180 1072 F7       		.byte	0xf7
 18181 1073 2C       		.uleb128 0x2c
 18182 1074 F7       		.byte	0xf7
 18183 1075 00       		.uleb128 0
 18184 1076 9F       		.byte	0x9f
 18185 1077 00000000 		.4byte	0
 18186 107b 00000000 		.4byte	0
 18187              	.LLST90:
 18188 107f 66010000 		.4byte	.LVL247
 18189 1083 DA010000 		.4byte	.LVL255
 18190 1087 0100     		.2byte	0x1
 18191 1089 53       		.byte	0x53
ARM GAS  C:\Users\adrie\AppData\Local\Temp\cc7EdWgE.s 			page 321


 18192 108a 00000000 		.4byte	0
 18193 108e 00000000 		.4byte	0
 18194              	.LLST35:
 18195 1092 00000000 		.4byte	.LVL67
 18196 1096 0E000000 		.4byte	.LVL68
 18197 109a 0100     		.2byte	0x1
 18198 109c 50       		.byte	0x50
 18199 109d 0E000000 		.4byte	.LVL68
 18200 10a1 1A000000 		.4byte	.LVL70
 18201 10a5 0300     		.2byte	0x3
 18202 10a7 70       		.byte	0x70
 18203 10a8 58       		.sleb128 -40
 18204 10a9 9F       		.byte	0x9f
 18205 10aa 1A000000 		.4byte	.LVL70
 18206 10ae C0000000 		.4byte	.LFE290
 18207 10b2 0400     		.2byte	0x4
 18208 10b4 F3       		.byte	0xf3
 18209 10b5 01       		.uleb128 0x1
 18210 10b6 50       		.byte	0x50
 18211 10b7 9F       		.byte	0x9f
 18212 10b8 00000000 		.4byte	0
 18213 10bc 00000000 		.4byte	0
 18214              	.LLST36:
 18215 10c0 10000000 		.4byte	.LVL69
 18216 10c4 1A000000 		.4byte	.LVL70
 18217 10c8 0600     		.2byte	0x6
 18218 10ca 9E       		.byte	0x9e
 18219 10cb 04       		.uleb128 0x4
 18220 10cc 00401C46 		.4byte	0x461c4000
 18221 10d0 1A000000 		.4byte	.LVL70
 18222 10d4 26000000 		.4byte	.LVL71
 18223 10d8 0200     		.2byte	0x2
 18224 10da 90       		.byte	0x90
 18225 10db 4E       		.uleb128 0x4e
 18226 10dc 26000000 		.4byte	.LVL71
 18227 10e0 34000000 		.4byte	.LVL74
 18228 10e4 0200     		.2byte	0x2
 18229 10e6 90       		.byte	0x90
 18230 10e7 4F       		.uleb128 0x4f
 18231 10e8 34000000 		.4byte	.LVL74
 18232 10ec 5D000000 		.4byte	.LVL75-1
 18233 10f0 0200     		.2byte	0x2
 18234 10f2 90       		.byte	0x90
 18235 10f3 4E       		.uleb128 0x4e
 18236 10f4 6E000000 		.4byte	.LVL76
 18237 10f8 73000000 		.4byte	.LVL77-1
 18238 10fc 0200     		.2byte	0x2
 18239 10fe 90       		.byte	0x90
 18240 10ff 4E       		.uleb128 0x4e
 18241 1100 8C000000 		.4byte	.LVL78
 18242 1104 97000000 		.4byte	.LVL79-1
 18243 1108 0200     		.2byte	0x2
 18244 110a 90       		.byte	0x90
 18245 110b 4E       		.uleb128 0x4e
 18246 110c AC000000 		.4byte	.LVL80
 18247 1110 C0000000 		.4byte	.LFE290
 18248 1114 0200     		.2byte	0x2
ARM GAS  C:\Users\adrie\AppData\Local\Temp\cc7EdWgE.s 			page 322


 18249 1116 90       		.byte	0x90
 18250 1117 4E       		.uleb128 0x4e
 18251 1118 00000000 		.4byte	0
 18252 111c 00000000 		.4byte	0
 18253              	.LLST37:
 18254 1120 10000000 		.4byte	.LVL69
 18255 1124 1A000000 		.4byte	.LVL70
 18256 1128 0300     		.2byte	0x3
 18257 112a 09       		.byte	0x9
 18258 112b FF       		.byte	0xff
 18259 112c 9F       		.byte	0x9f
 18260 112d 00000000 		.4byte	0
 18261 1131 00000000 		.4byte	0
 18262              	.LLST38:
 18263 1135 10000000 		.4byte	.LVL69
 18264 1139 1A000000 		.4byte	.LVL70
 18265 113d 0200     		.2byte	0x2
 18266 113f 3A       		.byte	0x3a
 18267 1140 9F       		.byte	0x9f
 18268 1141 1A000000 		.4byte	.LVL70
 18269 1145 2A000000 		.4byte	.LVL72
 18270 1149 0100     		.2byte	0x1
 18271 114b 53       		.byte	0x53
 18272 114c 2A000000 		.4byte	.LVL72
 18273 1150 2E000000 		.4byte	.LVL73
 18274 1154 0300     		.2byte	0x3
 18275 1156 73       		.byte	0x73
 18276 1157 01       		.sleb128 1
 18277 1158 9F       		.byte	0x9f
 18278 1159 00000000 		.4byte	0
 18279 115d 00000000 		.4byte	0
 18280              	.LLST0:
 18281 1161 00000000 		.4byte	.LVL0
 18282 1165 18000000 		.4byte	.LVL2
 18283 1169 0100     		.2byte	0x1
 18284 116b 51       		.byte	0x51
 18285 116c 18000000 		.4byte	.LVL2
 18286 1170 24000000 		.4byte	.LVL3
 18287 1174 0400     		.2byte	0x4
 18288 1176 F3       		.byte	0xf3
 18289 1177 01       		.uleb128 0x1
 18290 1178 51       		.byte	0x51
 18291 1179 9F       		.byte	0x9f
 18292 117a 24000000 		.4byte	.LVL3
 18293 117e 2E000000 		.4byte	.LVL4
 18294 1182 0100     		.2byte	0x1
 18295 1184 51       		.byte	0x51
 18296 1185 2E000000 		.4byte	.LVL4
 18297 1189 66000000 		.4byte	.LVL12
 18298 118d 0400     		.2byte	0x4
 18299 118f F3       		.byte	0xf3
 18300 1190 01       		.uleb128 0x1
 18301 1191 51       		.byte	0x51
 18302 1192 9F       		.byte	0x9f
 18303 1193 66000000 		.4byte	.LVL12
 18304 1197 70000000 		.4byte	.LVL13
 18305 119b 0100     		.2byte	0x1
ARM GAS  C:\Users\adrie\AppData\Local\Temp\cc7EdWgE.s 			page 323


 18306 119d 51       		.byte	0x51
 18307 119e 70000000 		.4byte	.LVL13
 18308 11a2 BC000000 		.4byte	.LFE308
 18309 11a6 0400     		.2byte	0x4
 18310 11a8 F3       		.byte	0xf3
 18311 11a9 01       		.uleb128 0x1
 18312 11aa 51       		.byte	0x51
 18313 11ab 9F       		.byte	0x9f
 18314 11ac 00000000 		.4byte	0
 18315 11b0 00000000 		.4byte	0
 18316              	.LLST1:
 18317 11b4 12000000 		.4byte	.LVL1
 18318 11b8 18000000 		.4byte	.LVL2
 18319 11bc 0800     		.2byte	0x8
 18320 11be 30       		.byte	0x30
 18321 11bf 9F       		.byte	0x9f
 18322 11c0 93       		.byte	0x93
 18323 11c1 04       		.uleb128 0x4
 18324 11c2 30       		.byte	0x30
 18325 11c3 9F       		.byte	0x9f
 18326 11c4 93       		.byte	0x93
 18327 11c5 04       		.uleb128 0x4
 18328 11c6 00000000 		.4byte	0
 18329 11ca 00000000 		.4byte	0
 18330              	.LLST2:
 18331 11ce 34000000 		.4byte	.LVL5
 18332 11d2 5E000000 		.4byte	.LVL10
 18333 11d6 0200     		.2byte	0x2
 18334 11d8 90       		.byte	0x90
 18335 11d9 4E       		.uleb128 0x4e
 18336 11da 00000000 		.4byte	0
 18337 11de 00000000 		.4byte	0
 18338              	.LLST3:
 18339 11e2 34000000 		.4byte	.LVL5
 18340 11e6 4E000000 		.4byte	.LVL6
 18341 11ea 0100     		.2byte	0x1
 18342 11ec 51       		.byte	0x51
 18343 11ed 54000000 		.4byte	.LVL7
 18344 11f1 66000000 		.4byte	.LVL12
 18345 11f5 0100     		.2byte	0x1
 18346 11f7 51       		.byte	0x51
 18347 11f8 00000000 		.4byte	0
 18348 11fc 00000000 		.4byte	0
 18349              	.LLST4:
 18350 1200 34000000 		.4byte	.LVL5
 18351 1204 66000000 		.4byte	.LVL12
 18352 1208 0100     		.2byte	0x1
 18353 120a 53       		.byte	0x53
 18354 120b 00000000 		.4byte	0
 18355 120f 00000000 		.4byte	0
 18356              	.LLST5:
 18357 1213 76000000 		.4byte	.LVL14
 18358 1217 A0000000 		.4byte	.LVL19
 18359 121b 0200     		.2byte	0x2
 18360 121d 90       		.byte	0x90
 18361 121e 4E       		.uleb128 0x4e
 18362 121f 00000000 		.4byte	0
ARM GAS  C:\Users\adrie\AppData\Local\Temp\cc7EdWgE.s 			page 324


 18363 1223 00000000 		.4byte	0
 18364              	.LLST6:
 18365 1227 76000000 		.4byte	.LVL14
 18366 122b 90000000 		.4byte	.LVL15
 18367 122f 0100     		.2byte	0x1
 18368 1231 51       		.byte	0x51
 18369 1232 96000000 		.4byte	.LVL16
 18370 1236 A8000000 		.4byte	.LVL21
 18371 123a 0100     		.2byte	0x1
 18372 123c 51       		.byte	0x51
 18373 123d 00000000 		.4byte	0
 18374 1241 00000000 		.4byte	0
 18375              	.LLST7:
 18376 1245 76000000 		.4byte	.LVL14
 18377 1249 A8000000 		.4byte	.LVL21
 18378 124d 0100     		.2byte	0x1
 18379 124f 53       		.byte	0x53
 18380 1250 00000000 		.4byte	0
 18381 1254 00000000 		.4byte	0
 18382              	.LLST8:
 18383 1258 00000000 		.4byte	.LVL23
 18384 125c 0C000000 		.4byte	.LVL24
 18385 1260 0100     		.2byte	0x1
 18386 1262 50       		.byte	0x50
 18387 1263 0C000000 		.4byte	.LVL24
 18388 1267 3C000000 		.4byte	.LFE311
 18389 126b 0400     		.2byte	0x4
 18390 126d F3       		.byte	0xf3
 18391 126e 01       		.uleb128 0x1
 18392 126f 50       		.byte	0x50
 18393 1270 9F       		.byte	0x9f
 18394 1271 00000000 		.4byte	0
 18395 1275 00000000 		.4byte	0
 18396              	.LLST9:
 18397 1279 1A000000 		.4byte	.LVL26
 18398 127d 2F000000 		.4byte	.LVL27-1
 18399 1281 0100     		.2byte	0x1
 18400 1283 50       		.byte	0x50
 18401 1284 00000000 		.4byte	0
 18402 1288 00000000 		.4byte	0
 18403              	.LLST39:
 18404 128c 00000000 		.4byte	.LVL81
 18405 1290 16000000 		.4byte	.LVL83
 18406 1294 0100     		.2byte	0x1
 18407 1296 50       		.byte	0x50
 18408 1297 16000000 		.4byte	.LVL83
 18409 129b 4C000000 		.4byte	.LVL89
 18410 129f 0100     		.2byte	0x1
 18411 12a1 54       		.byte	0x54
 18412 12a2 4C000000 		.4byte	.LVL89
 18413 12a6 50000000 		.4byte	.LVL90
 18414 12aa 0400     		.2byte	0x4
 18415 12ac F3       		.byte	0xf3
 18416 12ad 01       		.uleb128 0x1
 18417 12ae 50       		.byte	0x50
 18418 12af 9F       		.byte	0x9f
 18419 12b0 50000000 		.4byte	.LVL90
ARM GAS  C:\Users\adrie\AppData\Local\Temp\cc7EdWgE.s 			page 325


 18420 12b4 53000000 		.4byte	.LVL91-1
 18421 12b8 0100     		.2byte	0x1
 18422 12ba 50       		.byte	0x50
 18423 12bb 53000000 		.4byte	.LVL91-1
 18424 12bf 68000000 		.4byte	.LFE292
 18425 12c3 0400     		.2byte	0x4
 18426 12c5 F3       		.byte	0xf3
 18427 12c6 01       		.uleb128 0x1
 18428 12c7 50       		.byte	0x50
 18429 12c8 9F       		.byte	0x9f
 18430 12c9 00000000 		.4byte	0
 18431 12cd 00000000 		.4byte	0
 18432              	.LLST40:
 18433 12d1 00000000 		.4byte	.LVL81
 18434 12d5 19000000 		.4byte	.LVL84-1
 18435 12d9 0100     		.2byte	0x1
 18436 12db 51       		.byte	0x51
 18437 12dc 19000000 		.4byte	.LVL84-1
 18438 12e0 50000000 		.4byte	.LVL90
 18439 12e4 0400     		.2byte	0x4
 18440 12e6 F3       		.byte	0xf3
 18441 12e7 01       		.uleb128 0x1
 18442 12e8 51       		.byte	0x51
 18443 12e9 9F       		.byte	0x9f
 18444 12ea 50000000 		.4byte	.LVL90
 18445 12ee 53000000 		.4byte	.LVL91-1
 18446 12f2 0100     		.2byte	0x1
 18447 12f4 51       		.byte	0x51
 18448 12f5 53000000 		.4byte	.LVL91-1
 18449 12f9 68000000 		.4byte	.LFE292
 18450 12fd 0400     		.2byte	0x4
 18451 12ff F3       		.byte	0xf3
 18452 1300 01       		.uleb128 0x1
 18453 1301 51       		.byte	0x51
 18454 1302 9F       		.byte	0x9f
 18455 1303 00000000 		.4byte	0
 18456 1307 00000000 		.4byte	0
 18457              	.LLST41:
 18458 130b 0E000000 		.4byte	.LVL82
 18459 130f 16000000 		.4byte	.LVL83
 18460 1313 0700     		.2byte	0x7
 18461 1315 70       		.byte	0x70
 18462 1316 00       		.sleb128 0
 18463 1317 F7       		.byte	0xf7
 18464 1318 2C       		.uleb128 0x2c
 18465 1319 F7       		.byte	0xf7
 18466 131a 33       		.uleb128 0x33
 18467 131b 9F       		.byte	0x9f
 18468 131c 16000000 		.4byte	.LVL83
 18469 1320 4C000000 		.4byte	.LVL89
 18470 1324 0700     		.2byte	0x7
 18471 1326 74       		.byte	0x74
 18472 1327 00       		.sleb128 0
 18473 1328 F7       		.byte	0xf7
 18474 1329 2C       		.uleb128 0x2c
 18475 132a F7       		.byte	0xf7
 18476 132b 33       		.uleb128 0x33
ARM GAS  C:\Users\adrie\AppData\Local\Temp\cc7EdWgE.s 			page 326


 18477 132c 9F       		.byte	0x9f
 18478 132d 4C000000 		.4byte	.LVL89
 18479 1331 50000000 		.4byte	.LVL90
 18480 1335 0800     		.2byte	0x8
 18481 1337 F3       		.byte	0xf3
 18482 1338 01       		.uleb128 0x1
 18483 1339 50       		.byte	0x50
 18484 133a F7       		.byte	0xf7
 18485 133b 2C       		.uleb128 0x2c
 18486 133c F7       		.byte	0xf7
 18487 133d 33       		.uleb128 0x33
 18488 133e 9F       		.byte	0x9f
 18489 133f 50000000 		.4byte	.LVL90
 18490 1343 53000000 		.4byte	.LVL91-1
 18491 1347 0700     		.2byte	0x7
 18492 1349 70       		.byte	0x70
 18493 134a 00       		.sleb128 0
 18494 134b F7       		.byte	0xf7
 18495 134c 2C       		.uleb128 0x2c
 18496 134d F7       		.byte	0xf7
 18497 134e 33       		.uleb128 0x33
 18498 134f 9F       		.byte	0x9f
 18499 1350 53000000 		.4byte	.LVL91-1
 18500 1354 68000000 		.4byte	.LFE292
 18501 1358 0800     		.2byte	0x8
 18502 135a F3       		.byte	0xf3
 18503 135b 01       		.uleb128 0x1
 18504 135c 50       		.byte	0x50
 18505 135d F7       		.byte	0xf7
 18506 135e 2C       		.uleb128 0x2c
 18507 135f F7       		.byte	0xf7
 18508 1360 33       		.uleb128 0x33
 18509 1361 9F       		.byte	0x9f
 18510 1362 00000000 		.4byte	0
 18511 1366 00000000 		.4byte	0
 18512              	.LLST49:
 18513 136a 00000000 		.4byte	.LVL140
 18514 136e 10000000 		.4byte	.LVL141
 18515 1372 0100     		.2byte	0x1
 18516 1374 50       		.byte	0x50
 18517 1375 10000000 		.4byte	.LVL141
 18518 1379 44000000 		.4byte	.LFE294
 18519 137d 0400     		.2byte	0x4
 18520 137f F3       		.byte	0xf3
 18521 1380 01       		.uleb128 0x1
 18522 1381 50       		.byte	0x50
 18523 1382 9F       		.byte	0x9f
 18524 1383 00000000 		.4byte	0
 18525 1387 00000000 		.4byte	0
 18526              	.LLST50:
 18527 138b 14000000 		.4byte	.LVL142
 18528 138f 22000000 		.4byte	.LVL143
 18529 1393 0200     		.2byte	0x2
 18530 1395 31       		.byte	0x31
 18531 1396 9F       		.byte	0x9f
 18532 1397 22000000 		.4byte	.LVL143
 18533 139b 44000000 		.4byte	.LFE294
ARM GAS  C:\Users\adrie\AppData\Local\Temp\cc7EdWgE.s 			page 327


 18534 139f 0200     		.2byte	0x2
 18535 13a1 33       		.byte	0x33
 18536 13a2 9F       		.byte	0x9f
 18537 13a3 00000000 		.4byte	0
 18538 13a7 00000000 		.4byte	0
 18539              	.LLST51:
 18540 13ab 00000000 		.4byte	.LVL145
 18541 13af 20000000 		.4byte	.LVL147
 18542 13b3 0100     		.2byte	0x1
 18543 13b5 50       		.byte	0x50
 18544 13b6 20000000 		.4byte	.LVL147
 18545 13ba 44000000 		.4byte	.LFE295
 18546 13be 0400     		.2byte	0x4
 18547 13c0 F3       		.byte	0xf3
 18548 13c1 01       		.uleb128 0x1
 18549 13c2 50       		.byte	0x50
 18550 13c3 9F       		.byte	0x9f
 18551 13c4 00000000 		.4byte	0
 18552 13c8 00000000 		.4byte	0
 18553              	.LLST52:
 18554 13cc 00000000 		.4byte	.LVL145
 18555 13d0 3B000000 		.4byte	.LVL151-1
 18556 13d4 0100     		.2byte	0x1
 18557 13d6 51       		.byte	0x51
 18558 13d7 3B000000 		.4byte	.LVL151-1
 18559 13db 44000000 		.4byte	.LFE295
 18560 13df 0400     		.2byte	0x4
 18561 13e1 F3       		.byte	0xf3
 18562 13e2 01       		.uleb128 0x1
 18563 13e3 51       		.byte	0x51
 18564 13e4 9F       		.byte	0x9f
 18565 13e5 00000000 		.4byte	0
 18566 13e9 00000000 		.4byte	0
 18567              	.LLST53:
 18568 13ed 00000000 		.4byte	.LVL145
 18569 13f1 1E000000 		.4byte	.LVL146
 18570 13f5 0100     		.2byte	0x1
 18571 13f7 52       		.byte	0x52
 18572 13f8 1E000000 		.4byte	.LVL146
 18573 13fc 2C000000 		.4byte	.LVL148
 18574 1400 0700     		.2byte	0x7
 18575 1402 7C       		.byte	0x7c
 18576 1403 00       		.sleb128 0
 18577 1404 32       		.byte	0x32
 18578 1405 24       		.byte	0x24
 18579 1406 75       		.byte	0x75
 18580 1407 00       		.sleb128 0
 18581 1408 22       		.byte	0x22
 18582 1409 2C000000 		.4byte	.LVL148
 18583 140d 44000000 		.4byte	.LFE295
 18584 1411 0400     		.2byte	0x4
 18585 1413 F3       		.byte	0xf3
 18586 1414 01       		.uleb128 0x1
 18587 1415 52       		.byte	0x52
 18588 1416 9F       		.byte	0x9f
 18589 1417 00000000 		.4byte	0
 18590 141b 00000000 		.4byte	0
ARM GAS  C:\Users\adrie\AppData\Local\Temp\cc7EdWgE.s 			page 328


 18591              	.LLST54:
 18592 141f 00000000 		.4byte	.LVL145
 18593 1423 30000000 		.4byte	.LVL149
 18594 1427 0100     		.2byte	0x1
 18595 1429 53       		.byte	0x53
 18596 142a 30000000 		.4byte	.LVL149
 18597 142e 44000000 		.4byte	.LFE295
 18598 1432 0400     		.2byte	0x4
 18599 1434 F3       		.byte	0xf3
 18600 1435 01       		.uleb128 0x1
 18601 1436 53       		.byte	0x53
 18602 1437 9F       		.byte	0x9f
 18603 1438 00000000 		.4byte	0
 18604 143c 00000000 		.4byte	0
 18605              	.LLST55:
 18606 1440 00000000 		.4byte	.LVL145
 18607 1444 38000000 		.4byte	.LVL150
 18608 1448 0200     		.2byte	0x2
 18609 144a 91       		.byte	0x91
 18610 144b 00       		.sleb128 0
 18611 144c 38000000 		.4byte	.LVL150
 18612 1450 44000000 		.4byte	.LFE295
 18613 1454 0200     		.2byte	0x2
 18614 1456 91       		.byte	0x91
 18615 1457 00       		.sleb128 0
 18616 1458 00000000 		.4byte	0
 18617 145c 00000000 		.4byte	0
 18618              	.LLST56:
 18619 1460 00000000 		.4byte	.LVL152
 18620 1464 0E000000 		.4byte	.LVL153
 18621 1468 0100     		.2byte	0x1
 18622 146a 51       		.byte	0x51
 18623 146b 0E000000 		.4byte	.LVL153
 18624 146f 1A000000 		.4byte	.LVL155
 18625 1473 0300     		.2byte	0x3
 18626 1475 71       		.byte	0x71
 18627 1476 58       		.sleb128 -40
 18628 1477 9F       		.byte	0x9f
 18629 1478 1A000000 		.4byte	.LVL155
 18630 147c 64000000 		.4byte	.LFE296
 18631 1480 0400     		.2byte	0x4
 18632 1482 F3       		.byte	0xf3
 18633 1483 01       		.uleb128 0x1
 18634 1484 51       		.byte	0x51
 18635 1485 9F       		.byte	0x9f
 18636 1486 00000000 		.4byte	0
 18637 148a 00000000 		.4byte	0
 18638              	.LLST57:
 18639 148e 10000000 		.4byte	.LVL154
 18640 1492 1A000000 		.4byte	.LVL155
 18641 1496 0600     		.2byte	0x6
 18642 1498 9E       		.byte	0x9e
 18643 1499 04       		.uleb128 0x4
 18644 149a 0000C842 		.4byte	0x42c80000
 18645 149e 1A000000 		.4byte	.LVL155
 18646 14a2 4A000000 		.4byte	.LVL162
 18647 14a6 0200     		.2byte	0x2
ARM GAS  C:\Users\adrie\AppData\Local\Temp\cc7EdWgE.s 			page 329


 18648 14a8 90       		.byte	0x90
 18649 14a9 4E       		.uleb128 0x4e
 18650 14aa 00000000 		.4byte	0
 18651 14ae 00000000 		.4byte	0
 18652              	.LLST58:
 18653 14b2 10000000 		.4byte	.LVL154
 18654 14b6 1A000000 		.4byte	.LVL155
 18655 14ba 0300     		.2byte	0x3
 18656 14bc 09       		.byte	0x9
 18657 14bd FF       		.byte	0xff
 18658 14be 9F       		.byte	0x9f
 18659 14bf 1A000000 		.4byte	.LVL155
 18660 14c3 34000000 		.4byte	.LVL156
 18661 14c7 0100     		.2byte	0x1
 18662 14c9 52       		.byte	0x52
 18663 14ca 3A000000 		.4byte	.LVL157
 18664 14ce 59000000 		.4byte	.LVL163-1
 18665 14d2 0100     		.2byte	0x1
 18666 14d4 52       		.byte	0x52
 18667 14d5 59000000 		.4byte	.LVL163-1
 18668 14d9 64000000 		.4byte	.LFE296
 18669 14dd 0500     		.2byte	0x5
 18670 14df F3       		.byte	0xf3
 18671 14e0 01       		.uleb128 0x1
 18672 14e1 50       		.byte	0x50
 18673 14e2 23       		.byte	0x23
 18674 14e3 04       		.uleb128 0x4
 18675 14e4 00000000 		.4byte	0
 18676 14e8 00000000 		.4byte	0
 18677              	.LLST59:
 18678 14ec 10000000 		.4byte	.LVL154
 18679 14f0 40000000 		.4byte	.LVL159
 18680 14f4 0800     		.2byte	0x8
 18681 14f6 30       		.byte	0x30
 18682 14f7 9F       		.byte	0x9f
 18683 14f8 93       		.byte	0x93
 18684 14f9 04       		.uleb128 0x4
 18685 14fa 30       		.byte	0x30
 18686 14fb 9F       		.byte	0x9f
 18687 14fc 93       		.byte	0x93
 18688 14fd 04       		.uleb128 0x4
 18689 14fe 40000000 		.4byte	.LVL159
 18690 1502 46000000 		.4byte	.LVL161
 18691 1506 0D00     		.2byte	0xd
 18692 1508 F5       		.byte	0xf5
 18693 1509 4E       		.uleb128 0x4e
 18694 150a 25       		.uleb128 0x25
 18695 150b F7       		.byte	0xf7
 18696 150c 2C       		.uleb128 0x2c
 18697 150d F7       		.byte	0xf7
 18698 150e 00       		.uleb128 0
 18699 150f 9F       		.byte	0x9f
 18700 1510 93       		.byte	0x93
 18701 1511 04       		.uleb128 0x4
 18702 1512 52       		.byte	0x52
 18703 1513 93       		.byte	0x93
 18704 1514 04       		.uleb128 0x4
ARM GAS  C:\Users\adrie\AppData\Local\Temp\cc7EdWgE.s 			page 330


 18705 1515 00000000 		.4byte	0
 18706 1519 00000000 		.4byte	0
 18707              	.LLST60:
 18708 151d 10000000 		.4byte	.LVL154
 18709 1521 1A000000 		.4byte	.LVL155
 18710 1525 0200     		.2byte	0x2
 18711 1527 3A       		.byte	0x3a
 18712 1528 9F       		.byte	0x9f
 18713 1529 1A000000 		.4byte	.LVL155
 18714 152d 44000000 		.4byte	.LVL160
 18715 1531 0100     		.2byte	0x1
 18716 1533 53       		.byte	0x53
 18717 1534 00000000 		.4byte	0
 18718 1538 00000000 		.4byte	0
 18719              	.LLST61:
 18720 153c 00000000 		.4byte	.LVL167
 18721 1540 17000000 		.4byte	.LVL168-1
 18722 1544 0100     		.2byte	0x1
 18723 1546 51       		.byte	0x51
 18724 1547 17000000 		.4byte	.LVL168-1
 18725 154b 26000000 		.4byte	.LVL170
 18726 154f 0400     		.2byte	0x4
 18727 1551 F3       		.byte	0xf3
 18728 1552 01       		.uleb128 0x1
 18729 1553 51       		.byte	0x51
 18730 1554 9F       		.byte	0x9f
 18731 1555 26000000 		.4byte	.LVL170
 18732 1559 30000000 		.4byte	.LVL171
 18733 155d 0100     		.2byte	0x1
 18734 155f 51       		.byte	0x51
 18735 1560 30000000 		.4byte	.LVL171
 18736 1564 68000000 		.4byte	.LVL179
 18737 1568 0400     		.2byte	0x4
 18738 156a F3       		.byte	0xf3
 18739 156b 01       		.uleb128 0x1
 18740 156c 51       		.byte	0x51
 18741 156d 9F       		.byte	0x9f
 18742 156e 68000000 		.4byte	.LVL179
 18743 1572 72000000 		.4byte	.LVL180
 18744 1576 0100     		.2byte	0x1
 18745 1578 51       		.byte	0x51
 18746 1579 72000000 		.4byte	.LVL180
 18747 157d C0000000 		.4byte	.LFE298
 18748 1581 0400     		.2byte	0x4
 18749 1583 F3       		.byte	0xf3
 18750 1584 01       		.uleb128 0x1
 18751 1585 51       		.byte	0x51
 18752 1586 9F       		.byte	0x9f
 18753 1587 00000000 		.4byte	0
 18754 158b 00000000 		.4byte	0
 18755              	.LLST63:
 18756 158f 00000000 		.4byte	.LVL207
 18757 1593 17000000 		.4byte	.LVL209-1
 18758 1597 0100     		.2byte	0x1
 18759 1599 50       		.byte	0x50
 18760 159a 17000000 		.4byte	.LVL209-1
 18761 159e 36000000 		.4byte	.LVL210
ARM GAS  C:\Users\adrie\AppData\Local\Temp\cc7EdWgE.s 			page 331


 18762 15a2 0100     		.2byte	0x1
 18763 15a4 56       		.byte	0x56
 18764 15a5 36000000 		.4byte	.LVL210
 18765 15a9 3A000000 		.4byte	.LVL211
 18766 15ad 0400     		.2byte	0x4
 18767 15af F3       		.byte	0xf3
 18768 15b0 01       		.uleb128 0x1
 18769 15b1 50       		.byte	0x50
 18770 15b2 9F       		.byte	0x9f
 18771 15b3 3A000000 		.4byte	.LVL211
 18772 15b7 58000000 		.4byte	.LVL212
 18773 15bb 0100     		.2byte	0x1
 18774 15bd 56       		.byte	0x56
 18775 15be 58000000 		.4byte	.LVL212
 18776 15c2 5C000000 		.4byte	.LVL213
 18777 15c6 0400     		.2byte	0x4
 18778 15c8 F3       		.byte	0xf3
 18779 15c9 01       		.uleb128 0x1
 18780 15ca 50       		.byte	0x50
 18781 15cb 9F       		.byte	0x9f
 18782 15cc 5C000000 		.4byte	.LVL213
 18783 15d0 7C000000 		.4byte	.LVL215
 18784 15d4 0100     		.2byte	0x1
 18785 15d6 56       		.byte	0x56
 18786 15d7 7C000000 		.4byte	.LVL215
 18787 15db 80000000 		.4byte	.LVL216
 18788 15df 0400     		.2byte	0x4
 18789 15e1 F3       		.byte	0xf3
 18790 15e2 01       		.uleb128 0x1
 18791 15e3 50       		.byte	0x50
 18792 15e4 9F       		.byte	0x9f
 18793 15e5 80000000 		.4byte	.LVL216
 18794 15e9 88000000 		.4byte	.LFE300
 18795 15ed 0100     		.2byte	0x1
 18796 15ef 56       		.byte	0x56
 18797 15f0 00000000 		.4byte	0
 18798 15f4 00000000 		.4byte	0
 18799              	.LLST64:
 18800 15f8 00000000 		.4byte	.LVL207
 18801 15fc 0E000000 		.4byte	.LVL208
 18802 1600 0100     		.2byte	0x1
 18803 1602 51       		.byte	0x51
 18804 1603 0E000000 		.4byte	.LVL208
 18805 1607 36000000 		.4byte	.LVL210
 18806 160b 0100     		.2byte	0x1
 18807 160d 54       		.byte	0x54
 18808 160e 36000000 		.4byte	.LVL210
 18809 1612 3A000000 		.4byte	.LVL211
 18810 1616 0400     		.2byte	0x4
 18811 1618 F3       		.byte	0xf3
 18812 1619 01       		.uleb128 0x1
 18813 161a 51       		.byte	0x51
 18814 161b 9F       		.byte	0x9f
 18815 161c 3A000000 		.4byte	.LVL211
 18816 1620 58000000 		.4byte	.LVL212
 18817 1624 0100     		.2byte	0x1
 18818 1626 54       		.byte	0x54
ARM GAS  C:\Users\adrie\AppData\Local\Temp\cc7EdWgE.s 			page 332


 18819 1627 58000000 		.4byte	.LVL212
 18820 162b 5C000000 		.4byte	.LVL213
 18821 162f 0400     		.2byte	0x4
 18822 1631 F3       		.byte	0xf3
 18823 1632 01       		.uleb128 0x1
 18824 1633 51       		.byte	0x51
 18825 1634 9F       		.byte	0x9f
 18826 1635 5C000000 		.4byte	.LVL213
 18827 1639 7C000000 		.4byte	.LVL215
 18828 163d 0100     		.2byte	0x1
 18829 163f 54       		.byte	0x54
 18830 1640 7C000000 		.4byte	.LVL215
 18831 1644 80000000 		.4byte	.LVL216
 18832 1648 0400     		.2byte	0x4
 18833 164a F3       		.byte	0xf3
 18834 164b 01       		.uleb128 0x1
 18835 164c 51       		.byte	0x51
 18836 164d 9F       		.byte	0x9f
 18837 164e 80000000 		.4byte	.LVL216
 18838 1652 88000000 		.4byte	.LFE300
 18839 1656 0100     		.2byte	0x1
 18840 1658 54       		.byte	0x54
 18841 1659 00000000 		.4byte	0
 18842 165d 00000000 		.4byte	0
 18843              	.LLST65:
 18844 1661 00000000 		.4byte	.LVL207
 18845 1665 17000000 		.4byte	.LVL209-1
 18846 1669 0100     		.2byte	0x1
 18847 166b 52       		.byte	0x52
 18848 166c 17000000 		.4byte	.LVL209-1
 18849 1670 36000000 		.4byte	.LVL210
 18850 1674 0100     		.2byte	0x1
 18851 1676 57       		.byte	0x57
 18852 1677 36000000 		.4byte	.LVL210
 18853 167b 3A000000 		.4byte	.LVL211
 18854 167f 0400     		.2byte	0x4
 18855 1681 F3       		.byte	0xf3
 18856 1682 01       		.uleb128 0x1
 18857 1683 52       		.byte	0x52
 18858 1684 9F       		.byte	0x9f
 18859 1685 3A000000 		.4byte	.LVL211
 18860 1689 58000000 		.4byte	.LVL212
 18861 168d 0100     		.2byte	0x1
 18862 168f 57       		.byte	0x57
 18863 1690 58000000 		.4byte	.LVL212
 18864 1694 5C000000 		.4byte	.LVL213
 18865 1698 0400     		.2byte	0x4
 18866 169a F3       		.byte	0xf3
 18867 169b 01       		.uleb128 0x1
 18868 169c 52       		.byte	0x52
 18869 169d 9F       		.byte	0x9f
 18870 169e 5C000000 		.4byte	.LVL213
 18871 16a2 7C000000 		.4byte	.LVL215
 18872 16a6 0100     		.2byte	0x1
 18873 16a8 57       		.byte	0x57
 18874 16a9 7C000000 		.4byte	.LVL215
 18875 16ad 80000000 		.4byte	.LVL216
ARM GAS  C:\Users\adrie\AppData\Local\Temp\cc7EdWgE.s 			page 333


 18876 16b1 0400     		.2byte	0x4
 18877 16b3 F3       		.byte	0xf3
 18878 16b4 01       		.uleb128 0x1
 18879 16b5 52       		.byte	0x52
 18880 16b6 9F       		.byte	0x9f
 18881 16b7 80000000 		.4byte	.LVL216
 18882 16bb 88000000 		.4byte	.LFE300
 18883 16bf 0100     		.2byte	0x1
 18884 16c1 57       		.byte	0x57
 18885 16c2 00000000 		.4byte	0
 18886 16c6 00000000 		.4byte	0
 18887              	.LLST66:
 18888 16ca 00000000 		.4byte	.LVL207
 18889 16ce 17000000 		.4byte	.LVL209-1
 18890 16d2 0100     		.2byte	0x1
 18891 16d4 53       		.byte	0x53
 18892 16d5 17000000 		.4byte	.LVL209-1
 18893 16d9 36000000 		.4byte	.LVL210
 18894 16dd 0100     		.2byte	0x1
 18895 16df 58       		.byte	0x58
 18896 16e0 36000000 		.4byte	.LVL210
 18897 16e4 3A000000 		.4byte	.LVL211
 18898 16e8 0400     		.2byte	0x4
 18899 16ea F3       		.byte	0xf3
 18900 16eb 01       		.uleb128 0x1
 18901 16ec 53       		.byte	0x53
 18902 16ed 9F       		.byte	0x9f
 18903 16ee 3A000000 		.4byte	.LVL211
 18904 16f2 58000000 		.4byte	.LVL212
 18905 16f6 0100     		.2byte	0x1
 18906 16f8 58       		.byte	0x58
 18907 16f9 58000000 		.4byte	.LVL212
 18908 16fd 5C000000 		.4byte	.LVL213
 18909 1701 0400     		.2byte	0x4
 18910 1703 F3       		.byte	0xf3
 18911 1704 01       		.uleb128 0x1
 18912 1705 53       		.byte	0x53
 18913 1706 9F       		.byte	0x9f
 18914 1707 5C000000 		.4byte	.LVL213
 18915 170b 7C000000 		.4byte	.LVL215
 18916 170f 0100     		.2byte	0x1
 18917 1711 58       		.byte	0x58
 18918 1712 7C000000 		.4byte	.LVL215
 18919 1716 80000000 		.4byte	.LVL216
 18920 171a 0400     		.2byte	0x4
 18921 171c F3       		.byte	0xf3
 18922 171d 01       		.uleb128 0x1
 18923 171e 53       		.byte	0x53
 18924 171f 9F       		.byte	0x9f
 18925 1720 80000000 		.4byte	.LVL216
 18926 1724 88000000 		.4byte	.LFE300
 18927 1728 0100     		.2byte	0x1
 18928 172a 58       		.byte	0x58
 18929 172b 00000000 		.4byte	0
 18930 172f 00000000 		.4byte	0
 18931              	.LLST67:
 18932 1733 5C000000 		.4byte	.LVL213
ARM GAS  C:\Users\adrie\AppData\Local\Temp\cc7EdWgE.s 			page 334


 18933 1737 6A000000 		.4byte	.LVL214
 18934 173b 0100     		.2byte	0x1
 18935 173d 56       		.byte	0x56
 18936 173e 00000000 		.4byte	0
 18937 1742 00000000 		.4byte	0
 18938              	.LLST68:
 18939 1746 5C000000 		.4byte	.LVL213
 18940 174a 6A000000 		.4byte	.LVL214
 18941 174e 0100     		.2byte	0x1
 18942 1750 54       		.byte	0x54
 18943 1751 00000000 		.4byte	0
 18944 1755 00000000 		.4byte	0
 18945              	.LLST69:
 18946 1759 5C000000 		.4byte	.LVL213
 18947 175d 6A000000 		.4byte	.LVL214
 18948 1761 0100     		.2byte	0x1
 18949 1763 57       		.byte	0x57
 18950 1764 00000000 		.4byte	0
 18951 1768 00000000 		.4byte	0
 18952              	.LLST70:
 18953 176c 5C000000 		.4byte	.LVL213
 18954 1770 6A000000 		.4byte	.LVL214
 18955 1774 0100     		.2byte	0x1
 18956 1776 58       		.byte	0x58
 18957 1777 00000000 		.4byte	0
 18958 177b 00000000 		.4byte	0
 18959              	.LLST103:
 18960 177f 00000000 		.4byte	.LVL295
 18961 1783 8D000000 		.4byte	.LVL303-1
 18962 1787 0200     		.2byte	0x2
 18963 1789 90       		.byte	0x90
 18964 178a 40       		.uleb128 0x40
 18965 178b 8D000000 		.4byte	.LVL303-1
 18966 178f B0000000 		.4byte	.LFE305
 18967 1793 0600     		.2byte	0x6
 18968 1795 F3       		.byte	0xf3
 18969 1796 03       		.uleb128 0x3
 18970 1797 F5       		.byte	0xf5
 18971 1798 40       		.uleb128 0x40
 18972 1799 25       		.uleb128 0x25
 18973 179a 9F       		.byte	0x9f
 18974 179b 00000000 		.4byte	0
 18975 179f 00000000 		.4byte	0
 18976              	.LLST104:
 18977 17a3 00000000 		.4byte	.LVL295
 18978 17a7 06000000 		.4byte	.LVL296
 18979 17ab 0200     		.2byte	0x2
 18980 17ad 90       		.byte	0x90
 18981 17ae 41       		.uleb128 0x41
 18982 17af 06000000 		.4byte	.LVL296
 18983 17b3 B0000000 		.4byte	.LFE305
 18984 17b7 0600     		.2byte	0x6
 18985 17b9 F3       		.byte	0xf3
 18986 17ba 03       		.uleb128 0x3
 18987 17bb F5       		.byte	0xf5
 18988 17bc 41       		.uleb128 0x41
 18989 17bd 25       		.uleb128 0x25
ARM GAS  C:\Users\adrie\AppData\Local\Temp\cc7EdWgE.s 			page 335


 18990 17be 9F       		.byte	0x9f
 18991 17bf 00000000 		.4byte	0
 18992 17c3 00000000 		.4byte	0
 18993              	.LLST105:
 18994 17c7 1A000000 		.4byte	.LVL297
 18995 17cb 8D000000 		.4byte	.LVL303-1
 18996 17cf 0200     		.2byte	0x2
 18997 17d1 90       		.byte	0x90
 18998 17d2 41       		.uleb128 0x41
 18999 17d3 8D000000 		.4byte	.LVL303-1
 19000 17d7 B0000000 		.4byte	.LFE305
 19001 17db 0C00     		.2byte	0xc
 19002 17dd F3       		.byte	0xf3
 19003 17de 03       		.uleb128 0x3
 19004 17df F5       		.byte	0xf5
 19005 17e0 40       		.uleb128 0x40
 19006 17e1 25       		.uleb128 0x25
 19007 17e2 F3       		.byte	0xf3
 19008 17e3 03       		.uleb128 0x3
 19009 17e4 F5       		.byte	0xf5
 19010 17e5 41       		.uleb128 0x41
 19011 17e6 25       		.uleb128 0x25
 19012 17e7 1C       		.byte	0x1c
 19013 17e8 9F       		.byte	0x9f
 19014 17e9 00000000 		.4byte	0
 19015 17ed 00000000 		.4byte	0
 19016              	.LLST106:
 19017 17f1 1A000000 		.4byte	.LVL297
 19018 17f5 40000000 		.4byte	.LVL298
 19019 17f9 0600     		.2byte	0x6
 19020 17fb 9E       		.byte	0x9e
 19021 17fc 04       		.uleb128 0x4
 19022 17fd 00000000 		.4byte	0
 19023 1801 48000000 		.4byte	.LVL299
 19024 1805 4C000000 		.4byte	.LVL300
 19025 1809 0200     		.2byte	0x2
 19026 180b 90       		.byte	0x90
 19027 180c 4F       		.uleb128 0x4f
 19028 180d 60000000 		.4byte	.LVL301
 19029 1811 8A000000 		.4byte	.LVL302
 19030 1815 0600     		.2byte	0x6
 19031 1817 9E       		.byte	0x9e
 19032 1818 04       		.uleb128 0x4
 19033 1819 00000000 		.4byte	0
 19034 181d 00000000 		.4byte	0
 19035 1821 00000000 		.4byte	0
 19036              		.section	.debug_aranges,"",%progbits
 19037 0000 B4000000 		.4byte	0xb4
 19038 0004 0200     		.2byte	0x2
 19039 0006 00000000 		.4byte	.Ldebug_info0
 19040 000a 04       		.byte	0x4
 19041 000b 00       		.byte	0
 19042 000c 0000     		.2byte	0
 19043 000e 0000     		.2byte	0
 19044 0010 00000000 		.4byte	.LFB308
 19045 0014 BC000000 		.4byte	.LFE308-.LFB308
 19046 0018 00000000 		.4byte	.LFB311
ARM GAS  C:\Users\adrie\AppData\Local\Temp\cc7EdWgE.s 			page 336


 19047 001c 3C000000 		.4byte	.LFE311-.LFB311
 19048 0020 00000000 		.4byte	.LFB306
 19049 0024 28020000 		.4byte	.LFE306-.LFB306
 19050 0028 00000000 		.4byte	.LFB290
 19051 002c C0000000 		.4byte	.LFE290-.LFB290
 19052 0030 00000000 		.4byte	.LFB292
 19053 0034 68000000 		.4byte	.LFE292-.LFB292
 19054 0038 00000000 		.4byte	.LFB293
 19055 003c A4010000 		.4byte	.LFE293-.LFB293
 19056 0040 00000000 		.4byte	.LFB294
 19057 0044 44000000 		.4byte	.LFE294-.LFB294
 19058 0048 00000000 		.4byte	.LFB295
 19059 004c 44000000 		.4byte	.LFE295-.LFB295
 19060 0050 00000000 		.4byte	.LFB296
 19061 0054 64000000 		.4byte	.LFE296-.LFB296
 19062 0058 00000000 		.4byte	.LFB297
 19063 005c 2C000000 		.4byte	.LFE297-.LFB297
 19064 0060 00000000 		.4byte	.LFB298
 19065 0064 C0000000 		.4byte	.LFE298-.LFB298
 19066 0068 00000000 		.4byte	.LFB299
 19067 006c 80000000 		.4byte	.LFE299-.LFB299
 19068 0070 00000000 		.4byte	.LFB300
 19069 0074 88000000 		.4byte	.LFE300-.LFB300
 19070 0078 00000000 		.4byte	.LFB291
 19071 007c 14030000 		.4byte	.LFE291-.LFB291
 19072 0080 00000000 		.4byte	.LFB301
 19073 0084 20000000 		.4byte	.LFE301-.LFB301
 19074 0088 00000000 		.4byte	.LFB302
 19075 008c 3C000000 		.4byte	.LFE302-.LFB302
 19076 0090 00000000 		.4byte	.LFB303
 19077 0094 28000000 		.4byte	.LFE303-.LFB303
 19078 0098 00000000 		.4byte	.LFB304
 19079 009c 28000000 		.4byte	.LFE304-.LFB304
 19080 00a0 00000000 		.4byte	.LFB305
 19081 00a4 B0000000 		.4byte	.LFE305-.LFB305
 19082 00a8 00000000 		.4byte	.LFB307
 19083 00ac 38000000 		.4byte	.LFE307-.LFB307
 19084 00b0 00000000 		.4byte	0
 19085 00b4 00000000 		.4byte	0
 19086              		.section	.debug_ranges,"",%progbits
 19087              	.Ldebug_ranges0:
 19088 0000 26000000 		.4byte	.LBB146
 19089 0004 68000000 		.4byte	.LBE146
 19090 0008 9C000000 		.4byte	.LBB153
 19091 000c A8000000 		.4byte	.LBE153
 19092 0010 00000000 		.4byte	0
 19093 0014 00000000 		.4byte	0
 19094 0018 08000000 		.4byte	.LBB187
 19095 001c 0C000000 		.4byte	.LBE187
 19096 0020 0E000000 		.4byte	.LBB191
 19097 0024 14000000 		.4byte	.LBE191
 19098 0028 1E000000 		.4byte	.LBB268
 19099 002c 20000000 		.4byte	.LBE268
 19100 0030 00000000 		.4byte	0
 19101 0034 00000000 		.4byte	0
 19102 0038 18000000 		.4byte	.LBB192
 19103 003c 1E000000 		.4byte	.LBE192
ARM GAS  C:\Users\adrie\AppData\Local\Temp\cc7EdWgE.s 			page 337


 19104 0040 22000000 		.4byte	.LBB269
 19105 0044 26000000 		.4byte	.LBE269
 19106 0048 2C000000 		.4byte	.LBB270
 19107 004c 28020000 		.4byte	.LBE270
 19108 0050 00000000 		.4byte	0
 19109 0054 00000000 		.4byte	0
 19110 0058 18000000 		.4byte	.LBB193
 19111 005c 1A000000 		.4byte	.LBE193
 19112 0060 22010000 		.4byte	.LBB236
 19113 0064 26010000 		.4byte	.LBE236
 19114 0068 28010000 		.4byte	.LBB238
 19115 006c 2A010000 		.4byte	.LBE238
 19116 0070 2C010000 		.4byte	.LBB240
 19117 0074 2E010000 		.4byte	.LBE240
 19118 0078 30010000 		.4byte	.LBB242
 19119 007c 32010000 		.4byte	.LBE242
 19120 0080 46010000 		.4byte	.LBB255
 19121 0084 4E010000 		.4byte	.LBE255
 19122 0088 00000000 		.4byte	0
 19123 008c 00000000 		.4byte	0
 19124 0090 22010000 		.4byte	.LBB195
 19125 0094 26010000 		.4byte	.LBE195
 19126 0098 28010000 		.4byte	.LBB196
 19127 009c 2A010000 		.4byte	.LBE196
 19128 00a0 2C010000 		.4byte	.LBB197
 19129 00a4 2E010000 		.4byte	.LBE197
 19130 00a8 30010000 		.4byte	.LBB198
 19131 00ac 32010000 		.4byte	.LBE198
 19132 00b0 00000000 		.4byte	0
 19133 00b4 00000000 		.4byte	0
 19134 00b8 1A000000 		.4byte	.LBB204
 19135 00bc 1E000000 		.4byte	.LBE204
 19136 00c0 90000000 		.4byte	.LBB210
 19137 00c4 C6000000 		.4byte	.LBE210
 19138 00c8 AC010000 		.4byte	.LBB267
 19139 00cc C6010000 		.4byte	.LBE267
 19140 00d0 00000000 		.4byte	0
 19141 00d4 00000000 		.4byte	0
 19142 00d8 1E010000 		.4byte	.LBB225
 19143 00dc 22010000 		.4byte	.LBE225
 19144 00e0 26010000 		.4byte	.LBB237
 19145 00e4 28010000 		.4byte	.LBE237
 19146 00e8 2A010000 		.4byte	.LBB239
 19147 00ec 2C010000 		.4byte	.LBE239
 19148 00f0 2E010000 		.4byte	.LBB241
 19149 00f4 30010000 		.4byte	.LBE241
 19150 00f8 3A010000 		.4byte	.LBB251
 19151 00fc 3E010000 		.4byte	.LBE251
 19152 0100 40010000 		.4byte	.LBB253
 19153 0104 44010000 		.4byte	.LBE253
 19154 0108 00000000 		.4byte	0
 19155 010c 00000000 		.4byte	0
 19156 0110 1E010000 		.4byte	.LBB227
 19157 0114 22010000 		.4byte	.LBE227
 19158 0118 26010000 		.4byte	.LBB228
 19159 011c 28010000 		.4byte	.LBE228
 19160 0120 2A010000 		.4byte	.LBB229
ARM GAS  C:\Users\adrie\AppData\Local\Temp\cc7EdWgE.s 			page 338


 19161 0124 2C010000 		.4byte	.LBE229
 19162 0128 2E010000 		.4byte	.LBB230
 19163 012c 30010000 		.4byte	.LBE230
 19164 0130 00000000 		.4byte	0
 19165 0134 00000000 		.4byte	0
 19166 0138 32010000 		.4byte	.LBB243
 19167 013c 3A010000 		.4byte	.LBE243
 19168 0140 3E010000 		.4byte	.LBB252
 19169 0144 40010000 		.4byte	.LBE252
 19170 0148 44010000 		.4byte	.LBB254
 19171 014c 46010000 		.4byte	.LBE254
 19172 0150 5A010000 		.4byte	.LBB264
 19173 0154 62010000 		.4byte	.LBE264
 19174 0158 00000000 		.4byte	0
 19175 015c 00000000 		.4byte	0
 19176 0160 32010000 		.4byte	.LBB245
 19177 0164 3A010000 		.4byte	.LBE245
 19178 0168 3E010000 		.4byte	.LBB246
 19179 016c 40010000 		.4byte	.LBE246
 19180 0170 44010000 		.4byte	.LBB247
 19181 0174 46010000 		.4byte	.LBE247
 19182 0178 00000000 		.4byte	0
 19183 017c 00000000 		.4byte	0
 19184 0180 4E010000 		.4byte	.LBB256
 19185 0184 56010000 		.4byte	.LBE256
 19186 0188 58010000 		.4byte	.LBB263
 19187 018c 5A010000 		.4byte	.LBE263
 19188 0190 62010000 		.4byte	.LBB265
 19189 0194 66010000 		.4byte	.LBE265
 19190 0198 68010000 		.4byte	.LBB266
 19191 019c 6C010000 		.4byte	.LBE266
 19192 01a0 00000000 		.4byte	0
 19193 01a4 00000000 		.4byte	0
 19194 01a8 4E010000 		.4byte	.LBB258
 19195 01ac 56010000 		.4byte	.LBE258
 19196 01b0 58010000 		.4byte	.LBB259
 19197 01b4 5A010000 		.4byte	.LBE259
 19198 01b8 00000000 		.4byte	0
 19199 01bc 00000000 		.4byte	0
 19200 01c0 04000000 		.4byte	.LBB272
 19201 01c4 06000000 		.4byte	.LBE272
 19202 01c8 0C000000 		.4byte	.LBB273
 19203 01cc 12000000 		.4byte	.LBE273
 19204 01d0 14000000 		.4byte	.LBB274
 19205 01d4 1C000000 		.4byte	.LBE274
 19206 01d8 20000000 		.4byte	.LBB275
 19207 01dc 24000000 		.4byte	.LBE275
 19208 01e0 00000000 		.4byte	0
 19209 01e4 00000000 		.4byte	0
 19210 01e8 0A000000 		.4byte	.LBB277
 19211 01ec 14000000 		.4byte	.LBE277
 19212 01f0 1A000000 		.4byte	.LBB280
 19213 01f4 2C000000 		.4byte	.LBE280
 19214 01f8 00000000 		.4byte	0
 19215 01fc 00000000 		.4byte	0
 19216 0200 28000000 		.4byte	.LBB281
 19217 0204 6A000000 		.4byte	.LBE281
ARM GAS  C:\Users\adrie\AppData\Local\Temp\cc7EdWgE.s 			page 339


 19218 0208 9E000000 		.4byte	.LBB288
 19219 020c AA000000 		.4byte	.LBE288
 19220 0210 00000000 		.4byte	0
 19221 0214 00000000 		.4byte	0
 19222 0218 BC000000 		.4byte	.LBB333
 19223 021c E6010000 		.4byte	.LBE333
 19224 0220 FC010000 		.4byte	.LBB438
 19225 0224 C4020000 		.4byte	.LBE438
 19226 0228 00000000 		.4byte	0
 19227 022c 00000000 		.4byte	0
 19228 0230 28010000 		.4byte	.LBB334
 19229 0234 2C010000 		.4byte	.LBE334
 19230 0238 2E010000 		.4byte	.LBB337
 19231 023c 32010000 		.4byte	.LBE337
 19232 0240 00000000 		.4byte	0
 19233 0244 00000000 		.4byte	0
 19234 0248 32010000 		.4byte	.LBB338
 19235 024c 36010000 		.4byte	.LBE338
 19236 0250 3A010000 		.4byte	.LBB341
 19237 0254 3E010000 		.4byte	.LBE341
 19238 0258 00000000 		.4byte	0
 19239 025c 00000000 		.4byte	0
 19240 0260 66010000 		.4byte	.LBB346
 19241 0264 6A010000 		.4byte	.LBE346
 19242 0268 74010000 		.4byte	.LBB353
 19243 026c 76010000 		.4byte	.LBE353
 19244 0270 98010000 		.4byte	.LBB354
 19245 0274 9C010000 		.4byte	.LBE354
 19246 0278 BA010000 		.4byte	.LBB355
 19247 027c C2010000 		.4byte	.LBE355
 19248 0280 CA010000 		.4byte	.LBB356
 19249 0284 CE010000 		.4byte	.LBE356
 19250 0288 D2010000 		.4byte	.LBB357
 19251 028c D6010000 		.4byte	.LBE357
 19252 0290 00000000 		.4byte	0
 19253 0294 00000000 		.4byte	0
 19254 0298 06020000 		.4byte	.LBB359
 19255 029c 4C020000 		.4byte	.LBE359
 19256 02a0 BE020000 		.4byte	.LBB437
 19257 02a4 C4020000 		.4byte	.LBE437
 19258 02a8 00000000 		.4byte	0
 19259 02ac 00000000 		.4byte	0
 19260 02b0 14020000 		.4byte	.LBB366
 19261 02b4 20020000 		.4byte	.LBE366
 19262 02b8 BE020000 		.4byte	.LBB374
 19263 02bc C4020000 		.4byte	.LBE374
 19264 02c0 00000000 		.4byte	0
 19265 02c4 00000000 		.4byte	0
 19266 02c8 4E020000 		.4byte	.LBB376
 19267 02cc 52020000 		.4byte	.LBE376
 19268 02d0 56020000 		.4byte	.LBB387
 19269 02d4 5A020000 		.4byte	.LBE387
 19270 02d8 6E020000 		.4byte	.LBB422
 19271 02dc 70020000 		.4byte	.LBE422
 19272 02e0 72020000 		.4byte	.LBB424
 19273 02e4 74020000 		.4byte	.LBE424
 19274 02e8 7E020000 		.4byte	.LBB429
ARM GAS  C:\Users\adrie\AppData\Local\Temp\cc7EdWgE.s 			page 340


 19275 02ec 84020000 		.4byte	.LBE429
 19276 02f0 90020000 		.4byte	.LBB433
 19277 02f4 94020000 		.4byte	.LBE433
 19278 02f8 00000000 		.4byte	0
 19279 02fc 00000000 		.4byte	0
 19280 0300 4E020000 		.4byte	.LBB378
 19281 0304 52020000 		.4byte	.LBE378
 19282 0308 56020000 		.4byte	.LBB379
 19283 030c 5A020000 		.4byte	.LBE379
 19284 0310 6E020000 		.4byte	.LBB380
 19285 0314 70020000 		.4byte	.LBE380
 19286 0318 7E020000 		.4byte	.LBB381
 19287 031c 80020000 		.4byte	.LBE381
 19288 0320 00000000 		.4byte	0
 19289 0324 00000000 		.4byte	0
 19290 0328 5A020000 		.4byte	.LBB388
 19291 032c 5E020000 		.4byte	.LBE388
 19292 0330 66020000 		.4byte	.LBB419
 19293 0334 6A020000 		.4byte	.LBE419
 19294 0338 70020000 		.4byte	.LBB423
 19295 033c 72020000 		.4byte	.LBE423
 19296 0340 7A020000 		.4byte	.LBB427
 19297 0344 7C020000 		.4byte	.LBE427
 19298 0348 84020000 		.4byte	.LBB430
 19299 034c 88020000 		.4byte	.LBE430
 19300 0350 94020000 		.4byte	.LBB434
 19301 0354 98020000 		.4byte	.LBE434
 19302 0358 00000000 		.4byte	0
 19303 035c 00000000 		.4byte	0
 19304 0360 5A020000 		.4byte	.LBB390
 19305 0364 5E020000 		.4byte	.LBE390
 19306 0368 66020000 		.4byte	.LBB391
 19307 036c 6A020000 		.4byte	.LBE391
 19308 0370 70020000 		.4byte	.LBB392
 19309 0374 72020000 		.4byte	.LBE392
 19310 0378 7A020000 		.4byte	.LBB393
 19311 037c 7C020000 		.4byte	.LBE393
 19312 0380 00000000 		.4byte	0
 19313 0384 00000000 		.4byte	0
 19314 0388 5E020000 		.4byte	.LBB399
 19315 038c 62020000 		.4byte	.LBE399
 19316 0390 6A020000 		.4byte	.LBB420
 19317 0394 6C020000 		.4byte	.LBE420
 19318 0398 74020000 		.4byte	.LBB425
 19319 039c 76020000 		.4byte	.LBE425
 19320 03a0 7C020000 		.4byte	.LBB428
 19321 03a4 7E020000 		.4byte	.LBE428
 19322 03a8 88020000 		.4byte	.LBB431
 19323 03ac 8C020000 		.4byte	.LBE431
 19324 03b0 98020000 		.4byte	.LBB435
 19325 03b4 9C020000 		.4byte	.LBE435
 19326 03b8 00000000 		.4byte	0
 19327 03bc 00000000 		.4byte	0
 19328 03c0 5E020000 		.4byte	.LBB401
 19329 03c4 62020000 		.4byte	.LBE401
 19330 03c8 6A020000 		.4byte	.LBB402
 19331 03cc 6C020000 		.4byte	.LBE402
ARM GAS  C:\Users\adrie\AppData\Local\Temp\cc7EdWgE.s 			page 341


 19332 03d0 74020000 		.4byte	.LBB403
 19333 03d4 76020000 		.4byte	.LBE403
 19334 03d8 7C020000 		.4byte	.LBB404
 19335 03dc 7E020000 		.4byte	.LBE404
 19336 03e0 00000000 		.4byte	0
 19337 03e4 00000000 		.4byte	0
 19338 03e8 62020000 		.4byte	.LBB410
 19339 03ec 66020000 		.4byte	.LBE410
 19340 03f0 6C020000 		.4byte	.LBB421
 19341 03f4 6E020000 		.4byte	.LBE421
 19342 03f8 76020000 		.4byte	.LBB426
 19343 03fc 7A020000 		.4byte	.LBE426
 19344 0400 8C020000 		.4byte	.LBB432
 19345 0404 90020000 		.4byte	.LBE432
 19346 0408 9C020000 		.4byte	.LBB436
 19347 040c A0020000 		.4byte	.LBE436
 19348 0410 00000000 		.4byte	0
 19349 0414 00000000 		.4byte	0
 19350 0418 62020000 		.4byte	.LBB412
 19351 041c 66020000 		.4byte	.LBE412
 19352 0420 6C020000 		.4byte	.LBB413
 19353 0424 6E020000 		.4byte	.LBE413
 19354 0428 76020000 		.4byte	.LBB414
 19355 042c 7A020000 		.4byte	.LBE414
 19356 0430 00000000 		.4byte	0
 19357 0434 00000000 		.4byte	0
 19358 0438 02000000 		.4byte	.LBB439
 19359 043c 04000000 		.4byte	.LBE439
 19360 0440 06000000 		.4byte	.LBB449
 19361 0444 0C000000 		.4byte	.LBE449
 19362 0448 12000000 		.4byte	.LBB450
 19363 044c 14000000 		.4byte	.LBE450
 19364 0450 16000000 		.4byte	.LBB451
 19365 0454 18000000 		.4byte	.LBE451
 19366 0458 1A000000 		.4byte	.LBB452
 19367 045c 20000000 		.4byte	.LBE452
 19368 0460 00000000 		.4byte	0
 19369 0464 00000000 		.4byte	0
 19370 0468 02000000 		.4byte	.LBB441
 19371 046c 04000000 		.4byte	.LBE441
 19372 0470 06000000 		.4byte	.LBB442
 19373 0474 0C000000 		.4byte	.LBE442
 19374 0478 12000000 		.4byte	.LBB443
 19375 047c 14000000 		.4byte	.LBE443
 19376 0480 1A000000 		.4byte	.LBB444
 19377 0484 1C000000 		.4byte	.LBE444
 19378 0488 00000000 		.4byte	0
 19379 048c 00000000 		.4byte	0
 19380 0490 00000000 		.4byte	.LFB308
 19381 0494 BC000000 		.4byte	.LFE308
 19382 0498 00000000 		.4byte	.LFB311
 19383 049c 3C000000 		.4byte	.LFE311
 19384 04a0 00000000 		.4byte	.LFB306
 19385 04a4 28020000 		.4byte	.LFE306
 19386 04a8 00000000 		.4byte	.LFB290
 19387 04ac C0000000 		.4byte	.LFE290
 19388 04b0 00000000 		.4byte	.LFB292
ARM GAS  C:\Users\adrie\AppData\Local\Temp\cc7EdWgE.s 			page 342


 19389 04b4 68000000 		.4byte	.LFE292
 19390 04b8 00000000 		.4byte	.LFB293
 19391 04bc A4010000 		.4byte	.LFE293
 19392 04c0 00000000 		.4byte	.LFB294
 19393 04c4 44000000 		.4byte	.LFE294
 19394 04c8 00000000 		.4byte	.LFB295
 19395 04cc 44000000 		.4byte	.LFE295
 19396 04d0 00000000 		.4byte	.LFB296
 19397 04d4 64000000 		.4byte	.LFE296
 19398 04d8 00000000 		.4byte	.LFB297
 19399 04dc 2C000000 		.4byte	.LFE297
 19400 04e0 00000000 		.4byte	.LFB298
 19401 04e4 C0000000 		.4byte	.LFE298
 19402 04e8 00000000 		.4byte	.LFB299
 19403 04ec 80000000 		.4byte	.LFE299
 19404 04f0 00000000 		.4byte	.LFB300
 19405 04f4 88000000 		.4byte	.LFE300
 19406 04f8 00000000 		.4byte	.LFB291
 19407 04fc 14030000 		.4byte	.LFE291
 19408 0500 00000000 		.4byte	.LFB301
 19409 0504 20000000 		.4byte	.LFE301
 19410 0508 00000000 		.4byte	.LFB302
 19411 050c 3C000000 		.4byte	.LFE302
 19412 0510 00000000 		.4byte	.LFB303
 19413 0514 28000000 		.4byte	.LFE303
 19414 0518 00000000 		.4byte	.LFB304
 19415 051c 28000000 		.4byte	.LFE304
 19416 0520 00000000 		.4byte	.LFB305
 19417 0524 B0000000 		.4byte	.LFE305
 19418 0528 00000000 		.4byte	.LFB307
 19419 052c 38000000 		.4byte	.LFE307
 19420 0530 00000000 		.4byte	0
 19421 0534 00000000 		.4byte	0
 19422              		.section	.debug_line,"",%progbits
 19423              	.Ldebug_line0:
 19424 0000 B70F0000 		.section	.debug_str,"MS",%progbits,1
 19424      0200BC0A 
 19424      00000201 
 19424      FB0E0D00 
 19424      01010101 
 19425              	.LASF587:
 19426 0000 5553425F 		.ascii	"USB_STOP\000"
 19426      53544F50 
 19426      00
 19427              	.LASF195:
 19428 0009 706F7274 		.ascii	"port_intctx\000"
 19428      5F696E74 
 19428      63747800 
 19429              	.LASF204:
 19430 0015 63685F74 		.ascii	"ch_trace_buffer_t\000"
 19430      72616365 
 19430      5F627566 
 19430      6665725F 
 19430      7400
 19431              	.LASF237:
 19432 0027 63685F70 		.ascii	"ch_ptrsize\000"
 19432      74727369 
ARM GAS  C:\Users\adrie\AppData\Local\Temp\cc7EdWgE.s 			page 343


 19432      7A6500
 19433              	.LASF781:
 19434 0032 6D657373 		.ascii	"messagebus_watcher_s\000"
 19434      61676562 
 19434      75735F77 
 19434      61746368 
 19434      65725F73 
 19435              	.LASF525:
 19436 0047 6576656E 		.ascii	"event\000"
 19436      7400
 19437              	.LASF878:
 19438 004d 5F6D6272 		.ascii	"_mbrtowc_state\000"
 19438      746F7763 
 19438      5F737461 
 19438      746500
 19439              	.LASF375:
 19440 005c 43414E5F 		.ascii	"CAN_STARTING\000"
 19440      53544152 
 19440      54494E47 
 19440      00
 19441              	.LASF972:
 19442 0069 6D61785F 		.ascii	"max_left\000"
 19442      6C656674 
 19442      00
 19443              	.LASF997:
 19444 0072 70726F63 		.ascii	"processAudioData\000"
 19444      65737341 
 19444      7564696F 
 19444      44617461 
 19444      00
 19445              	.LASF741:
 19446 0083 44434D49 		.ascii	"DCMI_ACTIVE_ONESHOT\000"
 19446      5F414354 
 19446      4956455F 
 19446      4F4E4553 
 19446      484F5400 
 19447              	.LASF32:
 19448 0097 6D73675F 		.ascii	"msg_t\000"
 19448      7400
 19449              	.LASF320:
 19450 009d 61667268 		.ascii	"afrh\000"
 19450      00
 19451              	.LASF468:
 19452 00a2 4F504D4F 		.ascii	"OPMODE_SMBUS_DEVICE\000"
 19452      44455F53 
 19452      4D425553 
 19452      5F444556 
 19452      49434500 
 19453              	.LASF215:
 19454 00b6 6D5F6372 		.ascii	"m_crit_isr\000"
 19454      69745F69 
 19454      737200
 19455              	.LASF908:
 19456 00c1 76656374 		.ascii	"vect\000"
 19456      00
 19457              	.LASF646:
 19458 00c6 44494550 		.ascii	"DIEPTXF0\000"
ARM GAS  C:\Users\adrie\AppData\Local\Temp\cc7EdWgE.s 			page 344


 19458      54584630 
 19458      00
 19459              	.LASF722:
 19460 00cf 55534244 		.ascii	"USBD1\000"
 19460      3100
 19461              	.LASF374:
 19462 00d5 43414E5F 		.ascii	"CAN_STOP\000"
 19462      53544F50 
 19462      00
 19463              	.LASF250:
 19464 00de 63665F6F 		.ascii	"cf_off_time\000"
 19464      66665F74 
 19464      696D6500 
 19465              	.LASF91:
 19466 00ea 63685F73 		.ascii	"ch_system_t\000"
 19466      79737465 
 19466      6D5F7400 
 19467              	.LASF7:
 19468 00f6 5F5F7569 		.ascii	"__uint8_t\000"
 19468      6E74385F 
 19468      7400
 19469              	.LASF221:
 19470 0100 77747365 		.ascii	"wtsemp\000"
 19470      6D7000
 19471              	.LASF304:
 19472 0107 5F426F6F 		.ascii	"_Bool\000"
 19472      6C00
 19473              	.LASF416:
 19474 010d 64617461 		.ascii	"datamode\000"
 19474      6D6F6465 
 19474      00
 19475              	.LASF484:
 19476 0116 646D6172 		.ascii	"dmarx\000"
 19476      7800
 19477              	.LASF489:
 19478 011c 4932535F 		.ascii	"I2S_READY\000"
 19478      52454144 
 19478      5900
 19479              	.LASF811:
 19480 0126 5F617465 		.ascii	"_atexit\000"
 19480      78697400 
 19481              	.LASF893:
 19482 012e 6368616E 		.ascii	"changed_cnt\000"
 19482      6765645F 
 19482      636E7400 
 19483              	.LASF890:
 19484 013a 7375626F 		.ascii	"suboptarg\000"
 19484      70746172 
 19484      6700
 19485              	.LASF364:
 19486 0144 73717231 		.ascii	"sqr1\000"
 19486      00
 19487              	.LASF778:
 19488 0149 7075626C 		.ascii	"published\000"
 19488      69736865 
 19488      6400
 19489              	.LASF291:
ARM GAS  C:\Users\adrie\AppData\Local\Temp\cc7EdWgE.s 			page 345


 19490 0153 424C4B5F 		.ascii	"BLK_UNINIT\000"
 19490      554E494E 
 19490      495400
 19491              	.LASF496:
 19492 015e 72785F62 		.ascii	"rx_buffer\000"
 19492      75666665 
 19492      7200
 19493              	.LASF480:
 19494 0168 6572726F 		.ascii	"errors\000"
 19494      727300
 19495              	.LASF980:
 19496 016f 6D61785F 		.ascii	"max_norm\000"
 19496      6E6F726D 
 19496      00
 19497              	.LASF208:
 19498 0178 776F7273 		.ascii	"worst\000"
 19498      7400
 19499              	.LASF84:
 19500 017e 76745F73 		.ascii	"vt_systime\000"
 19500      79737469 
 19500      6D6500
 19501              	.LASF150:
 19502 0189 444F5231 		.ascii	"DOR1\000"
 19502      00
 19503              	.LASF151:
 19504 018e 444F5232 		.ascii	"DOR2\000"
 19504      00
 19505              	.LASF495:
 19506 0193 74785F62 		.ascii	"tx_buffer\000"
 19506      75666665 
 19506      7200
 19507              	.LASF801:
 19508 019d 5F5F746D 		.ascii	"__tm_mon\000"
 19508      5F6D6F6E 
 19508      00
 19509              	.LASF809:
 19510 01a6 5F666E74 		.ascii	"_fntypes\000"
 19510      79706573 
 19510      00
 19511              	.LASF942:
 19512 01af 616E676C 		.ascii	"angle\000"
 19512      6500
 19513              	.LASF230:
 19514 01b5 6D5F6E65 		.ascii	"m_next\000"
 19514      787400
 19515              	.LASF324:
 19516 01bc 50434461 		.ascii	"PCData\000"
 19516      746100
 19517              	.LASF839:
 19518 01c3 5F696E63 		.ascii	"_inc\000"
 19518      00
 19519              	.LASF812:
 19520 01c8 5F696E64 		.ascii	"_ind\000"
 19520      00
 19521              	.LASF1007:
 19522 01cd 6D6F7965 		.ascii	"moyenne_back\000"
 19522      6E6E655F 
ARM GAS  C:\Users\adrie\AppData\Local\Temp\cc7EdWgE.s 			page 346


 19522      6261636B 
 19522      00
 19523              	.LASF180:
 19524 01da 4D41534B 		.ascii	"MASK\000"
 19524      00
 19525              	.LASF349:
 19526 01df 73616D70 		.ascii	"samples\000"
 19526      6C657300 
 19527              	.LASF1002:
 19528 01e7 6E6F726D 		.ascii	"norm_front\000"
 19528      5F66726F 
 19528      6E7400
 19529              	.LASF650:
 19530 01f2 47434346 		.ascii	"GCCFG\000"
 19530      4700
 19531              	.LASF445:
 19532 01f8 42445452 		.ascii	"BDTR\000"
 19532      00
 19533              	.LASF398:
 19534 01fd 7265676D 		.ascii	"regmask\000"
 19534      61736B00 
 19535              	.LASF998:
 19536 0205 6E756D5F 		.ascii	"num_samples\000"
 19536      73616D70 
 19536      6C657300 
 19537              	.LASF478:
 19538 0211 49324343 		.ascii	"I2CConfig\000"
 19538      6F6E6669 
 19538      6700
 19539              	.LASF21:
 19540 021b 75696E74 		.ascii	"uint16_t\000"
 19540      31365F74 
 19540      00
 19541              	.LASF485:
 19542 0224 646D6174 		.ascii	"dmatx\000"
 19542      7800
 19543              	.LASF720:
 19544 022a 736F665F 		.ascii	"sof_cb\000"
 19544      636200
 19545              	.LASF1048:
 19546 0231 6765745F 		.ascii	"get_line_position\000"
 19546      6C696E65 
 19546      5F706F73 
 19546      6974696F 
 19546      6E00
 19547              	.LASF421:
 19548 0243 4558545F 		.ascii	"EXT_ACTIVE\000"
 19548      41435449 
 19548      564500
 19549              	.LASF818:
 19550 024e 5F666C61 		.ascii	"_flags\000"
 19550      677300
 19551              	.LASF780:
 19552 0255 6E657874 		.ascii	"next\000"
 19552      00
 19553              	.LASF317:
 19554 025a 6F737065 		.ascii	"ospeedr\000"
ARM GAS  C:\Users\adrie\AppData\Local\Temp\cc7EdWgE.s 			page 347


 19554      65647200 
 19555              	.LASF653:
 19556 0262 44494550 		.ascii	"DIEPTXF\000"
 19556      54584600 
 19557              	.LASF259:
 19558 026a 656C5F6E 		.ascii	"el_next\000"
 19558      65787400 
 19559              	.LASF344:
 19560 0272 4144435F 		.ascii	"ADC_ERR_OVERFLOW\000"
 19560      4552525F 
 19560      4F564552 
 19560      464C4F57 
 19560      00
 19561              	.LASF727:
 19562 0283 53657269 		.ascii	"SerialUSBDriver\000"
 19562      616C5553 
 19562      42447269 
 19562      76657200 
 19563              	.LASF849:
 19564 0293 5F637674 		.ascii	"_cvtlen\000"
 19564      6C656E00 
 19565              	.LASF89:
 19566 029b 6C6F636B 		.ascii	"lock_cnt\000"
 19566      5F636E74 
 19566      00
 19567              	.LASF65:
 19568 02a4 63685F74 		.ascii	"ch_threads_queue\000"
 19568      68726561 
 19568      64735F71 
 19568      75657565 
 19568      00
 19569              	.LASF932:
 19570 02b5 5F5F6664 		.ascii	"__fdlibm_svid\000"
 19570      6C69626D 
 19570      5F737669 
 19570      6400
 19571              	.LASF853:
 19572 02c3 5F736967 		.ascii	"_sig_func\000"
 19572      5F66756E 
 19572      6300
 19573              	.LASF43:
 19574 02cd 705F6E65 		.ascii	"p_newer\000"
 19574      77657200 
 19575              	.LASF663:
 19576 02d5 48505254 		.ascii	"HPRT\000"
 19576      00
 19577              	.LASF617:
 19578 02da 4843494E 		.ascii	"HCINT\000"
 19578      5400
 19579              	.LASF100:
 19580 02e0 534D5052 		.ascii	"SMPR1\000"
 19580      3100
 19581              	.LASF101:
 19582 02e6 534D5052 		.ascii	"SMPR2\000"
 19582      3200
 19583              	.LASF247:
 19584 02ec 63665F6F 		.ascii	"cf_off_flags\000"
ARM GAS  C:\Users\adrie\AppData\Local\Temp\cc7EdWgE.s 			page 348


 19584      66665F66 
 19584      6C616773 
 19584      00
 19585              	.LASF831:
 19586 02f9 5F6C6F63 		.ascii	"_lock\000"
 19586      6B00
 19587              	.LASF827:
 19588 02ff 5F6E6275 		.ascii	"_nbuf\000"
 19588      6600
 19589              	.LASF556:
 19590 0305 5350495F 		.ascii	"SPI_STOP\000"
 19590      53544F50 
 19590      00
 19591              	.LASF283:
 19592 030e 42617365 		.ascii	"BaseSequentialStream\000"
 19592      53657175 
 19592      656E7469 
 19592      616C5374 
 19592      7265616D 
 19593              	.LASF512:
 19594 0323 70776D63 		.ascii	"pwmchnmsk_t\000"
 19594      686E6D73 
 19594      6B5F7400 
 19595              	.LASF323:
 19596 032f 50424461 		.ascii	"PBData\000"
 19596      746100
 19597              	.LASF235:
 19598 0336 63685F73 		.ascii	"ch_size\000"
 19598      697A6500 
 19599              	.LASF976:
 19600 033e 70695F72 		.ascii	"pi_regulator\000"
 19600      6567756C 
 19600      61746F72 
 19600      00
 19601              	.LASF738:
 19602 034b 44434D49 		.ascii	"DCMI_STOP\000"
 19602      5F53544F 
 19602      5000
 19603              	.LASF659:
 19604 0355 48505458 		.ascii	"HPTXSTS\000"
 19604      53545300 
 19605              	.LASF316:
 19606 035d 6F747970 		.ascii	"otyper\000"
 19606      657200
 19607              	.LASF307:
 19608 0364 4F545950 		.ascii	"OTYPER\000"
 19608      455200
 19609              	.LASF915:
 19610 036b 6D617869 		.ascii	"maximum_fft\000"
 19610      6D756D5F 
 19610      66667400 
 19611              	.LASF400:
 19612 0377 64616370 		.ascii	"dacparams_t\000"
 19612      6172616D 
 19612      735F7400 
 19613              	.LASF534:
 19614 0383 5344435F 		.ascii	"SDC_MODE_1BIT\000"
ARM GAS  C:\Users\adrie\AppData\Local\Temp\cc7EdWgE.s 			page 349


 19614      4D4F4445 
 19614      5F314249 
 19614      5400
 19615              	.LASF615:
 19616 0391 48434348 		.ascii	"HCCHAR\000"
 19616      415200
 19617              	.LASF808:
 19618 0398 5F64736F 		.ascii	"_dso_handle\000"
 19618      5F68616E 
 19618      646C6500 
 19619              	.LASF462:
 19620 03a4 4932435F 		.ascii	"I2C_ACTIVE_RX\000"
 19620      41435449 
 19620      56455F52 
 19620      5800
 19621              	.LASF38:
 19622 03b2 74687265 		.ascii	"thread_t\000"
 19622      61645F74 
 19622      00
 19623              	.LASF261:
 19624 03bb 656C5F65 		.ascii	"el_events\000"
 19624      76656E74 
 19624      7300
 19625              	.LASF505:
 19626 03c5 70776D73 		.ascii	"pwmstate_t\000"
 19626      74617465 
 19626      5F7400
 19627              	.LASF385:
 19628 03d0 736C6565 		.ascii	"sleep_event\000"
 19628      705F6576 
 19628      656E7400 
 19629              	.LASF83:
 19630 03dc 63685F76 		.ascii	"ch_virtual_timers_list\000"
 19630      69727475 
 19630      616C5F74 
 19630      696D6572 
 19630      735F6C69 
 19631              	.LASF288:
 19632 03f3 76656374 		.ascii	"vector\000"
 19632      6F7200
 19633              	.LASF948:
 19634 03fa 6D69634C 		.ascii	"micLeft_cmplx_input\000"
 19634      6566745F 
 19634      636D706C 
 19634      785F696E 
 19634      70757400 
 19635              	.LASF988:
 19636 040e 6D696372 		.ascii	"micro\000"
 19636      6F00
 19637              	.LASF22:
 19638 0414 696E7433 		.ascii	"int32_t\000"
 19638      325F7400 
 19639              	.LASF873:
 19640 041c 5F776374 		.ascii	"_wctomb_state\000"
 19640      6F6D625F 
 19640      73746174 
 19640      6500
ARM GAS  C:\Users\adrie\AppData\Local\Temp\cc7EdWgE.s 			page 350


 19641              	.LASF991:
 19642 042a 73757072 		.ascii	"supremum\000"
 19642      656D756D 
 19642      00
 19643              	.LASF476:
 19644 0433 636C6F63 		.ascii	"clock_speed\000"
 19644      6B5F7370 
 19644      65656400 
 19645              	.LASF37:
 19646 043f 73797374 		.ascii	"systime_t\000"
 19646      696D655F 
 19646      7400
 19647              	.LASF947:
 19648 0449 6D6F7965 		.ascii	"moyenne\000"
 19648      6E6E6500 
 19649              	.LASF418:
 19650 0451 44414344 		.ascii	"DACD2\000"
 19650      3200
 19651              	.LASF387:
 19652 0457 43414E44 		.ascii	"CANDriver\000"
 19652      72697665 
 19652      7200
 19653              	.LASF245:
 19654 0461 63665F6F 		.ascii	"cf_off_stklimit\000"
 19654      66665F73 
 19654      746B6C69 
 19654      6D697400 
 19655              	.LASF161:
 19656 0471 4D304152 		.ascii	"M0AR\000"
 19656      00
 19657              	.LASF622:
 19658 0476 72657376 		.ascii	"resvd1c\000"
 19658      64316300 
 19659              	.LASF466:
 19660 047e 69326366 		.ascii	"i2cflags_t\000"
 19660      6C616773 
 19660      5F7400
 19661              	.LASF660:
 19662 0489 4841494E 		.ascii	"HAINT\000"
 19662      5400
 19663              	.LASF1026:
 19664 048f 5F646267 		.ascii	"_dbg_check_lock\000"
 19664      5F636865 
 19664      636B5F6C 
 19664      6F636B00 
 19665              	.LASF136:
 19666 049f 46413152 		.ascii	"FA1R\000"
 19666      00
 19667              	.LASF159:
 19668 04a4 44434D49 		.ascii	"DCMI_TypeDef\000"
 19668      5F547970 
 19668      65446566 
 19668      00
 19669              	.LASF657:
 19670 04b1 48464E55 		.ascii	"HFNUM\000"
 19670      4D00
 19671              	.LASF894:
ARM GAS  C:\Users\adrie\AppData\Local\Temp\cc7EdWgE.s 			page 351


 19672 04b7 70617265 		.ascii	"parent\000"
 19672      6E7400
 19673              	.LASF277:
 19674 04be 716E6F74 		.ascii	"qnotify_t\000"
 19674      6966795F 
 19674      7400
 19675              	.LASF340:
 19676 04c8 61646373 		.ascii	"adcstate_t\000"
 19676      74617465 
 19676      5F7400
 19677              	.LASF788:
 19678 04d3 7075626C 		.ascii	"published_topic\000"
 19678      69736865 
 19678      645F746F 
 19678      70696300 
 19679              	.LASF753:
 19680 04e3 44434D49 		.ascii	"DCMID\000"
 19680      4400
 19681              	.LASF286:
 19682 04e9 69736869 		.ascii	"ishift\000"
 19682      667400
 19683              	.LASF1013:
 19684 04f0 63684253 		.ascii	"chBSemWait\000"
 19684      656D5761 
 19684      697400
 19685              	.LASF435:
 19686 04fb 4750545F 		.ascii	"GPT_ONESHOT\000"
 19686      4F4E4553 
 19686      484F5400 
 19687              	.LASF272:
 19688 0507 715F746F 		.ascii	"q_top\000"
 19688      7000
 19689              	.LASF820:
 19690 050d 5F6C6266 		.ascii	"_lbfsize\000"
 19690      73697A65 
 19690      00
 19691              	.LASF608:
 19692 0516 75645F73 		.ascii	"ud_string\000"
 19692      7472696E 
 19692      6700
 19693              	.LASF479:
 19694 0520 49324344 		.ascii	"I2CDriver\000"
 19694      72697665 
 19694      7200
 19695              	.LASF461:
 19696 052a 4932435F 		.ascii	"I2C_ACTIVE_TX\000"
 19696      41435449 
 19696      56455F54 
 19696      5800
 19697              	.LASF282:
 19698 0538 72656164 		.ascii	"read\000"
 19698      00
 19699              	.LASF467:
 19700 053d 4F504D4F 		.ascii	"OPMODE_I2C\000"
 19700      44455F49 
 19700      324300
 19701              	.LASF669:
ARM GAS  C:\Users\adrie\AppData\Local\Temp\cc7EdWgE.s 			page 352


 19702 0548 72657376 		.ascii	"resvd80C\000"
 19702      64383043 
 19702      00
 19703              	.LASF717:
 19704 0551 6576656E 		.ascii	"event_cb\000"
 19704      745F6362 
 19704      00
 19705              	.LASF984:
 19706 055a 6C65645F 		.ascii	"led_direction\000"
 19706      64697265 
 19706      6374696F 
 19706      6E00
 19707              	.LASF851:
 19708 0568 5F6E6577 		.ascii	"_new\000"
 19708      00
 19709              	.LASF955:
 19710 056d 6D696342 		.ascii	"micBack_output\000"
 19710      61636B5F 
 19710      6F757470 
 19710      757400
 19711              	.LASF636:
 19712 057c 474F5447 		.ascii	"GOTGCTL\000"
 19712      43544C00 
 19713              	.LASF954:
 19714 0584 6D696346 		.ascii	"micFront_output\000"
 19714      726F6E74 
 19714      5F6F7574 
 19714      70757400 
 19715              	.LASF730:
 19716 0594 62756C6B 		.ascii	"bulk_out\000"
 19716      5F6F7574 
 19716      00
 19717              	.LASF611:
 19718 059d 75736265 		.ascii	"usbepcallback_t\000"
 19718      7063616C 
 19718      6C626163 
 19718      6B5F7400 
 19719              	.LASF465:
 19720 05ad 69326361 		.ascii	"i2caddr_t\000"
 19720      6464725F 
 19720      7400
 19721              	.LASF94:
 19722 05b7 76746C69 		.ascii	"vtlist\000"
 19722      737400
 19723              	.LASF166:
 19724 05be 54524953 		.ascii	"TRISE\000"
 19724      4500
 19725              	.LASF675:
 19726 05c4 72657376 		.ascii	"resvd824\000"
 19726      64383234 
 19726      00
 19727              	.LASF52:
 19728 05cd 705F7761 		.ascii	"p_waiting\000"
 19728      6974696E 
 19728      6700
 19729              	.LASF216:
 19730 05d7 6B65726E 		.ascii	"kernel_stats_t\000"
ARM GAS  C:\Users\adrie\AppData\Local\Temp\cc7EdWgE.s 			page 353


 19730      656C5F73 
 19730      74617473 
 19730      5F7400
 19731              	.LASF269:
 19732 05e6 715F7761 		.ascii	"q_waiting\000"
 19732      6974696E 
 19732      6700
 19733              	.LASF118:
 19734 05f0 43414E5F 		.ascii	"CAN_TxMailBox_TypeDef\000"
 19734      54784D61 
 19734      696C426F 
 19734      785F5479 
 19734      70654465 
 19735              	.LASF93:
 19736 0606 726C6973 		.ascii	"rlist\000"
 19736      7400
 19737              	.LASF61:
 19738 060c 74687265 		.ascii	"threads_list_t\000"
 19738      6164735F 
 19738      6C697374 
 19738      5F7400
 19739              	.LASF241:
 19740 061b 63665F6F 		.ascii	"cf_off_ctx\000"
 19740      66665F63 
 19740      747800
 19741              	.LASF278:
 19742 0626 696E7075 		.ascii	"input_queue_t\000"
 19742      745F7175 
 19742      6575655F 
 19742      7400
 19743              	.LASF367:
 19744 0634 41444343 		.ascii	"ADCConversionGroup\000"
 19744      6F6E7665 
 19744      7273696F 
 19744      6E47726F 
 19744      757000
 19745              	.LASF668:
 19746 0647 44535453 		.ascii	"DSTS\000"
 19746      00
 19747              	.LASF886:
 19748 064c 5F5F6C6F 		.ascii	"__lock\000"
 19748      636B00
 19749              	.LASF471:
 19750 0653 5354445F 		.ascii	"STD_DUTY_CYCLE\000"
 19750      44555459 
 19750      5F435943 
 19750      4C4500
 19751              	.LASF376:
 19752 0662 43414E5F 		.ascii	"CAN_READY\000"
 19752      52454144 
 19752      5900
 19753              	.LASF243:
 19754 066c 63665F6F 		.ascii	"cf_off_older\000"
 19754      66665F6F 
 19754      6C646572 
 19754      00
 19755              	.LASF26:
ARM GAS  C:\Users\adrie\AppData\Local\Temp\cc7EdWgE.s 			page 354


 19756 0679 72747469 		.ascii	"rttime_t\000"
 19756      6D655F74 
 19756      00
 19757              	.LASF430:
 19758 0682 45585444 		.ascii	"EXTD1\000"
 19758      3100
 19759              	.LASF702:
 19760 0688 72787175 		.ascii	"rxqueued\000"
 19760      65756564 
 19760      00
 19761              	.LASF378:
 19762 0691 63616E73 		.ascii	"canstate_t\000"
 19762      74617465 
 19762      5F7400
 19763              	.LASF138:
 19764 069c 7346696C 		.ascii	"sFilterRegister\000"
 19764      74657252 
 19764      65676973 
 19764      74657200 
 19765              	.LASF855:
 19766 06ac 5F5F7366 		.ascii	"__sf\000"
 19766      00
 19767              	.LASF674:
 19768 06b1 72657376 		.ascii	"resvd820\000"
 19768      64383230 
 19768      00
 19769              	.LASF1050:
 19770 06ba 5F5F7374 		.ascii	"__stack_chk_fail\000"
 19770      61636B5F 
 19770      63686B5F 
 19770      6661696C 
 19770      00
 19771              	.LASF172:
 19772 06cb 52455350 		.ascii	"RESP1\000"
 19772      3100
 19773              	.LASF173:
 19774 06d1 52455350 		.ascii	"RESP2\000"
 19774      3200
 19775              	.LASF174:
 19776 06d7 52455350 		.ascii	"RESP3\000"
 19776      3300
 19777              	.LASF175:
 19778 06dd 52455350 		.ascii	"RESP4\000"
 19778      3400
 19779              	.LASF872:
 19780 06e3 5F6D6274 		.ascii	"_mbtowc_state\000"
 19780      6F77635F 
 19780      73746174 
 19780      6500
 19781              	.LASF1039:
 19782 06f1 63687670 		.ascii	"chvprintf\000"
 19782      72696E74 
 19782      6600
 19783              	.LASF458:
 19784 06fb 4932435F 		.ascii	"I2C_UNINIT\000"
 19784      554E494E 
 19784      495400
ARM GAS  C:\Users\adrie\AppData\Local\Temp\cc7EdWgE.s 			page 355


 19785              	.LASF613:
 19786 0706 75736272 		.ascii	"usbreqhandler_t\000"
 19786      65716861 
 19786      6E646C65 
 19786      725F7400 
 19787              	.LASF338:
 19788 0716 4144435F 		.ascii	"ADC_COMPLETE\000"
 19788      434F4D50 
 19788      4C455445 
 19788      00
 19789              	.LASF957:
 19790 0723 5F5F4655 		.ascii	"__FUNCTION__\000"
 19790      4E435449 
 19790      4F4E5F5F 
 19790      00
 19791              	.LASF454:
 19792 0730 47505443 		.ascii	"GPTConfig\000"
 19792      6F6E6669 
 19792      6700
 19793              	.LASF520:
 19794 073a 53445F55 		.ascii	"SD_UNINIT\000"
 19794      4E494E49 
 19794      5400
 19795              	.LASF737:
 19796 0744 44434D49 		.ascii	"DCMI_UNINIT\000"
 19796      5F554E49 
 19796      4E495400 
 19797              	.LASF31:
 19798 0750 74707269 		.ascii	"tprio_t\000"
 19798      6F5F7400 
 19799              	.LASF212:
 19800 0758 6E5F6972 		.ascii	"n_irq\000"
 19800      7100
 19801              	.LASF776:
 19802 075e 636F6E64 		.ascii	"condvar\000"
 19802      76617200 
 19803              	.LASF499:
 19804 0766 69327370 		.ascii	"i2spr\000"
 19804      7200
 19805              	.LASF1029:
 19806 076c 63685379 		.ascii	"chSysHalt\000"
 19806      7348616C 
 19806      7400
 19807              	.LASF678:
 19808 0776 72657376 		.ascii	"resvd830\000"
 19808      64383330 
 19808      00
 19809              	.LASF460:
 19810 077f 4932435F 		.ascii	"I2C_READY\000"
 19810      52454144 
 19810      5900
 19811              	.LASF1044:
 19812 0789 433A5C55 		.ascii	"C:\\Users\\adrie\\OneDrive\\Documents\\GitHub\\Proj"
 19812      73657273 
 19812      5C616472 
 19812      69655C4F 
 19812      6E654472 
ARM GAS  C:\Users\adrie\AppData\Local\Temp\cc7EdWgE.s 			page 356


 19813 07b6 6563745F 		.ascii	"ect_robotique\000"
 19813      726F626F 
 19813      74697175 
 19813      6500
 19814              	.LASF680:
 19815 07c4 72657376 		.ascii	"resvd838\000"
 19815      64383338 
 19815      00
 19816              	.LASF474:
 19817 07cd 69326364 		.ascii	"i2cdutycycle_t\000"
 19817      75747963 
 19817      79636C65 
 19817      5F7400
 19818              	.LASF726:
 19819 07dc 73647573 		.ascii	"sdustate_t\000"
 19819      74617465 
 19819      5F7400
 19820              	.LASF767:
 19821 07e7 6F707461 		.ascii	"optarg\000"
 19821      726700
 19822              	.LASF681:
 19823 07ee 72657376 		.ascii	"resvd83C\000"
 19823      64383343 
 19823      00
 19824              	.LASF352:
 19825 07f7 74687265 		.ascii	"thread\000"
 19825      616400
 19826              	.LASF397:
 19827 07fe 72656773 		.ascii	"regshift\000"
 19827      68696674 
 19827      00
 19828              	.LASF576:
 19829 0807 73657475 		.ascii	"setup\000"
 19829      7000
 19830              	.LASF555:
 19831 080d 5350495F 		.ascii	"SPI_UNINIT\000"
 19831      554E494E 
 19831      495400
 19832              	.LASF629:
 19833 0818 44545846 		.ascii	"DTXFSTS\000"
 19833      53545300 
 19834              	.LASF301:
 19835 0820 626C6B5F 		.ascii	"blk_size\000"
 19835      73697A65 
 19835      00
 19836              	.LASF999:
 19837 0829 6E625F73 		.ascii	"nb_samples\000"
 19837      616D706C 
 19837      657300
 19838              	.LASF742:
 19839 0834 44434D49 		.ascii	"DCMI_COMPLETE\000"
 19839      5F434F4D 
 19839      504C4554 
 19839      4500
 19840              	.LASF570:
 19841 0842 696E5F70 		.ascii	"in_params\000"
 19841      6172616D 
ARM GAS  C:\Users\adrie\AppData\Local\Temp\cc7EdWgE.s 			page 357


 19841      7300
 19842              	.LASF444:
 19843 084c 43434552 		.ascii	"CCER\000"
 19843      00
 19844              	.LASF188:
 19845 0851 49325350 		.ascii	"I2SPR\000"
 19845      5200
 19846              	.LASF502:
 19847 0857 50574D5F 		.ascii	"PWM_UNINIT\000"
 19847      554E494E 
 19847      495400
 19848              	.LASF207:
 19849 0862 62657374 		.ascii	"best\000"
 19849      00
 19850              	.LASF901:
 19851 0867 74797065 		.ascii	"type\000"
 19851      00
 19852              	.LASF638:
 19853 086c 47414842 		.ascii	"GAHBCFG\000"
 19853      43464700 
 19854              	.LASF407:
 19855 0874 64616363 		.ascii	"daccallback_t\000"
 19855      616C6C62 
 19855      61636B5F 
 19855      7400
 19856              	.LASF725:
 19857 0882 5344555F 		.ascii	"SDU_READY\000"
 19857      52454144 
 19857      5900
 19858              	.LASF754:
 19859 088c 5F4C4F43 		.ascii	"_LOCK_T\000"
 19859      4B5F5400 
 19860              	.LASF682:
 19861 0894 72657376 		.ascii	"resvd840\000"
 19861      64383430 
 19861      00
 19862              	.LASF184:
 19863 089d 43524350 		.ascii	"CRCPR\000"
 19863      5200
 19864              	.LASF964:
 19865 08a3 64697374 		.ascii	"distance_source\000"
 19865      616E6365 
 19865      5F736F75 
 19865      72636500 
 19866              	.LASF989:
 19867 08b3 736F6D6D 		.ascii	"somme\000"
 19867      6500
 19868              	.LASF296:
 19869 08b9 424C4B5F 		.ascii	"BLK_READY\000"
 19869      52454144 
 19869      5900
 19870              	.LASF9:
 19871 08c3 5F5F696E 		.ascii	"__int16_t\000"
 19871      7431365F 
 19871      7400
 19872              	.LASF11:
 19873 08cd 5F5F7569 		.ascii	"__uint16_t\000"
ARM GAS  C:\Users\adrie\AppData\Local\Temp\cc7EdWgE.s 			page 358


 19873      6E743136 
 19873      5F7400
 19874              	.LASF434:
 19875 08d8 4750545F 		.ascii	"GPT_CONTINUOUS\000"
 19875      434F4E54 
 19875      494E554F 
 19875      555300
 19876              	.LASF696:
 19877 08e7 74787175 		.ascii	"txqueued\000"
 19877      65756564 
 19877      00
 19878              	.LASF54:
 19879 08f0 705F6D73 		.ascii	"p_msg\000"
 19879      6700
 19880              	.LASF864:
 19881 08f6 5F756E75 		.ascii	"_unused_rand\000"
 19881      7365645F 
 19881      72616E64 
 19881      00
 19882              	.LASF635:
 19883 0903 73746D33 		.ascii	"stm32_otg_out_ep_t\000"
 19883      325F6F74 
 19883      675F6F75 
 19883      745F6570 
 19883      5F7400
 19884              	.LASF644:
 19885 0916 47525853 		.ascii	"GRXSTSP\000"
 19885      54535000 
 19886              	.LASF643:
 19887 091e 47525853 		.ascii	"GRXSTSR\000"
 19887      54535200 
 19888              	.LASF218:
 19889 0926 65786974 		.ascii	"exitcode\000"
 19889      636F6465 
 19889      00
 19890              	.LASF162:
 19891 092f 4D314152 		.ascii	"M1AR\000"
 19891      00
 19892              	.LASF583:
 19893 0934 77616974 		.ascii	"wait\000"
 19893      00
 19894              	.LASF163:
 19895 0939 444D415F 		.ascii	"DMA_Stream_TypeDef\000"
 19895      53747265 
 19895      616D5F54 
 19895      79706544 
 19895      656600
 19896              	.LASF590:
 19897 094c 5553425F 		.ascii	"USB_ACTIVE\000"
 19897      41435449 
 19897      564500
 19898              	.LASF771:
 19899 0957 6F707472 		.ascii	"optreset\000"
 19899      65736574 
 19899      00
 19900              	.LASF631:
 19901 0960 73746D33 		.ascii	"stm32_otg_in_ep_t\000"
ARM GAS  C:\Users\adrie\AppData\Local\Temp\cc7EdWgE.s 			page 359


 19901      325F6F74 
 19901      675F696E 
 19901      5F65705F 
 19901      7400
 19902              	.LASF704:
 19903 0972 7278636E 		.ascii	"rxcnt\000"
 19903      7400
 19904              	.LASF334:
 19905 0978 4144435F 		.ascii	"ADC_UNINIT\000"
 19905      554E494E 
 19905      495400
 19906              	.LASF482:
 19907 0983 7278646D 		.ascii	"rxdmamode\000"
 19907      616D6F64 
 19907      6500
 19908              	.LASF846:
 19909 098d 5F726573 		.ascii	"_result_k\000"
 19909      756C745F 
 19909      6B00
 19910              	.LASF426:
 19911 0997 6D6F6465 		.ascii	"mode\000"
 19911      00
 19912              	.LASF838:
 19913 099c 5F737464 		.ascii	"_stderr\000"
 19913      65727200 
 19914              	.LASF845:
 19915 09a4 5F726573 		.ascii	"_result\000"
 19915      756C7400 
 19916              	.LASF231:
 19917 09ac 6D5F636E 		.ascii	"m_cnt\000"
 19917      7400
 19918              	.LASF423:
 19919 09b2 45585444 		.ascii	"EXTDriver\000"
 19919      72697665 
 19919      7200
 19920              	.LASF246:
 19921 09bc 63665F6F 		.ascii	"cf_off_state\000"
 19921      66665F73 
 19921      74617465 
 19921      00
 19922              	.LASF494:
 19923 09c9 69327363 		.ascii	"i2scallback_t\000"
 19923      616C6C62 
 19923      61636B5F 
 19923      7400
 19924              	.LASF564:
 19925 09d7 73737061 		.ascii	"sspad\000"
 19925      6400
 19926              	.LASF483:
 19927 09dd 7478646D 		.ascii	"txdmamode\000"
 19927      616D6F64 
 19927      6500
 19928              	.LASF913:
 19929 09e7 5F5F676E 		.ascii	"__gnuc_va_list\000"
 19929      75635F76 
 19929      615F6C69 
 19929      737400
ARM GAS  C:\Users\adrie\AppData\Local\Temp\cc7EdWgE.s 			page 360


 19930              	.LASF906:
 19931 09f6 6275665F 		.ascii	"buf_dim\000"
 19931      64696D00 
 19932              	.LASF450:
 19933 09fe 67707466 		.ascii	"gptfreq_t\000"
 19933      7265715F 
 19933      7400
 19934              	.LASF803:
 19935 0a08 5F5F746D 		.ascii	"__tm_wday\000"
 19935      5F776461 
 19935      7900
 19936              	.LASF934:
 19937 0a12 5F5F6664 		.ascii	"__fdlibm_posix\000"
 19937      6C69626D 
 19937      5F706F73 
 19937      697800
 19938              	.LASF800:
 19939 0a21 5F5F746D 		.ascii	"__tm_mday\000"
 19939      5F6D6461 
 19939      7900
 19940              	.LASF910:
 19941 0a2b 75736263 		.ascii	"usbcfg\000"
 19941      666700
 19942              	.LASF689:
 19943 0a32 72785F66 		.ascii	"rx_fifo_size\000"
 19943      69666F5F 
 19943      73697A65 
 19943      00
 19944              	.LASF193:
 19945 0a3f 73746B61 		.ascii	"stkalign_t\000"
 19945      6C69676E 
 19945      5F7400
 19946              	.LASF405:
 19947 0a4a 4441435F 		.ascii	"DAC_ERR_UNDERFLOW\000"
 19947      4552525F 
 19947      554E4445 
 19947      52464C4F 
 19947      5700
 19948              	.LASF386:
 19949 0a5c 77616B65 		.ascii	"wakeup_event\000"
 19949      75705F65 
 19949      76656E74 
 19949      00
 19950              	.LASF78:
 19951 0a69 76745F70 		.ascii	"vt_prev\000"
 19951      72657600 
 19952              	.LASF804:
 19953 0a71 5F5F746D 		.ascii	"__tm_yday\000"
 19953      5F796461 
 19953      7900
 19954              	.LASF360:
 19955 0a7b 656E645F 		.ascii	"end_cb\000"
 19955      636200
 19956              	.LASF1023:
 19957 0a82 63685468 		.ascii	"chThdCreateStatic\000"
 19957      64437265 
 19957      61746553 
ARM GAS  C:\Users\adrie\AppData\Local\Temp\cc7EdWgE.s 			page 361


 19957      74617469 
 19957      6300
 19958              	.LASF707:
 19959 0a94 73657475 		.ascii	"setup_cb\000"
 19959      705F6362 
 19959      00
 19960              	.LASF8:
 19961 0a9d 756E7369 		.ascii	"unsigned char\000"
 19961      676E6564 
 19961      20636861 
 19961      7200
 19962              	.LASF837:
 19963 0aab 5F737464 		.ascii	"_stdout\000"
 19963      6F757400 
 19964              	.LASF182:
 19965 0ab3 4649464F 		.ascii	"FIFO\000"
 19965      00
 19966              	.LASF952:
 19967 0ab8 6D69634C 		.ascii	"micLeft_output\000"
 19967      6566745F 
 19967      6F757470 
 19967      757400
 19968              	.LASF203:
 19969 0ac7 74625F62 		.ascii	"tb_buffer\000"
 19969      75666665 
 19969      7200
 19970              	.LASF380:
 19971 0ad1 74787175 		.ascii	"txqueue\000"
 19971      65756500 
 19972              	.LASF153:
 19973 0ad9 52495352 		.ascii	"RISR\000"
 19973      00
 19974              	.LASF226:
 19975 0ade 735F636E 		.ascii	"s_cnt\000"
 19975      7400
 19976              	.LASF66:
 19977 0ae4 72656164 		.ascii	"ready_list_t\000"
 19977      795F6C69 
 19977      73745F74 
 19977      00
 19978              	.LASF62:
 19979 0af1 63685F74 		.ascii	"ch_thread\000"
 19979      68726561 
 19979      6400
 19980              	.LASF469:
 19981 0afb 4F504D4F 		.ascii	"OPMODE_SMBUS_HOST\000"
 19981      44455F53 
 19981      4D425553 
 19981      5F484F53 
 19981      5400
 19982              	.LASF911:
 19983 0b0d 73657275 		.ascii	"serusbcfg\000"
 19983      73626366 
 19983      6700
 19984              	.LASF879:
 19985 0b17 5F6D6273 		.ascii	"_mbsrtowcs_state\000"
 19985      72746F77 
ARM GAS  C:\Users\adrie\AppData\Local\Temp\cc7EdWgE.s 			page 362


 19985      63735F73 
 19985      74617465 
 19985      00
 19986              	.LASF585:
 19987 0b28 75736265 		.ascii	"usbep_t\000"
 19987      705F7400 
 19988              	.LASF795:
 19989 0b30 5F776473 		.ascii	"_wds\000"
 19989      00
 19990              	.LASF0:
 19991 0b35 666C6F61 		.ascii	"float\000"
 19991      7400
 19992              	.LASF419:
 19993 0b3b 4558545F 		.ascii	"EXT_UNINIT\000"
 19993      554E494E 
 19993      495400
 19994              	.LASF377:
 19995 0b46 43414E5F 		.ascii	"CAN_SLEEP\000"
 19995      534C4545 
 19995      5000
 19996              	.LASF199:
 19997 0b50 73655F73 		.ascii	"se_state\000"
 19997      74617465 
 19997      00
 19998              	.LASF373:
 19999 0b59 43414E5F 		.ascii	"CAN_UNINIT\000"
 19999      554E494E 
 19999      495400
 20000              	.LASF554:
 20001 0b64 53444344 		.ascii	"SDCD1\000"
 20001      3100
 20002              	.LASF85:
 20003 0b6a 73797374 		.ascii	"system_debug_t\000"
 20003      656D5F64 
 20003      65627567 
 20003      5F7400
 20004              	.LASF143:
 20005 0b79 44485238 		.ascii	"DHR8R1\000"
 20005      523100
 20006              	.LASF146:
 20007 0b80 44485238 		.ascii	"DHR8R2\000"
 20007      523200
 20008              	.LASF441:
 20009 0b87 44494552 		.ascii	"DIER\000"
 20009      00
 20010              	.LASF784:
 20011 0b8c 68656164 		.ascii	"head\000"
 20011      00
 20012              	.LASF42:
 20013 0b91 705F6374 		.ascii	"p_ctx\000"
 20013      7800
 20014              	.LASF81:
 20015 0b97 76745F70 		.ascii	"vt_par\000"
 20015      617200
 20016              	.LASF102:
 20017 0b9e 4A4F4652 		.ascii	"JOFR1\000"
 20017      3100
ARM GAS  C:\Users\adrie\AppData\Local\Temp\cc7EdWgE.s 			page 363


 20018              	.LASF103:
 20019 0ba4 4A4F4652 		.ascii	"JOFR2\000"
 20019      3200
 20020              	.LASF104:
 20021 0baa 4A4F4652 		.ascii	"JOFR3\000"
 20021      3300
 20022              	.LASF105:
 20023 0bb0 4A4F4652 		.ascii	"JOFR4\000"
 20023      3400
 20024              	.LASF73:
 20025 0bb6 725F6375 		.ascii	"r_current\000"
 20025      7272656E 
 20025      7400
 20026              	.LASF1043:
 20027 0bc0 61756469 		.ascii	"audio_processing.c\000"
 20027      6F5F7072 
 20027      6F636573 
 20027      73696E67 
 20027      2E6300
 20028              	.LASF823:
 20029 0bd3 5F777269 		.ascii	"_write\000"
 20029      746500
 20030              	.LASF186:
 20031 0bda 54584352 		.ascii	"TXCRCR\000"
 20031      435200
 20032              	.LASF412:
 20033 0be1 64616364 		.ascii	"dacdhrmode_t\000"
 20033      68726D6F 
 20033      64655F74 
 20033      00
 20034              	.LASF928:
 20035 0bee 46524F4E 		.ascii	"FRONT\000"
 20035      5400
 20036              	.LASF354:
 20037 0bf4 646D6173 		.ascii	"dmastp\000"
 20037      747000
 20038              	.LASF775:
 20039 0bfb 6C6F636B 		.ascii	"lock\000"
 20039      00
 20040              	.LASF473:
 20041 0c00 46415354 		.ascii	"FAST_DUTY_CYCLE_16_9\000"
 20041      5F445554 
 20041      595F4359 
 20041      434C455F 
 20041      31365F39 
 20042              	.LASF816:
 20043 0c15 5F73697A 		.ascii	"_size\000"
 20043      6500
 20044              	.LASF24:
 20045 0c1b 75696E74 		.ascii	"uint64_t\000"
 20045      36345F74 
 20045      00
 20046              	.LASF213:
 20047 0c24 6E5F6374 		.ascii	"n_ctxswc\000"
 20047      78737763 
 20047      00
 20048              	.LASF982:
ARM GAS  C:\Users\adrie\AppData\Local\Temp\cc7EdWgE.s 			page 364


 20049 0c2d 6D61785F 		.ascii	"max_norm_index\000"
 20049      6E6F726D 
 20049      5F696E64 
 20049      657800
 20050              	.LASF252:
 20051 0c3c 63685F64 		.ascii	"ch_debug\000"
 20051      65627567 
 20051      00
 20052              	.LASF965:
 20053 0c45 676F616C 		.ascii	"goal\000"
 20053      00
 20054              	.LASF415:
 20055 0c4a 696E6974 		.ascii	"init\000"
 20055      00
 20056              	.LASF130:
 20057 0c4f 464D3152 		.ascii	"FM1R\000"
 20057      00
 20058              	.LASF798:
 20059 0c54 5F5F746D 		.ascii	"__tm_min\000"
 20059      5F6D696E 
 20059      00
 20060              	.LASF331:
 20061 0c5d 50414C43 		.ascii	"PALConfig\000"
 20061      6F6E6669 
 20061      6700
 20062              	.LASF698:
 20063 0c67 7478636E 		.ascii	"txcnt\000"
 20063      7400
 20064              	.LASF895:
 20065 0c6d 73756273 		.ascii	"subspaces\000"
 20065      70616365 
 20065      7300
 20066              	.LASF612:
 20067 0c77 75736265 		.ascii	"usbeventcb_t\000"
 20067      76656E74 
 20067      63625F74 
 20067      00
 20068              	.LASF293:
 20069 0c84 424C4B5F 		.ascii	"BLK_ACTIVE\000"
 20069      41435449 
 20069      564500
 20070              	.LASF802:
 20071 0c8f 5F5F746D 		.ascii	"__tm_year\000"
 20071      5F796561 
 20071      7200
 20072              	.LASF257:
 20073 0c99 6576656E 		.ascii	"event_listener_t\000"
 20073      745F6C69 
 20073      7374656E 
 20073      65725F74 
 20073      00
 20074              	.LASF828:
 20075 0caa 5F626C6B 		.ascii	"_blksize\000"
 20075      73697A65 
 20075      00
 20076              	.LASF690:
 20077 0cb3 6F74675F 		.ascii	"otg_ram_size\000"
ARM GAS  C:\Users\adrie\AppData\Local\Temp\cc7EdWgE.s 			page 365


 20077      72616D5F 
 20077      73697A65 
 20077      00
 20078              	.LASF692:
 20079 0cc0 73746D33 		.ascii	"stm32_otg_params_t\000"
 20079      325F6F74 
 20079      675F7061 
 20079      72616D73 
 20079      5F7400
 20080              	.LASF685:
 20081 0cd3 72657376 		.ascii	"resvdD00\000"
 20081      64443030 
 20081      00
 20082              	.LASF185:
 20083 0cdc 52584352 		.ascii	"RXCRCR\000"
 20083      435200
 20084              	.LASF701:
 20085 0ce3 72786275 		.ascii	"rxbuf\000"
 20085      6600
 20086              	.LASF641:
 20087 0ce9 47494E54 		.ascii	"GINTSTS\000"
 20087      53545300 
 20088              	.LASF227:
 20089 0cf1 63685F6D 		.ascii	"ch_mutex\000"
 20089      75746578 
 20089      00
 20090              	.LASF383:
 20091 0cfa 7478656D 		.ascii	"txempty_event\000"
 20091      7074795F 
 20091      6576656E 
 20091      7400
 20092              	.LASF723:
 20093 0d08 5344555F 		.ascii	"SDU_UNINIT\000"
 20093      554E494E 
 20093      495400
 20094              	.LASF506:
 20095 0d13 50574D44 		.ascii	"PWMDriver\000"
 20095      72697665 
 20095      7200
 20096              	.LASF328:
 20097 0d1d 50474461 		.ascii	"PGData\000"
 20097      746100
 20098              	.LASF970:
 20099 0d24 76616C65 		.ascii	"valeur\000"
 20099      757200
 20100              	.LASF515:
 20101 0d2b 50574D43 		.ascii	"PWMConfig\000"
 20101      6F6E6669 
 20101      6700
 20102              	.LASF877:
 20103 0d35 5F6D6272 		.ascii	"_mbrlen_state\000"
 20103      6C656E5F 
 20103      73746174 
 20103      6500
 20104              	.LASF958:
 20105 0d43 74696D65 		.ascii	"time\000"
 20105      00
ARM GAS  C:\Users\adrie\AppData\Local\Temp\cc7EdWgE.s 			page 366


 20106              	.LASF902:
 20107 0d48 76616C75 		.ascii	"value\000"
 20107      6500
 20108              	.LASF242:
 20109 0d4e 63665F6F 		.ascii	"cf_off_newer\000"
 20109      66665F6E 
 20109      65776572 
 20109      00
 20110              	.LASF670:
 20111 0d5b 44494550 		.ascii	"DIEPMSK\000"
 20111      4D534B00 
 20112              	.LASF637:
 20113 0d63 474F5447 		.ascii	"GOTGINT\000"
 20113      494E5400 
 20114              	.LASF709:
 20115 0d6b 6F75745F 		.ascii	"out_cb\000"
 20115      636200
 20116              	.LASF661:
 20117 0d72 4841494E 		.ascii	"HAINTMSK\000"
 20117      544D534B 
 20117      00
 20118              	.LASF571:
 20119 0d7b 6F75745F 		.ascii	"out_params\000"
 20119      70617261 
 20119      6D7300
 20120              	.LASF198:
 20121 0d86 73655F77 		.ascii	"se_wtobjp\000"
 20121      746F626A 
 20121      7000
 20122              	.LASF109:
 20123 0d90 4A535152 		.ascii	"JSQR\000"
 20123      00
 20124              	.LASF914:
 20125 0d95 76615F6C 		.ascii	"va_list\000"
 20125      69737400 
 20126              	.LASF836:
 20127 0d9d 5F737464 		.ascii	"_stdin\000"
 20127      696E00
 20128              	.LASF884:
 20129 0da4 5F6E6D61 		.ascii	"_nmalloc\000"
 20129      6C6C6F63 
 20129      00
 20130              	.LASF453:
 20131 0dad 64696572 		.ascii	"dier\000"
 20131      00
 20132              	.LASF549:
 20133 0db2 69735F70 		.ascii	"is_protected\000"
 20133      726F7465 
 20133      63746564 
 20133      00
 20134              	.LASF75:
 20135 0dbf 76697274 		.ascii	"virtual_timer_t\000"
 20135      75616C5F 
 20135      74696D65 
 20135      725F7400 
 20136              	.LASF711:
 20137 0dcf 6F75745F 		.ascii	"out_maxsize\000"
ARM GAS  C:\Users\adrie\AppData\Local\Temp\cc7EdWgE.s 			page 367


 20137      6D617873 
 20137      697A6500 
 20138              	.LASF70:
 20139 0ddb 725F6374 		.ascii	"r_ctx\000"
 20139      7800
 20140              	.LASF77:
 20141 0de1 76745F6E 		.ascii	"vt_next\000"
 20141      65787400 
 20142              	.LASF488:
 20143 0de9 4932535F 		.ascii	"I2S_STOP\000"
 20143      53544F50 
 20143      00
 20144              	.LASF503:
 20145 0df2 50574D5F 		.ascii	"PWM_STOP\000"
 20145      53544F50 
 20145      00
 20146              	.LASF951:
 20147 0dfb 6D696342 		.ascii	"micBack_cmplx_input\000"
 20147      61636B5F 
 20147      636D706C 
 20147      785F696E 
 20147      70757400 
 20148              	.LASF25:
 20149 0e0f 7274636E 		.ascii	"rtcnt_t\000"
 20149      745F7400 
 20150              	.LASF353:
 20151 0e17 6D757465 		.ascii	"mutex\000"
 20151      7800
 20152              	.LASF497:
 20153 0e1d 73697A65 		.ascii	"size\000"
 20153      00
 20154              	.LASF971:
 20155 0e22 6D61785F 		.ascii	"max_right\000"
 20155      72696768 
 20155      7400
 20156              	.LASF401:
 20157 0e2c 44414344 		.ascii	"DACDriver\000"
 20157      72697665 
 20157      7200
 20158              	.LASF417:
 20159 0e36 44414343 		.ascii	"DACConfig\000"
 20159      6F6E6669 
 20159      6700
 20160              	.LASF582:
 20161 0e40 74787065 		.ascii	"txpending\000"
 20161      6E64696E 
 20161      6700
 20162              	.LASF438:
 20163 0e4a 636C6F63 		.ascii	"clock\000"
 20163      6B00
 20164              	.LASF305:
 20165 0e50 636C6561 		.ascii	"clear\000"
 20165      7200
 20166              	.LASF448:
 20167 0e56 43435852 		.ascii	"CCXR\000"
 20167      00
 20168              	.LASF979:
ARM GAS  C:\Users\adrie\AppData\Local\Temp\cc7EdWgE.s 			page 368


 20169 0e5b 77616974 		.ascii	"wait_send_to_computer\000"
 20169      5F73656E 
 20169      645F746F 
 20169      5F636F6D 
 20169      70757465 
 20170              	.LASF139:
 20171 0e71 43414E5F 		.ascii	"CAN_TypeDef\000"
 20171      54797065 
 20171      44656600 
 20172              	.LASF755:
 20173 0e7d 5F6F6666 		.ascii	"_off_t\000"
 20173      5F7400
 20174              	.LASF200:
 20175 0e84 63685F73 		.ascii	"ch_swc_event_t\000"
 20175      77635F65 
 20175      76656E74 
 20175      5F7400
 20176              	.LASF521:
 20177 0e93 53445F53 		.ascii	"SD_STOP\000"
 20177      544F5000 
 20178              	.LASF616:
 20179 0e9b 72657376 		.ascii	"resvd8\000"
 20179      643800
 20180              	.LASF6:
 20181 0ea2 73697A65 		.ascii	"size_t\000"
 20181      5F7400
 20182              	.LASF96:
 20183 0ea9 6B65726E 		.ascii	"kernel_stats\000"
 20183      656C5F73 
 20183      74617473 
 20183      00
 20184              	.LASF683:
 20185 0eb6 72657376 		.ascii	"resvd880\000"
 20185      64383830 
 20185      00
 20186              	.LASF909:
 20187 0ebf 70617261 		.ascii	"parameter_root\000"
 20187      6D657465 
 20187      725F726F 
 20187      6F7400
 20188              	.LASF760:
 20189 0ece 5F5F636F 		.ascii	"__count\000"
 20189      756E7400 
 20190              	.LASF19:
 20191 0ed6 75696E74 		.ascii	"uint8_t\000"
 20191      385F7400 
 20192              	.LASF620:
 20193 0ede 72657376 		.ascii	"resvd14\000"
 20193      64313400 
 20194              	.LASF621:
 20195 0ee6 72657376 		.ascii	"resvd18\000"
 20195      64313800 
 20196              	.LASF72:
 20197 0eee 725F6F6C 		.ascii	"r_older\000"
 20197      64657200 
 20198              	.LASF40:
 20199 0ef6 705F7072 		.ascii	"p_prev\000"
ARM GAS  C:\Users\adrie\AppData\Local\Temp\cc7EdWgE.s 			page 369


 20199      657600
 20200              	.LASF244:
 20201 0efd 63665F6F 		.ascii	"cf_off_name\000"
 20201      66665F6E 
 20201      616D6500 
 20202              	.LASF514:
 20203 0f09 50574D43 		.ascii	"PWMChannelConfig\000"
 20203      68616E6E 
 20203      656C436F 
 20203      6E666967 
 20203      00
 20204              	.LASF513:
 20205 0f1a 70776D63 		.ascii	"pwmcnt_t\000"
 20205      6E745F74 
 20205      00
 20206              	.LASF679:
 20207 0f23 44494550 		.ascii	"DIEPEMPMSK\000"
 20207      454D504D 
 20207      534B00
 20208              	.LASF922:
 20209 0f2e 52494748 		.ascii	"RIGHT_OUTPUT\000"
 20209      545F4F55 
 20209      54505554 
 20209      00
 20210              	.LASF748:
 20211 0f3b 64636D69 		.ascii	"dcmicallback_t\000"
 20211      63616C6C 
 20211      6261636B 
 20211      5F7400
 20212              	.LASF624:
 20213 0f4a 44494550 		.ascii	"DIEPCTL\000"
 20213      43544C00 
 20214              	.LASF263:
 20215 0f52 656C5F77 		.ascii	"el_wflags\000"
 20215      666C6167 
 20215      7300
 20216              	.LASF580:
 20217 0f5c 6F746770 		.ascii	"otgparams\000"
 20217      6172616D 
 20217      7300
 20218              	.LASF201:
 20219 0f66 74625F73 		.ascii	"tb_size\000"
 20219      697A6500 
 20220              	.LASF325:
 20221 0f6e 50444461 		.ascii	"PDData\000"
 20221      746100
 20222              	.LASF544:
 20223 0f75 73637261 		.ascii	"scratchpad\000"
 20223      74636870 
 20223      616400
 20224              	.LASF850:
 20225 0f80 5F637674 		.ascii	"_cvtbuf\000"
 20225      62756600 
 20226              	.LASF713:
 20227 0f88 6F75745F 		.ascii	"out_state\000"
 20227      73746174 
 20227      6500
ARM GAS  C:\Users\adrie\AppData\Local\Temp\cc7EdWgE.s 			page 370


 20228              	.LASF267:
 20229 0f92 696F5F71 		.ascii	"io_queue_t\000"
 20229      75657565 
 20229      5F7400
 20230              	.LASF840:
 20231 0f9d 5F656D65 		.ascii	"_emergency\000"
 20231      7267656E 
 20231      637900
 20232              	.LASF560:
 20233 0fa8 73706973 		.ascii	"spistate_t\000"
 20233      74617465 
 20233      5F7400
 20234              	.LASF459:
 20235 0fb3 4932435F 		.ascii	"I2C_STOP\000"
 20235      53544F50 
 20235      00
 20236              	.LASF994:
 20237 0fbc 63616C63 		.ascii	"calcul_distance\000"
 20237      756C5F64 
 20237      69737461 
 20237      6E636500 
 20238              	.LASF481:
 20239 0fcc 61646472 		.ascii	"addr\000"
 20239      00
 20240              	.LASF124:
 20241 0fd1 52463052 		.ascii	"RF0R\000"
 20241      00
 20242              	.LASF343:
 20243 0fd6 4144435F 		.ascii	"ADC_ERR_DMAFAILURE\000"
 20243      4552525F 
 20243      444D4146 
 20243      41494C55 
 20243      524500
 20244              	.LASF558:
 20245 0fe9 5350495F 		.ascii	"SPI_ACTIVE\000"
 20245      41435449 
 20245      564500
 20246              	.LASF766:
 20247 0ff4 656E7669 		.ascii	"environ\000"
 20247      726F6E00 
 20248              	.LASF427:
 20249 0ffc 45585443 		.ascii	"EXTChannelConfig\000"
 20249      68616E6E 
 20249      656C436F 
 20249      6E666967 
 20249      00
 20250              	.LASF308:
 20251 100d 4F535045 		.ascii	"OSPEEDR\000"
 20251      45445200 
 20252              	.LASF391:
 20253 1015 4441435F 		.ascii	"DAC_READY\000"
 20253      52454144 
 20253      5900
 20254              	.LASF648:
 20255 101f 72657376 		.ascii	"resvd30\000"
 20255      64333000 
 20256              	.LASF759:
ARM GAS  C:\Users\adrie\AppData\Local\Temp\cc7EdWgE.s 			page 371


 20257 1027 5F5F7763 		.ascii	"__wchb\000"
 20257      686200
 20258              	.LASF649:
 20259 102e 72657376 		.ascii	"resvd34\000"
 20259      64333400 
 20260              	.LASF677:
 20261 1036 44564255 		.ascii	"DVBUSPULSE\000"
 20261      5350554C 
 20261      534500
 20262              	.LASF799:
 20263 1041 5F5F746D 		.ascii	"__tm_hour\000"
 20263      5F686F75 
 20263      7200
 20264              	.LASF292:
 20265 104b 424C4B5F 		.ascii	"BLK_STOP\000"
 20265      53544F50 
 20265      00
 20266              	.LASF529:
 20267 1054 53657269 		.ascii	"SerialDriverVMT\000"
 20267      616C4472 
 20267      69766572 
 20267      564D5400 
 20268              	.LASF598:
 20269 1064 5553425F 		.ascii	"USB_EP0_ERROR\000"
 20269      4550305F 
 20269      4552524F 
 20269      5200
 20270              	.LASF1038:
 20271 1072 61726D5F 		.ascii	"arm_cmplx_mag_f32\000"
 20271      636D706C 
 20271      785F6D61 
 20271      675F6633 
 20271      3200
 20272              	.LASF1005:
 20273 1084 6D6F7965 		.ascii	"moyenne_left\000"
 20273      6E6E655F 
 20273      6C656674 
 20273      00
 20274              	.LASF757:
 20275 1091 77696E74 		.ascii	"wint_t\000"
 20275      5F7400
 20276              	.LASF550:
 20277 1098 636F6E6E 		.ascii	"connect\000"
 20277      65637400 
 20278              	.LASF125:
 20279 10a0 52463152 		.ascii	"RF1R\000"
 20279      00
 20280              	.LASF346:
 20281 10a5 41444344 		.ascii	"ADCDriver\000"
 20281      72697665 
 20281      7200
 20282              	.LASF691:
 20283 10af 6E756D5F 		.ascii	"num_endpoints\000"
 20283      656E6470 
 20283      6F696E74 
 20283      7300
 20284              	.LASF369:
ARM GAS  C:\Users\adrie\AppData\Local\Temp\cc7EdWgE.s 			page 372


 20285 10bd 41444343 		.ascii	"ADCConfig\000"
 20285      6F6E6669 
 20285      6700
 20286              	.LASF699:
 20287 10c7 746F7473 		.ascii	"totsize\000"
 20287      697A6500 
 20288              	.LASF907:
 20289 10cf 5F706172 		.ascii	"_param_val_matrix_s\000"
 20289      616D5F76 
 20289      616C5F6D 
 20289      61747269 
 20289      785F7300 
 20290              	.LASF858:
 20291 10e3 5F6E696F 		.ascii	"_niobs\000"
 20291      627300
 20292              	.LASF522:
 20293 10ea 53445F52 		.ascii	"SD_READY\000"
 20293      45414459 
 20293      00
 20294              	.LASF614:
 20295 10f3 75736267 		.ascii	"usbgetdescriptor_t\000"
 20295      65746465 
 20295      73637269 
 20295      70746F72 
 20295      5F7400
 20296              	.LASF1042:
 20297 1106 474E5520 		.ascii	"GNU C11 7.2.1 20170904 (release) [ARM/embedded-7-br"
 20297      43313120 
 20297      372E322E 
 20297      31203230 
 20297      31373039 
 20298 1139 616E6368 		.ascii	"anch revision 255204] -mcpu=cortex-m4 -mfloat-abi=h"
 20298      20726576 
 20298      6973696F 
 20298      6E203235 
 20298      35323034 
 20299 116c 61726420 		.ascii	"ard -mfpu=fpv4-sp-d16 -mno-thumb-interwork -mthumb "
 20299      2D6D6670 
 20299      753D6670 
 20299      76342D73 
 20299      702D6431 
 20300 119f 2D676764 		.ascii	"-ggdb -O2 -fomit-frame-pointer -falign-functions=16"
 20300      62202D4F 
 20300      32202D66 
 20300      6F6D6974 
 20300      2D667261 
 20301 11d2 202D666E 		.ascii	" -fno-strict-aliasing -fstack-protector-all -ffunct"
 20301      6F2D7374 
 20301      72696374 
 20301      2D616C69 
 20301      6173696E 
 20302 1205 696F6E2D 		.ascii	"ion-sections -fdata-sections -fno-common -fsingle-p"
 20302      73656374 
 20302      696F6E73 
 20302      202D6664 
 20302      6174612D 
 20303 1238 72656369 		.ascii	"recision-constant\000"
ARM GAS  C:\Users\adrie\AppData\Local\Temp\cc7EdWgE.s 			page 373


 20303      73696F6E 
 20303      2D636F6E 
 20303      7374616E 
 20303      7400
 20304              	.LASF945:
 20305 124a 6E62725F 		.ascii	"nbr_passage\000"
 20305      70617373 
 20305      61676500 
 20306              	.LASF394:
 20307 1256 4441435F 		.ascii	"DAC_ERROR\000"
 20307      4552524F 
 20307      5200
 20308              	.LASF835:
 20309 1260 5F657272 		.ascii	"_errno\000"
 20309      6E6F00
 20310              	.LASF786:
 20311 1267 6D657373 		.ascii	"messagebus_t\000"
 20311      61676562 
 20311      75735F74 
 20311      00
 20312              	.LASF593:
 20313 1274 5553425F 		.ascii	"USB_EP0_TX\000"
 20313      4550305F 
 20313      545800
 20314              	.LASF572:
 20315 127f 65703073 		.ascii	"ep0state\000"
 20315      74617465 
 20315      00
 20316              	.LASF898:
 20317 1288 70617261 		.ascii	"parameter_s\000"
 20317      6D657465 
 20317      725F7300 
 20318              	.LASF772:
 20319 1294 746F7069 		.ascii	"topic_s\000"
 20319      635F7300 
 20320              	.LASF285:
 20321 129c 69666372 		.ascii	"ifcr\000"
 20321      00
 20322              	.LASF487:
 20323 12a1 4932535F 		.ascii	"I2S_UNINIT\000"
 20323      554E494E 
 20323      495400
 20324              	.LASF729:
 20325 12ac 62756C6B 		.ascii	"bulk_in\000"
 20325      5F696E00 
 20326              	.LASF314:
 20327 12b4 73746D33 		.ascii	"stm32_gpio_t\000"
 20327      325F6770 
 20327      696F5F74 
 20327      00
 20328              	.LASF217:
 20329 12c1 7264796D 		.ascii	"rdymsg\000"
 20329      736700
 20330              	.LASF807:
 20331 12c8 5F666E61 		.ascii	"_fnargs\000"
 20331      72677300 
 20332              	.LASF504:
ARM GAS  C:\Users\adrie\AppData\Local\Temp\cc7EdWgE.s 			page 374


 20333 12d0 50574D5F 		.ascii	"PWM_READY\000"
 20333      52454144 
 20333      5900
 20334              	.LASF115:
 20335 12da 54445452 		.ascii	"TDTR\000"
 20335      00
 20336              	.LASF123:
 20337 12df 43414E5F 		.ascii	"CAN_FilterRegister_TypeDef\000"
 20337      46696C74 
 20337      65725265 
 20337      67697374 
 20337      65725F54 
 20338              	.LASF384:
 20339 12fa 6572726F 		.ascii	"error_event\000"
 20339      725F6576 
 20339      656E7400 
 20340              	.LASF359:
 20341 1306 6E756D5F 		.ascii	"num_channels\000"
 20341      6368616E 
 20341      6E656C73 
 20341      00
 20342              	.LASF651:
 20343 1313 72657376 		.ascii	"resvd58\000"
 20343      64353800 
 20344              	.LASF700:
 20345 131b 55534249 		.ascii	"USBInEndpointState\000"
 20345      6E456E64 
 20345      706F696E 
 20345      74537461 
 20345      746500
 20346              	.LASF41:
 20347 132e 705F7072 		.ascii	"p_prio\000"
 20347      696F00
 20348              	.LASF900:
 20349 1335 64656669 		.ascii	"defined\000"
 20349      6E656400 
 20350              	.LASF268:
 20351 133d 696F5F71 		.ascii	"io_queue\000"
 20351      75657565 
 20351      00
 20352              	.LASF990:
 20353 1346 63616C63 		.ascii	"calcul_angle\000"
 20353      756C5F61 
 20353      6E676C65 
 20353      00
 20354              	.LASF1041:
 20355 1353 7365745F 		.ascii	"set_led\000"
 20355      6C656400 
 20356              	.LASF322:
 20357 135b 50414461 		.ascii	"PAData\000"
 20357      746100
 20358              	.LASF17:
 20359 1362 5F5F7569 		.ascii	"__uint64_t\000"
 20359      6E743634 
 20359      5F7400
 20360              	.LASF1009:
 20361 136d 666F726D 		.ascii	"formatted_bytes\000"
ARM GAS  C:\Users\adrie\AppData\Local\Temp\cc7EdWgE.s 			page 375


 20361      61747465 
 20361      645F6279 
 20361      74657300 
 20362              	.LASF792:
 20363 137d 5F6E6578 		.ascii	"_next\000"
 20363      7400
 20364              	.LASF912:
 20365 1383 53445531 		.ascii	"SDU1\000"
 20365      00
 20366              	.LASF996:
 20367 1388 696E7465 		.ascii	"intensite_transition\000"
 20367      6E736974 
 20367      655F7472 
 20367      616E7369 
 20367      74696F6E 
 20368              	.LASF509:
 20369 139d 70776D63 		.ascii	"pwmcallback_t\000"
 20369      616C6C62 
 20369      61636B5F 
 20369      7400
 20370              	.LASF940:
 20371 13ab 4E554D5F 		.ascii	"NUM_LED\000"
 20371      4C454400 
 20372              	.LASF402:
 20373 13b3 70617261 		.ascii	"params\000"
 20373      6D7300
 20374              	.LASF597:
 20375 13ba 5553425F 		.ascii	"USB_EP0_SENDING_STS\000"
 20375      4550305F 
 20375      53454E44 
 20375      494E475F 
 20375      53545300 
 20376              	.LASF875:
 20377 13ce 5F736967 		.ascii	"_signal_buf\000"
 20377      6E616C5F 
 20377      62756600 
 20378              	.LASF731:
 20379 13da 696E745F 		.ascii	"int_in\000"
 20379      696E00
 20380              	.LASF464:
 20381 13e1 69326373 		.ascii	"i2cstate_t\000"
 20381      74617465 
 20381      5F7400
 20382              	.LASF821:
 20383 13ec 5F636F6F 		.ascii	"_cookie\000"
 20383      6B696500 
 20384              	.LASF891:
 20385 13f4 70617261 		.ascii	"parameter_namespace_t\000"
 20385      6D657465 
 20385      725F6E61 
 20385      6D657370 
 20385      6163655F 
 20386              	.LASF599:
 20387 140a 75736265 		.ascii	"usbep0state_t\000"
 20387      70307374 
 20387      6174655F 
 20387      7400
ARM GAS  C:\Users\adrie\AppData\Local\Temp\cc7EdWgE.s 			page 376


 20388              	.LASF406:
 20389 1418 64616365 		.ascii	"dacerror_t\000"
 20389      72726F72 
 20389      5F7400
 20390              	.LASF127:
 20391 1423 7354784D 		.ascii	"sTxMailBox\000"
 20391      61696C42 
 20391      6F7800
 20392              	.LASF341:
 20393 142e 61646373 		.ascii	"adcsample_t\000"
 20393      616D706C 
 20393      655F7400 
 20394              	.LASF439:
 20395 143a 67707463 		.ascii	"gptcallback_t\000"
 20395      616C6C62 
 20395      61636B5F 
 20395      7400
 20396              	.LASF271:
 20397 1448 715F6275 		.ascii	"q_buffer\000"
 20397      66666572 
 20397      00
 20398              	.LASF39:
 20399 1451 705F6E65 		.ascii	"p_next\000"
 20399      787400
 20400              	.LASF486:
 20401 1458 49324344 		.ascii	"I2CD1\000"
 20401      3100
 20402              	.LASF625:
 20403 145e 72657376 		.ascii	"resvd4\000"
 20403      643400
 20404              	.LASF567:
 20405 1465 55534244 		.ascii	"USBDriver\000"
 20405      72697665 
 20405      7200
 20406              	.LASF684:
 20407 146f 72657376 		.ascii	"resvd8C0\000"
 20407      64384330 
 20407      00
 20408              	.LASF721:
 20409 1478 55534243 		.ascii	"USBConfig\000"
 20409      6F6E6669 
 20409      6700
 20410              	.LASF627:
 20411 1482 72657376 		.ascii	"resvdC\000"
 20411      644300
 20412              	.LASF516:
 20413 1489 50574D44 		.ascii	"PWMD2\000"
 20413      3200
 20414              	.LASF517:
 20415 148f 50574D44 		.ascii	"PWMD3\000"
 20415      3300
 20416              	.LASF518:
 20417 1495 50574D44 		.ascii	"PWMD4\000"
 20417      3400
 20418              	.LASF519:
 20419 149b 50574D44 		.ascii	"PWMD5\000"
 20419      3500
ARM GAS  C:\Users\adrie\AppData\Local\Temp\cc7EdWgE.s 			page 377


 20420              	.LASF1004:
 20421 14a1 6D6F7965 		.ascii	"moyenne_right\000"
 20421      6E6E655F 
 20421      72696768 
 20421      7400
 20422              	.LASF527:
 20423 14af 6F717565 		.ascii	"oqueue\000"
 20423      756500
 20424              	.LASF29:
 20425 14b6 74726566 		.ascii	"trefs_t\000"
 20425      735F7400 
 20426              	.LASF58:
 20427 14be 705F6D70 		.ascii	"p_mpool\000"
 20427      6F6F6C00 
 20428              	.LASF983:
 20429 14c6 706F696E 		.ascii	"point\000"
 20429      7400
 20430              	.LASF414:
 20431 14cc 44414343 		.ascii	"DACConversionGroup\000"
 20431      6F6E7665 
 20431      7273696F 
 20431      6E47726F 
 20431      757000
 20432              	.LASF157:
 20433 14df 43575354 		.ascii	"CWSTRTR\000"
 20433      52545200 
 20434              	.LASF797:
 20435 14e7 5F5F746D 		.ascii	"__tm_sec\000"
 20435      5F736563 
 20435      00
 20436              	.LASF714:
 20437 14f0 696E5F6D 		.ascii	"in_multiplier\000"
 20437      756C7469 
 20437      706C6965 
 20437      7200
 20438              	.LASF339:
 20439 14fe 4144435F 		.ascii	"ADC_ERROR\000"
 20439      4552524F 
 20439      5200
 20440              	.LASF806:
 20441 1508 5F6F6E5F 		.ascii	"_on_exit_args\000"
 20441      65786974 
 20441      5F617267 
 20441      7300
 20442              	.LASF923:
 20443 1516 46524F4E 		.ascii	"FRONT_OUTPUT\000"
 20443      545F4F55 
 20443      54505554 
 20443      00
 20444              	.LASF920:
 20445 1523 4241434B 		.ascii	"BACK_CMPLX_INPUT\000"
 20445      5F434D50 
 20445      4C585F49 
 20445      4E505554 
 20445      00
 20446              	.LASF867:
 20447 1534 5F6C6F63 		.ascii	"_localtime_buf\000"
ARM GAS  C:\Users\adrie\AppData\Local\Temp\cc7EdWgE.s 			page 378


 20447      616C7469 
 20447      6D655F62 
 20447      756600
 20448              	.LASF27:
 20449 1543 746D6F64 		.ascii	"tmode_t\000"
 20449      655F7400 
 20450              	.LASF743:
 20451 154b 44434D49 		.ascii	"DCMI_ERROR\000"
 20451      5F455252 
 20451      4F5200
 20452              	.LASF337:
 20453 1556 4144435F 		.ascii	"ADC_ACTIVE\000"
 20453      41435449 
 20453      564500
 20454              	.LASF815:
 20455 1561 5F626173 		.ascii	"_base\000"
 20455      6500
 20456              	.LASF106:
 20457 1567 53515231 		.ascii	"SQR1\000"
 20457      00
 20458              	.LASF107:
 20459 156c 53515232 		.ascii	"SQR2\000"
 20459      00
 20460              	.LASF108:
 20461 1571 53515233 		.ascii	"SQR3\000"
 20461      00
 20462              	.LASF310:
 20463 1576 42535252 		.ascii	"BSRR\000"
 20463      00
 20464              	.LASF289:
 20465 157b 73746D33 		.ascii	"stm32_dma_stream_t\000"
 20465      325F646D 
 20465      615F7374 
 20465      7265616D 
 20465      5F7400
 20466              	.LASF719:
 20467 158e 72657175 		.ascii	"requests_hook_cb\000"
 20467      65737473 
 20467      5F686F6F 
 20467      6B5F6362 
 20467      00
 20468              	.LASF880:
 20469 159f 5F776372 		.ascii	"_wcrtomb_state\000"
 20469      746F6D62 
 20469      5F737461 
 20469      746500
 20470              	.LASF536:
 20471 15ae 5344435F 		.ascii	"SDC_MODE_8BIT\000"
 20471      4D4F4445 
 20471      5F384249 
 20471      5400
 20472              	.LASF1035:
 20473 15bc 63685365 		.ascii	"chSemSignalI\000"
 20473      6D536967 
 20473      6E616C49 
 20473      00
 20474              	.LASF697:
ARM GAS  C:\Users\adrie\AppData\Local\Temp\cc7EdWgE.s 			page 379


 20475 15c9 74787369 		.ascii	"txsize\000"
 20475      7A6500
 20476              	.LASF929:
 20477 15d0 4241434B 		.ascii	"BACK\000"
 20477      00
 20478              	.LASF410:
 20479 15d5 4441435F 		.ascii	"DAC_DHRM_12BIT_LEFT\000"
 20479      4448524D 
 20479      5F313242 
 20479      49545F4C 
 20479      45465400 
 20480              	.LASF917:
 20481 15e9 4C454654 		.ascii	"LEFT_CMPLX_INPUT\000"
 20481      5F434D50 
 20481      4C585F49 
 20481      4E505554 
 20481      00
 20482              	.LASF507:
 20483 15fa 70657269 		.ascii	"period\000"
 20483      6F6400
 20484              	.LASF941:
 20485 1601 73656E64 		.ascii	"sendToComputer_sem\000"
 20485      546F436F 
 20485      6D707574 
 20485      65725F73 
 20485      656D00
 20486              	.LASF463:
 20487 1614 4932435F 		.ascii	"I2C_LOCKED\000"
 20487      4C4F434B 
 20487      454400
 20488              	.LASF1011:
 20489 161f 63684253 		.ascii	"chBSemSignalI\000"
 20489      656D5369 
 20489      676E616C 
 20489      4900
 20490              	.LASF88:
 20491 162d 6973725F 		.ascii	"isr_cnt\000"
 20491      636E7400 
 20492              	.LASF588:
 20493 1635 5553425F 		.ascii	"USB_READY\000"
 20493      52454144 
 20493      5900
 20494              	.LASF533:
 20495 163f 72656164 		.ascii	"readt\000"
 20495      7400
 20496              	.LASF832:
 20497 1645 5F6D6273 		.ascii	"_mbstate\000"
 20497      74617465 
 20497      00
 20498              	.LASF640:
 20499 164e 47525354 		.ascii	"GRSTCTL\000"
 20499      43544C00 
 20500              	.LASF436:
 20501 1656 67707473 		.ascii	"gptstate_t\000"
 20501      74617465 
 20501      5F7400
 20502              	.LASF790:
ARM GAS  C:\Users\adrie\AppData\Local\Temp\cc7EdWgE.s 			page 380


 20503 1661 5F5F554C 		.ascii	"__ULong\000"
 20503      6F6E6700 
 20504              	.LASF87:
 20505 1669 70616E69 		.ascii	"panic_msg\000"
 20505      635F6D73 
 20505      6700
 20506              	.LASF559:
 20507 1673 5350495F 		.ascii	"SPI_COMPLETE\000"
 20507      434F4D50 
 20507      4C455445 
 20507      00
 20508              	.LASF930:
 20509 1680 4D494352 		.ascii	"MICRO_NAME\000"
 20509      4F5F4E41 
 20509      4D4500
 20510              	.LASF176:
 20511 168b 4454494D 		.ascii	"DTIMER\000"
 20511      455200
 20512              	.LASF71:
 20513 1692 725F6E65 		.ascii	"r_newer\000"
 20513      77657200 
 20514              	.LASF605:
 20515 169a 5553425F 		.ascii	"USB_EVENT_STALLED\000"
 20515      4556454E 
 20515      545F5354 
 20515      414C4C45 
 20515      4400
 20516              	.LASF251:
 20517 16ac 63686465 		.ascii	"chdebug_t\000"
 20517      6275675F 
 20517      7400
 20518              	.LASF1027:
 20519 16b6 5F646267 		.ascii	"_dbg_check_unlock\000"
 20519      5F636865 
 20519      636B5F75 
 20519      6E6C6F63 
 20519      6B00
 20520              	.LASF703:
 20521 16c8 72787369 		.ascii	"rxsize\000"
 20521      7A6500
 20522              	.LASF619:
 20523 16cf 48435453 		.ascii	"HCTSIZ\000"
 20523      495A00
 20524              	.LASF602:
 20525 16d6 5553425F 		.ascii	"USB_EVENT_CONFIGURED\000"
 20525      4556454E 
 20525      545F434F 
 20525      4E464947 
 20525      55524544 
 20526              	.LASF551:
 20527 16eb 64697363 		.ascii	"disconnect\000"
 20527      6F6E6E65 
 20527      637400
 20528              	.LASF770:
 20529 16f6 6F70746F 		.ascii	"optopt\000"
 20529      707400
 20530              	.LASF530:
ARM GAS  C:\Users\adrie\AppData\Local\Temp\cc7EdWgE.s 			page 381


 20531 16fd 70757474 		.ascii	"putt\000"
 20531      00
 20532              	.LASF30:
 20533 1702 74736C69 		.ascii	"tslices_t\000"
 20533      6365735F 
 20533      7400
 20534              	.LASF865:
 20535 170c 5F737472 		.ascii	"_strtok_last\000"
 20535      746F6B5F 
 20535      6C617374 
 20535      00
 20536              	.LASF238:
 20537 1719 63685F74 		.ascii	"ch_timesize\000"
 20537      696D6573 
 20537      697A6500 
 20538              	.LASF950:
 20539 1725 6D696346 		.ascii	"micFront_cmplx_input\000"
 20539      726F6E74 
 20539      5F636D70 
 20539      6C785F69 
 20539      6E707574 
 20540              	.LASF584:
 20541 173a 77615F70 		.ascii	"wa_pump\000"
 20541      756D7000 
 20542              	.LASF181:
 20543 1742 4649464F 		.ascii	"FIFOCNT\000"
 20543      434E5400 
 20544              	.LASF266:
 20545 174a 6576656E 		.ascii	"event_source_t\000"
 20545      745F736F 
 20545      75726365 
 20545      5F7400
 20546              	.LASF654:
 20547 1759 72657376 		.ascii	"resvd140\000"
 20547      64313430 
 20547      00
 20548              	.LASF79:
 20549 1762 76745F64 		.ascii	"vt_delta\000"
 20549      656C7461 
 20549      00
 20550              	.LASF861:
 20551 176b 5F736565 		.ascii	"_seed\000"
 20551      6400
 20552              	.LASF202:
 20553 1771 74625F70 		.ascii	"tb_ptr\000"
 20553      747200
 20554              	.LASF413:
 20555 1778 74726967 		.ascii	"trigger\000"
 20555      67657200 
 20556              	.LASF824:
 20557 1780 5F736565 		.ascii	"_seek\000"
 20557      6B00
 20558              	.LASF603:
 20559 1786 5553425F 		.ascii	"USB_EVENT_SUSPEND\000"
 20559      4556454E 
 20559      545F5355 
 20559      5350454E 
ARM GAS  C:\Users\adrie\AppData\Local\Temp\cc7EdWgE.s 			page 382


 20559      4400
 20560              	.LASF20:
 20561 1798 696E7431 		.ascii	"int16_t\000"
 20561      365F7400 
 20562              	.LASF432:
 20563 17a0 4750545F 		.ascii	"GPT_STOP\000"
 20563      53544F50 
 20563      00
 20564              	.LASF114:
 20565 17a9 4144435F 		.ascii	"ADC_TypeDef\000"
 20565      54797065 
 20565      44656600 
 20566              	.LASF12:
 20567 17b5 73686F72 		.ascii	"short unsigned int\000"
 20567      7420756E 
 20567      7369676E 
 20567      65642069 
 20567      6E7400
 20568              	.LASF475:
 20569 17c8 6F705F6D 		.ascii	"op_mode\000"
 20569      6F646500 
 20570              	.LASF5:
 20571 17d0 7369676E 		.ascii	"signed char\000"
 20571      65642063 
 20571      68617200 
 20572              	.LASF897:
 20573 17dc 70617261 		.ascii	"parameter_t\000"
 20573      6D657465 
 20573      725F7400 
 20574              	.LASF542:
 20575 17e8 63617264 		.ascii	"cardmode\000"
 20575      6D6F6465 
 20575      00
 20576              	.LASF50:
 20577 17f1 705F7072 		.ascii	"p_preempt\000"
 20577      65656D70 
 20577      7400
 20578              	.LASF36:
 20579 17fb 75636E74 		.ascii	"ucnt_t\000"
 20579      5F7400
 20580              	.LASF117:
 20581 1802 54444852 		.ascii	"TDHR\000"
 20581      00
 20582              	.LASF335:
 20583 1807 4144435F 		.ascii	"ADC_STOP\000"
 20583      53544F50 
 20583      00
 20584              	.LASF596:
 20585 1810 5553425F 		.ascii	"USB_EP0_RX\000"
 20585      4550305F 
 20585      525800
 20586              	.LASF931:
 20587 181b 5F5F6664 		.ascii	"__fdlibm_ieee\000"
 20587      6C69626D 
 20587      5F696565 
 20587      6500
 20588              	.LASF510:
ARM GAS  C:\Users\adrie\AppData\Local\Temp\cc7EdWgE.s 			page 383


 20589 1829 70776D6D 		.ascii	"pwmmode_t\000"
 20589      6F64655F 
 20589      7400
 20590              	.LASF577:
 20591 1833 73746174 		.ascii	"status\000"
 20591      757300
 20592              	.LASF177:
 20593 183a 444C454E 		.ascii	"DLEN\000"
 20593      00
 20594              	.LASF535:
 20595 183f 5344435F 		.ascii	"SDC_MODE_4BIT\000"
 20595      4D4F4445 
 20595      5F344249 
 20595      5400
 20596              	.LASF609:
 20597 184d 55534244 		.ascii	"USBDescriptor\000"
 20597      65736372 
 20597      6970746F 
 20597      7200
 20598              	.LASF562:
 20599 185b 73706963 		.ascii	"spicallback_t\000"
 20599      616C6C62 
 20599      61636B5F 
 20599      7400
 20600              	.LASF1018:
 20601 1869 5F5F6675 		.ascii	"__func__\000"
 20601      6E635F5F 
 20601      00
 20602              	.LASF848:
 20603 1872 5F667265 		.ascii	"_freelist\000"
 20603      656C6973 
 20603      7400
 20604              	.LASF578:
 20605 187c 61646472 		.ascii	"address\000"
 20605      65737300 
 20606              	.LASF53:
 20607 1884 705F6D73 		.ascii	"p_msgqueue\000"
 20607      67717565 
 20607      756500
 20608              	.LASF248:
 20609 188f 63665F6F 		.ascii	"cf_off_refs\000"
 20609      66665F72 
 20609      65667300 
 20610              	.LASF956:
 20611 189b 77615069 		.ascii	"waPiRegulator\000"
 20611      52656775 
 20611      6C61746F 
 20611      7200
 20612              	.LASF546:
 20613 18a9 53444343 		.ascii	"SDCConfig\000"
 20613      6F6E6669 
 20613      6700
 20614              	.LASF229:
 20615 18b3 6D5F6F77 		.ascii	"m_owner\000"
 20615      6E657200 
 20616              	.LASF1010:
 20617 18bb 63684253 		.ascii	"chBSemSignal\000"
ARM GAS  C:\Users\adrie\AppData\Local\Temp\cc7EdWgE.s 			page 384


 20617      656D5369 
 20617      676E616C 
 20617      00
 20618              	.LASF829:
 20619 18c8 5F6F6666 		.ascii	"_offset\000"
 20619      73657400 
 20620              	.LASF905:
 20621 18d0 5F706172 		.ascii	"_param_val_vector_s\000"
 20621      616D5F76 
 20621      616C5F76 
 20621      6563746F 
 20621      725F7300 
 20622              	.LASF99:
 20623 18e4 53797374 		.ascii	"SystemCoreClock\000"
 20623      656D436F 
 20623      7265436C 
 20623      6F636B00 
 20624              	.LASF357:
 20625 18f4 61646365 		.ascii	"adcerrorcallback_t\000"
 20625      72726F72 
 20625      63616C6C 
 20625      6261636B 
 20625      5F7400
 20626              	.LASF392:
 20627 1907 4441435F 		.ascii	"DAC_ACTIVE\000"
 20627      41435449 
 20627      564500
 20628              	.LASF347:
 20629 1912 73746174 		.ascii	"state\000"
 20629      6500
 20630              	.LASF236:
 20631 1918 63685F76 		.ascii	"ch_version\000"
 20631      65727369 
 20631      6F6E00
 20632              	.LASF814:
 20633 1923 5F5F7362 		.ascii	"__sbuf\000"
 20633      756600
 20634              	.LASF543:
 20635 192a 7364696F 		.ascii	"sdio\000"
 20635      00
 20636              	.LASF140:
 20637 192f 53575452 		.ascii	"SWTRIGR\000"
 20637      49475200 
 20638              	.LASF595:
 20639 1937 5553425F 		.ascii	"USB_EP0_WAITING_STS\000"
 20639      4550305F 
 20639      57414954 
 20639      494E475F 
 20639      53545300 
 20640              	.LASF168:
 20641 194b 4932435F 		.ascii	"I2C_TypeDef\000"
 20641      54797065 
 20641      44656600 
 20642              	.LASF977:
 20643 1957 6765745F 		.ascii	"get_max_norm_index\000"
 20643      6D61785F 
 20643      6E6F726D 
ARM GAS  C:\Users\adrie\AppData\Local\Temp\cc7EdWgE.s 			page 385


 20643      5F696E64 
 20643      657800
 20644              	.LASF121:
 20645 196a 52444852 		.ascii	"RDHR\000"
 20645      00
 20646              	.LASF769:
 20647 196f 6F707465 		.ascii	"opterr\000"
 20647      727200
 20648              	.LASF863:
 20649 1976 5F616464 		.ascii	"_add\000"
 20649      00
 20650              	.LASF446:
 20651 197b 444D4152 		.ascii	"DMAR\000"
 20651      00
 20652              	.LASF452:
 20653 1980 63616C6C 		.ascii	"callback\000"
 20653      6261636B 
 20653      00
 20654              	.LASF92:
 20655 1989 63685F73 		.ascii	"ch_system\000"
 20655      79737465 
 20655      6D00
 20656              	.LASF169:
 20657 1993 504F5745 		.ascii	"POWER\000"
 20657      5200
 20658              	.LASF834:
 20659 1999 5F726565 		.ascii	"_reent\000"
 20659      6E7400
 20660              	.LASF90:
 20661 19a0 74726163 		.ascii	"trace_buffer\000"
 20661      655F6275 
 20661      66666572 
 20661      00
 20662              	.LASF874:
 20663 19ad 5F6C3634 		.ascii	"_l64a_buf\000"
 20663      615F6275 
 20663      6600
 20664              	.LASF866:
 20665 19b7 5F617363 		.ascii	"_asctime_buf\000"
 20665      74696D65 
 20665      5F627566 
 20665      00
 20666              	.LASF411:
 20667 19c4 4441435F 		.ascii	"DAC_DHRM_8BIT_RIGHT\000"
 20667      4448524D 
 20667      5F384249 
 20667      545F5249 
 20667      47485400 
 20668              	.LASF431:
 20669 19d8 4750545F 		.ascii	"GPT_UNINIT\000"
 20669      554E494E 
 20669      495400
 20670              	.LASF758:
 20671 19e3 5F5F7763 		.ascii	"__wch\000"
 20671      6800
 20672              	.LASF761:
 20673 19e9 5F5F7661 		.ascii	"__value\000"
ARM GAS  C:\Users\adrie\AppData\Local\Temp\cc7EdWgE.s 			page 386


 20673      6C756500 
 20674              	.LASF224:
 20675 19f1 63685F73 		.ascii	"ch_semaphore\000"
 20675      656D6170 
 20675      686F7265 
 20675      00
 20676              	.LASF881:
 20677 19fe 5F776373 		.ascii	"_wcsrtombs_state\000"
 20677      72746F6D 
 20677      62735F73 
 20677      74617465 
 20677      00
 20678              	.LASF733:
 20679 1a0f 53657269 		.ascii	"SerialUSBDriverVMT\000"
 20679      616C5553 
 20679      42447269 
 20679      76657256 
 20679      4D5400
 20680              	.LASF925:
 20681 1a22 42554646 		.ascii	"BUFFER_NAME_t\000"
 20681      45525F4E 
 20681      414D455F 
 20681      7400
 20682              	.LASF745:
 20683 1a30 64636D69 		.ascii	"dcmistate_t\000"
 20683      73746174 
 20683      655F7400 
 20684              	.LASF628:
 20685 1a3c 44494550 		.ascii	"DIEPTSIZ\000"
 20685      5453495A 
 20685      00
 20686              	.LASF1020:
 20687 1a45 706F7274 		.ascii	"port_unlock\000"
 20687      5F756E6C 
 20687      6F636B00 
 20688              	.LASF903:
 20689 1a51 5F706172 		.ascii	"_param_val_str_s\000"
 20689      616D5F76 
 20689      616C5F73 
 20689      74725F73 
 20689      00
 20690              	.LASF362:
 20691 1a62 736D7072 		.ascii	"smpr1\000"
 20691      3100
 20692              	.LASF363:
 20693 1a68 736D7072 		.ascii	"smpr2\000"
 20693      3200
 20694              	.LASF1000:
 20695 1a6e 6E6F726D 		.ascii	"norm_right\000"
 20695      5F726967 
 20695      687400
 20696              	.LASF1031:
 20697 1a79 6C656674 		.ascii	"left_motor_set_speed\000"
 20697      5F6D6F74 
 20697      6F725F73 
 20697      65745F73 
 20697      70656564 
ARM GAS  C:\Users\adrie\AppData\Local\Temp\cc7EdWgE.s 			page 387


 20698              	.LASF64:
 20699 1a8e 74687265 		.ascii	"threads_queue_t\000"
 20699      6164735F 
 20699      71756575 
 20699      655F7400 
 20700              	.LASF300:
 20701 1a9e 626C6B73 		.ascii	"blkstate_t\000"
 20701      74617465 
 20701      5F7400
 20702              	.LASF1045:
 20703 1aa9 5F5F6664 		.ascii	"__fdlibm_version\000"
 20703      6C69626D 
 20703      5F766572 
 20703      73696F6E 
 20703      00
 20704              	.LASF1019:
 20705 1aba 63685379 		.ascii	"chSysLock\000"
 20705      734C6F63 
 20705      6B00
 20706              	.LASF51:
 20707 1ac4 705F7469 		.ascii	"p_time\000"
 20707      6D6500
 20708              	.LASF49:
 20709 1acb 705F7265 		.ascii	"p_refs\000"
 20709      667300
 20710              	.LASF706:
 20711 1ad2 65705F6D 		.ascii	"ep_mode\000"
 20711      6F646500 
 20712              	.LASF511:
 20713 1ada 70776D63 		.ascii	"pwmchannel_t\000"
 20713      68616E6E 
 20713      656C5F74 
 20713      00
 20714              	.LASF1047:
 20715 1ae7 50695265 		.ascii	"PiRegulator\000"
 20715      67756C61 
 20715      746F7200 
 20716              	.LASF116:
 20717 1af3 54444C52 		.ascii	"TDLR\000"
 20717      00
 20718              	.LASF14:
 20719 1af8 6C6F6E67 		.ascii	"long int\000"
 20719      20696E74 
 20719      00
 20720              	.LASF95:
 20721 1b01 6D61696E 		.ascii	"mainthread\000"
 20721      74687265 
 20721      616400
 20722              	.LASF1032:
 20723 1b0c 72696768 		.ascii	"right_motor_set_speed\000"
 20723      745F6D6F 
 20723      746F725F 
 20723      7365745F 
 20723      73706565 
 20724              	.LASF574:
 20725 1b22 6570306E 		.ascii	"ep0n\000"
 20725      00
ARM GAS  C:\Users\adrie\AppData\Local\Temp\cc7EdWgE.s 			page 388


 20726              	.LASF687:
 20727 1b27 72657376 		.ascii	"resvdE04\000"
 20727      64453034 
 20727      00
 20728              	.LASF228:
 20729 1b30 6D5F7175 		.ascii	"m_queue\000"
 20729      65756500 
 20730              	.LASF399:
 20731 1b38 646D6169 		.ascii	"dmairqprio\000"
 20731      72717072 
 20731      696F00
 20732              	.LASF437:
 20733 1b43 47505444 		.ascii	"GPTDriver\000"
 20733      72697665 
 20733      7200
 20734              	.LASF539:
 20735 1b4d 73646366 		.ascii	"sdcflags_t\000"
 20735      6C616773 
 20735      5F7400
 20736              	.LASF329:
 20737 1b58 50484461 		.ascii	"PHData\000"
 20737      746100
 20738              	.LASF332:
 20739 1b5f 696F706F 		.ascii	"ioportid_t\000"
 20739      72746964 
 20739      5F7400
 20740              	.LASF783:
 20741 1b6a 6D657373 		.ascii	"messagebus_topic_t\000"
 20741      61676562 
 20741      75735F74 
 20741      6F706963 
 20741      5F7400
 20742              	.LASF370:
 20743 1b7d 41444344 		.ascii	"ADCD1\000"
 20743      3100
 20744              	.LASF371:
 20745 1b83 41444344 		.ascii	"ADCD2\000"
 20745      3200
 20746              	.LASF372:
 20747 1b89 41444344 		.ascii	"ADCD3\000"
 20747      3300
 20748              	.LASF655:
 20749 1b8f 48434647 		.ascii	"HCFG\000"
 20749      00
 20750              	.LASF355:
 20751 1b94 646D616D 		.ascii	"dmamode\000"
 20751      6F646500 
 20752              	.LASF210:
 20753 1b9c 63756D75 		.ascii	"cumulative\000"
 20753      6C617469 
 20753      766500
 20754              	.LASF859:
 20755 1ba7 5F696F62 		.ascii	"_iobs\000"
 20755      7300
 20756              	.LASF566:
 20757 1bad 53504944 		.ascii	"SPID1\000"
 20757      3100
ARM GAS  C:\Users\adrie\AppData\Local\Temp\cc7EdWgE.s 			page 389


 20758              	.LASF531:
 20759 1bb3 67657474 		.ascii	"gett\000"
 20759      00
 20760              	.LASF995:
 20761 1bb8 696E7465 		.ascii	"intensite_moyenne\000"
 20761      6E736974 
 20761      655F6D6F 
 20761      79656E6E 
 20761      6500
 20762              	.LASF220:
 20763 1bca 77747472 		.ascii	"wttrp\000"
 20763      7000
 20764              	.LASF274:
 20765 1bd0 715F7264 		.ascii	"q_rdptr\000"
 20765      70747200 
 20766              	.LASF194:
 20767 1bd8 636F6E74 		.ascii	"context\000"
 20767      65787400 
 20768              	.LASF281:
 20769 1be0 77726974 		.ascii	"write\000"
 20769      6500
 20770              	.LASF869:
 20771 1be6 5F72616E 		.ascii	"_rand_next\000"
 20771      645F6E65 
 20771      787400
 20772              	.LASF526:
 20773 1bf1 69717565 		.ascii	"iqueue\000"
 20773      756500
 20774              	.LASF708:
 20775 1bf8 696E5F63 		.ascii	"in_cb\000"
 20775      6200
 20776              	.LASF633:
 20777 1bfe 444F4550 		.ascii	"DOEPINT\000"
 20777      494E5400 
 20778              	.LASF209:
 20779 1c06 6C617374 		.ascii	"last\000"
 20779      00
 20780              	.LASF311:
 20781 1c0b 4C434B52 		.ascii	"LCKR\000"
 20781      00
 20782              	.LASF523:
 20783 1c10 73647374 		.ascii	"sdstate_t\000"
 20783      6174655F 
 20783      7400
 20784              	.LASF23:
 20785 1c1a 75696E74 		.ascii	"uint32_t\000"
 20785      33325F74 
 20785      00
 20786              	.LASF396:
 20787 1c23 64617461 		.ascii	"dataoffset\000"
 20787      6F666673 
 20787      657400
 20788              	.LASF793:
 20789 1c2e 5F6D6178 		.ascii	"_maxwds\000"
 20789      77647300 
 20790              	.LASF298:
 20791 1c36 424C4B5F 		.ascii	"BLK_WRITING\000"
ARM GAS  C:\Users\adrie\AppData\Local\Temp\cc7EdWgE.s 			page 390


 20791      57524954 
 20791      494E4700 
 20792              	.LASF120:
 20793 1c42 52444C52 		.ascii	"RDLR\000"
 20793      00
 20794              	.LASF987:
 20795 1c47 63616C63 		.ascii	"calcul_moyenne\000"
 20795      756C5F6D 
 20795      6F79656E 
 20795      6E6500
 20796              	.LASF774:
 20797 1c56 62756666 		.ascii	"buffer_len\000"
 20797      65725F6C 
 20797      656E00
 20798              	.LASF794:
 20799 1c61 5F736967 		.ascii	"_sign\000"
 20799      6E00
 20800              	.LASF1021:
 20801 1c67 706F7274 		.ascii	"port_lock\000"
 20801      5F6C6F63 
 20801      6B00
 20802              	.LASF4:
 20803 1c71 6C6F6E67 		.ascii	"long double\000"
 20803      20646F75 
 20803      626C6500 
 20804              	.LASF192:
 20805 1c7d 72656761 		.ascii	"regarm_t\000"
 20805      726D5F74 
 20805      00
 20806              	.LASF33:
 20807 1c86 6576656E 		.ascii	"eventmask_t\000"
 20807      746D6173 
 20807      6B5F7400 
 20808              	.LASF1008:
 20809 1c92 736F756E 		.ascii	"sound_remote\000"
 20809      645F7265 
 20809      6D6F7465 
 20809      00
 20810              	.LASF350:
 20811 1c9f 64657074 		.ascii	"depth\000"
 20811      6800
 20812              	.LASF134:
 20813 1ca5 46464131 		.ascii	"FFA1R\000"
 20813      5200
 20814              	.LASF589:
 20815 1cab 5553425F 		.ascii	"USB_SELECTED\000"
 20815      53454C45 
 20815      43544544 
 20815      00
 20816              	.LASF1036:
 20817 1cb8 63685363 		.ascii	"chSchRescheduleS\000"
 20817      68526573 
 20817      63686564 
 20817      756C6553 
 20817      00
 20818              	.LASF16:
 20819 1cc9 6C6F6E67 		.ascii	"long unsigned int\000"
ARM GAS  C:\Users\adrie\AppData\Local\Temp\cc7EdWgE.s 			page 391


 20819      20756E73 
 20819      69676E65 
 20819      6420696E 
 20819      7400
 20820              	.LASF581:
 20821 1cdb 706D6E65 		.ascii	"pmnext\000"
 20821      787400
 20822              	.LASF490:
 20823 1ce2 4932535F 		.ascii	"I2S_ACTIVE\000"
 20823      41435449 
 20823      564500
 20824              	.LASF433:
 20825 1ced 4750545F 		.ascii	"GPT_READY\000"
 20825      52454144 
 20825      5900
 20826              	.LASF395:
 20827 1cf7 64616373 		.ascii	"dacstate_t\000"
 20827      74617465 
 20827      5F7400
 20828              	.LASF744:
 20829 1d02 44434D49 		.ascii	"DCMI_TIMEOUT\000"
 20829      5F54494D 
 20829      454F5554 
 20829      00
 20830              	.LASF197:
 20831 1d0f 73655F74 		.ascii	"se_tp\000"
 20831      7000
 20832              	.LASF961:
 20833 1d15 70756973 		.ascii	"puissance_moyenne\000"
 20833      73616E63 
 20833      655F6D6F 
 20833      79656E6E 
 20833      6500
 20834              	.LASF273:
 20835 1d27 715F7772 		.ascii	"q_wrptr\000"
 20835      70747200 
 20836              	.LASF403:
 20837 1d2f 64616373 		.ascii	"dacsample_t\000"
 20837      616D706C 
 20837      655F7400 
 20838              	.LASF967:
 20839 1d3b 73756D5F 		.ascii	"sum_error\000"
 20839      6572726F 
 20839      7200
 20840              	.LASF601:
 20841 1d45 5553425F 		.ascii	"USB_EVENT_ADDRESS\000"
 20841      4556454E 
 20841      545F4144 
 20841      44524553 
 20841      5300
 20842              	.LASF498:
 20843 1d57 69327363 		.ascii	"i2scfgr\000"
 20843      66677200 
 20844              	.LASF724:
 20845 1d5f 5344555F 		.ascii	"SDU_STOP\000"
 20845      53544F50 
 20845      00
ARM GAS  C:\Users\adrie\AppData\Local\Temp\cc7EdWgE.s 			page 392


 20846              	.LASF171:
 20847 1d68 52455350 		.ascii	"RESPCMD\000"
 20847      434D4400 
 20848              	.LASF382:
 20849 1d70 72786675 		.ascii	"rxfull_event\000"
 20849      6C6C5F65 
 20849      76656E74 
 20849      00
 20850              	.LASF606:
 20851 1d7d 75736265 		.ascii	"usbevent_t\000"
 20851      76656E74 
 20851      5F7400
 20852              	.LASF825:
 20853 1d88 5F636C6F 		.ascii	"_close\000"
 20853      736500
 20854              	.LASF232:
 20855 1d8f 63686172 		.ascii	"char\000"
 20855      00
 20856              	.LASF973:
 20857 1d94 6D61785F 		.ascii	"max_front\000"
 20857      66726F6E 
 20857      7400
 20858              	.LASF735:
 20859 1d9e 44434D49 		.ascii	"DCMI_ERR_OVERFLOW\000"
 20859      5F455252 
 20859      5F4F5645 
 20859      52464C4F 
 20859      5700
 20860              	.LASF155:
 20861 1db0 45534352 		.ascii	"ESCR\000"
 20861      00
 20862              	.LASF379:
 20863 1db5 43414E43 		.ascii	"CANConfig\000"
 20863      6F6E6669 
 20863      6700
 20864              	.LASF326:
 20865 1dbf 50454461 		.ascii	"PEData\000"
 20865      746100
 20866              	.LASF68:
 20867 1dc6 725F7175 		.ascii	"r_queue\000"
 20867      65756500 
 20868              	.LASF857:
 20869 1dce 5F676C75 		.ascii	"_glue\000"
 20869      6500
 20870              	.LASF1012:
 20871 1dd4 63687072 		.ascii	"chprintf\000"
 20871      696E7466 
 20871      00
 20872              	.LASF787:
 20873 1ddd 6D657373 		.ascii	"messagebus_watchgroup_s\000"
 20873      61676562 
 20873      75735F77 
 20873      61746368 
 20873      67726F75 
 20874              	.LASF508:
 20875 1df5 656E6162 		.ascii	"enabled\000"
 20875      6C656400 
ARM GAS  C:\Users\adrie\AppData\Local\Temp\cc7EdWgE.s 			page 393


 20876              	.LASF404:
 20877 1dfd 4441435F 		.ascii	"DAC_ERR_DMAFAILURE\000"
 20877      4552525F 
 20877      444D4146 
 20877      41494C55 
 20877      524500
 20878              	.LASF645:
 20879 1e10 47525846 		.ascii	"GRXFSIZ\000"
 20879      53495A00 
 20880              	.LASF552:
 20881 1e18 73796E63 		.ascii	"sync\000"
 20881      00
 20882              	.LASF528:
 20883 1e1d 75736172 		.ascii	"usart\000"
 20883      7400
 20884              	.LASF1028:
 20885 1e23 5F737461 		.ascii	"_stats_stop_measure_crit_thd\000"
 20885      74735F73 
 20885      746F705F 
 20885      6D656173 
 20885      7572655F 
 20886              	.LASF158:
 20887 1e40 43575349 		.ascii	"CWSIZER\000"
 20887      5A455200 
 20888              	.LASF538:
 20889 1e48 7364636D 		.ascii	"sdcmode_t\000"
 20889      6F64655F 
 20889      7400
 20890              	.LASF276:
 20891 1e52 715F6C69 		.ascii	"q_link\000"
 20891      6E6B00
 20892              	.LASF960:
 20893 1e59 73706565 		.ascii	"speed_correction\000"
 20893      645F636F 
 20893      72726563 
 20893      74696F6E 
 20893      00
 20894              	.LASF946:
 20895 1e6a 636F7465 		.ascii	"cote_max\000"
 20895      5F6D6178 
 20895      00
 20896              	.LASF1003:
 20897 1e73 6E6F726D 		.ascii	"norm_back\000"
 20897      5F626163 
 20897      6B00
 20898              	.LASF749:
 20899 1e7d 64636D69 		.ascii	"dcmierrorcallback_t\000"
 20899      6572726F 
 20899      7263616C 
 20899      6C626163 
 20899      6B5F7400 
 20900              	.LASF666:
 20901 1e91 44434647 		.ascii	"DCFG\000"
 20901      00
 20902              	.LASF791:
 20903 1e96 5F426967 		.ascii	"_Bigint\000"
 20903      696E7400 
ARM GAS  C:\Users\adrie\AppData\Local\Temp\cc7EdWgE.s 			page 394


 20904              	.LASF676:
 20905 1e9e 44564255 		.ascii	"DVBUSDIS\000"
 20905      53444953 
 20905      00
 20906              	.LASF642:
 20907 1ea7 47494E54 		.ascii	"GINTMSK\000"
 20907      4D534B00 
 20908              	.LASF647:
 20909 1eaf 484E5054 		.ascii	"HNPTXSTS\000"
 20909      58535453 
 20909      00
 20910              	.LASF579:
 20911 1eb8 636F6E66 		.ascii	"configuration\000"
 20911      69677572 
 20911      6174696F 
 20911      6E00
 20912              	.LASF852:
 20913 1ec6 5F617465 		.ascii	"_atexit0\000"
 20913      78697430 
 20913      00
 20914              	.LASF936:
 20915 1ecf 4C454431 		.ascii	"LED1\000"
 20915      00
 20916              	.LASF937:
 20917 1ed4 4C454433 		.ascii	"LED3\000"
 20917      00
 20918              	.LASF938:
 20919 1ed9 4C454435 		.ascii	"LED5\000"
 20919      00
 20920              	.LASF939:
 20921 1ede 4C454437 		.ascii	"LED7\000"
 20921      00
 20922              	.LASF978:
 20923 1ee3 65636861 		.ascii	"echantillone_distance\000"
 20923      6E74696C 
 20923      6C6F6E65 
 20923      5F646973 
 20923      74616E63 
 20924              	.LASF321:
 20925 1ef9 73746D33 		.ascii	"stm32_gpio_setup_t\000"
 20925      325F6770 
 20925      696F5F73 
 20925      65747570 
 20925      5F7400
 20926              	.LASF975:
 20927 1f0c 6765745F 		.ascii	"get_audio_buffer_ptr\000"
 20927      61756469 
 20927      6F5F6275 
 20927      66666572 
 20927      5F707472 
 20928              	.LASF921:
 20929 1f21 4C454654 		.ascii	"LEFT_OUTPUT\000"
 20929      5F4F5554 
 20929      50555400 
 20930              	.LASF1034:
 20931 1f2d 63684462 		.ascii	"chDbgCheckClassI\000"
 20931      67436865 
ARM GAS  C:\Users\adrie\AppData\Local\Temp\cc7EdWgE.s 			page 395


 20931      636B436C 
 20931      61737349 
 20931      00
 20932              	.LASF290:
 20933 1f3e 5F73746D 		.ascii	"_stm32_dma_streams\000"
 20933      33325F64 
 20933      6D615F73 
 20933      74726561 
 20933      6D7300
 20934              	.LASF142:
 20935 1f51 44485231 		.ascii	"DHR12L1\000"
 20935      324C3100 
 20936              	.LASF145:
 20937 1f59 44485231 		.ascii	"DHR12L2\000"
 20937      324C3200 
 20938              	.LASF876:
 20939 1f61 5F676574 		.ascii	"_getdate_err\000"
 20939      64617465 
 20939      5F657272 
 20939      00
 20940              	.LASF919:
 20941 1f6e 46524F4E 		.ascii	"FRONT_CMPLX_INPUT\000"
 20941      545F434D 
 20941      504C585F 
 20941      494E5055 
 20941      5400
 20942              	.LASF537:
 20943 1f80 73646362 		.ascii	"sdcbusmode_t\000"
 20943      75736D6F 
 20943      64655F74 
 20943      00
 20944              	.LASF796:
 20945 1f8d 5F5F746D 		.ascii	"__tm\000"
 20945      00
 20946              	.LASF148:
 20947 1f92 44485231 		.ascii	"DHR12LD\000"
 20947      324C4400 
 20948              	.LASF356:
 20949 1f9a 61646363 		.ascii	"adccallback_t\000"
 20949      616C6C62 
 20949      61636B5F 
 20949      7400
 20950              	.LASF789:
 20951 1fa8 6D657373 		.ascii	"messagebus_watchgroup_t\000"
 20951      61676562 
 20951      75735F77 
 20951      61746368 
 20951      67726F75 
 20952              	.LASF46:
 20953 1fc0 705F7374 		.ascii	"p_stklimit\000"
 20953      6B6C696D 
 20953      697400
 20954              	.LASF35:
 20955 1fcb 636E745F 		.ascii	"cnt_t\000"
 20955      7400
 20956              	.LASF422:
 20957 1fd1 65787473 		.ascii	"extstate_t\000"
ARM GAS  C:\Users\adrie\AppData\Local\Temp\cc7EdWgE.s 			page 396


 20957      74617465 
 20957      5F7400
 20958              	.LASF594:
 20959 1fdc 5553425F 		.ascii	"USB_EP0_WAITING_TX0\000"
 20959      4550305F 
 20959      57414954 
 20959      494E475F 
 20959      54583000 
 20960              	.LASF573:
 20961 1ff0 6570306E 		.ascii	"ep0next\000"
 20961      65787400 
 20962              	.LASF623:
 20963 1ff8 73746D33 		.ascii	"stm32_otg_host_chn_t\000"
 20963      325F6F74 
 20963      675F686F 
 20963      73745F63 
 20963      686E5F74 
 20964              	.LASF313:
 20965 200d 41465248 		.ascii	"AFRH\000"
 20965      00
 20966              	.LASF773:
 20967 2012 62756666 		.ascii	"buffer\000"
 20967      657200
 20968              	.LASF312:
 20969 2019 4146524C 		.ascii	"AFRL\000"
 20969      00
 20970              	.LASF888:
 20971 201e 5F696D70 		.ascii	"_impure_ptr\000"
 20971      7572655F 
 20971      70747200 
 20972              	.LASF249:
 20973 202a 63665F6F 		.ascii	"cf_off_preempt\000"
 20973      66665F70 
 20973      7265656D 
 20973      707400
 20974              	.LASF885:
 20975 2039 5F756E75 		.ascii	"_unused\000"
 20975      73656400 
 20976              	.LASF393:
 20977 2041 4441435F 		.ascii	"DAC_COMPLETE\000"
 20977      434F4D50 
 20977      4C455445 
 20977      00
 20978              	.LASF632:
 20979 204e 444F4550 		.ascii	"DOEPCTL\000"
 20979      43544C00 
 20980              	.LASF618:
 20981 2056 4843494E 		.ascii	"HCINTMSK\000"
 20981      544D534B 
 20981      00
 20982              	.LASF826:
 20983 205f 5F756275 		.ascii	"_ubuf\000"
 20983      6600
 20984              	.LASF348:
 20985 2065 636F6E66 		.ascii	"config\000"
 20985      696700
 20986              	.LASF456:
ARM GAS  C:\Users\adrie\AppData\Local\Temp\cc7EdWgE.s 			page 397


 20987 206c 47505444 		.ascii	"GPTD11\000"
 20987      313100
 20988              	.LASF457:
 20989 2073 47505444 		.ascii	"GPTD12\000"
 20989      313200
 20990              	.LASF871:
 20991 207a 5F6D626C 		.ascii	"_mblen_state\000"
 20991      656E5F73 
 20991      74617465 
 20991      00
 20992              	.LASF854:
 20993 2087 5F5F7367 		.ascii	"__sglue\000"
 20993      6C756500 
 20994              	.LASF887:
 20995 208f 5F5F6C6F 		.ascii	"__locale_t\000"
 20995      63616C65 
 20995      5F7400
 20996              	.LASF974:
 20997 209a 6D61785F 		.ascii	"max_back\000"
 20997      6261636B 
 20997      00
 20998              	.LASF294:
 20999 20a3 424C4B5F 		.ascii	"BLK_CONNECTING\000"
 20999      434F4E4E 
 20999      45435449 
 20999      4E4700
 21000              	.LASF926:
 21001 20b2 4C454654 		.ascii	"LEFT\000"
 21001      00
 21002              	.LASF844:
 21003 20b7 5F5F636C 		.ascii	"__cleanup\000"
 21003      65616E75 
 21003      7000
 21004              	.LASF389:
 21005 20c1 4441435F 		.ascii	"DAC_UNINIT\000"
 21005      554E494E 
 21005      495400
 21006              	.LASF342:
 21007 20cc 6164635F 		.ascii	"adc_channels_num_t\000"
 21007      6368616E 
 21007      6E656C73 
 21007      5F6E756D 
 21007      5F7400
 21008              	.LASF74:
 21009 20df 76746675 		.ascii	"vtfunc_t\000"
 21009      6E635F74 
 21009      00
 21010              	.LASF122:
 21011 20e8 43414E5F 		.ascii	"CAN_FIFOMailBox_TypeDef\000"
 21011      4649464F 
 21011      4D61696C 
 21011      426F785F 
 21011      54797065 
 21012              	.LASF152:
 21013 2100 4441435F 		.ascii	"DAC_TypeDef\000"
 21013      54797065 
 21013      44656600 
ARM GAS  C:\Users\adrie\AppData\Local\Temp\cc7EdWgE.s 			page 398


 21014              	.LASF219:
 21015 210c 77746F62 		.ascii	"wtobjp\000"
 21015      6A7000
 21016              	.LASF756:
 21017 2113 5F66706F 		.ascii	"_fpos_t\000"
 21017      735F7400 
 21018              	.LASF409:
 21019 211b 4441435F 		.ascii	"DAC_DHRM_12BIT_RIGHT\000"
 21019      4448524D 
 21019      5F313242 
 21019      49545F52 
 21019      49474854 
 21020              	.LASF819:
 21021 2130 5F66696C 		.ascii	"_file\000"
 21021      6500
 21022              	.LASF57:
 21023 2136 705F7265 		.ascii	"p_realprio\000"
 21023      616C7072 
 21023      696F00
 21024              	.LASF541:
 21025 2141 63617061 		.ascii	"capacity\000"
 21025      63697479 
 21025      00
 21026              	.LASF732:
 21027 214a 53657269 		.ascii	"SerialUSBConfig\000"
 21027      616C5553 
 21027      42436F6E 
 21027      66696700 
 21028              	.LASF275:
 21029 215a 715F6E6F 		.ascii	"q_notify\000"
 21029      74696679 
 21029      00
 21030              	.LASF222:
 21031 2163 77746D74 		.ascii	"wtmtxp\000"
 21031      787000
 21032              	.LASF817:
 21033 216a 5F5F7346 		.ascii	"__sFILE\000"
 21033      494C4500 
 21034              	.LASF1:
 21035 2172 646F7562 		.ascii	"double\000"
 21035      6C6500
 21036              	.LASF813:
 21037 2179 5F666E73 		.ascii	"_fns\000"
 21037      00
 21038              	.LASF750:
 21039 217e 6672616D 		.ascii	"frame_end_cb\000"
 21039      655F656E 
 21039      645F6362 
 21039      00
 21040              	.LASF1049:
 21041 218b 63685654 		.ascii	"chVTGetSystemTimeX\000"
 21041      47657453 
 21041      79737465 
 21041      6D54696D 
 21041      655800
 21042              	.LASF705:
 21043 219e 5553424F 		.ascii	"USBOutEndpointState\000"
ARM GAS  C:\Users\adrie\AppData\Local\Temp\cc7EdWgE.s 			page 399


 21043      7574456E 
 21043      64706F69 
 21043      6E745374 
 21043      61746500 
 21044              	.LASF662:
 21045 21b2 72657376 		.ascii	"resvd41C\000"
 21045      64343143 
 21045      00
 21046              	.LASF899:
 21047 21bb 6368616E 		.ascii	"changed\000"
 21047      67656400 
 21048              	.LASF762:
 21049 21c3 5F6D6273 		.ascii	"_mbstate_t\000"
 21049      74617465 
 21049      5F7400
 21050              	.LASF882:
 21051 21ce 5F685F65 		.ascii	"_h_errno\000"
 21051      72726E6F 
 21051      00
 21052              	.LASF992:
 21053 21d7 7472616E 		.ascii	"transition\000"
 21053      73697469 
 21053      6F6E00
 21054              	.LASF119:
 21055 21e2 52445452 		.ascii	"RDTR\000"
 21055      00
 21056              	.LASF302:
 21057 21e7 626C6B5F 		.ascii	"blk_num\000"
 21057      6E756D00 
 21058              	.LASF600:
 21059 21ef 5553425F 		.ascii	"USB_EVENT_RESET\000"
 21059      4556454E 
 21059      545F5245 
 21059      53455400 
 21060              	.LASF933:
 21061 21ff 5F5F6664 		.ascii	"__fdlibm_xopen\000"
 21061      6C69626D 
 21061      5F786F70 
 21061      656E00
 21062              	.LASF959:
 21063 220e 73706565 		.ascii	"speed\000"
 21063      6400
 21064              	.LASF67:
 21065 2214 63685F72 		.ascii	"ch_ready_list\000"
 21065      65616479 
 21065      5F6C6973 
 21065      7400
 21066              	.LASF782:
 21067 2222 67726F75 		.ascii	"group\000"
 21067      7000
 21068              	.LASF309:
 21069 2228 50555044 		.ascii	"PUPDR\000"
 21069      5200
 21070              	.LASF13:
 21071 222e 5F5F696E 		.ascii	"__int32_t\000"
 21071      7433325F 
 21071      7400
ARM GAS  C:\Users\adrie\AppData\Local\Temp\cc7EdWgE.s 			page 400


 21072              	.LASF15:
 21073 2238 5F5F7569 		.ascii	"__uint32_t\000"
 21073      6E743332 
 21073      5F7400
 21074              	.LASF86:
 21075 2243 63685F73 		.ascii	"ch_system_debug\000"
 21075      79737465 
 21075      6D5F6465 
 21075      62756700 
 21076              	.LASF981:
 21077 2253 64617461 		.ascii	"data\000"
 21077      00
 21078              	.LASF673:
 21079 2258 4441494E 		.ascii	"DAINTMSK\000"
 21079      544D534B 
 21079      00
 21080              	.LASF740:
 21081 2261 44434D49 		.ascii	"DCMI_ACTIVE_STREAM\000"
 21081      5F414354 
 21081      4956455F 
 21081      53545245 
 21081      414D00
 21082              	.LASF429:
 21083 2274 45585443 		.ascii	"EXTConfig\000"
 21083      6F6E6669 
 21083      6700
 21084              	.LASF892:
 21085 227e 70617261 		.ascii	"parameter_namespace_s\000"
 21085      6D657465 
 21085      725F6E61 
 21085      6D657370 
 21085      6163655F 
 21086              	.LASF270:
 21087 2294 715F636F 		.ascii	"q_counter\000"
 21087      756E7465 
 21087      7200
 21088              	.LASF592:
 21089 229e 5553425F 		.ascii	"USB_EP0_WAITING_SETUP\000"
 21089      4550305F 
 21089      57414954 
 21089      494E475F 
 21089      53455455 
 21090              	.LASF810:
 21091 22b4 5F69735F 		.ascii	"_is_cxa\000"
 21091      63786100 
 21092              	.LASF297:
 21093 22bc 424C4B5F 		.ascii	"BLK_READING\000"
 21093      52454144 
 21093      494E4700 
 21094              	.LASF319:
 21095 22c8 6166726C 		.ascii	"afrl\000"
 21095      00
 21096              	.LASF695:
 21097 22cd 71756575 		.ascii	"queue\000"
 21097      6500
 21098              	.LASF575:
 21099 22d3 65703065 		.ascii	"ep0endcb\000"
ARM GAS  C:\Users\adrie\AppData\Local\Temp\cc7EdWgE.s 			page 401


 21099      6E646362 
 21099      00
 21100              	.LASF943:
 21101 22dc 64697374 		.ascii	"distance\000"
 21101      616E6365 
 21101      00
 21102              	.LASF287:
 21103 22e5 73656C66 		.ascii	"selfindex\000"
 21103      696E6465 
 21103      7800
 21104              	.LASF256:
 21105 22ef 6D757465 		.ascii	"mutex_t\000"
 21105      785F7400 
 21106              	.LASF847:
 21107 22f7 5F703573 		.ascii	"_p5s\000"
 21107      00
 21108              	.LASF55:
 21109 22fc 705F6570 		.ascii	"p_epending\000"
 21109      656E6469 
 21109      6E6700
 21110              	.LASF306:
 21111 2307 4D4F4445 		.ascii	"MODER\000"
 21111      5200
 21112              	.LASF969:
 21113 230d 6765745F 		.ascii	"get_max_front_moyenne\000"
 21113      6D61785F 
 21113      66726F6E 
 21113      745F6D6F 
 21113      79656E6E 
 21114              	.LASF491:
 21115 2323 4932535F 		.ascii	"I2S_COMPLETE\000"
 21115      434F4D50 
 21115      4C455445 
 21115      00
 21116              	.LASF779:
 21117 2330 77617463 		.ascii	"watchers\000"
 21117      68657273 
 21117      00
 21118              	.LASF126:
 21119 2339 52455345 		.ascii	"RESERVED0\000"
 21119      52564544 
 21119      3000
 21120              	.LASF129:
 21121 2343 52455345 		.ascii	"RESERVED1\000"
 21121      52564544 
 21121      3100
 21122              	.LASF131:
 21123 234d 52455345 		.ascii	"RESERVED2\000"
 21123      52564544 
 21123      3200
 21124              	.LASF133:
 21125 2357 52455345 		.ascii	"RESERVED3\000"
 21125      52564544 
 21125      3300
 21126              	.LASF135:
 21127 2361 52455345 		.ascii	"RESERVED4\000"
 21127      52564544 
ARM GAS  C:\Users\adrie\AppData\Local\Temp\cc7EdWgE.s 			page 402


 21127      3400
 21128              	.LASF137:
 21129 236b 52455345 		.ascii	"RESERVED5\000"
 21129      52564544 
 21129      3500
 21130              	.LASF716:
 21131 2375 55534245 		.ascii	"USBEndpointConfig\000"
 21131      6E64706F 
 21131      696E7443 
 21131      6F6E6669 
 21131      6700
 21132              	.LASF141:
 21133 2387 44485231 		.ascii	"DHR12R1\000"
 21133      32523100 
 21134              	.LASF144:
 21135 238f 44485231 		.ascii	"DHR12R2\000"
 21135      32523200 
 21136              	.LASF425:
 21137 2397 65787463 		.ascii	"extcallback_t\000"
 21137      616C6C62 
 21137      61636B5F 
 21137      7400
 21138              	.LASF381:
 21139 23a5 72787175 		.ascii	"rxqueue\000"
 21139      65756500 
 21140              	.LASF196:
 21141 23ad 73655F74 		.ascii	"se_time\000"
 21141      696D6500 
 21142              	.LASF664:
 21143 23b5 72657376 		.ascii	"resvd444\000"
 21143      64343434 
 21143      00
 21144              	.LASF333:
 21145 23be 70616C5F 		.ascii	"pal_default_config\000"
 21145      64656661 
 21145      756C745F 
 21145      636F6E66 
 21145      696700
 21146              	.LASF889:
 21147 23d1 5F676C6F 		.ascii	"_global_impure_ptr\000"
 21147      62616C5F 
 21147      696D7075 
 21147      72655F70 
 21147      747200
 21148              	.LASF927:
 21149 23e4 52494748 		.ascii	"RIGHT\000"
 21149      5400
 21150              	.LASF351:
 21151 23ea 67727070 		.ascii	"grpp\000"
 21151      00
 21152              	.LASF147:
 21153 23ef 44485231 		.ascii	"DHR12RD\000"
 21153      32524400 
 21154              	.LASF260:
 21155 23f7 656C5F6C 		.ascii	"el_listener\000"
 21155      69737465 
 21155      6E657200 
ARM GAS  C:\Users\adrie\AppData\Local\Temp\cc7EdWgE.s 			page 403


 21156              	.LASF694:
 21157 2403 6C696E65 		.ascii	"linear\000"
 21157      617200
 21158              	.LASF739:
 21159 240a 44434D49 		.ascii	"DCMI_READY\000"
 21159      5F524541 
 21159      445900
 21160              	.LASF924:
 21161 2415 4241434B 		.ascii	"BACK_OUTPUT\000"
 21161      5F4F5554 
 21161      50555400 
 21162              	.LASF449:
 21163 2421 73746D33 		.ascii	"stm32_tim_t\000"
 21163      325F7469 
 21163      6D5F7400 
 21164              	.LASF69:
 21165 242d 725F7072 		.ascii	"r_prio\000"
 21165      696F00
 21166              	.LASF154:
 21167 2434 4D495352 		.ascii	"MISR\000"
 21167      00
 21168              	.LASF98:
 21169 2439 49544D5F 		.ascii	"ITM_RxBuffer\000"
 21169      52784275 
 21169      66666572 
 21169      00
 21170              	.LASF303:
 21171 2446 426C6F63 		.ascii	"BlockDeviceInfo\000"
 21171      6B446576 
 21171      69636549 
 21171      6E666F00 
 21172              	.LASF18:
 21173 2456 6C6F6E67 		.ascii	"long long unsigned int\000"
 21173      206C6F6E 
 21173      6720756E 
 21173      7369676E 
 21173      65642069 
 21174              	.LASF183:
 21175 246d 5344494F 		.ascii	"SDIO_TypeDef\000"
 21175      5F547970 
 21175      65446566 
 21175      00
 21176              	.LASF205:
 21177 247a 6F666673 		.ascii	"offset\000"
 21177      657400
 21178              	.LASF1014:
 21179 2481 63685265 		.ascii	"chRegSetThreadName\000"
 21179      67536574 
 21179      54687265 
 21179      61644E61 
 21179      6D6500
 21180              	.LASF785:
 21181 2494 746F7069 		.ascii	"topics\000"
 21181      637300
 21182              	.LASF1017:
 21183 249b 63685379 		.ascii	"chSysUnlock\000"
 21183      73556E6C 
ARM GAS  C:\Users\adrie\AppData\Local\Temp\cc7EdWgE.s 			page 404


 21183      6F636B00 
 21184              	.LASF160:
 21185 24a7 4E445452 		.ascii	"NDTR\000"
 21185      00
 21186              	.LASF265:
 21187 24ac 65735F6E 		.ascii	"es_next\000"
 21187      65787400 
 21188              	.LASF868:
 21189 24b4 5F67616D 		.ascii	"_gamma_signgam\000"
 21189      6D615F73 
 21189      69676E67 
 21189      616D00
 21190              	.LASF630:
 21191 24c3 72657376 		.ascii	"resvd1C\000"
 21191      64314300 
 21192              	.LASF97:
 21193 24cb 69646C65 		.ascii	"idle_thread_wa\000"
 21193      5F746872 
 21193      6561645F 
 21193      776100
 21194              	.LASF626:
 21195 24da 44494550 		.ascii	"DIEPINT\000"
 21195      494E5400 
 21196              	.LASF189:
 21197 24e2 5350495F 		.ascii	"SPI_TypeDef\000"
 21197      54797065 
 21197      44656600 
 21198              	.LASF80:
 21199 24ee 76745F66 		.ascii	"vt_func\000"
 21199      756E6300 
 21200              	.LASF440:
 21201 24f6 534D4352 		.ascii	"SMCR\000"
 21201      00
 21202              	.LASF671:
 21203 24fb 444F4550 		.ascii	"DOEPMSK\000"
 21203      4D534B00 
 21204              	.LASF76:
 21205 2503 63685F76 		.ascii	"ch_virtual_timer\000"
 21205      69727475 
 21205      616C5F74 
 21205      696D6572 
 21205      00
 21206              	.LASF48:
 21207 2514 705F666C 		.ascii	"p_flags\000"
 21207      61677300 
 21208              	.LASF966:
 21209 251c 6572726F 		.ascii	"error\000"
 21209      7200
 21210              	.LASF223:
 21211 2522 65776D61 		.ascii	"ewmask\000"
 21211      736B00
 21212              	.LASF262:
 21213 2529 656C5F66 		.ascii	"el_flags\000"
 21213      6C616773 
 21213      00
 21214              	.LASF985:
 21215 2532 75706461 		.ascii	"update_moyenne\000"
ARM GAS  C:\Users\adrie\AppData\Local\Temp\cc7EdWgE.s 			page 405


 21215      74655F6D 
 21215      6F79656E 
 21215      6E6500
 21216              	.LASF830:
 21217 2541 5F646174 		.ascii	"_data\000"
 21217      6100
 21218              	.LASF949:
 21219 2547 6D696352 		.ascii	"micRight_cmplx_input\000"
 21219      69676874 
 21219      5F636D70 
 21219      6C785F69 
 21219      6E707574 
 21220              	.LASF264:
 21221 255c 6576656E 		.ascii	"event_source\000"
 21221      745F736F 
 21221      75726365 
 21221      00
 21222              	.LASF56:
 21223 2569 705F6D74 		.ascii	"p_mtxlist\000"
 21223      786C6973 
 21223      7400
 21224              	.LASF388:
 21225 2573 43414E44 		.ascii	"CAND1\000"
 21225      3100
 21226              	.LASF132:
 21227 2579 46533152 		.ascii	"FS1R\000"
 21227      00
 21228              	.LASF28:
 21229 257e 74737461 		.ascii	"tstate_t\000"
 21229      74655F74 
 21229      00
 21230              	.LASF561:
 21231 2587 53504944 		.ascii	"SPIDriver\000"
 21231      72697665 
 21231      7200
 21232              	.LASF672:
 21233 2591 4441494E 		.ascii	"DAINT\000"
 21233      5400
 21234              	.LASF565:
 21235 2597 53504943 		.ascii	"SPIConfig\000"
 21235      6F6E6669 
 21235      6700
 21236              	.LASF841:
 21237 25a1 5F756E73 		.ascii	"_unspecified_locale_info\000"
 21237      70656369 
 21237      66696564 
 21237      5F6C6F63 
 21237      616C655F 
 21238              	.LASF318:
 21239 25ba 70757064 		.ascii	"pupdr\000"
 21239      7200
 21240              	.LASF408:
 21241 25c0 64616365 		.ascii	"dacerrorcallback_t\000"
 21241      72726F72 
 21241      63616C6C 
 21241      6261636B 
 21241      5F7400
ARM GAS  C:\Users\adrie\AppData\Local\Temp\cc7EdWgE.s 			page 406


 21242              	.LASF747:
 21243 25d3 64636D69 		.ascii	"dcmi\000"
 21243      00
 21244              	.LASF568:
 21245 25d8 7472616E 		.ascii	"transmitting\000"
 21245      736D6974 
 21245      74696E67 
 21245      00
 21246              	.LASF428:
 21247 25e5 6368616E 		.ascii	"channels\000"
 21247      6E656C73 
 21247      00
 21248              	.LASF170:
 21249 25ee 434C4B43 		.ascii	"CLKCR\000"
 21249      5200
 21250              	.LASF540:
 21251 25f4 53444344 		.ascii	"SDCDriver\000"
 21251      72697665 
 21251      7200
 21252              	.LASF45:
 21253 25fe 705F6E61 		.ascii	"p_name\000"
 21253      6D6500
 21254              	.LASF843:
 21255 2605 5F5F7364 		.ascii	"__sdidinit\000"
 21255      6964696E 
 21255      697400
 21256              	.LASF524:
 21257 2610 53657269 		.ascii	"SerialDriver\000"
 21257      616C4472 
 21257      69766572 
 21257      00
 21258              	.LASF110:
 21259 261d 4A445231 		.ascii	"JDR1\000"
 21259      00
 21260              	.LASF111:
 21261 2622 4A445232 		.ascii	"JDR2\000"
 21261      00
 21262              	.LASF112:
 21263 2627 4A445233 		.ascii	"JDR3\000"
 21263      00
 21264              	.LASF113:
 21265 262c 4A445234 		.ascii	"JDR4\000"
 21265      00
 21266              	.LASF634:
 21267 2631 444F4550 		.ascii	"DOEPTSIZ\000"
 21267      5453495A 
 21267      00
 21268              	.LASF765:
 21269 263a 5F5F6170 		.ascii	"__ap\000"
 21269      00
 21270              	.LASF336:
 21271 263f 4144435F 		.ascii	"ADC_READY\000"
 21271      52454144 
 21271      5900
 21272              	.LASF777:
 21273 2649 6E616D65 		.ascii	"name\000"
 21273      00
ARM GAS  C:\Users\adrie\AppData\Local\Temp\cc7EdWgE.s 			page 407


 21274              	.LASF255:
 21275 264e 62696E61 		.ascii	"binary_semaphore_t\000"
 21275      72795F73 
 21275      656D6170 
 21275      686F7265 
 21275      5F7400
 21276              	.LASF993:
 21277 2661 7472616E 		.ascii	"transition2\000"
 21277      73697469 
 21277      6F6E3200 
 21278              	.LASF763:
 21279 266d 5F666C6F 		.ascii	"_flock_t\000"
 21279      636B5F74 
 21279      00
 21280              	.LASF82:
 21281 2676 76697274 		.ascii	"virtual_timers_list_t\000"
 21281      75616C5F 
 21281      74696D65 
 21281      72735F6C 
 21281      6973745F 
 21282              	.LASF968:
 21283 268c 6765745F 		.ascii	"get_distance_cm\000"
 21283      64697374 
 21283      616E6365 
 21283      5F636D00 
 21284              	.LASF658:
 21285 269c 72657376 		.ascii	"resvd40C\000"
 21285      64343043 
 21285      00
 21286              	.LASF358:
 21287 26a5 63697263 		.ascii	"circular\000"
 21287      756C6172 
 21287      00
 21288              	.LASF492:
 21289 26ae 69327373 		.ascii	"i2sstate_t\000"
 21289      74617465 
 21289      5F7400
 21290              	.LASF315:
 21291 26b9 6D6F6465 		.ascii	"moder\000"
 21291      7200
 21292              	.LASF918:
 21293 26bf 52494748 		.ascii	"RIGHT_CMPLX_INPUT\000"
 21293      545F434D 
 21293      504C585F 
 21293      494E5055 
 21293      5400
 21294              	.LASF225:
 21295 26d1 735F7175 		.ascii	"s_queue\000"
 21295      65756500 
 21296              	.LASF214:
 21297 26d9 6D5F6372 		.ascii	"m_crit_thd\000"
 21297      69745F74 
 21297      686400
 21298              	.LASF390:
 21299 26e4 4441435F 		.ascii	"DAC_STOP\000"
 21299      53544F50 
 21299      00
ARM GAS  C:\Users\adrie\AppData\Local\Temp\cc7EdWgE.s 			page 408


 21300              	.LASF665:
 21301 26ed 72657376 		.ascii	"resvd700\000"
 21301      64373030 
 21301      00
 21302              	.LASF187:
 21303 26f6 49325343 		.ascii	"I2SCFGR\000"
 21303      46475200 
 21304              	.LASF728:
 21305 26fe 75736270 		.ascii	"usbp\000"
 21305      00
 21306              	.LASF768:
 21307 2703 6F707469 		.ascii	"optind\000"
 21307      6E6400
 21308              	.LASF233:
 21309 270a 63685F69 		.ascii	"ch_identifier\000"
 21309      64656E74 
 21309      69666965 
 21309      7200
 21310              	.LASF532:
 21311 2718 77726974 		.ascii	"writet\000"
 21311      657400
 21312              	.LASF962:
 21313 271f 66726571 		.ascii	"frequence_max\000"
 21313      75656E63 
 21313      655F6D61 
 21313      7800
 21314              	.LASF3:
 21315 272d 6C6F6E67 		.ascii	"long long int\000"
 21315      206C6F6E 
 21315      6720696E 
 21315      7400
 21316              	.LASF652:
 21317 273b 48505458 		.ascii	"HPTXFSIZ\000"
 21317      4653495A 
 21317      00
 21318              	.LASF751:
 21319 2744 7472616E 		.ascii	"transfer_complete_cb\000"
 21319      73666572 
 21319      5F636F6D 
 21319      706C6574 
 21319      655F6362 
 21320              	.LASF240:
 21321 2759 63665F6F 		.ascii	"cf_off_prio\000"
 21321      66665F70 
 21321      72696F00 
 21322              	.LASF833:
 21323 2765 5F666C61 		.ascii	"_flags2\000"
 21323      67733200 
 21324              	.LASF883:
 21325 276d 5F6E6578 		.ascii	"_nextf\000"
 21325      746600
 21326              	.LASF1006:
 21327 2774 6D6F7965 		.ascii	"moyenne_front\000"
 21327      6E6E655F 
 21327      66726F6E 
 21327      7400
 21328              	.LASF211:
ARM GAS  C:\Users\adrie\AppData\Local\Temp\cc7EdWgE.s 			page 409


 21329 2782 74696D65 		.ascii	"time_measurement_t\000"
 21329      5F6D6561 
 21329      73757265 
 21329      6D656E74 
 21329      5F7400
 21330              	.LASF1015:
 21331 2795 63685654 		.ascii	"chVTGetSystemTime\000"
 21331      47657453 
 21331      79737465 
 21331      6D54696D 
 21331      6500
 21332              	.LASF553:
 21333 27a7 6765745F 		.ascii	"get_info\000"
 21333      696E666F 
 21333      00
 21334              	.LASF345:
 21335 27b0 61646365 		.ascii	"adcerror_t\000"
 21335      72726F72 
 21335      5F7400
 21336              	.LASF1040:
 21337 27bb 636C6561 		.ascii	"clear_leds\000"
 21337      725F6C65 
 21337      647300
 21338              	.LASF718:
 21339 27c6 6765745F 		.ascii	"get_descriptor_cb\000"
 21339      64657363 
 21339      72697074 
 21339      6F725F63 
 21339      6200
 21340              	.LASF842:
 21341 27d8 5F6C6F63 		.ascii	"_locale\000"
 21341      616C6500 
 21342              	.LASF34:
 21343 27e0 6576656E 		.ascii	"eventflags_t\000"
 21343      74666C61 
 21343      67735F74 
 21343      00
 21344              	.LASF557:
 21345 27ed 5350495F 		.ascii	"SPI_READY\000"
 21345      52454144 
 21345      5900
 21346              	.LASF253:
 21347 27f7 73656D61 		.ascii	"semaphore_t\000"
 21347      70686F72 
 21347      655F7400 
 21348              	.LASF128:
 21349 2803 73464946 		.ascii	"sFIFOMailBox\000"
 21349      4F4D6169 
 21349      6C426F78 
 21349      00
 21350              	.LASF545:
 21351 2810 6275735F 		.ascii	"bus_width\000"
 21351      77696474 
 21351      6800
 21352              	.LASF953:
 21353 281a 6D696352 		.ascii	"micRight_output\000"
 21353      69676874 
ARM GAS  C:\Users\adrie\AppData\Local\Temp\cc7EdWgE.s 			page 410


 21353      5F6F7574 
 21353      70757400 
 21354              	.LASF149:
 21355 282a 44485238 		.ascii	"DHR8RD\000"
 21355      524400
 21356              	.LASF667:
 21357 2831 4443544C 		.ascii	"DCTL\000"
 21357      00
 21358              	.LASF547:
 21359 2836 53444344 		.ascii	"SDCDriverVMT\000"
 21359      72697665 
 21359      72564D54 
 21359      00
 21360              	.LASF1016:
 21361 2843 73797374 		.ascii	"systime\000"
 21361      696D6500 
 21362              	.LASF693:
 21363 284b 74786275 		.ascii	"txbuf\000"
 21363      6600
 21364              	.LASF686:
 21365 2851 50434743 		.ascii	"PCGCCTL\000"
 21365      43544C00 
 21366              	.LASF604:
 21367 2859 5553425F 		.ascii	"USB_EVENT_WAKEUP\000"
 21367      4556454E 
 21367      545F5741 
 21367      4B455550 
 21367      00
 21368              	.LASF870:
 21369 286a 5F723438 		.ascii	"_r48\000"
 21369      00
 21370              	.LASF1022:
 21371 286f 5F5F7365 		.ascii	"__set_BASEPRI\000"
 21371      745F4241 
 21371      53455052 
 21371      4900
 21372              	.LASF44:
 21373 287d 705F6F6C 		.ascii	"p_older\000"
 21373      64657200 
 21374              	.LASF299:
 21375 2885 424C4B5F 		.ascii	"BLK_SYNCING\000"
 21375      53594E43 
 21375      494E4700 
 21376              	.LASF330:
 21377 2891 50494461 		.ascii	"PIData\000"
 21377      746100
 21378              	.LASF715:
 21379 2898 73657475 		.ascii	"setup_buf\000"
 21379      705F6275 
 21379      6600
 21380              	.LASF455:
 21381 28a2 47505444 		.ascii	"GPTD6\000"
 21381      3600
 21382              	.LASF734:
 21383 28a8 44434D49 		.ascii	"DCMI_ERR_DMAFAILURE\000"
 21383      5F455252 
 21383      5F444D41 
ARM GAS  C:\Users\adrie\AppData\Local\Temp\cc7EdWgE.s 			page 411


 21383      4641494C 
 21383      55524500 
 21384              	.LASF361:
 21385 28bc 6572726F 		.ascii	"error_cb\000"
 21385      725F6362 
 21385      00
 21386              	.LASF916:
 21387 28c5 6E6F726D 		.ascii	"norm\000"
 21387      00
 21388              	.LASF295:
 21389 28ca 424C4B5F 		.ascii	"BLK_DISCONNECTING\000"
 21389      44495343 
 21389      4F4E4E45 
 21389      4354494E 
 21389      4700
 21390              	.LASF563:
 21391 28dc 7373706F 		.ascii	"ssport\000"
 21391      727400
 21392              	.LASF904:
 21393 28e3 6275665F 		.ascii	"buf_len\000"
 21393      6C656E00 
 21394              	.LASF280:
 21395 28eb 42617365 		.ascii	"BaseSequentialStreamVMT\000"
 21395      53657175 
 21395      656E7469 
 21395      616C5374 
 21395      7265616D 
 21396              	.LASF60:
 21397 2903 74687265 		.ascii	"thread_reference_t\000"
 21397      61645F72 
 21397      65666572 
 21397      656E6365 
 21397      5F7400
 21398              	.LASF736:
 21399 2916 64636D69 		.ascii	"dcmierror_t\000"
 21399      6572726F 
 21399      725F7400 
 21400              	.LASF424:
 21401 2922 65787063 		.ascii	"expchannel_t\000"
 21401      68616E6E 
 21401      656C5F74 
 21401      00
 21402              	.LASF944:
 21403 292f 72656665 		.ascii	"reference\000"
 21403      72656E63 
 21403      6500
 21404              	.LASF569:
 21405 2939 72656365 		.ascii	"receiving\000"
 21405      6976696E 
 21405      6700
 21406              	.LASF896:
 21407 2943 70617261 		.ascii	"parameter_list\000"
 21407      6D657465 
 21407      725F6C69 
 21407      737400
 21408              	.LASF856:
 21409 2952 5F5F4649 		.ascii	"__FILE\000"
ARM GAS  C:\Users\adrie\AppData\Local\Temp\cc7EdWgE.s 			page 412


 21409      4C4500
 21410              	.LASF1030:
 21411 2959 63685468 		.ascii	"chThdSleepUntilWindowed\000"
 21411      64536C65 
 21411      6570556E 
 21411      74696C57 
 21411      696E646F 
 21412              	.LASF451:
 21413 2971 66726571 		.ascii	"frequency\000"
 21413      75656E63 
 21413      7900
 21414              	.LASF1025:
 21415 297b 5F737461 		.ascii	"_stats_start_measure_crit_thd\000"
 21415      74735F73 
 21415      74617274 
 21415      5F6D6561 
 21415      73757265 
 21416              	.LASF206:
 21417 2999 746D5F63 		.ascii	"tm_calibration_t\000"
 21417      616C6962 
 21417      72617469 
 21417      6F6E5F74 
 21417      00
 21418              	.LASF712:
 21419 29aa 696E5F73 		.ascii	"in_state\000"
 21419      74617465 
 21419      00
 21420              	.LASF190:
 21421 29b3 47545052 		.ascii	"GTPR\000"
 21421      00
 21422              	.LASF1001:
 21423 29b8 6E6F726D 		.ascii	"norm_left\000"
 21423      5F6C6566 
 21423      7400
 21424              	.LASF234:
 21425 29c2 63685F7A 		.ascii	"ch_zero\000"
 21425      65726F00 
 21426              	.LASF472:
 21427 29ca 46415354 		.ascii	"FAST_DUTY_CYCLE_2\000"
 21427      5F445554 
 21427      595F4359 
 21427      434C455F 
 21427      3200
 21428              	.LASF178:
 21429 29dc 44435452 		.ascii	"DCTRL\000"
 21429      4C00
 21430              	.LASF239:
 21431 29e2 63685F74 		.ascii	"ch_threadsize\000"
 21431      68726561 
 21431      6473697A 
 21431      6500
 21432              	.LASF167:
 21433 29f0 464C5452 		.ascii	"FLTR\000"
 21433      00
 21434              	.LASF1037:
 21435 29f5 646F4646 		.ascii	"doFFT_optimized\000"
 21435      545F6F70 
ARM GAS  C:\Users\adrie\AppData\Local\Temp\cc7EdWgE.s 			page 413


 21435      74696D69 
 21435      7A656400 
 21436              	.LASF935:
 21437 2a05 5F5F6664 		.ascii	"__fdlib_version\000"
 21437      6C69625F 
 21437      76657273 
 21437      696F6E00 
 21438              	.LASF442:
 21439 2a15 43434D52 		.ascii	"CCMR1\000"
 21439      3100
 21440              	.LASF443:
 21441 2a1b 43434D52 		.ascii	"CCMR2\000"
 21441      3200
 21442              	.LASF447:
 21443 2a21 43434D52 		.ascii	"CCMR3\000"
 21443      3300
 21444              	.LASF2:
 21445 2a27 756E7369 		.ascii	"unsigned int\000"
 21445      676E6564 
 21445      20696E74 
 21445      00
 21446              	.LASF365:
 21447 2a34 73717232 		.ascii	"sqr2\000"
 21447      00
 21448              	.LASF366:
 21449 2a39 73717233 		.ascii	"sqr3\000"
 21449      00
 21450              	.LASF746:
 21451 2a3e 44434D49 		.ascii	"DCMIDriver\000"
 21451      44726976 
 21451      657200
 21452              	.LASF656:
 21453 2a49 48464952 		.ascii	"HFIR\000"
 21453      00
 21454              	.LASF752:
 21455 2a4e 44434D49 		.ascii	"DCMIConfig\000"
 21455      436F6E66 
 21455      696700
 21456              	.LASF1046:
 21457 2a59 70695F72 		.ascii	"pi_regulator_start\000"
 21457      6567756C 
 21457      61746F72 
 21457      5F737461 
 21457      727400
 21458              	.LASF586:
 21459 2a6c 5553425F 		.ascii	"USB_UNINIT\000"
 21459      554E494E 
 21459      495400
 21460              	.LASF284:
 21461 2a77 73747265 		.ascii	"stream\000"
 21461      616D00
 21462              	.LASF368:
 21463 2a7e 64756D6D 		.ascii	"dummy\000"
 21463      7900
 21464              	.LASF470:
 21465 2a84 6932636F 		.ascii	"i2copmode_t\000"
 21465      706D6F64 
ARM GAS  C:\Users\adrie\AppData\Local\Temp\cc7EdWgE.s 			page 414


 21465      655F7400 
 21466              	.LASF963:
 21467 2a90 70756973 		.ascii	"puissance_source\000"
 21467      73616E63 
 21467      655F736F 
 21467      75726365 
 21467      00
 21468              	.LASF254:
 21469 2aa1 62735F73 		.ascii	"bs_sem\000"
 21469      656D00
 21470              	.LASF156:
 21471 2aa8 45535552 		.ascii	"ESUR\000"
 21471      00
 21472              	.LASF258:
 21473 2aad 6576656E 		.ascii	"event_listener\000"
 21473      745F6C69 
 21473      7374656E 
 21473      657200
 21474              	.LASF862:
 21475 2abc 5F6D756C 		.ascii	"_mult\000"
 21475      7400
 21476              	.LASF10:
 21477 2ac2 73686F72 		.ascii	"short int\000"
 21477      7420696E 
 21477      7400
 21478              	.LASF610:
 21479 2acc 75736263 		.ascii	"usbcallback_t\000"
 21479      616C6C62 
 21479      61636B5F 
 21479      7400
 21480              	.LASF822:
 21481 2ada 5F726561 		.ascii	"_read\000"
 21481      6400
 21482              	.LASF1024:
 21483 2ae0 73717274 		.ascii	"sqrt\000"
 21483      00
 21484              	.LASF639:
 21485 2ae5 47555342 		.ascii	"GUSBCFG\000"
 21485      43464700 
 21486              	.LASF191:
 21487 2aed 55534152 		.ascii	"USART_TypeDef\000"
 21487      545F5479 
 21487      70654465 
 21487      6600
 21488              	.LASF279:
 21489 2afb 6F757470 		.ascii	"output_queue_t\000"
 21489      75745F71 
 21489      75657565 
 21489      5F7400
 21490              	.LASF860:
 21491 2b0a 5F72616E 		.ascii	"_rand48\000"
 21491      64343800 
 21492              	.LASF688:
 21493 2b12 73746D33 		.ascii	"stm32_otg_t\000"
 21493      325F6F74 
 21493      675F7400 
 21494              	.LASF805:
ARM GAS  C:\Users\adrie\AppData\Local\Temp\cc7EdWgE.s 			page 415


 21495 2b1e 5F5F746D 		.ascii	"__tm_isdst\000"
 21495      5F697364 
 21495      737400
 21496              	.LASF493:
 21497 2b29 49325344 		.ascii	"I2SDriver\000"
 21497      72697665 
 21497      7200
 21498              	.LASF477:
 21499 2b33 64757479 		.ascii	"duty_cycle\000"
 21499      5F637963 
 21499      6C6500
 21500              	.LASF500:
 21501 2b3e 49325343 		.ascii	"I2SConfig\000"
 21501      6F6E6669 
 21501      6700
 21502              	.LASF607:
 21503 2b48 75645F73 		.ascii	"ud_size\000"
 21503      697A6500 
 21504              	.LASF1033:
 21505 2b50 63685365 		.ascii	"chSemWait\000"
 21505      6D576169 
 21505      7400
 21506              	.LASF986:
 21507 2b5a 6D757374 		.ascii	"mustSend\000"
 21507      53656E64 
 21507      00
 21508              	.LASF710:
 21509 2b63 696E5F6D 		.ascii	"in_maxsize\000"
 21509      61787369 
 21509      7A6500
 21510              	.LASF764:
 21511 2b6e 5F5F7661 		.ascii	"__va_list\000"
 21511      5F6C6973 
 21511      7400
 21512              	.LASF327:
 21513 2b78 50464461 		.ascii	"PFData\000"
 21513      746100
 21514              	.LASF420:
 21515 2b7f 4558545F 		.ascii	"EXT_STOP\000"
 21515      53544F50 
 21515      00
 21516              	.LASF47:
 21517 2b88 705F7374 		.ascii	"p_state\000"
 21517      61746500 
 21518              	.LASF501:
 21519 2b90 49325344 		.ascii	"I2SD2\000"
 21519      3200
 21520              	.LASF548:
 21521 2b96 69735F69 		.ascii	"is_inserted\000"
 21521      6E736572 
 21521      74656400 
 21522              	.LASF63:
 21523 2ba2 63685F74 		.ascii	"ch_threads_list\000"
 21523      68726561 
 21523      64735F6C 
 21523      69737400 
 21524              	.LASF179:
ARM GAS  C:\Users\adrie\AppData\Local\Temp\cc7EdWgE.s 			page 416


 21525 2bb2 44434F55 		.ascii	"DCOUNT\000"
 21525      4E5400
 21526              	.LASF164:
 21527 2bb9 4F415231 		.ascii	"OAR1\000"
 21527      00
 21528              	.LASF165:
 21529 2bbe 4F415232 		.ascii	"OAR2\000"
 21529      00
 21530              	.LASF59:
 21531 2bc3 705F7374 		.ascii	"p_stats\000"
 21531      61747300 
 21532              	.LASF591:
 21533 2bcb 75736273 		.ascii	"usbstate_t\000"
 21533      74617465 
 21533      5F7400
 21534              		.ident	"GCC: (GNU Tools for Arm Embedded Processors 7-2017-q4-major) 7.2.1 20170904 (release) [ARM
ARM GAS  C:\Users\adrie\AppData\Local\Temp\cc7EdWgE.s 			page 417


DEFINED SYMBOLS
                            *ABS*:00000000 audio_processing.c
C:\Users\adrie\AppData\Local\Temp\cc7EdWgE.s:18     .text.get_max_norm_index.part.0:00000000 $t
C:\Users\adrie\AppData\Local\Temp\cc7EdWgE.s:25     .text.get_max_norm_index.part.0:00000000 get_max_norm_index.part.0
C:\Users\adrie\AppData\Local\Temp\cc7EdWgE.s:178    .text.get_max_norm_index.part.0:000000ac $d
C:\Users\adrie\AppData\Local\Temp\cc7EdWgE.s:3250   .bss.micBack_output:00000000 micBack_output
C:\Users\adrie\AppData\Local\Temp\cc7EdWgE.s:3262   .bss.micFront_output:00000000 micFront_output
C:\Users\adrie\AppData\Local\Temp\cc7EdWgE.s:186    .text.chprintf.constprop.2:00000000 $t
C:\Users\adrie\AppData\Local\Temp\cc7EdWgE.s:193    .text.chprintf.constprop.2:00000000 chprintf.constprop.2
C:\Users\adrie\AppData\Local\Temp\cc7EdWgE.s:259    .text.chprintf.constprop.2:00000030 $d
C:\Users\adrie\AppData\Local\Temp\cc7EdWgE.s:270    .text.PiRegulator:00000000 $t
C:\Users\adrie\AppData\Local\Temp\cc7EdWgE.s:277    .text.PiRegulator:00000000 PiRegulator
C:\Users\adrie\AppData\Local\Temp\cc7EdWgE.s:740    .text.PiRegulator:000001d8 $d
C:\Users\adrie\AppData\Local\Temp\cc7EdWgE.s:765    .text.sound_remote:00000000 $t
C:\Users\adrie\AppData\Local\Temp\cc7EdWgE.s:773    .text.sound_remote:00000000 sound_remote
C:\Users\adrie\AppData\Local\Temp\cc7EdWgE.s:918    .text.sound_remote:000000b4 $d
C:\Users\adrie\AppData\Local\Temp\cc7EdWgE.s:925    .text.calcul_distance:00000000 $t
C:\Users\adrie\AppData\Local\Temp\cc7EdWgE.s:933    .text.calcul_distance:00000000 calcul_distance
C:\Users\adrie\AppData\Local\Temp\cc7EdWgE.s:1009   .text.calcul_distance:00000058 $d
C:\Users\adrie\AppData\Local\Temp\cc7EdWgE.s:1017   .text.calcul_angle:00000000 $t
C:\Users\adrie\AppData\Local\Temp\cc7EdWgE.s:1025   .text.calcul_angle:00000000 calcul_angle
C:\Users\adrie\AppData\Local\Temp\cc7EdWgE.s:1328   .text.calcul_angle:00000198 $d
C:\Users\adrie\AppData\Local\Temp\cc7EdWgE.s:1335   .text.calcul_moyenne:00000000 $t
C:\Users\adrie\AppData\Local\Temp\cc7EdWgE.s:1343   .text.calcul_moyenne:00000000 calcul_moyenne
C:\Users\adrie\AppData\Local\Temp\cc7EdWgE.s:1409   .text.calcul_moyenne:00000038 $d
C:\Users\adrie\AppData\Local\Temp\cc7EdWgE.s:1416   .text.update_moyenne:00000000 $t
C:\Users\adrie\AppData\Local\Temp\cc7EdWgE.s:1424   .text.update_moyenne:00000000 update_moyenne
C:\Users\adrie\AppData\Local\Temp\cc7EdWgE.s:1488   .text.update_moyenne:0000003c $d
C:\Users\adrie\AppData\Local\Temp\cc7EdWgE.s:1494   .text.max_norm:00000000 $t
C:\Users\adrie\AppData\Local\Temp\cc7EdWgE.s:1502   .text.max_norm:00000000 max_norm
C:\Users\adrie\AppData\Local\Temp\cc7EdWgE.s:1585   .text.max_norm:0000005c $d
C:\Users\adrie\AppData\Local\Temp\cc7EdWgE.s:1591   .text.wait_send_to_computer:00000000 $t
C:\Users\adrie\AppData\Local\Temp\cc7EdWgE.s:1599   .text.wait_send_to_computer:00000000 wait_send_to_computer
C:\Users\adrie\AppData\Local\Temp\cc7EdWgE.s:1646   .text.wait_send_to_computer:00000024 $d
C:\Users\adrie\AppData\Local\Temp\cc7EdWgE.s:1654   .text.get_max_norm_index:00000000 $t
C:\Users\adrie\AppData\Local\Temp\cc7EdWgE.s:1662   .text.get_max_norm_index:00000000 get_max_norm_index
C:\Users\adrie\AppData\Local\Temp\cc7EdWgE.s:1814   .text.get_max_norm_index:000000b0 $d
C:\Users\adrie\AppData\Local\Temp\cc7EdWgE.s:3286   .bss.micRight_output:00000000 micRight_output
C:\Users\adrie\AppData\Local\Temp\cc7EdWgE.s:3274   .bss.micLeft_output:00000000 micLeft_output
C:\Users\adrie\AppData\Local\Temp\cc7EdWgE.s:1822   .text.get_audio_buffer_ptr:00000000 $t
C:\Users\adrie\AppData\Local\Temp\cc7EdWgE.s:1830   .text.get_audio_buffer_ptr:00000000 get_audio_buffer_ptr
C:\Users\adrie\AppData\Local\Temp\cc7EdWgE.s:1936   .text.get_audio_buffer_ptr:0000005c $d
C:\Users\adrie\AppData\Local\Temp\cc7EdWgE.s:3268   .bss.micLeft_cmplx_input:00000000 micLeft_cmplx_input
C:\Users\adrie\AppData\Local\Temp\cc7EdWgE.s:3280   .bss.micRight_cmplx_input:00000000 micRight_cmplx_input
C:\Users\adrie\AppData\Local\Temp\cc7EdWgE.s:3244   .bss.micBack_cmplx_input:00000000 micBack_cmplx_input
C:\Users\adrie\AppData\Local\Temp\cc7EdWgE.s:3256   .bss.micFront_cmplx_input:00000000 micFront_cmplx_input
C:\Users\adrie\AppData\Local\Temp\cc7EdWgE.s:1949   .text.led_direction:00000000 $t
C:\Users\adrie\AppData\Local\Temp\cc7EdWgE.s:1957   .text.led_direction:00000000 led_direction
C:\Users\adrie\AppData\Local\Temp\cc7EdWgE.s:2105   .text.led_direction:00000084 $d
C:\Users\adrie\AppData\Local\Temp\cc7EdWgE.s:2110   .text.processAudioData:00000000 $t
C:\Users\adrie\AppData\Local\Temp\cc7EdWgE.s:2118   .text.processAudioData:00000000 processAudioData
C:\Users\adrie\AppData\Local\Temp\cc7EdWgE.s:2790   .text.processAudioData:000002c8 $d
C:\Users\adrie\AppData\Local\Temp\cc7EdWgE.s:2813   .text.echantillone_distance:00000000 $t
C:\Users\adrie\AppData\Local\Temp\cc7EdWgE.s:2821   .text.echantillone_distance:00000000 echantillone_distance
C:\Users\adrie\AppData\Local\Temp\cc7EdWgE.s:2854   .text.echantillone_distance:0000001c $d
C:\Users\adrie\AppData\Local\Temp\cc7EdWgE.s:2859   .text.get_max_front_moyenne:00000000 $t
C:\Users\adrie\AppData\Local\Temp\cc7EdWgE.s:2867   .text.get_max_front_moyenne:00000000 get_max_front_moyenne
ARM GAS  C:\Users\adrie\AppData\Local\Temp\cc7EdWgE.s 			page 418


C:\Users\adrie\AppData\Local\Temp\cc7EdWgE.s:2949   .text.get_max_front_moyenne:00000030 $d
C:\Users\adrie\AppData\Local\Temp\cc7EdWgE.s:2956   .text.get_line_position:00000000 $t
C:\Users\adrie\AppData\Local\Temp\cc7EdWgE.s:2964   .text.get_line_position:00000000 get_line_position
C:\Users\adrie\AppData\Local\Temp\cc7EdWgE.s:3002   .text.get_line_position:00000020 $d
C:\Users\adrie\AppData\Local\Temp\cc7EdWgE.s:3008   .text.get_distance_cm:00000000 $t
C:\Users\adrie\AppData\Local\Temp\cc7EdWgE.s:3016   .text.get_distance_cm:00000000 get_distance_cm
C:\Users\adrie\AppData\Local\Temp\cc7EdWgE.s:3049   .text.get_distance_cm:00000020 $d
C:\Users\adrie\AppData\Local\Temp\cc7EdWgE.s:3055   .text.pi_regulator:00000000 $t
C:\Users\adrie\AppData\Local\Temp\cc7EdWgE.s:3063   .text.pi_regulator:00000000 pi_regulator
C:\Users\adrie\AppData\Local\Temp\cc7EdWgE.s:3160   .text.pi_regulator:00000090 $d
C:\Users\adrie\AppData\Local\Temp\cc7EdWgE.s:3172   .text.pi_regulator_start:00000000 $t
C:\Users\adrie\AppData\Local\Temp\cc7EdWgE.s:3180   .text.pi_regulator_start:00000000 pi_regulator_start
C:\Users\adrie\AppData\Local\Temp\cc7EdWgE.s:3227   .text.pi_regulator_start:0000002c $d
C:\Users\adrie\AppData\Local\Temp\cc7EdWgE.s:3234   .bss.angle:00000000 $d
C:\Users\adrie\AppData\Local\Temp\cc7EdWgE.s:3238   .bss.angle:00000000 angle
C:\Users\adrie\AppData\Local\Temp\cc7EdWgE.s:3241   .bss.micBack_cmplx_input:00000000 $d
C:\Users\adrie\AppData\Local\Temp\cc7EdWgE.s:3247   .bss.micBack_output:00000000 $d
C:\Users\adrie\AppData\Local\Temp\cc7EdWgE.s:3253   .bss.micFront_cmplx_input:00000000 $d
C:\Users\adrie\AppData\Local\Temp\cc7EdWgE.s:3259   .bss.micFront_output:00000000 $d
C:\Users\adrie\AppData\Local\Temp\cc7EdWgE.s:3265   .bss.micLeft_cmplx_input:00000000 $d
C:\Users\adrie\AppData\Local\Temp\cc7EdWgE.s:3271   .bss.micLeft_output:00000000 $d
C:\Users\adrie\AppData\Local\Temp\cc7EdWgE.s:3277   .bss.micRight_cmplx_input:00000000 $d
C:\Users\adrie\AppData\Local\Temp\cc7EdWgE.s:3283   .bss.micRight_output:00000000 $d
C:\Users\adrie\AppData\Local\Temp\cc7EdWgE.s:3289   .bss.moyenne:00000000 $d
C:\Users\adrie\AppData\Local\Temp\cc7EdWgE.s:3293   .bss.moyenne:00000000 moyenne
C:\Users\adrie\AppData\Local\Temp\cc7EdWgE.s:3299   .bss.mustSend.14256:00000000 mustSend.14256
C:\Users\adrie\AppData\Local\Temp\cc7EdWgE.s:3300   .bss.mustSend.14256:00000000 $d
C:\Users\adrie\AppData\Local\Temp\cc7EdWgE.s:3302   .bss.nb_samples.14255:00000000 $d
C:\Users\adrie\AppData\Local\Temp\cc7EdWgE.s:3306   .bss.nb_samples.14255:00000000 nb_samples.14255
C:\Users\adrie\AppData\Local\Temp\cc7EdWgE.s:3309   .bss.nbr_passage:00000000 $d
C:\Users\adrie\AppData\Local\Temp\cc7EdWgE.s:3313   .bss.nbr_passage:00000000 nbr_passage
C:\Users\adrie\AppData\Local\Temp\cc7EdWgE.s:3316   .bss.sum_error.14346:00000000 $d
C:\Users\adrie\AppData\Local\Temp\cc7EdWgE.s:3320   .bss.sum_error.14346:00000000 sum_error.14346
C:\Users\adrie\AppData\Local\Temp\cc7EdWgE.s:3323   .bss.waPiRegulator:00000000 $d
C:\Users\adrie\AppData\Local\Temp\cc7EdWgE.s:3327   .bss.waPiRegulator:00000000 waPiRegulator
C:\Users\adrie\AppData\Local\Temp\cc7EdWgE.s:3330   .data.sendToComputer_sem:00000000 $d
C:\Users\adrie\AppData\Local\Temp\cc7EdWgE.s:3334   .data.sendToComputer_sem:00000000 sendToComputer_sem
C:\Users\adrie\AppData\Local\Temp\cc7EdWgE.s:3339   .rodata.__FUNCTION__.14351:00000000 $d
C:\Users\adrie\AppData\Local\Temp\cc7EdWgE.s:3343   .rodata.__FUNCTION__.14351:00000000 __FUNCTION__.14351
C:\Users\adrie\AppData\Local\Temp\cc7EdWgE.s:3346   .rodata.__func__.7153:00000000 $d
C:\Users\adrie\AppData\Local\Temp\cc7EdWgE.s:3350   .rodata.__func__.7153:00000000 __func__.7153
C:\Users\adrie\AppData\Local\Temp\cc7EdWgE.s:3353   .rodata.chprintf.constprop.2.str1.4:00000000 $d

UNDEFINED SYMBOLS
__stack_chk_fail
__stack_chk_guard
chvprintf
SDU1
__aeabi_i2d
__aeabi_dmul
__aeabi_ddiv
__aeabi_d2f
sqrt
chThdSleepUntilWindowed
_stats_start_measure_crit_thd
_dbg_check_lock
_dbg_check_unlock
ARM GAS  C:\Users\adrie\AppData\Local\Temp\cc7EdWgE.s 			page 419


_stats_stop_measure_crit_thd
chSysHalt
left_motor_set_speed
right_motor_set_speed
ch
chSemWait
clear_leds
set_led
doFFT_optimized
arm_cmplx_mag_f32
chDbgCheckClassI
chSchRescheduleS
chSemSignalI
chThdCreateStatic
