ARM GAS  C:\Users\JEANCO~1\AppData\Local\Temp\ccab5ud3.s 			page 1


   1              		.cpu cortex-m4
   2              		.eabi_attribute 27, 1
   3              		.eabi_attribute 28, 1
   4              		.eabi_attribute 20, 1
   5              		.eabi_attribute 21, 1
   6              		.eabi_attribute 23, 3
   7              		.eabi_attribute 24, 1
   8              		.eabi_attribute 25, 1
   9              		.eabi_attribute 26, 1
  10              		.eabi_attribute 30, 2
  11              		.eabi_attribute 34, 1
  12              		.eabi_attribute 18, 4
  13              		.file	"capture_ir.c"
  14              		.text
  15              	.Ltext0:
  16              		.cfi_sections	.debug_frame
  17              		.section	.text.Capture_ir,"ax",%progbits
  18              		.align	1
  19              		.p2align 4,,15
  20              		.syntax unified
  21              		.thumb
  22              		.thumb_func
  23              		.fpu fpv4-sp-d16
  24              		.type	Capture_ir, %function
  25              	Capture_ir:
  26              	.LFB257:
  27              		.file 1 "capture_ir.c"
  28              		.loc 1 26 0
  29              		.cfi_startproc
  30              		@ args = 0, pretend = 0, frame = 8
  31              		@ frame_needed = 0, uses_anonymous_args = 0
  32              	.LVL0:
  33 0000 2DE9F047 		push	{r4, r5, r6, r7, r8, r9, r10, lr}
  34              		.cfi_def_cfa_offset 32
  35              		.cfi_offset 4, -32
  36              		.cfi_offset 5, -28
  37              		.cfi_offset 6, -24
  38              		.cfi_offset 7, -20
  39              		.cfi_offset 8, -16
  40              		.cfi_offset 9, -12
  41              		.cfi_offset 10, -8
  42              		.cfi_offset 14, -4
  43              	.LBB52:
  44              	.LBB53:
  45              		.file 2 "../lib/e-puck2_main-processor/ChibiOS//os/rt/include/chregistry.h"
  46              		.loc 2 135 0
  47 0004 1E4E     		ldr	r6, .L11
  48              	.LBE53:
  49              	.LBE52:
  50              		.loc 1 26 0
  51 0006 1F4B     		ldr	r3, .L11+4
  52              	.LBB56:
  53              	.LBB54:
  54              		.loc 2 135 0
  55 0008 B269     		ldr	r2, [r6, #24]
  56 000a 1F49     		ldr	r1, .L11+8
  57              	.LBE54:
ARM GAS  C:\Users\JEANCO~1\AppData\Local\Temp\ccab5ud3.s 			page 2


  58              	.LBE56:
  59              		.loc 1 26 0
  60 000c 1B68     		ldr	r3, [r3]
  61 000e 1F4D     		ldr	r5, .L11+12
  62              	.LBB57:
  63              	.LBB58:
  64              	.LBB59:
  65              	.LBB60:
  66              	.LBB61:
  67              		.file 3 "../lib/e-puck2_main-processor/ChibiOS//os/rt/include/chsys.h"
  68              		.loc 3 367 0
  69 0010 DFF87CA0 		ldr	r10, .L11+16
  70              	.LBE61:
  71              	.LBE60:
  72              	.LBE59:
  73              	.LBE58:
  74              	.LBE57:
  75              	.LBB89:
  76              	.LBB55:
  77              		.loc 2 135 0
  78 0014 9161     		str	r1, [r2, #24]
  79              	.LBE55:
  80              	.LBE89:
  81              		.loc 1 26 0
  82 0016 82B0     		sub	sp, sp, #8
  83              		.cfi_def_cfa_offset 40
  84              	.LBB90:
  85              	.LBB86:
  86              	.LBB84:
  87              	.LBB70:
  88              	.LBB71:
  89              	.LBB72:
  90              	.LBB73:
  91              	.LBB74:
  92              		.file 4 "../lib/e-puck2_main-processor/ChibiOS//os/ext/CMSIS/include/core_cmFunc.h"
  93              		.loc 4 546 0
  94 0018 4FF02009 		mov	r9, #32
  95              	.LBE74:
  96              	.LBE73:
  97              	.LBE72:
  98              	.LBE71:
  99              	.LBE70:
 100              	.LBE84:
 101              	.LBE86:
 102              	.LBE90:
 103              		.loc 1 26 0
 104 001c 0193     		str	r3, [sp, #4]
 105              	.LVL1:
 106              	.LBB91:
 107              	.LBB87:
 108              	.LBB85:
 109              	.LBB79:
 110              	.LBB68:
 111              	.LBB62:
 112              	.LBB63:
 113              	.LBB64:
 114              		.loc 4 546 0
ARM GAS  C:\Users\JEANCO~1\AppData\Local\Temp\ccab5ud3.s 			page 3


 115 001e 4FF00008 		mov	r8, #0
 116              	.LVL2:
 117              	.L6:
 118              	.LBE64:
 119              	.LBE63:
 120              	.LBE62:
 121              	.LBE68:
 122              	.LBE79:
 123              	.LBB80:
 124              	.LBB78:
 125              	.LBB77:
 126              	.LBB76:
 127              	.LBB75:
 128              		.syntax unified
 129              	@ 546 "../lib/e-puck2_main-processor/ChibiOS//os/ext/CMSIS/include/core_cmFunc.h" 1
 130 0022 89F31188 		MSR basepri, r9
 131              	@ 0 "" 2
 132              	.LVL3:
 133              		.thumb
 134              		.syntax unified
 135              	.LBE75:
 136              	.LBE76:
 137              	.LBE77:
 138              		.loc 3 349 0
 139 0026 FFF7FEFF 		bl	_stats_start_measure_crit_thd
 140              	.LVL4:
 141              		.loc 3 350 0
 142 002a FFF7FEFF 		bl	_dbg_check_lock
 143              	.LVL5:
 144              	.LBE78:
 145              	.LBE80:
 146              	.LBB81:
 147              	.LBB82:
 148              		.file 5 "../lib/e-puck2_main-processor/ChibiOS//os/rt/include/chvt.h"
 149              		.loc 5 231 0
 150 002e B76A     		ldr	r7, [r6, #40]
 151              	.LBE82:
 152              	.LBE81:
 153              	.LBB83:
 154              	.LBB69:
 155              		.loc 3 360 0
 156 0030 FFF7FEFF 		bl	_dbg_check_unlock
 157              	.LVL6:
 158              		.loc 3 361 0
 159 0034 FFF7FEFF 		bl	_stats_stop_measure_crit_thd
 160              	.LVL7:
 161              		.loc 3 367 0
 162 0038 3368     		ldr	r3, [r6]
 163 003a B342     		cmp	r3, r6
 164 003c 07D0     		beq	.L2
 165 003e B269     		ldr	r2, [r6, #24]
 166 0040 9B68     		ldr	r3, [r3, #8]
 167 0042 9268     		ldr	r2, [r2, #8]
 168 0044 9A42     		cmp	r2, r3
 169 0046 02D2     		bcs	.L2
 170 0048 5046     		mov	r0, r10
 171 004a FFF7FEFF 		bl	chSysHalt
ARM GAS  C:\Users\JEANCO~1\AppData\Local\Temp\ccab5ud3.s 			page 4


 172              	.LVL8:
 173              	.L2:
 174              	.LBB67:
 175              	.LBB66:
 176              	.LBB65:
 177              		.loc 4 546 0
 178              		.syntax unified
 179              	@ 546 "../lib/e-puck2_main-processor/ChibiOS//os/ext/CMSIS/include/core_cmFunc.h" 1
 180 004e 88F31188 		MSR basepri, r8
 181              	@ 0 "" 2
 182              	.LVL9:
 183              		.thumb
 184              		.syntax unified
 185              	.LBE65:
 186              	.LBE66:
 187              	.LBE67:
 188              	.LBE69:
 189              	.LBE83:
 190              	.LBE85:
 191              	.LBE87:
 192              		.loc 1 37 0
 193 0052 4FF47A70 		mov	r0, #1000
 194 0056 FFF7FEFF 		bl	chThdSleep
 195              	.LVL10:
 196 005a 0024     		movs	r4, #0
 197              	.LVL11:
 198              	.L5:
 199              	.LBB88:
 200              		.loc 1 41 0
 201 005c 2046     		mov	r0, r4
 202 005e FFF7FEFF 		bl	get_prox
 203              	.LVL12:
 204              		.loc 1 42 0
 205 0062 0028     		cmp	r0, #0
 206              		.loc 1 43 0
 207 0064 B8BF     		it	lt
 208 0066 4042     		rsblt	r0, r0, #0
 209              	.LVL13:
 210              		.loc 1 45 0
 211 0068 45F82400 		str	r0, [r5, r4, lsl #2]
 212              	.LVL14:
 213 006c 0134     		adds	r4, r4, #1
 214              	.LVL15:
 215              		.loc 1 40 0
 216 006e 092C     		cmp	r4, #9
 217 0070 F4D1     		bne	.L5
 218              	.LBE88:
 219              		.loc 1 49 0
 220 0072 07F11401 		add	r1, r7, #20
 221 0076 3846     		mov	r0, r7
 222 0078 FFF7FEFF 		bl	chThdSleepUntilWindowed
 223              	.LVL16:
 224              	.LBE91:
 225              		.loc 1 33 0
 226 007c D1E7     		b	.L6
 227              	.L12:
 228 007e 00BF     		.align	2
ARM GAS  C:\Users\JEANCO~1\AppData\Local\Temp\ccab5ud3.s 			page 5


 229              	.L11:
 230 0080 00000000 		.word	ch
 231 0084 00000000 		.word	__stack_chk_guard
 232 0088 00000000 		.word	.LANCHOR0
 233 008c 00000000 		.word	.LANCHOR2
 234 0090 00000000 		.word	.LANCHOR1
 235              		.cfi_endproc
 236              	.LFE257:
 237              		.size	Capture_ir, .-Capture_ir
 238              		.section	.text.get_proxy_buffer_ptr,"ax",%progbits
 239              		.align	1
 240              		.p2align 4,,15
 241              		.global	get_proxy_buffer_ptr
 242              		.syntax unified
 243              		.thumb
 244              		.thumb_func
 245              		.fpu fpv4-sp-d16
 246              		.type	get_proxy_buffer_ptr, %function
 247              	get_proxy_buffer_ptr:
 248              	.LFB258:
 249              		.loc 1 54 0
 250              		.cfi_startproc
 251              		@ args = 0, pretend = 0, frame = 8
 252              		@ frame_needed = 0, uses_anonymous_args = 0
 253 0000 00B5     		push	{lr}
 254              		.cfi_def_cfa_offset 4
 255              		.cfi_offset 14, -4
 256 0002 074B     		ldr	r3, .L17
 257 0004 83B0     		sub	sp, sp, #12
 258              		.cfi_def_cfa_offset 16
 259              		.loc 1 54 0
 260 0006 1A68     		ldr	r2, [r3]
 261 0008 0192     		str	r2, [sp, #4]
 262              		.loc 1 56 0
 263 000a 019A     		ldr	r2, [sp, #4]
 264 000c 1B68     		ldr	r3, [r3]
 265 000e 9A42     		cmp	r2, r3
 266 0010 03D1     		bne	.L16
 267 0012 0448     		ldr	r0, .L17+4
 268 0014 03B0     		add	sp, sp, #12
 269              		.cfi_remember_state
 270              		.cfi_def_cfa_offset 4
 271              		@ sp needed
 272 0016 5DF804FB 		ldr	pc, [sp], #4
 273              	.L16:
 274              		.cfi_restore_state
 275 001a FFF7FEFF 		bl	__stack_chk_fail
 276              	.LVL17:
 277              	.L18:
 278 001e 00BF     		.align	2
 279              	.L17:
 280 0020 00000000 		.word	__stack_chk_guard
 281 0024 00000000 		.word	.LANCHOR2
 282              		.cfi_endproc
 283              	.LFE258:
 284              		.size	get_proxy_buffer_ptr, .-get_proxy_buffer_ptr
 285              		.section	.text.capture_ir_start,"ax",%progbits
ARM GAS  C:\Users\JEANCO~1\AppData\Local\Temp\ccab5ud3.s 			page 6


 286              		.align	1
 287              		.p2align 4,,15
 288              		.global	capture_ir_start
 289              		.syntax unified
 290              		.thumb
 291              		.thumb_func
 292              		.fpu fpv4-sp-d16
 293              		.type	capture_ir_start, %function
 294              	capture_ir_start:
 295              	.LFB259:
 296              		.loc 1 59 0
 297              		.cfi_startproc
 298              		@ args = 0, pretend = 0, frame = 8
 299              		@ frame_needed = 0, uses_anonymous_args = 0
 300 0000 10B5     		push	{r4, lr}
 301              		.cfi_def_cfa_offset 8
 302              		.cfi_offset 4, -8
 303              		.cfi_offset 14, -4
 304 0002 0A4C     		ldr	r4, .L23
 305              		.loc 1 60 0
 306 0004 0A4B     		ldr	r3, .L23+4
 307              		.loc 1 59 0
 308 0006 2268     		ldr	r2, [r4]
 309              		.loc 1 60 0
 310 0008 0A48     		ldr	r0, .L23+8
 311              		.loc 1 59 0
 312 000a 84B0     		sub	sp, sp, #16
 313              		.cfi_def_cfa_offset 24
 314              		.loc 1 60 0
 315 000c 4FF41E71 		mov	r1, #632
 316              		.loc 1 59 0
 317 0010 0392     		str	r2, [sp, #12]
 318              		.loc 1 60 0
 319 0012 0022     		movs	r2, #0
 320 0014 0092     		str	r2, [sp]
 321 0016 4022     		movs	r2, #64
 322 0018 FFF7FEFF 		bl	chThdCreateStatic
 323              	.LVL18:
 324              		.loc 1 61 0
 325 001c 039A     		ldr	r2, [sp, #12]
 326 001e 2368     		ldr	r3, [r4]
 327 0020 9A42     		cmp	r2, r3
 328 0022 01D1     		bne	.L22
 329 0024 04B0     		add	sp, sp, #16
 330              		.cfi_remember_state
 331              		.cfi_def_cfa_offset 8
 332              		@ sp needed
 333 0026 10BD     		pop	{r4, pc}
 334              	.L22:
 335              		.cfi_restore_state
 336 0028 FFF7FEFF 		bl	__stack_chk_fail
 337              	.LVL19:
 338              	.L24:
 339              		.align	2
 340              	.L23:
 341 002c 00000000 		.word	__stack_chk_guard
 342 0030 00000000 		.word	Capture_ir
ARM GAS  C:\Users\JEANCO~1\AppData\Local\Temp\ccab5ud3.s 			page 7


 343 0034 00000000 		.word	.LANCHOR3
 344              		.cfi_endproc
 345              	.LFE259:
 346              		.size	capture_ir_start, .-capture_ir_start
 347              		.section	.bss.buffer_proxy,"aw",%nobits
 348              		.align	2
 349              		.set	.LANCHOR2,. + 0
 350              		.type	buffer_proxy, %object
 351              		.size	buffer_proxy, 32
 352              	buffer_proxy:
 353 0000 00000000 		.space	32
 353      00000000 
 353      00000000 
 353      00000000 
 353      00000000 
 354              		.section	.bss.waCapture_ir,"aw",%nobits
 355              		.align	3
 356              		.set	.LANCHOR3,. + 0
 357              		.type	waCapture_ir, %object
 358              		.size	waCapture_ir, 632
 359              	waCapture_ir:
 360 0000 00000000 		.space	632
 360      00000000 
 360      00000000 
 360      00000000 
 360      00000000 
 361              		.section	.rodata.__FUNCTION__.11926,"a",%progbits
 362              		.align	2
 363              		.set	.LANCHOR0,. + 0
 364              		.type	__FUNCTION__.11926, %object
 365              		.size	__FUNCTION__.11926, 11
 366              	__FUNCTION__.11926:
 367 0000 43617074 		.ascii	"Capture_ir\000"
 367      7572655F 
 367      697200
 368              		.section	.rodata.__func__.7153,"a",%progbits
 369              		.align	2
 370              		.set	.LANCHOR1,. + 0
 371              		.type	__func__.7153, %object
 372              		.size	__func__.7153, 12
 373              	__func__.7153:
 374 0000 63685379 		.ascii	"chSysUnlock\000"
 374      73556E6C 
 374      6F636B00 
 375              		.text
 376              	.Letext0:
 377              		.file 6 "c:\\robotique\\eclipse_e-puck2\\tools\\gcc-arm-none-eabi-7-2017-q4-major-win32\\lib\\gcc\
 378              		.file 7 "c:\\robotique\\eclipse_e-puck2\\tools\\gcc-arm-none-eabi-7-2017-q4-major-win32\\arm-none-
 379              		.file 8 "c:\\robotique\\eclipse_e-puck2\\tools\\gcc-arm-none-eabi-7-2017-q4-major-win32\\arm-none-
 380              		.file 9 "../lib/e-puck2_main-processor/ChibiOS//os/rt/ports/ARMCMx/compilers/GCC/chtypes.h"
 381              		.file 10 "../lib/e-puck2_main-processor/ChibiOS//os/rt/include/chsystypes.h"
 382              		.file 11 "../lib/e-puck2_main-processor/ChibiOS//os/rt/include/chschd.h"
 383              		.file 12 "../lib/e-puck2_main-processor/ChibiOS//os/ext/CMSIS/include/core_cm4.h"
 384              		.file 13 "../lib/e-puck2_main-processor/ChibiOS//os/ext/CMSIS/ST/system_stm32f4xx.h"
 385              		.file 14 "../lib/e-puck2_main-processor/ChibiOS//os/ext/CMSIS/ST/stm32f407xx.h"
 386              		.file 15 "../lib/e-puck2_main-processor/ChibiOS//os/rt/ports/ARMCMx/chcore.h"
 387              		.file 16 "../lib/e-puck2_main-processor/ChibiOS//os/rt/ports/ARMCMx/chcore_v7m.h"
ARM GAS  C:\Users\JEANCO~1\AppData\Local\Temp\ccab5ud3.s 			page 8


 388              		.file 17 "../lib/e-puck2_main-processor/ChibiOS//os/rt/include/chdebug.h"
 389              		.file 18 "../lib/e-puck2_main-processor/ChibiOS//os/rt/include/chtm.h"
 390              		.file 19 "../lib/e-puck2_main-processor/ChibiOS//os/rt/include/chstats.h"
 391              		.file 20 "../lib/e-puck2_main-processor/ChibiOS//os/rt/include/chsem.h"
 392              		.file 21 "../lib/e-puck2_main-processor/ChibiOS//os/rt/include/chmtx.h"
 393              		.file 22 "../lib/e-puck2_main-processor/ChibiOS//os/rt/include/chevents.h"
 394              		.file 23 "../lib/e-puck2_main-processor/ChibiOS//os/rt/include/chqueues.h"
 395              		.file 24 "../lib/e-puck2_main-processor/ChibiOS//os/hal/ports/STM32/STM32F4xx/stm32_dma.h"
 396              		.file 25 "../lib/e-puck2_main-processor/ChibiOS//os/hal/include/hal_ioblock.h"
 397              		.file 26 "../lib/e-puck2_main-processor/ChibiOS//os/hal/ports/STM32/LLD/GPIOv2/pal_lld.h"
 398              		.file 27 "../lib/e-puck2_main-processor/ChibiOS//os/hal/include/adc.h"
 399              		.file 28 "../lib/e-puck2_main-processor/ChibiOS//os/hal/ports/STM32/STM32F4xx/adc_lld.h"
 400              		.file 29 "../lib/e-puck2_main-processor/ChibiOS//os/hal/include/can.h"
 401              		.file 30 "../lib/e-puck2_main-processor/ChibiOS//os/hal/ports/STM32/LLD/can_lld.h"
 402              		.file 31 "../lib/e-puck2_main-processor/ChibiOS//os/hal/include/dac.h"
 403              		.file 32 "../lib/e-puck2_main-processor/ChibiOS//os/hal/ports/STM32/LLD/DACv1/dac_lld.h"
 404              		.file 33 "../lib/e-puck2_main-processor/ChibiOS//os/hal/include/ext.h"
 405              		.file 34 "../lib/e-puck2_main-processor/ChibiOS//os/hal/ports/STM32/LLD/ext_lld.h"
 406              		.file 35 "../lib/e-puck2_main-processor/ChibiOS//os/hal/include/gpt.h"
 407              		.file 36 "../lib/e-puck2_main-processor/ChibiOS//os/hal/ports/STM32/LLD/TIMv1/gpt_lld.h"
 408              		.file 37 "../lib/e-puck2_main-processor/ChibiOS//os/hal/ports/STM32/LLD/TIMv1/stm32_tim.h"
 409              		.file 38 "../lib/e-puck2_main-processor/ChibiOS//os/hal/include/i2c.h"
 410              		.file 39 "../lib/e-puck2_main-processor/ChibiOS//os/hal/ports/STM32/LLD/I2Cv1/i2c_lld.h"
 411              		.file 40 "../lib/e-puck2_main-processor/ChibiOS//os/hal/include/i2s.h"
 412              		.file 41 "../lib/e-puck2_main-processor/ChibiOS//os/hal/ports/STM32/LLD/SPIv1/i2s_lld.h"
 413              		.file 42 "../lib/e-puck2_main-processor/ChibiOS//os/hal/include/pwm.h"
 414              		.file 43 "../lib/e-puck2_main-processor/ChibiOS//os/hal/ports/STM32/LLD/TIMv1/pwm_lld.h"
 415              		.file 44 "../lib/e-puck2_main-processor/ChibiOS//os/hal/include/serial.h"
 416              		.file 45 "../lib/e-puck2_main-processor/ChibiOS//os/hal/ports/STM32/LLD/USARTv1/serial_lld.h"
 417              		.file 46 "../lib/e-puck2_main-processor/ChibiOS//os/hal/include/sdc.h"
 418              		.file 47 "../lib/e-puck2_main-processor/ChibiOS//os/hal/ports/STM32/LLD/sdc_lld.h"
 419              		.file 48 "../lib/e-puck2_main-processor/ChibiOS//os/hal/include/spi.h"
 420              		.file 49 "../lib/e-puck2_main-processor/ChibiOS//os/hal/ports/STM32/LLD/SPIv1/spi_lld.h"
 421              		.file 50 "../lib/e-puck2_main-processor/ChibiOS//os/hal/include/usb.h"
 422              		.file 51 "../lib/e-puck2_main-processor/ChibiOS//os/hal/ports/STM32/LLD/OTGv1/usb_lld.h"
 423              		.file 52 "../lib/e-puck2_main-processor/ChibiOS//os/hal/ports/STM32/LLD/OTGv1/stm32_otg.h"
 424              		.file 53 "../lib/e-puck2_main-processor/ChibiOS//os/hal/include/serial_usb.h"
 425              		.file 54 "c:\\robotique\\eclipse_e-puck2\\tools\\gcc-arm-none-eabi-7-2017-q4-major-win32\\arm-none
 426              		.file 55 "c:\\robotique\\eclipse_e-puck2\\tools\\gcc-arm-none-eabi-7-2017-q4-major-win32\\arm-none
 427              		.file 56 "c:\\robotique\\eclipse_e-puck2\\tools\\gcc-arm-none-eabi-7-2017-q4-major-win32\\arm-none
 428              		.file 57 "c:\\robotique\\eclipse_e-puck2\\tools\\gcc-arm-none-eabi-7-2017-q4-major-win32\\arm-none
 429              		.file 58 "../lib/e-puck2_main-processor/src/usbcfg.h"
 430              		.file 59 "c:\\robotique\\lib\\e-puck2_main-processor\\chibios_ext\\os\\hal\\ports\\stm32\\stm32f4x
 431              		.file 60 "c:\\robotique\\eclipse_e-puck2\\tools\\gcc-arm-none-eabi-7-2017-q4-major-win32\\arm-none
 432              		.file 61 "../lib/e-puck2_main-processor/src/msgbus/messagebus.h"
 433              		.file 62 "c:\\robotique\\eclipse_e-puck2\\tools\\gcc-arm-none-eabi-7-2017-q4-major-win32\\arm-none
 434              		.file 63 "../lib/e-puck2_main-processor/src/parameter/parameter.h"
 435              		.file 64 "./main.h"
 436              		.file 65 "../lib/e-puck2_main-processor/ChibiOS//os/rt/include/chthreads.h"
 437              		.file 66 "../lib/e-puck2_main-processor/src/sensors/proximity.h"