ARM GAS  C:\Users\JEANCO~1\AppData\Local\Temp\cc3jp2X7.s 			page 1


   1              		.cpu cortex-m4
   2              		.eabi_attribute 27, 1
   3              		.eabi_attribute 28, 1
   4              		.eabi_attribute 20, 1
   5              		.eabi_attribute 21, 1
   6              		.eabi_attribute 23, 3
   7              		.eabi_attribute 24, 1
   8              		.eabi_attribute 25, 1
   9              		.eabi_attribute 26, 1
  10              		.eabi_attribute 30, 2
  11              		.eabi_attribute 34, 1
  12              		.eabi_attribute 18, 4
  13              		.file	"main.c"
  14              		.text
  15              	.Ltext0:
  16              		.cfi_sections	.debug_frame
  17              		.section	.text.startup.main,"ax",%progbits
  18              		.align	1
  19              		.p2align 4,,15
  20              		.global	main
  21              		.syntax unified
  22              		.thumb
  23              		.thumb_func
  24              		.fpu fpv4-sp-d16
  25              		.type	main, %function
  26              	main:
  27              	.LFB295:
  28              		.file 1 "main.c"
  29              		.loc 1 63 0
  30              		.cfi_startproc
  31              		@ Volatile: function does not return.
  32              		@ args = 0, pretend = 0, frame = 8
  33              		@ frame_needed = 0, uses_anonymous_args = 0
  34 0000 00B5     		push	{lr}
  35              		.cfi_def_cfa_offset 4
  36              		.cfi_offset 14, -4
  37 0002 174B     		ldr	r3, .L6
  38 0004 83B0     		sub	sp, sp, #12
  39              		.cfi_def_cfa_offset 16
  40              		.loc 1 63 0
  41 0006 1B68     		ldr	r3, [r3]
  42 0008 0193     		str	r3, [sp, #4]
  43              		.loc 1 64 0
  44 000a FFF7FEFF 		bl	halInit
  45              	.LVL0:
  46              		.loc 1 65 0
  47 000e FFF7FEFF 		bl	chSysInit
  48              	.LVL1:
  49              		.loc 1 66 0
  50 0012 FFF7FEFF 		bl	mpu_init
  51              	.LVL2:
  52              		.loc 1 68 0
  53 0016 134A     		ldr	r2, .L6+4
  54 0018 1349     		ldr	r1, .L6+8
  55 001a 1448     		ldr	r0, .L6+12
  56 001c FFF7FEFF 		bl	messagebus_init
  57              	.LVL3:
ARM GAS  C:\Users\JEANCO~1\AppData\Local\Temp\cc3jp2X7.s 			page 2


  58              	.LBB8:
  59              	.LBB9:
  60              		.loc 1 43 0
  61 0020 1349     		ldr	r1, .L6+16
  62 0022 1448     		ldr	r0, .L6+20
  63 0024 FFF7FEFF 		bl	sdStart
  64              	.LVL4:
  65              	.LBE9:
  66              	.LBE8:
  67              		.loc 1 72 0
  68 0028 FFF7FEFF 		bl	usb_start
  69              	.LVL5:
  70              	.LBB10:
  71              	.LBB11:
  72              		.loc 1 57 0
  73 002c 1249     		ldr	r1, .L6+24
  74 002e 1348     		ldr	r0, .L6+28
  75 0030 FFF7FEFF 		bl	gptStart
  76              	.LVL6:
  77              		.loc 1 59 0
  78 0034 1148     		ldr	r0, .L6+28
  79 0036 4FF6FF71 		movw	r1, #65535
  80 003a FFF7FEFF 		bl	gptStartContinuous
  81              	.LVL7:
  82              	.LBE11:
  83              	.LBE10:
  84              		.loc 1 77 0
  85 003e FFF7FEFF 		bl	motors_init
  86              	.LVL8:
  87              		.loc 1 80 0
  88 0042 FFF7FEFF 		bl	pi_regulator_start
  89              	.LVL9:
  90              		.loc 1 83 0
  91 0046 FFF7FEFF 		bl	proximity_start
  92              	.LVL10:
  93              		.loc 1 86 0
  94 004a FFF7FEFF 		bl	calibrate_ir
  95              	.LVL11:
  96              		.loc 1 89 0
  97 004e FFF7FEFF 		bl	capture_ir_start
  98              	.LVL12:
  99              		.loc 1 92 0
 100 0052 0B48     		ldr	r0, .L6+32
 101 0054 FFF7FEFF 		bl	mic_start
 102              	.LVL13:
 103              	.L2:
 104              		.loc 1 99 0 discriminator 1
 105 0058 FFF7FEFF 		bl	wait_send_to_computer
 106              	.LVL14:
 107 005c FCE7     		b	.L2
 108              	.L7:
 109 005e 00BF     		.align	2
 110              	.L6:
 111 0060 00000000 		.word	__stack_chk_guard
 112 0064 00000000 		.word	.LANCHOR0
 113 0068 00000000 		.word	.LANCHOR1
 114 006c 00000000 		.word	.LANCHOR2
ARM GAS  C:\Users\JEANCO~1\AppData\Local\Temp\cc3jp2X7.s 			page 3


 115 0070 00000000 		.word	.LANCHOR3
 116 0074 00000000 		.word	SD3
 117 0078 00000000 		.word	.LANCHOR4
 118 007c 00000000 		.word	GPTD12
 119 0080 00000000 		.word	processAudioData
 120              		.cfi_endproc
 121              	.LFE295:
 122              		.size	main, .-main
 123              		.section	.text.__stack_chk_fail,"ax",%progbits
 124              		.align	1
 125              		.p2align 4,,15
 126              		.global	__stack_chk_fail
 127              		.syntax unified
 128              		.thumb
 129              		.thumb_func
 130              		.fpu fpv4-sp-d16
 131              		.type	__stack_chk_fail, %function
 132              	__stack_chk_fail:
 133              	.LFB296:
 134              		.loc 1 108 0
 135              		.cfi_startproc
 136              		@ args = 0, pretend = 0, frame = 8
 137              		@ frame_needed = 0, uses_anonymous_args = 0
 138 0000 00B5     		push	{lr}
 139              		.cfi_def_cfa_offset 4
 140              		.cfi_offset 14, -4
 141 0002 084B     		ldr	r3, .L13
 142 0004 83B0     		sub	sp, sp, #12
 143              		.cfi_def_cfa_offset 16
 144              		.loc 1 108 0
 145 0006 1A68     		ldr	r2, [r3]
 146 0008 0192     		str	r2, [sp, #4]
 147              		.loc 1 109 0
 148 000a 019A     		ldr	r2, [sp, #4]
 149 000c 1B68     		ldr	r3, [r3]
 150 000e 9A42     		cmp	r2, r3
 151 0010 05D1     		bne	.L12
 152 0012 0548     		ldr	r0, .L13+4
 153              		.loc 1 110 0
 154 0014 03B0     		add	sp, sp, #12
 155              		.cfi_remember_state
 156              		.cfi_def_cfa_offset 4
 157              		@ sp needed
 158 0016 5DF804EB 		ldr	lr, [sp], #4
 159              		.cfi_restore 14
 160              		.cfi_def_cfa_offset 0
 161              		.loc 1 109 0
 162 001a FFF7FEBF 		b	chSysHalt
 163              	.LVL15:
 164              	.L12:
 165              		.cfi_restore_state
 166 001e FFF7FEFF 		bl	__stack_chk_fail
 167              	.LVL16:
 168              	.L14:
 169 0022 00BF     		.align	2
 170              	.L13:
 171 0024 00000000 		.word	__stack_chk_guard
ARM GAS  C:\Users\JEANCO~1\AppData\Local\Temp\cc3jp2X7.s 			page 4


 172 0028 00000000 		.word	.LC0
 173              		.cfi_endproc
 174              	.LFE296:
 175              		.size	__stack_chk_fail, .-__stack_chk_fail
 176              		.global	__stack_chk_guard
 177              		.global	bus_condvar
 178              		.global	bus_lock
 179              		.global	bus
 180              		.section	.bss.bus,"aw",%nobits
 181              		.align	2
 182              		.set	.LANCHOR2,. + 0
 183              		.type	bus, %object
 184              		.size	bus, 12
 185              	bus:
 186 0000 00000000 		.space	12
 186      00000000 
 186      00000000 
 187              		.section	.data.__stack_chk_guard,"aw",%progbits
 188              		.align	2
 189              		.type	__stack_chk_guard, %object
 190              		.size	__stack_chk_guard, 4
 191              	__stack_chk_guard:
 192 0000 96E3DEE2 		.word	-488709226
 193              		.section	.data.bus_condvar,"aw",%progbits
 194              		.align	2
 195              		.set	.LANCHOR0,. + 0
 196              		.type	bus_condvar, %object
 197              		.size	bus_condvar, 8
 198              	bus_condvar:
 199 0000 00000000 		.word	bus_condvar
 200 0004 00000000 		.word	bus_condvar
 201              		.section	.data.bus_lock,"aw",%progbits
 202              		.align	2
 203              		.set	.LANCHOR1,. + 0
 204              		.type	bus_lock, %object
 205              		.size	bus_lock, 20
 206              	bus_lock:
 207 0000 00000000 		.word	bus_lock
 208 0004 00000000 		.word	bus_lock
 209 0008 00000000 		.word	0
 210 000c 00000000 		.word	0
 211 0010 00000000 		.word	0
 212              		.section	.data.ser_cfg.15005,"aw",%progbits
 213              		.align	2
 214              		.set	.LANCHOR3,. + 0
 215              		.type	ser_cfg.15005, %object
 216              		.size	ser_cfg.15005, 12
 217              	ser_cfg.15005:
 218 0000 00C20100 		.word	115200
 219 0004 0000     		.short	0
 220 0006 0000     		.short	0
 221 0008 0000     		.short	0
 222 000a 0000     		.space	2
 223              		.section	.rodata.__stack_chk_fail.str1.4,"aMS",%progbits,1
 224              		.align	2
 225              	.LC0:
 226 0000 53746163 		.ascii	"Stack smashing detected\000"
ARM GAS  C:\Users\JEANCO~1\AppData\Local\Temp\cc3jp2X7.s 			page 5


 226      6B20736D 
 226      61736869 
 226      6E672064 
 226      65746563 
 227              		.section	.rodata.gpt12cfg.15009,"a",%progbits
 228              		.align	2
 229              		.set	.LANCHOR4,. + 0
 230              		.type	gpt12cfg.15009, %object
 231              		.size	gpt12cfg.15009, 16
 232              	gpt12cfg.15009:
 233 0000 40420F00 		.word	1000000
 234 0004 00000000 		.word	0
 235 0008 00000000 		.word	0
 236 000c 00000000 		.word	0
 237              		.text
 238              	.Letext0:
 239              		.file 2 "c:\\robotique\\eclipse_e-puck2\\tools\\gcc-arm-none-eabi-7-2017-q4-major-win32\\arm-none-
 240              		.file 3 "c:\\robotique\\eclipse_e-puck2\\tools\\gcc-arm-none-eabi-7-2017-q4-major-win32\\lib\\gcc\
 241              		.file 4 "c:\\robotique\\eclipse_e-puck2\\tools\\gcc-arm-none-eabi-7-2017-q4-major-win32\\arm-none-
 242              		.file 5 "c:\\robotique\\eclipse_e-puck2\\tools\\gcc-arm-none-eabi-7-2017-q4-major-win32\\arm-none-
 243              		.file 6 "c:\\robotique\\eclipse_e-puck2\\tools\\gcc-arm-none-eabi-7-2017-q4-major-win32\\arm-none-
 244              		.file 7 "c:\\robotique\\eclipse_e-puck2\\tools\\gcc-arm-none-eabi-7-2017-q4-major-win32\\arm-none-
 245              		.file 8 "c:\\robotique\\eclipse_e-puck2\\tools\\gcc-arm-none-eabi-7-2017-q4-major-win32\\arm-none-
 246              		.file 9 "../lib/e-puck2_main-processor/ChibiOS//os/rt/ports/ARMCMx/compilers/GCC/chtypes.h"
 247              		.file 10 "../lib/e-puck2_main-processor/ChibiOS//os/rt/include/chsystypes.h"
 248              		.file 11 "../lib/e-puck2_main-processor/ChibiOS//os/rt/include/chschd.h"
 249              		.file 12 "../lib/e-puck2_main-processor/ChibiOS//os/ext/CMSIS/include/core_cm4.h"
 250              		.file 13 "../lib/e-puck2_main-processor/ChibiOS//os/ext/CMSIS/ST/system_stm32f4xx.h"
 251              		.file 14 "../lib/e-puck2_main-processor/ChibiOS//os/ext/CMSIS/ST/stm32f407xx.h"
 252              		.file 15 "../lib/e-puck2_main-processor/ChibiOS//os/rt/ports/ARMCMx/chcore.h"
 253              		.file 16 "../lib/e-puck2_main-processor/ChibiOS//os/rt/ports/ARMCMx/chcore_v7m.h"
 254              		.file 17 "../lib/e-puck2_main-processor/ChibiOS//os/rt/include/chdebug.h"
 255              		.file 18 "../lib/e-puck2_main-processor/ChibiOS//os/rt/include/chtm.h"
 256              		.file 19 "../lib/e-puck2_main-processor/ChibiOS//os/rt/include/chstats.h"
 257              		.file 20 "../lib/e-puck2_main-processor/ChibiOS//os/rt/include/chsem.h"
 258              		.file 21 "../lib/e-puck2_main-processor/ChibiOS//os/rt/include/chmtx.h"
 259              		.file 22 "../lib/e-puck2_main-processor/ChibiOS//os/rt/include/chregistry.h"
 260              		.file 23 "../lib/e-puck2_main-processor/ChibiOS//os/rt/include/chcond.h"
 261              		.file 24 "../lib/e-puck2_main-processor/ChibiOS//os/rt/include/chevents.h"
 262              		.file 25 "../lib/e-puck2_main-processor/ChibiOS//os/rt/include/chqueues.h"
 263              		.file 26 "../lib/e-puck2_main-processor/ChibiOS//os/hal/ports/STM32/STM32F4xx/stm32_dma.h"
 264              		.file 27 "../lib/e-puck2_main-processor/ChibiOS//os/hal/include/hal_ioblock.h"
 265              		.file 28 "../lib/e-puck2_main-processor/ChibiOS//os/hal/ports/STM32/LLD/GPIOv2/pal_lld.h"
 266              		.file 29 "../lib/e-puck2_main-processor/ChibiOS//os/hal/include/adc.h"
 267              		.file 30 "../lib/e-puck2_main-processor/ChibiOS//os/hal/ports/STM32/STM32F4xx/adc_lld.h"
 268              		.file 31 "../lib/e-puck2_main-processor/ChibiOS//os/hal/include/can.h"
 269              		.file 32 "../lib/e-puck2_main-processor/ChibiOS//os/hal/ports/STM32/LLD/can_lld.h"
 270              		.file 33 "../lib/e-puck2_main-processor/ChibiOS//os/hal/include/dac.h"
 271              		.file 34 "../lib/e-puck2_main-processor/ChibiOS//os/hal/ports/STM32/LLD/DACv1/dac_lld.h"
 272              		.file 35 "../lib/e-puck2_main-processor/ChibiOS//os/hal/include/ext.h"
 273              		.file 36 "../lib/e-puck2_main-processor/ChibiOS//os/hal/ports/STM32/LLD/ext_lld.h"
 274              		.file 37 "../lib/e-puck2_main-processor/ChibiOS//os/hal/include/gpt.h"
 275              		.file 38 "../lib/e-puck2_main-processor/ChibiOS//os/hal/ports/STM32/LLD/TIMv1/gpt_lld.h"
 276              		.file 39 "../lib/e-puck2_main-processor/ChibiOS//os/hal/ports/STM32/LLD/TIMv1/stm32_tim.h"
 277              		.file 40 "../lib/e-puck2_main-processor/ChibiOS//os/hal/include/i2c.h"
 278              		.file 41 "../lib/e-puck2_main-processor/ChibiOS//os/hal/ports/STM32/LLD/I2Cv1/i2c_lld.h"
 279              		.file 42 "../lib/e-puck2_main-processor/ChibiOS//os/hal/include/i2s.h"
ARM GAS  C:\Users\JEANCO~1\AppData\Local\Temp\cc3jp2X7.s 			page 6


 280              		.file 43 "../lib/e-puck2_main-processor/ChibiOS//os/hal/ports/STM32/LLD/SPIv1/i2s_lld.h"
 281              		.file 44 "../lib/e-puck2_main-processor/ChibiOS//os/hal/include/pwm.h"
 282              		.file 45 "../lib/e-puck2_main-processor/ChibiOS//os/hal/ports/STM32/LLD/TIMv1/pwm_lld.h"
 283              		.file 46 "../lib/e-puck2_main-processor/ChibiOS//os/hal/include/serial.h"
 284              		.file 47 "../lib/e-puck2_main-processor/ChibiOS//os/hal/ports/STM32/LLD/USARTv1/serial_lld.h"
 285              		.file 48 "../lib/e-puck2_main-processor/ChibiOS//os/hal/include/sdc.h"
 286              		.file 49 "../lib/e-puck2_main-processor/ChibiOS//os/hal/ports/STM32/LLD/sdc_lld.h"
 287              		.file 50 "../lib/e-puck2_main-processor/ChibiOS//os/hal/include/spi.h"
 288              		.file 51 "../lib/e-puck2_main-processor/ChibiOS//os/hal/ports/STM32/LLD/SPIv1/spi_lld.h"
 289              		.file 52 "../lib/e-puck2_main-processor/ChibiOS//os/hal/include/usb.h"
 290              		.file 53 "../lib/e-puck2_main-processor/ChibiOS//os/hal/ports/STM32/LLD/OTGv1/usb_lld.h"
 291              		.file 54 "../lib/e-puck2_main-processor/ChibiOS//os/hal/ports/STM32/LLD/OTGv1/stm32_otg.h"
 292              		.file 55 "../lib/e-puck2_main-processor/ChibiOS//os/hal/include/serial_usb.h"
 293              		.file 56 "../lib/e-puck2_main-processor/src/usbcfg.h"
 294              		.file 57 "c:\\robotique\\lib\\e-puck2_main-processor\\chibios_ext\\os\\hal\\ports\\stm32\\stm32f4x
 295              		.file 58 "c:\\robotique\\eclipse_e-puck2\\tools\\gcc-arm-none-eabi-7-2017-q4-major-win32\\arm-none
 296              		.file 59 "../lib/e-puck2_main-processor/src/msgbus/messagebus.h"
 297              		.file 60 "../lib/e-puck2_main-processor/src/parameter/parameter.h"
 298              		.file 61 "./main.h"
 299              		.file 62 "c:\\robotique\\eclipse_e-puck2\\tools\\gcc-arm-none-eabi-7-2017-q4-major-win32\\arm-none
 300              		.file 63 "../lib/e-puck2_main-processor/ChibiOS//os/rt/include/chsys.h"
 301              		.file 64 "../lib/e-puck2_main-processor/ChibiOS//os/hal/include/hal.h"
 302              		.file 65 "../lib/e-puck2_main-processor/src/memory_protection.h"
 303              		.file 66 "../lib/e-puck2_main-processor/src/motors.h"
 304              		.file 67 "./pi_regulator.h"
 305              		.file 68 "../lib/e-puck2_main-processor/src/sensors/proximity.h"
 306              		.file 69 "./capture_ir.h"
 307              		.file 70 "../lib/e-puck2_main-processor/src/audio/microphone.h"
 308              		.file 71 "./audio_processing.h"